; Listing generated by Microsoft (R) Optimizing Compiler Version 19.00.24215.1 

	TITLE	S:\Chris\OneDrive - UAT\C++ Programming II\pete_final\pete_final\Company.cpp
	.686P
	.XMM
	include listing.inc
	.model	flat

INCLUDELIB MSVCRTD
INCLUDELIB OLDNAMES

PUBLIC	?__empty_global_delete@@YAXPAX@Z		; __empty_global_delete
PUBLIC	?__empty_global_delete@@YAXPAXI@Z		; __empty_global_delete
PUBLIC	??0exception@std@@QAE@QBDH@Z			; std::exception::exception
PUBLIC	??0exception@std@@QAE@ABV01@@Z			; std::exception::exception
PUBLIC	??1exception@std@@UAE@XZ			; std::exception::~exception
PUBLIC	?what@exception@std@@UBEPBDXZ			; std::exception::what
PUBLIC	??_Gexception@std@@UAEPAXI@Z			; std::exception::`scalar deleting destructor'
PUBLIC	??2@YAPAXIPAX@Z					; operator new
PUBLIC	?compare@?$char_traits@D@std@@SAHPBD0I@Z	; std::char_traits<char>::compare
PUBLIC	?length@?$char_traits@D@std@@SAIPBD@Z		; std::char_traits<char>::length
PUBLIC	?copy@?$char_traits@D@std@@SAPADPADPBDI@Z	; std::char_traits<char>::copy
PUBLIC	?move@?$char_traits@D@std@@SAPADPADPBDI@Z	; std::char_traits<char>::move
PUBLIC	?assign@?$char_traits@D@std@@SAPADPADID@Z	; std::char_traits<char>::assign
PUBLIC	?assign@?$char_traits@D@std@@SAXAADABD@Z	; std::char_traits<char>::assign
PUBLIC	?eq_int_type@?$char_traits@D@std@@SA_NABH0@Z	; std::char_traits<char>::eq_int_type
PUBLIC	?eof@?$char_traits@D@std@@SAHXZ			; std::char_traits<char>::eof
PUBLIC	??0_Container_proxy@std@@QAE@XZ			; std::_Container_proxy::_Container_proxy
PUBLIC	??0_Container_base12@std@@QAE@XZ		; std::_Container_base12::_Container_base12
PUBLIC	??1_Container_base12@std@@QAE@XZ		; std::_Container_base12::~_Container_base12
PUBLIC	?_Getpfirst@_Container_base12@std@@QBEPAPAU_Iterator_base12@2@XZ ; std::_Container_base12::_Getpfirst
PUBLIC	?_Orphan_all@_Container_base12@std@@QAEXXZ	; std::_Container_base12::_Orphan_all
PUBLIC	??0_Iterator_base12@std@@QAE@XZ			; std::_Iterator_base12::_Iterator_base12
PUBLIC	??0_Iterator_base12@std@@QAE@ABU01@@Z		; std::_Iterator_base12::_Iterator_base12
PUBLIC	??4_Iterator_base12@std@@QAEAAU01@ABU01@@Z	; std::_Iterator_base12::operator=
PUBLIC	??1_Iterator_base12@std@@QAE@XZ			; std::_Iterator_base12::~_Iterator_base12
PUBLIC	?_Adopt@_Iterator_base12@std@@QAEXPBU_Container_base12@2@@Z ; std::_Iterator_base12::_Adopt
PUBLIC	?_Clrcont@_Iterator_base12@std@@QAEXXZ		; std::_Iterator_base12::_Clrcont
PUBLIC	?_Getcont@_Iterator_base12@std@@QBEPBU_Container_base12@2@XZ ; std::_Iterator_base12::_Getcont
PUBLIC	?_Getpnext@_Iterator_base12@std@@QAEPAPAU12@XZ	; std::_Iterator_base12::_Getpnext
PUBLIC	?_Orphan_me@_Iterator_base12@std@@QAEXXZ	; std::_Iterator_base12::_Orphan_me
PUBLIC	?_Allocate@std@@YAPAXII_N@Z			; std::_Allocate
PUBLIC	?_Deallocate@std@@YAXPAXII@Z			; std::_Deallocate
PUBLIC	??0?$allocator@D@std@@QAE@XZ			; std::allocator<char>::allocator<char>
PUBLIC	??0?$allocator@D@std@@QAE@ABV01@@Z		; std::allocator<char>::allocator<char>
PUBLIC	?deallocate@?$allocator@D@std@@QAEXPADI@Z	; std::allocator<char>::deallocate
PUBLIC	?allocate@?$allocator@D@std@@QAEPADI@Z		; std::allocator<char>::allocate
PUBLIC	?max_size@?$allocator@D@std@@QBEIXZ		; std::allocator<char>::max_size
PUBLIC	?max_size@?$allocator_traits@V?$allocator@D@std@@@std@@SAIABV?$allocator@D@2@@Z ; std::allocator_traits<std::allocator<char> >::max_size
PUBLIC	?select_on_container_copy_construction@?$allocator_traits@V?$allocator@D@std@@@std@@SA?AV?$allocator@D@2@ABV32@@Z ; std::allocator_traits<std::allocator<char> >::select_on_container_copy_construction
PUBLIC	?select_on_container_copy_construction@?$_Wrap_alloc@V?$allocator@D@std@@@std@@QBE?AU12@U_Nil@2@@Z ; std::_Wrap_alloc<std::allocator<char> >::select_on_container_copy_construction
PUBLIC	?address@?$_Wrap_alloc@V?$allocator@D@std@@@std@@QBEPADAAD@Z ; std::_Wrap_alloc<std::allocator<char> >::address
PUBLIC	?address@?$_Wrap_alloc@V?$allocator@D@std@@@std@@QBEPBDABD@Z ; std::_Wrap_alloc<std::allocator<char> >::address
PUBLIC	??0?$_Wrap_alloc@V?$allocator@D@std@@@std@@QAE@XZ ; std::_Wrap_alloc<std::allocator<char> >::_Wrap_alloc<std::allocator<char> >
PUBLIC	??0?$_Wrap_alloc@V?$allocator@D@std@@@std@@QAE@$$QAU01@@Z ; std::_Wrap_alloc<std::allocator<char> >::_Wrap_alloc<std::allocator<char> >
PUBLIC	??4?$_Wrap_alloc@V?$allocator@D@std@@@std@@QAEAAU01@$$QAU01@@Z ; std::_Wrap_alloc<std::allocator<char> >::operator=
PUBLIC	?allocate@?$_Wrap_alloc@V?$allocator@D@std@@@std@@QAEPADI@Z ; std::_Wrap_alloc<std::allocator<char> >::allocate
PUBLIC	?deallocate@?$_Wrap_alloc@V?$allocator@D@std@@@std@@QAEXPADI@Z ; std::_Wrap_alloc<std::allocator<char> >::deallocate
PUBLIC	?max_size@?$_Wrap_alloc@V?$allocator@D@std@@@std@@QBEIU_Nil@2@@Z ; std::_Wrap_alloc<std::allocator<char> >::max_size
PUBLIC	??0?$_String_val@U?$_Simple_types@D@std@@@std@@QAE@XZ ; std::_String_val<std::_Simple_types<char> >::_String_val<std::_Simple_types<char> >
PUBLIC	?_Myptr@?$_String_val@U?$_Simple_types@D@std@@@std@@QAEPADXZ ; std::_String_val<std::_Simple_types<char> >::_Myptr
PUBLIC	?_Myptr@?$_String_val@U?$_Simple_types@D@std@@@std@@QBEPBDXZ ; std::_String_val<std::_Simple_types<char> >::_Myptr
PUBLIC	??0_Bxty@?$_String_val@U?$_Simple_types@D@std@@@std@@QAE@XZ ; std::_String_val<std::_Simple_types<char> >::_Bxty::_Bxty
PUBLIC	??1_Bxty@?$_String_val@U?$_Simple_types@D@std@@@std@@QAE@XZ ; std::_String_val<std::_Simple_types<char> >::_Bxty::~_Bxty
PUBLIC	??1?$_String_val@U?$_Simple_types@D@std@@@std@@QAE@XZ ; std::_String_val<std::_Simple_types<char> >::~_String_val<std::_Simple_types<char> >
PUBLIC	?_Myptr@?$_String_alloc@U?$_String_base_types@DV?$allocator@D@std@@@std@@@std@@QAEPADXZ ; std::_String_alloc<std::_String_base_types<char,std::allocator<char> > >::_Myptr
PUBLIC	?_Myptr@?$_String_alloc@U?$_String_base_types@DV?$allocator@D@std@@@std@@@std@@QBEPBDXZ ; std::_String_alloc<std::_String_base_types<char,std::allocator<char> > >::_Myptr
PUBLIC	??0?$_String_alloc@U?$_String_base_types@DV?$allocator@D@std@@@std@@@std@@QAE@XZ ; std::_String_alloc<std::_String_base_types<char,std::allocator<char> > >::_String_alloc<std::_String_base_types<char,std::allocator<char> > >
PUBLIC	??1?$_String_alloc@U?$_String_base_types@DV?$allocator@D@std@@@std@@@std@@QAE@XZ ; std::_String_alloc<std::_String_base_types<char,std::allocator<char> > >::~_String_alloc<std::_String_base_types<char,std::allocator<char> > >
PUBLIC	?_Move_alloc@?$_String_alloc@U?$_String_base_types@DV?$allocator@D@std@@@std@@@std@@QAEXAAU?$_Wrap_alloc@V?$allocator@D@std@@@2@@Z ; std::_String_alloc<std::_String_base_types<char,std::allocator<char> > >::_Move_alloc
PUBLIC	?_Alloc_proxy@?$_String_alloc@U?$_String_base_types@DV?$allocator@D@std@@@std@@@std@@QAEXXZ ; std::_String_alloc<std::_String_base_types<char,std::allocator<char> > >::_Alloc_proxy
PUBLIC	?_Free_proxy@?$_String_alloc@U?$_String_base_types@DV?$allocator@D@std@@@std@@@std@@QAEXXZ ; std::_String_alloc<std::_String_base_types<char,std::allocator<char> > >::_Free_proxy
PUBLIC	?_Myproxy@?$_String_alloc@U?$_String_base_types@DV?$allocator@D@std@@@std@@@std@@QAEAAPAU_Container_proxy@2@XZ ; std::_String_alloc<std::_String_base_types<char,std::allocator<char> > >::_Myproxy
PUBLIC	?_Orphan_all@?$_String_alloc@U?$_String_base_types@DV?$allocator@D@std@@@std@@@std@@QAEXXZ ; std::_String_alloc<std::_String_base_types<char,std::allocator<char> > >::_Orphan_all
PUBLIC	?_Getal@?$_String_alloc@U?$_String_base_types@DV?$allocator@D@std@@@std@@@std@@QAEAAU?$_Wrap_alloc@V?$allocator@D@std@@@2@XZ ; std::_String_alloc<std::_String_base_types<char,std::allocator<char> > >::_Getal
PUBLIC	?_Getal@?$_String_alloc@U?$_String_base_types@DV?$allocator@D@std@@@std@@@std@@QBEABU?$_Wrap_alloc@V?$allocator@D@std@@@2@XZ ; std::_String_alloc<std::_String_base_types<char,std::allocator<char> > >::_Getal
PUBLIC	?_Get_data@?$_String_alloc@U?$_String_base_types@DV?$allocator@D@std@@@std@@@std@@QAEAAV?$_String_val@U?$_Simple_types@D@std@@@2@XZ ; std::_String_alloc<std::_String_base_types<char,std::allocator<char> > >::_Get_data
PUBLIC	?_Get_data@?$_String_alloc@U?$_String_base_types@DV?$allocator@D@std@@@std@@@std@@QBEABV?$_String_val@U?$_Simple_types@D@std@@@2@XZ ; std::_String_alloc<std::_String_base_types<char,std::allocator<char> > >::_Get_data
PUBLIC	?_Bx@?$_String_alloc@U?$_String_base_types@DV?$allocator@D@std@@@std@@@std@@QAEAAT_Bxty@?$_String_val@U?$_Simple_types@D@std@@@2@XZ ; std::_String_alloc<std::_String_base_types<char,std::allocator<char> > >::_Bx
PUBLIC	?_Mysize@?$_String_alloc@U?$_String_base_types@DV?$allocator@D@std@@@std@@@std@@QAEAAIXZ ; std::_String_alloc<std::_String_base_types<char,std::allocator<char> > >::_Mysize
PUBLIC	?_Mysize@?$_String_alloc@U?$_String_base_types@DV?$allocator@D@std@@@std@@@std@@QBEABIXZ ; std::_String_alloc<std::_String_base_types<char,std::allocator<char> > >::_Mysize
PUBLIC	?_Myres@?$_String_alloc@U?$_String_base_types@DV?$allocator@D@std@@@std@@@std@@QAEAAIXZ ; std::_String_alloc<std::_String_base_types<char,std::allocator<char> > >::_Myres
PUBLIC	?_Get_first@?$_Compressed_pair@U?$_Wrap_alloc@V?$allocator@D@std@@@std@@V?$_String_val@U?$_Simple_types@D@std@@@2@$00@std@@QAEAAU?$_Wrap_alloc@V?$allocator@D@std@@@2@XZ ; std::_Compressed_pair<std::_Wrap_alloc<std::allocator<char> >,std::_String_val<std::_Simple_types<char> >,1>::_Get_first
PUBLIC	?_Get_first@?$_Compressed_pair@U?$_Wrap_alloc@V?$allocator@D@std@@@std@@V?$_String_val@U?$_Simple_types@D@std@@@2@$00@std@@QBEABU?$_Wrap_alloc@V?$allocator@D@std@@@2@XZ ; std::_Compressed_pair<std::_Wrap_alloc<std::allocator<char> >,std::_String_val<std::_Simple_types<char> >,1>::_Get_first
PUBLIC	?_Get_second@?$_Compressed_pair@U?$_Wrap_alloc@V?$allocator@D@std@@@std@@V?$_String_val@U?$_Simple_types@D@std@@@2@$00@std@@QAEAAV?$_String_val@U?$_Simple_types@D@std@@@2@XZ ; std::_Compressed_pair<std::_Wrap_alloc<std::allocator<char> >,std::_String_val<std::_Simple_types<char> >,1>::_Get_second
PUBLIC	?_Get_second@?$_Compressed_pair@U?$_Wrap_alloc@V?$allocator@D@std@@@std@@V?$_String_val@U?$_Simple_types@D@std@@@2@$00@std@@QBEABV?$_String_val@U?$_Simple_types@D@std@@@2@XZ ; std::_Compressed_pair<std::_Wrap_alloc<std::allocator<char> >,std::_String_val<std::_Simple_types<char> >,1>::_Get_second
PUBLIC	??1?$_Compressed_pair@U?$_Wrap_alloc@V?$allocator@D@std@@@std@@V?$_String_val@U?$_Simple_types@D@std@@@2@$00@std@@QAE@XZ ; std::_Compressed_pair<std::_Wrap_alloc<std::allocator<char> >,std::_String_val<std::_Simple_types<char> >,1>::~_Compressed_pair<std::_Wrap_alloc<std::allocator<char> >,std::_String_val<std::_Simple_types<char> >,1>
PUBLIC	??0?$basic_string@DU?$char_traits@D@std@@V?$allocator@D@2@@std@@QAE@ABV01@@Z ; std::basic_string<char,std::char_traits<char>,std::allocator<char> >::basic_string<char,std::char_traits<char>,std::allocator<char> >
PUBLIC	??0?$basic_string@DU?$char_traits@D@std@@V?$allocator@D@2@@std@@QAE@XZ ; std::basic_string<char,std::char_traits<char>,std::allocator<char> >::basic_string<char,std::char_traits<char>,std::allocator<char> >
PUBLIC	??0?$basic_string@DU?$char_traits@D@std@@V?$allocator@D@2@@std@@QAE@PBD@Z ; std::basic_string<char,std::char_traits<char>,std::allocator<char> >::basic_string<char,std::char_traits<char>,std::allocator<char> >
PUBLIC	??0?$basic_string@DU?$char_traits@D@std@@V?$allocator@D@2@@std@@QAE@$$QAV01@@Z ; std::basic_string<char,std::char_traits<char>,std::allocator<char> >::basic_string<char,std::char_traits<char>,std::allocator<char> >
PUBLIC	??4?$basic_string@DU?$char_traits@D@std@@V?$allocator@D@2@@std@@QAEAAV01@$$QAV01@@Z ; std::basic_string<char,std::char_traits<char>,std::allocator<char> >::operator=
PUBLIC	?_Assign_rv@?$basic_string@DU?$char_traits@D@std@@V?$allocator@D@2@@std@@QAEX$$QAV12@@Z ; std::basic_string<char,std::char_traits<char>,std::allocator<char> >::_Assign_rv
PUBLIC	??1?$basic_string@DU?$char_traits@D@std@@V?$allocator@D@2@@std@@QAE@XZ ; std::basic_string<char,std::char_traits<char>,std::allocator<char> >::~basic_string<char,std::char_traits<char>,std::allocator<char> >
PUBLIC	?append@?$basic_string@DU?$char_traits@D@std@@V?$allocator@D@2@@std@@QAEAAV12@ID@Z ; std::basic_string<char,std::char_traits<char>,std::allocator<char> >::append
PUBLIC	?assign@?$basic_string@DU?$char_traits@D@std@@V?$allocator@D@2@@std@@QAEAAV12@ABV12@II@Z ; std::basic_string<char,std::char_traits<char>,std::allocator<char> >::assign
PUBLIC	?assign@?$basic_string@DU?$char_traits@D@std@@V?$allocator@D@2@@std@@QAEAAV12@PBDI@Z ; std::basic_string<char,std::char_traits<char>,std::allocator<char> >::assign
PUBLIC	?assign@?$basic_string@DU?$char_traits@D@std@@V?$allocator@D@2@@std@@QAEAAV12@PBD@Z ; std::basic_string<char,std::char_traits<char>,std::allocator<char> >::assign
PUBLIC	?erase@?$basic_string@DU?$char_traits@D@std@@V?$allocator@D@2@@std@@QAEAAV12@I@Z ; std::basic_string<char,std::char_traits<char>,std::allocator<char> >::erase
PUBLIC	?erase@?$basic_string@DU?$char_traits@D@std@@V?$allocator@D@2@@std@@QAEAAV12@II@Z ; std::basic_string<char,std::char_traits<char>,std::allocator<char> >::erase
PUBLIC	?replace@?$basic_string@DU?$char_traits@D@std@@V?$allocator@D@2@@std@@QAEAAV12@IIABV12@II@Z ; std::basic_string<char,std::char_traits<char>,std::allocator<char> >::replace
PUBLIC	?replace@?$basic_string@DU?$char_traits@D@std@@V?$allocator@D@2@@std@@QAEAAV12@IIPBDI@Z ; std::basic_string<char,std::char_traits<char>,std::allocator<char> >::replace
PUBLIC	?replace@?$basic_string@DU?$char_traits@D@std@@V?$allocator@D@2@@std@@QAEAAV12@V?$_String_const_iterator@V?$_String_val@U?$_Simple_types@D@std@@@std@@@2@0V?$_String_iterator@V?$_String_val@U?$_Simple_types@D@std@@@std@@@2@1@Z ; std::basic_string<char,std::char_traits<char>,std::allocator<char> >::replace
PUBLIC	?begin@?$basic_string@DU?$char_traits@D@std@@V?$allocator@D@2@@std@@QAE?AV?$_String_iterator@V?$_String_val@U?$_Simple_types@D@std@@@std@@@2@XZ ; std::basic_string<char,std::char_traits<char>,std::allocator<char> >::begin
PUBLIC	?begin@?$basic_string@DU?$char_traits@D@std@@V?$allocator@D@2@@std@@QBE?AV?$_String_const_iterator@V?$_String_val@U?$_Simple_types@D@std@@@std@@@2@XZ ; std::basic_string<char,std::char_traits<char>,std::allocator<char> >::begin
PUBLIC	?end@?$basic_string@DU?$char_traits@D@std@@V?$allocator@D@2@@std@@QAE?AV?$_String_iterator@V?$_String_val@U?$_Simple_types@D@std@@@std@@@2@XZ ; std::basic_string<char,std::char_traits<char>,std::allocator<char> >::end
PUBLIC	?end@?$basic_string@DU?$char_traits@D@std@@V?$allocator@D@2@@std@@QBE?AV?$_String_const_iterator@V?$_String_val@U?$_Simple_types@D@std@@@std@@@2@XZ ; std::basic_string<char,std::char_traits<char>,std::allocator<char> >::end
PUBLIC	?c_str@?$basic_string@DU?$char_traits@D@std@@V?$allocator@D@2@@std@@QBEPBDXZ ; std::basic_string<char,std::char_traits<char>,std::allocator<char> >::c_str
PUBLIC	?size@?$basic_string@DU?$char_traits@D@std@@V?$allocator@D@2@@std@@QBEIXZ ; std::basic_string<char,std::char_traits<char>,std::allocator<char> >::size
PUBLIC	?max_size@?$basic_string@DU?$char_traits@D@std@@V?$allocator@D@2@@std@@QBEIXZ ; std::basic_string<char,std::char_traits<char>,std::allocator<char> >::max_size
PUBLIC	?_Traits_compare@?$basic_string@DU?$char_traits@D@std@@V?$allocator@D@2@@std@@SAHQBDI0I@Z ; std::basic_string<char,std::char_traits<char>,std::allocator<char> >::_Traits_compare
PUBLIC	?_Clamp_suffix_size@?$basic_string@DU?$char_traits@D@std@@V?$allocator@D@2@@std@@QBEIII@Z ; std::basic_string<char,std::char_traits<char>,std::allocator<char> >::_Clamp_suffix_size
PUBLIC	?compare@?$basic_string@DU?$char_traits@D@std@@V?$allocator@D@2@@std@@QBEHABV12@@Z ; std::basic_string<char,std::char_traits<char>,std::allocator<char> >::compare
PUBLIC	?_Chassign@?$basic_string@DU?$char_traits@D@std@@V?$allocator@D@2@@std@@QAEXIID@Z ; std::basic_string<char,std::char_traits<char>,std::allocator<char> >::_Chassign
PUBLIC	?_Copy@?$basic_string@DU?$char_traits@D@std@@V?$allocator@D@2@@std@@QAEXII@Z ; std::basic_string<char,std::char_traits<char>,std::allocator<char> >::_Copy
PUBLIC	?_Eos@?$basic_string@DU?$char_traits@D@std@@V?$allocator@D@2@@std@@QAEXI@Z ; std::basic_string<char,std::char_traits<char>,std::allocator<char> >::_Eos
PUBLIC	?_Grow@?$basic_string@DU?$char_traits@D@std@@V?$allocator@D@2@@std@@QAE_NI_N@Z ; std::basic_string<char,std::char_traits<char>,std::allocator<char> >::_Grow
PUBLIC	?_Inside@?$basic_string@DU?$char_traits@D@std@@V?$allocator@D@2@@std@@QAE_NPBD@Z ; std::basic_string<char,std::char_traits<char>,std::allocator<char> >::_Inside
PUBLIC	?_Tidy@?$basic_string@DU?$char_traits@D@std@@V?$allocator@D@2@@std@@QAEX_NI@Z ; std::basic_string<char,std::char_traits<char>,std::allocator<char> >::_Tidy
PUBLIC	?_Xlen@?$basic_string@DU?$char_traits@D@std@@V?$allocator@D@2@@std@@QBEXXZ ; std::basic_string<char,std::char_traits<char>,std::allocator<char> >::_Xlen
PUBLIC	?_Check_offset@?$basic_string@DU?$char_traits@D@std@@V?$allocator@D@2@@std@@QBEXI@Z ; std::basic_string<char,std::char_traits<char>,std::allocator<char> >::_Check_offset
PUBLIC	?_Xran@?$basic_string@DU?$char_traits@D@std@@V?$allocator@D@2@@std@@QBEXXZ ; std::basic_string<char,std::char_traits<char>,std::allocator<char> >::_Xran
PUBLIC	??_G?$basic_string@DU?$char_traits@D@std@@V?$allocator@D@2@@std@@QAEPAXI@Z ; std::basic_string<char,std::char_traits<char>,std::allocator<char> >::`scalar deleting destructor'
PUBLIC	?name@type_info@@QBEPBDXZ			; type_info::name
PUBLIC	??0bad_cast@std@@QAE@XZ				; std::bad_cast::bad_cast
PUBLIC	??1bad_cast@std@@UAE@XZ				; std::bad_cast::~bad_cast
PUBLIC	??0bad_cast@std@@QAE@ABV01@@Z			; std::bad_cast::bad_cast
PUBLIC	??_Gbad_cast@std@@UAEPAXI@Z			; std::bad_cast::`scalar deleting destructor'
PUBLIC	??0locale@std@@QAE@XZ				; std::locale::locale
PUBLIC	??1locale@std@@QAE@XZ				; std::locale::~locale
PUBLIC	?_Getfacet@locale@std@@QBEPBVfacet@12@I@Z	; std::locale::_Getfacet
PUBLIC	??$use_facet@V?$ctype@D@std@@@std@@YAABV?$ctype@D@0@ABVlocale@0@@Z ; std::use_facet<std::ctype<char> >
PUBLIC	??0ios_flags_saver@io@boost@@QAE@AAVios_base@std@@@Z ; boost::io::ios_flags_saver::ios_flags_saver
PUBLIC	??1ios_flags_saver@io@boost@@QAE@XZ		; boost::io::ios_flags_saver::~ios_flags_saver
PUBLIC	?restore@ios_flags_saver@io@boost@@QAEXXZ	; boost::io::ios_flags_saver::restore
PUBLIC	??0ios_precision_saver@io@boost@@QAE@AAVios_base@std@@@Z ; boost::io::ios_precision_saver::ios_precision_saver
PUBLIC	??1ios_precision_saver@io@boost@@QAE@XZ		; boost::io::ios_precision_saver::~ios_precision_saver
PUBLIC	?restore@ios_precision_saver@io@boost@@QAEXXZ	; boost::io::ios_precision_saver::restore
PUBLIC	??_Darchive_exception@archive@boost@@QAEXXZ	; boost::archive::archive_exception::`vbase destructor'
PUBLIC	??0library_version_type@archive@boost@@QAE@ABI@Z ; boost::archive::library_version_type::library_version_type
PUBLIC	??Mlibrary_version_type@archive@boost@@QBE_NABV012@@Z ; boost::archive::library_version_type::operator<
PUBLIC	??0version_type@archive@boost@@QAE@ABI@Z	; boost::archive::version_type::version_type
PUBLIC	??Bversion_type@archive@boost@@QAEAAIXZ		; boost::archive::version_type::operator unsigned int &
PUBLIC	??B?$integral_constant@_N$00@boost@@QBEABU?$bool_@$00@mpl@1@XZ ; boost::integral_constant<bool,1>::operator boost::mpl::bool_<1> const &
PUBLIC	?get_debug_info@extended_type_info_typeid_0@typeid_system@serialization@boost@@EBEPBDXZ ; boost::serialization::typeid_system::extended_type_info_typeid_0::get_debug_info
PUBLIC	??0version_type@serialization@boost@@QAE@I@Z	; boost::serialization::version_type::version_type
PUBLIC	??Bversion_type@serialization@boost@@QBEABIXZ	; boost::serialization::version_type::operator unsigned int const &
PUBLIC	??0collection_size_type@serialization@boost@@QAE@XZ ; boost::serialization::collection_size_type::collection_size_type
PUBLIC	??0collection_size_type@serialization@boost@@QAE@ABI@Z ; boost::serialization::collection_size_type::collection_size_type
PUBLIC	??0collection_size_type@serialization@boost@@QAE@ABV012@@Z ; boost::serialization::collection_size_type::collection_size_type
PUBLIC	??Bcollection_size_type@serialization@boost@@QBEIXZ ; boost::serialization::collection_size_type::operator unsigned int
PUBLIC	??Bcollection_size_type@serialization@boost@@QAEAAIXZ ; boost::serialization::collection_size_type::operator unsigned int &
PUBLIC	?serialized_as_pointer@basic_iserializer@detail@archive@boost@@QBE_NXZ ; boost::archive::detail::basic_iserializer::serialized_as_pointer
PUBLIC	??0item_version_type@serialization@boost@@QAE@I@Z ; boost::serialization::item_version_type::item_version_type
PUBLIC	??0item_version_type@serialization@boost@@QAE@ABV012@@Z ; boost::serialization::item_version_type::item_version_type
PUBLIC	??4item_version_type@serialization@boost@@QAEAAV012@V012@@Z ; boost::serialization::item_version_type::operator=
PUBLIC	??Bitem_version_type@serialization@boost@@QBEIXZ ; boost::serialization::item_version_type::operator unsigned int
PUBLIC	?This@?$interface_iarchive@Vtext_iarchive@archive@boost@@@detail@archive@boost@@QAEPAVtext_iarchive@34@XZ ; boost::archive::detail::interface_iarchive<boost::archive::text_iarchive>::This
PUBLIC	?load@?$text_iarchive_impl@Vtext_iarchive@archive@boost@@@archive@boost@@IAEXAAVitem_version_type@serialization@3@@Z ; boost::archive::text_iarchive_impl<boost::archive::text_iarchive>::load
PUBLIC	?serialized_as_pointer@basic_oserializer@detail@archive@boost@@QBE_NXZ ; boost::archive::detail::basic_oserializer::serialized_as_pointer
PUBLIC	?This@?$interface_oarchive@Vtext_oarchive@archive@boost@@@detail@archive@boost@@QAEPAVtext_oarchive@34@XZ ; boost::archive::detail::interface_oarchive<boost::archive::text_oarchive>::This
PUBLIC	?save@?$text_oarchive_impl@Vtext_oarchive@archive@boost@@@archive@boost@@IAEXABVitem_version_type@serialization@3@@Z ; boost::archive::text_oarchive_impl<boost::archive::text_oarchive>::save
PUBLIC	??0CCompany@@QAE@XZ				; CCompany::CCompany
PUBLIC	??0CCompany@@QAE@_N@Z				; CCompany::CCompany
PUBLIC	??1CCompany@@UAE@XZ				; CCompany::~CCompany
PUBLIC	?classType@CCompany@@UBE?AV?$basic_string@DU?$char_traits@D@std@@V?$allocator@D@2@@std@@XZ ; CCompany::classType
PUBLIC	?display@CCompany@@UAEXXZ			; CCompany::display
PUBLIC	?displayName@CCompany@@UAEXXZ			; CCompany::displayName
PUBLIC	?getContactInformation@CCompany@@UAEXXZ		; CCompany::getContactInformation
PUBLIC	?contains@CCompany@@UAE_NAAV?$basic_string@DU?$char_traits@D@std@@V?$allocator@D@2@@std@@@Z ; CCompany::contains
PUBLIC	??8CCompany@@UBE_NV?$basic_string@DU?$char_traits@D@std@@V?$allocator@D@2@@std@@@Z ; CCompany::operator==
PUBLIC	?getSortableName@CCompany@@UBE?AV?$basic_string@DU?$char_traits@D@std@@V?$allocator@D@2@@std@@XZ ; CCompany::getSortableName
PUBLIC	?save@CCompany@@UBEXAAVtext_oarchive@archive@boost@@I@Z ; CCompany::save
PUBLIC	?load@CCompany@@UAEXAAVtext_iarchive@archive@boost@@I@Z ; CCompany::load
PUBLIC	??0?$allocator@V?$basic_string@DU?$char_traits@D@std@@V?$allocator@D@2@@std@@@std@@QAE@XZ ; std::allocator<std::basic_string<char,std::char_traits<char>,std::allocator<char> > >::allocator<std::basic_string<char,std::char_traits<char>,std::allocator<char> > >
PUBLIC	?deallocate@?$allocator@V?$basic_string@DU?$char_traits@D@std@@V?$allocator@D@2@@std@@@std@@QAEXPAV?$basic_string@DU?$char_traits@D@std@@V?$allocator@D@2@@2@I@Z ; std::allocator<std::basic_string<char,std::char_traits<char>,std::allocator<char> > >::deallocate
PUBLIC	?allocate@?$allocator@V?$basic_string@DU?$char_traits@D@std@@V?$allocator@D@2@@std@@@std@@QAEPAV?$basic_string@DU?$char_traits@D@std@@V?$allocator@D@2@@2@I@Z ; std::allocator<std::basic_string<char,std::char_traits<char>,std::allocator<char> > >::allocate
PUBLIC	?max_size@?$allocator@V?$basic_string@DU?$char_traits@D@std@@V?$allocator@D@2@@std@@@std@@QBEIXZ ; std::allocator<std::basic_string<char,std::char_traits<char>,std::allocator<char> > >::max_size
PUBLIC	?max_size@?$allocator_traits@V?$allocator@V?$basic_string@DU?$char_traits@D@std@@V?$allocator@D@2@@std@@@std@@@std@@SAIABV?$allocator@V?$basic_string@DU?$char_traits@D@std@@V?$allocator@D@2@@std@@@2@@Z ; std::allocator_traits<std::allocator<std::basic_string<char,std::char_traits<char>,std::allocator<char> > > >::max_size
PUBLIC	??0?$_Wrap_alloc@V?$allocator@V?$basic_string@DU?$char_traits@D@std@@V?$allocator@D@2@@std@@@std@@@std@@QAE@XZ ; std::_Wrap_alloc<std::allocator<std::basic_string<char,std::char_traits<char>,std::allocator<char> > > >::_Wrap_alloc<std::allocator<std::basic_string<char,std::char_traits<char>,std::allocator<char> > > >
PUBLIC	?allocate@?$_Wrap_alloc@V?$allocator@V?$basic_string@DU?$char_traits@D@std@@V?$allocator@D@2@@std@@@std@@@std@@QAEPAV?$basic_string@DU?$char_traits@D@std@@V?$allocator@D@2@@2@I@Z ; std::_Wrap_alloc<std::allocator<std::basic_string<char,std::char_traits<char>,std::allocator<char> > > >::allocate
PUBLIC	?deallocate@?$_Wrap_alloc@V?$allocator@V?$basic_string@DU?$char_traits@D@std@@V?$allocator@D@2@@std@@@std@@@std@@QAEXPAV?$basic_string@DU?$char_traits@D@std@@V?$allocator@D@2@@2@I@Z ; std::_Wrap_alloc<std::allocator<std::basic_string<char,std::char_traits<char>,std::allocator<char> > > >::deallocate
PUBLIC	?max_size@?$_Wrap_alloc@V?$allocator@V?$basic_string@DU?$char_traits@D@std@@V?$allocator@D@2@@std@@@std@@@std@@QBEIU_Nil@2@@Z ; std::_Wrap_alloc<std::allocator<std::basic_string<char,std::char_traits<char>,std::allocator<char> > > >::max_size
PUBLIC	??0?$_Vector_alloc@U?$_Vec_base_types@V?$basic_string@DU?$char_traits@D@std@@V?$allocator@D@2@@std@@V?$allocator@V?$basic_string@DU?$char_traits@D@std@@V?$allocator@D@2@@std@@@2@@std@@@std@@QAE@XZ ; std::_Vector_alloc<std::_Vec_base_types<std::basic_string<char,std::char_traits<char>,std::allocator<char> >,std::allocator<std::basic_string<char,std::char_traits<char>,std::allocator<char> > > > >::_Vector_alloc<std::_Vec_base_types<std::basic_string<char,std::char_traits<char>,std::allocator<char> >,std::allocator<std::basic_string<char,std::char_traits<char>,std::allocator<char> > > > >
PUBLIC	??1?$_Vector_alloc@U?$_Vec_base_types@V?$basic_string@DU?$char_traits@D@std@@V?$allocator@D@2@@std@@V?$allocator@V?$basic_string@DU?$char_traits@D@std@@V?$allocator@D@2@@std@@@2@@std@@@std@@QAE@XZ ; std::_Vector_alloc<std::_Vec_base_types<std::basic_string<char,std::char_traits<char>,std::allocator<char> >,std::allocator<std::basic_string<char,std::char_traits<char>,std::allocator<char> > > > >::~_Vector_alloc<std::_Vec_base_types<std::basic_string<char,std::char_traits<char>,std::allocator<char> >,std::allocator<std::basic_string<char,std::char_traits<char>,std::allocator<char> > > > >
PUBLIC	?_Alloc_proxy@?$_Vector_alloc@U?$_Vec_base_types@V?$basic_string@DU?$char_traits@D@std@@V?$allocator@D@2@@std@@V?$allocator@V?$basic_string@DU?$char_traits@D@std@@V?$allocator@D@2@@std@@@2@@std@@@std@@QAEXXZ ; std::_Vector_alloc<std::_Vec_base_types<std::basic_string<char,std::char_traits<char>,std::allocator<char> >,std::allocator<std::basic_string<char,std::char_traits<char>,std::allocator<char> > > > >::_Alloc_proxy
PUBLIC	?_Free_proxy@?$_Vector_alloc@U?$_Vec_base_types@V?$basic_string@DU?$char_traits@D@std@@V?$allocator@D@2@@std@@V?$allocator@V?$basic_string@DU?$char_traits@D@std@@V?$allocator@D@2@@std@@@2@@std@@@std@@QAEXXZ ; std::_Vector_alloc<std::_Vec_base_types<std::basic_string<char,std::char_traits<char>,std::allocator<char> >,std::allocator<std::basic_string<char,std::char_traits<char>,std::allocator<char> > > > >::_Free_proxy
PUBLIC	?_Getpfirst@?$_Vector_alloc@U?$_Vec_base_types@V?$basic_string@DU?$char_traits@D@std@@V?$allocator@D@2@@std@@V?$allocator@V?$basic_string@DU?$char_traits@D@std@@V?$allocator@D@2@@std@@@2@@std@@@std@@QBEPAPAU_Iterator_base12@2@XZ ; std::_Vector_alloc<std::_Vec_base_types<std::basic_string<char,std::char_traits<char>,std::allocator<char> >,std::allocator<std::basic_string<char,std::char_traits<char>,std::allocator<char> > > > >::_Getpfirst
PUBLIC	?_Myproxy@?$_Vector_alloc@U?$_Vec_base_types@V?$basic_string@DU?$char_traits@D@std@@V?$allocator@D@2@@std@@V?$allocator@V?$basic_string@DU?$char_traits@D@std@@V?$allocator@D@2@@std@@@2@@std@@@std@@QAEAAPAU_Container_proxy@2@XZ ; std::_Vector_alloc<std::_Vec_base_types<std::basic_string<char,std::char_traits<char>,std::allocator<char> >,std::allocator<std::basic_string<char,std::char_traits<char>,std::allocator<char> > > > >::_Myproxy
PUBLIC	?_Orphan_all@?$_Vector_alloc@U?$_Vec_base_types@V?$basic_string@DU?$char_traits@D@std@@V?$allocator@D@2@@std@@V?$allocator@V?$basic_string@DU?$char_traits@D@std@@V?$allocator@D@2@@std@@@2@@std@@@std@@QAEXXZ ; std::_Vector_alloc<std::_Vec_base_types<std::basic_string<char,std::char_traits<char>,std::allocator<char> >,std::allocator<std::basic_string<char,std::char_traits<char>,std::allocator<char> > > > >::_Orphan_all
PUBLIC	?_Getal@?$_Vector_alloc@U?$_Vec_base_types@V?$basic_string@DU?$char_traits@D@std@@V?$allocator@D@2@@std@@V?$allocator@V?$basic_string@DU?$char_traits@D@std@@V?$allocator@D@2@@std@@@2@@std@@@std@@QAEAAU?$_Wrap_alloc@V?$allocator@V?$basic_string@DU?$char_traits@D@std@@V?$allocator@D@2@@std@@@std@@@2@XZ ; std::_Vector_alloc<std::_Vec_base_types<std::basic_string<char,std::char_traits<char>,std::allocator<char> >,std::allocator<std::basic_string<char,std::char_traits<char>,std::allocator<char> > > > >::_Getal
PUBLIC	?_Getal@?$_Vector_alloc@U?$_Vec_base_types@V?$basic_string@DU?$char_traits@D@std@@V?$allocator@D@2@@std@@V?$allocator@V?$basic_string@DU?$char_traits@D@std@@V?$allocator@D@2@@std@@@2@@std@@@std@@QBEABU?$_Wrap_alloc@V?$allocator@V?$basic_string@DU?$char_traits@D@std@@V?$allocator@D@2@@std@@@std@@@2@XZ ; std::_Vector_alloc<std::_Vec_base_types<std::basic_string<char,std::char_traits<char>,std::allocator<char> >,std::allocator<std::basic_string<char,std::char_traits<char>,std::allocator<char> > > > >::_Getal
PUBLIC	?_Get_data@?$_Vector_alloc@U?$_Vec_base_types@V?$basic_string@DU?$char_traits@D@std@@V?$allocator@D@2@@std@@V?$allocator@V?$basic_string@DU?$char_traits@D@std@@V?$allocator@D@2@@std@@@2@@std@@@std@@QAEAAV?$_Vector_val@U?$_Simple_types@V?$basic_string@DU?$char_traits@D@std@@V?$allocator@D@2@@std@@@std@@@2@XZ ; std::_Vector_alloc<std::_Vec_base_types<std::basic_string<char,std::char_traits<char>,std::allocator<char> >,std::allocator<std::basic_string<char,std::char_traits<char>,std::allocator<char> > > > >::_Get_data
PUBLIC	?_Get_data@?$_Vector_alloc@U?$_Vec_base_types@V?$basic_string@DU?$char_traits@D@std@@V?$allocator@D@2@@std@@V?$allocator@V?$basic_string@DU?$char_traits@D@std@@V?$allocator@D@2@@std@@@2@@std@@@std@@QBEABV?$_Vector_val@U?$_Simple_types@V?$basic_string@DU?$char_traits@D@std@@V?$allocator@D@2@@std@@@std@@@2@XZ ; std::_Vector_alloc<std::_Vec_base_types<std::basic_string<char,std::char_traits<char>,std::allocator<char> >,std::allocator<std::basic_string<char,std::char_traits<char>,std::allocator<char> > > > >::_Get_data
PUBLIC	?_Myfirst@?$_Vector_alloc@U?$_Vec_base_types@V?$basic_string@DU?$char_traits@D@std@@V?$allocator@D@2@@std@@V?$allocator@V?$basic_string@DU?$char_traits@D@std@@V?$allocator@D@2@@std@@@2@@std@@@std@@QAEAAPAV?$basic_string@DU?$char_traits@D@std@@V?$allocator@D@2@@2@XZ ; std::_Vector_alloc<std::_Vec_base_types<std::basic_string<char,std::char_traits<char>,std::allocator<char> >,std::allocator<std::basic_string<char,std::char_traits<char>,std::allocator<char> > > > >::_Myfirst
PUBLIC	?_Myfirst@?$_Vector_alloc@U?$_Vec_base_types@V?$basic_string@DU?$char_traits@D@std@@V?$allocator@D@2@@std@@V?$allocator@V?$basic_string@DU?$char_traits@D@std@@V?$allocator@D@2@@std@@@2@@std@@@std@@QBEABQAV?$basic_string@DU?$char_traits@D@std@@V?$allocator@D@2@@2@XZ ; std::_Vector_alloc<std::_Vec_base_types<std::basic_string<char,std::char_traits<char>,std::allocator<char> >,std::allocator<std::basic_string<char,std::char_traits<char>,std::allocator<char> > > > >::_Myfirst
PUBLIC	?_Mylast@?$_Vector_alloc@U?$_Vec_base_types@V?$basic_string@DU?$char_traits@D@std@@V?$allocator@D@2@@std@@V?$allocator@V?$basic_string@DU?$char_traits@D@std@@V?$allocator@D@2@@std@@@2@@std@@@std@@QAEAAPAV?$basic_string@DU?$char_traits@D@std@@V?$allocator@D@2@@2@XZ ; std::_Vector_alloc<std::_Vec_base_types<std::basic_string<char,std::char_traits<char>,std::allocator<char> >,std::allocator<std::basic_string<char,std::char_traits<char>,std::allocator<char> > > > >::_Mylast
PUBLIC	?_Mylast@?$_Vector_alloc@U?$_Vec_base_types@V?$basic_string@DU?$char_traits@D@std@@V?$allocator@D@2@@std@@V?$allocator@V?$basic_string@DU?$char_traits@D@std@@V?$allocator@D@2@@std@@@2@@std@@@std@@QBEABQAV?$basic_string@DU?$char_traits@D@std@@V?$allocator@D@2@@2@XZ ; std::_Vector_alloc<std::_Vec_base_types<std::basic_string<char,std::char_traits<char>,std::allocator<char> >,std::allocator<std::basic_string<char,std::char_traits<char>,std::allocator<char> > > > >::_Mylast
PUBLIC	?_Myend@?$_Vector_alloc@U?$_Vec_base_types@V?$basic_string@DU?$char_traits@D@std@@V?$allocator@D@2@@std@@V?$allocator@V?$basic_string@DU?$char_traits@D@std@@V?$allocator@D@2@@std@@@2@@std@@@std@@QAEAAPAV?$basic_string@DU?$char_traits@D@std@@V?$allocator@D@2@@2@XZ ; std::_Vector_alloc<std::_Vec_base_types<std::basic_string<char,std::char_traits<char>,std::allocator<char> >,std::allocator<std::basic_string<char,std::char_traits<char>,std::allocator<char> > > > >::_Myend
PUBLIC	?_Myend@?$_Vector_alloc@U?$_Vec_base_types@V?$basic_string@DU?$char_traits@D@std@@V?$allocator@D@2@@std@@V?$allocator@V?$basic_string@DU?$char_traits@D@std@@V?$allocator@D@2@@std@@@2@@std@@@std@@QBEABQAV?$basic_string@DU?$char_traits@D@std@@V?$allocator@D@2@@2@XZ ; std::_Vector_alloc<std::_Vec_base_types<std::basic_string<char,std::char_traits<char>,std::allocator<char> >,std::allocator<std::basic_string<char,std::char_traits<char>,std::allocator<char> > > > >::_Myend
PUBLIC	??0?$_Vector_val@U?$_Simple_types@V?$basic_string@DU?$char_traits@D@std@@V?$allocator@D@2@@std@@@std@@@std@@QAE@XZ ; std::_Vector_val<std::_Simple_types<std::basic_string<char,std::char_traits<char>,std::allocator<char> > > >::_Vector_val<std::_Simple_types<std::basic_string<char,std::char_traits<char>,std::allocator<char> > > >
PUBLIC	??1?$_Vector_val@U?$_Simple_types@V?$basic_string@DU?$char_traits@D@std@@V?$allocator@D@2@@std@@@std@@@std@@QAE@XZ ; std::_Vector_val<std::_Simple_types<std::basic_string<char,std::char_traits<char>,std::allocator<char> > > >::~_Vector_val<std::_Simple_types<std::basic_string<char,std::char_traits<char>,std::allocator<char> > > >
PUBLIC	?_Get_first@?$_Compressed_pair@U?$_Wrap_alloc@V?$allocator@V?$basic_string@DU?$char_traits@D@std@@V?$allocator@D@2@@std@@@std@@@std@@V?$_Vector_val@U?$_Simple_types@V?$basic_string@DU?$char_traits@D@std@@V?$allocator@D@2@@std@@@std@@@2@$00@std@@QAEAAU?$_Wrap_alloc@V?$allocator@V?$basic_string@DU?$char_traits@D@std@@V?$allocator@D@2@@std@@@std@@@2@XZ ; std::_Compressed_pair<std::_Wrap_alloc<std::allocator<std::basic_string<char,std::char_traits<char>,std::allocator<char> > > >,std::_Vector_val<std::_Simple_types<std::basic_string<char,std::char_traits<char>,std::allocator<char> > > >,1>::_Get_first
PUBLIC	?_Get_first@?$_Compressed_pair@U?$_Wrap_alloc@V?$allocator@V?$basic_string@DU?$char_traits@D@std@@V?$allocator@D@2@@std@@@std@@@std@@V?$_Vector_val@U?$_Simple_types@V?$basic_string@DU?$char_traits@D@std@@V?$allocator@D@2@@std@@@std@@@2@$00@std@@QBEABU?$_Wrap_alloc@V?$allocator@V?$basic_string@DU?$char_traits@D@std@@V?$allocator@D@2@@std@@@std@@@2@XZ ; std::_Compressed_pair<std::_Wrap_alloc<std::allocator<std::basic_string<char,std::char_traits<char>,std::allocator<char> > > >,std::_Vector_val<std::_Simple_types<std::basic_string<char,std::char_traits<char>,std::allocator<char> > > >,1>::_Get_first
PUBLIC	?_Get_second@?$_Compressed_pair@U?$_Wrap_alloc@V?$allocator@V?$basic_string@DU?$char_traits@D@std@@V?$allocator@D@2@@std@@@std@@@std@@V?$_Vector_val@U?$_Simple_types@V?$basic_string@DU?$char_traits@D@std@@V?$allocator@D@2@@std@@@std@@@2@$00@std@@QAEAAV?$_Vector_val@U?$_Simple_types@V?$basic_string@DU?$char_traits@D@std@@V?$allocator@D@2@@std@@@std@@@2@XZ ; std::_Compressed_pair<std::_Wrap_alloc<std::allocator<std::basic_string<char,std::char_traits<char>,std::allocator<char> > > >,std::_Vector_val<std::_Simple_types<std::basic_string<char,std::char_traits<char>,std::allocator<char> > > >,1>::_Get_second
PUBLIC	?_Get_second@?$_Compressed_pair@U?$_Wrap_alloc@V?$allocator@V?$basic_string@DU?$char_traits@D@std@@V?$allocator@D@2@@std@@@std@@@std@@V?$_Vector_val@U?$_Simple_types@V?$basic_string@DU?$char_traits@D@std@@V?$allocator@D@2@@std@@@std@@@2@$00@std@@QBEABV?$_Vector_val@U?$_Simple_types@V?$basic_string@DU?$char_traits@D@std@@V?$allocator@D@2@@std@@@std@@@2@XZ ; std::_Compressed_pair<std::_Wrap_alloc<std::allocator<std::basic_string<char,std::char_traits<char>,std::allocator<char> > > >,std::_Vector_val<std::_Simple_types<std::basic_string<char,std::char_traits<char>,std::allocator<char> > > >,1>::_Get_second
PUBLIC	??1?$_Compressed_pair@U?$_Wrap_alloc@V?$allocator@V?$basic_string@DU?$char_traits@D@std@@V?$allocator@D@2@@std@@@std@@@std@@V?$_Vector_val@U?$_Simple_types@V?$basic_string@DU?$char_traits@D@std@@V?$allocator@D@2@@std@@@std@@@2@$00@std@@QAE@XZ ; std::_Compressed_pair<std::_Wrap_alloc<std::allocator<std::basic_string<char,std::char_traits<char>,std::allocator<char> > > >,std::_Vector_val<std::_Simple_types<std::basic_string<char,std::char_traits<char>,std::allocator<char> > > >,1>::~_Compressed_pair<std::_Wrap_alloc<std::allocator<std::basic_string<char,std::char_traits<char>,std::allocator<char> > > >,std::_Vector_val<std::_Simple_types<std::basic_string<char,std::char_traits<char>,std::allocator<char> > > >,1>
PUBLIC	??0?$vector@V?$basic_string@DU?$char_traits@D@std@@V?$allocator@D@2@@std@@V?$allocator@V?$basic_string@DU?$char_traits@D@std@@V?$allocator@D@2@@std@@@2@@std@@QAE@XZ ; std::vector<std::basic_string<char,std::char_traits<char>,std::allocator<char> >,std::allocator<std::basic_string<char,std::char_traits<char>,std::allocator<char> > > >::vector<std::basic_string<char,std::char_traits<char>,std::allocator<char> >,std::allocator<std::basic_string<char,std::char_traits<char>,std::allocator<char> > > >
PUBLIC	??1?$vector@V?$basic_string@DU?$char_traits@D@std@@V?$allocator@D@2@@std@@V?$allocator@V?$basic_string@DU?$char_traits@D@std@@V?$allocator@D@2@@std@@@2@@std@@QAE@XZ ; std::vector<std::basic_string<char,std::char_traits<char>,std::allocator<char> >,std::allocator<std::basic_string<char,std::char_traits<char>,std::allocator<char> > > >::~vector<std::basic_string<char,std::char_traits<char>,std::allocator<char> >,std::allocator<std::basic_string<char,std::char_traits<char>,std::allocator<char> > > >
PUBLIC	?reserve@?$vector@V?$basic_string@DU?$char_traits@D@std@@V?$allocator@D@2@@std@@V?$allocator@V?$basic_string@DU?$char_traits@D@std@@V?$allocator@D@2@@std@@@2@@std@@QAEXI@Z ; std::vector<std::basic_string<char,std::char_traits<char>,std::allocator<char> >,std::allocator<std::basic_string<char,std::char_traits<char>,std::allocator<char> > > >::reserve
PUBLIC	?capacity@?$vector@V?$basic_string@DU?$char_traits@D@std@@V?$allocator@D@2@@std@@V?$allocator@V?$basic_string@DU?$char_traits@D@std@@V?$allocator@D@2@@std@@@2@@std@@QBEIXZ ; std::vector<std::basic_string<char,std::char_traits<char>,std::allocator<char> >,std::allocator<std::basic_string<char,std::char_traits<char>,std::allocator<char> > > >::capacity
PUBLIC	?_Unused_capacity@?$vector@V?$basic_string@DU?$char_traits@D@std@@V?$allocator@D@2@@std@@V?$allocator@V?$basic_string@DU?$char_traits@D@std@@V?$allocator@D@2@@std@@@2@@std@@QBEIXZ ; std::vector<std::basic_string<char,std::char_traits<char>,std::allocator<char> >,std::allocator<std::basic_string<char,std::char_traits<char>,std::allocator<char> > > >::_Unused_capacity
PUBLIC	?begin@?$vector@V?$basic_string@DU?$char_traits@D@std@@V?$allocator@D@2@@std@@V?$allocator@V?$basic_string@DU?$char_traits@D@std@@V?$allocator@D@2@@std@@@2@@std@@QAE?AV?$_Vector_iterator@V?$_Vector_val@U?$_Simple_types@V?$basic_string@DU?$char_traits@D@std@@V?$allocator@D@2@@std@@@std@@@std@@@2@XZ ; std::vector<std::basic_string<char,std::char_traits<char>,std::allocator<char> >,std::allocator<std::basic_string<char,std::char_traits<char>,std::allocator<char> > > >::begin
PUBLIC	?begin@?$vector@V?$basic_string@DU?$char_traits@D@std@@V?$allocator@D@2@@std@@V?$allocator@V?$basic_string@DU?$char_traits@D@std@@V?$allocator@D@2@@std@@@2@@std@@QBE?AV?$_Vector_const_iterator@V?$_Vector_val@U?$_Simple_types@V?$basic_string@DU?$char_traits@D@std@@V?$allocator@D@2@@std@@@std@@@std@@@2@XZ ; std::vector<std::basic_string<char,std::char_traits<char>,std::allocator<char> >,std::allocator<std::basic_string<char,std::char_traits<char>,std::allocator<char> > > >::begin
PUBLIC	?end@?$vector@V?$basic_string@DU?$char_traits@D@std@@V?$allocator@D@2@@std@@V?$allocator@V?$basic_string@DU?$char_traits@D@std@@V?$allocator@D@2@@std@@@2@@std@@QAE?AV?$_Vector_iterator@V?$_Vector_val@U?$_Simple_types@V?$basic_string@DU?$char_traits@D@std@@V?$allocator@D@2@@std@@@std@@@std@@@2@XZ ; std::vector<std::basic_string<char,std::char_traits<char>,std::allocator<char> >,std::allocator<std::basic_string<char,std::char_traits<char>,std::allocator<char> > > >::end
PUBLIC	?resize@?$vector@V?$basic_string@DU?$char_traits@D@std@@V?$allocator@D@2@@std@@V?$allocator@V?$basic_string@DU?$char_traits@D@std@@V?$allocator@D@2@@std@@@2@@std@@QAEXI@Z ; std::vector<std::basic_string<char,std::char_traits<char>,std::allocator<char> >,std::allocator<std::basic_string<char,std::char_traits<char>,std::allocator<char> > > >::resize
PUBLIC	?size@?$vector@V?$basic_string@DU?$char_traits@D@std@@V?$allocator@D@2@@std@@V?$allocator@V?$basic_string@DU?$char_traits@D@std@@V?$allocator@D@2@@std@@@2@@std@@QBEIXZ ; std::vector<std::basic_string<char,std::char_traits<char>,std::allocator<char> >,std::allocator<std::basic_string<char,std::char_traits<char>,std::allocator<char> > > >::size
PUBLIC	?max_size@?$vector@V?$basic_string@DU?$char_traits@D@std@@V?$allocator@D@2@@std@@V?$allocator@V?$basic_string@DU?$char_traits@D@std@@V?$allocator@D@2@@std@@@2@@std@@QBEIXZ ; std::vector<std::basic_string<char,std::char_traits<char>,std::allocator<char> >,std::allocator<std::basic_string<char,std::char_traits<char>,std::allocator<char> > > >::max_size
PUBLIC	?_Pop_back_n@?$vector@V?$basic_string@DU?$char_traits@D@std@@V?$allocator@D@2@@std@@V?$allocator@V?$basic_string@DU?$char_traits@D@std@@V?$allocator@D@2@@std@@@2@@std@@QAEXI@Z ; std::vector<std::basic_string<char,std::char_traits<char>,std::allocator<char> >,std::allocator<std::basic_string<char,std::char_traits<char>,std::allocator<char> > > >::_Pop_back_n
PUBLIC	?_Destroy@?$vector@V?$basic_string@DU?$char_traits@D@std@@V?$allocator@D@2@@std@@V?$allocator@V?$basic_string@DU?$char_traits@D@std@@V?$allocator@D@2@@std@@@2@@std@@IAEXPAV?$basic_string@DU?$char_traits@D@std@@V?$allocator@D@2@@2@0@Z ; std::vector<std::basic_string<char,std::char_traits<char>,std::allocator<char> >,std::allocator<std::basic_string<char,std::char_traits<char>,std::allocator<char> > > >::_Destroy
PUBLIC	?_Grow_to@?$vector@V?$basic_string@DU?$char_traits@D@std@@V?$allocator@D@2@@std@@V?$allocator@V?$basic_string@DU?$char_traits@D@std@@V?$allocator@D@2@@std@@@2@@std@@IBEII@Z ; std::vector<std::basic_string<char,std::char_traits<char>,std::allocator<char> >,std::allocator<std::basic_string<char,std::char_traits<char>,std::allocator<char> > > >::_Grow_to
PUBLIC	?_Reallocate@?$vector@V?$basic_string@DU?$char_traits@D@std@@V?$allocator@D@2@@std@@V?$allocator@V?$basic_string@DU?$char_traits@D@std@@V?$allocator@D@2@@std@@@2@@std@@IAEXI@Z ; std::vector<std::basic_string<char,std::char_traits<char>,std::allocator<char> >,std::allocator<std::basic_string<char,std::char_traits<char>,std::allocator<char> > > >::_Reallocate
PUBLIC	?_Reserve@?$vector@V?$basic_string@DU?$char_traits@D@std@@V?$allocator@D@2@@std@@V?$allocator@V?$basic_string@DU?$char_traits@D@std@@V?$allocator@D@2@@std@@@2@@std@@IAEXI@Z ; std::vector<std::basic_string<char,std::char_traits<char>,std::allocator<char> >,std::allocator<std::basic_string<char,std::char_traits<char>,std::allocator<char> > > >::_Reserve
PUBLIC	?_Tidy@?$vector@V?$basic_string@DU?$char_traits@D@std@@V?$allocator@D@2@@std@@V?$allocator@V?$basic_string@DU?$char_traits@D@std@@V?$allocator@D@2@@std@@@2@@std@@IAEXXZ ; std::vector<std::basic_string<char,std::char_traits<char>,std::allocator<char> >,std::allocator<std::basic_string<char,std::char_traits<char>,std::allocator<char> > > >::_Tidy
PUBLIC	?_Xlen@?$vector@V?$basic_string@DU?$char_traits@D@std@@V?$allocator@D@2@@std@@V?$allocator@V?$basic_string@DU?$char_traits@D@std@@V?$allocator@D@2@@std@@@2@@std@@IBEXXZ ; std::vector<std::basic_string<char,std::char_traits<char>,std::allocator<char> >,std::allocator<std::basic_string<char,std::char_traits<char>,std::allocator<char> > > >::_Xlen
PUBLIC	?_Orphan_range@?$vector@V?$basic_string@DU?$char_traits@D@std@@V?$allocator@D@2@@std@@V?$allocator@V?$basic_string@DU?$char_traits@D@std@@V?$allocator@D@2@@std@@@2@@std@@IBEXPAV?$basic_string@DU?$char_traits@D@std@@V?$allocator@D@2@@2@0@Z ; std::vector<std::basic_string<char,std::char_traits<char>,std::allocator<char> >,std::allocator<std::basic_string<char,std::char_traits<char>,std::allocator<char> > > >::_Orphan_range
PUBLIC	??_G?$vector@V?$basic_string@DU?$char_traits@D@std@@V?$allocator@D@2@@std@@V?$allocator@V?$basic_string@DU?$char_traits@D@std@@V?$allocator@D@2@@std@@@2@@std@@QAEPAXI@Z ; std::vector<std::basic_string<char,std::char_traits<char>,std::allocator<char> >,std::allocator<std::basic_string<char,std::char_traits<char>,std::allocator<char> > > >::`scalar deleting destructor'
PUBLIC	?generateMenus@CCompany@@EAEXXZ			; CCompany::generateMenus
PUBLIC	?getPhoneNumbers@CCompany@@AAEXXZ		; CCompany::getPhoneNumbers
PUBLIC	?getFaxNumbers@CCompany@@AAEXXZ			; CCompany::getFaxNumbers
PUBLIC	?getEmailAddresses@CCompany@@AAEXXZ		; CCompany::getEmailAddresses
PUBLIC	?greater@CCompany@@EAE_NAAVCContact@@@Z		; CCompany::greater
PUBLIC	??_GCCompany@@UAEPAXI@Z				; CCompany::`scalar deleting destructor'
PUBLIC	??$?6U?$char_traits@D@std@@@std@@YAAAV?$basic_ostream@DU?$char_traits@D@std@@@0@AAV10@PBD@Z ; std::operator<<<std::char_traits<char> >
PUBLIC	??$?6DU?$char_traits@D@std@@V?$allocator@D@1@@std@@YAAAV?$basic_ostream@DU?$char_traits@D@std@@@0@AAV10@ABV?$basic_string@DU?$char_traits@D@std@@V?$allocator@D@2@@0@@Z ; std::operator<<<char,std::char_traits<char>,std::allocator<char> >
PUBLIC	??0?$_Iterator012@Urandom_access_iterator_tag@std@@V?$basic_string@DU?$char_traits@D@std@@V?$allocator@D@2@@2@HPBV32@ABV32@U_Iterator_base12@2@@std@@QAE@XZ ; std::_Iterator012<std::random_access_iterator_tag,std::basic_string<char,std::char_traits<char>,std::allocator<char> >,int,std::basic_string<char,std::char_traits<char>,std::allocator<char> > const *,std::basic_string<char,std::char_traits<char>,std::allocator<char> > const &,std::_Iterator_base12>::_Iterator012<std::random_access_iterator_tag,std::basic_string<char,std::char_traits<char>,std::allocator<char> >,int,std::basic_string<char,std::char_traits<char>,std::allocator<char> > const *,std::basic_string<char,std::char_traits<char>,std::allocator<char> > const &,std::_Iterator_base12>
PUBLIC	??1?$_Iterator012@Urandom_access_iterator_tag@std@@V?$basic_string@DU?$char_traits@D@std@@V?$allocator@D@2@@2@HPBV32@ABV32@U_Iterator_base12@2@@std@@QAE@XZ ; std::_Iterator012<std::random_access_iterator_tag,std::basic_string<char,std::char_traits<char>,std::allocator<char> >,int,std::basic_string<char,std::char_traits<char>,std::allocator<char> > const *,std::basic_string<char,std::char_traits<char>,std::allocator<char> > const &,std::_Iterator_base12>::~_Iterator012<std::random_access_iterator_tag,std::basic_string<char,std::char_traits<char>,std::allocator<char> >,int,std::basic_string<char,std::char_traits<char>,std::allocator<char> > const *,std::basic_string<char,std::char_traits<char>,std::allocator<char> > const &,std::_Iterator_base12>
PUBLIC	??0?$_Iterator012@Urandom_access_iterator_tag@std@@V?$basic_string@DU?$char_traits@D@std@@V?$allocator@D@2@@2@HPBV32@ABV32@U_Iterator_base12@2@@std@@QAE@ABU01@@Z ; std::_Iterator012<std::random_access_iterator_tag,std::basic_string<char,std::char_traits<char>,std::allocator<char> >,int,std::basic_string<char,std::char_traits<char>,std::allocator<char> > const *,std::basic_string<char,std::char_traits<char>,std::allocator<char> > const &,std::_Iterator_base12>::_Iterator012<std::random_access_iterator_tag,std::basic_string<char,std::char_traits<char>,std::allocator<char> >,int,std::basic_string<char,std::char_traits<char>,std::allocator<char> > const *,std::basic_string<char,std::char_traits<char>,std::allocator<char> > const &,std::_Iterator_base12>
PUBLIC	??0?$_Iterator012@Urandom_access_iterator_tag@std@@V?$basic_string@DU?$char_traits@D@std@@V?$allocator@D@2@@2@HPBV32@ABV32@U_Iterator_base12@2@@std@@QAE@$$QAU01@@Z ; std::_Iterator012<std::random_access_iterator_tag,std::basic_string<char,std::char_traits<char>,std::allocator<char> >,int,std::basic_string<char,std::char_traits<char>,std::allocator<char> > const *,std::basic_string<char,std::char_traits<char>,std::allocator<char> > const &,std::_Iterator_base12>::_Iterator012<std::random_access_iterator_tag,std::basic_string<char,std::char_traits<char>,std::allocator<char> >,int,std::basic_string<char,std::char_traits<char>,std::allocator<char> > const *,std::basic_string<char,std::char_traits<char>,std::allocator<char> > const &,std::_Iterator_base12>
PUBLIC	??4?$_Iterator012@Urandom_access_iterator_tag@std@@V?$basic_string@DU?$char_traits@D@std@@V?$allocator@D@2@@2@HPBV32@ABV32@U_Iterator_base12@2@@std@@QAEAAU01@$$QAU01@@Z ; std::_Iterator012<std::random_access_iterator_tag,std::basic_string<char,std::char_traits<char>,std::allocator<char> >,int,std::basic_string<char,std::char_traits<char>,std::allocator<char> > const *,std::basic_string<char,std::char_traits<char>,std::allocator<char> > const &,std::_Iterator_base12>::operator=
PUBLIC	??0?$_Vector_const_iterator@V?$_Vector_val@U?$_Simple_types@V?$basic_string@DU?$char_traits@D@std@@V?$allocator@D@2@@std@@@std@@@std@@@std@@QAE@XZ ; std::_Vector_const_iterator<std::_Vector_val<std::_Simple_types<std::basic_string<char,std::char_traits<char>,std::allocator<char> > > > >::_Vector_const_iterator<std::_Vector_val<std::_Simple_types<std::basic_string<char,std::char_traits<char>,std::allocator<char> > > > >
PUBLIC	??0?$_Vector_const_iterator@V?$_Vector_val@U?$_Simple_types@V?$basic_string@DU?$char_traits@D@std@@V?$allocator@D@2@@std@@@std@@@std@@@std@@QAE@PAV?$basic_string@DU?$char_traits@D@std@@V?$allocator@D@2@@1@PBU_Container_base12@1@@Z ; std::_Vector_const_iterator<std::_Vector_val<std::_Simple_types<std::basic_string<char,std::char_traits<char>,std::allocator<char> > > > >::_Vector_const_iterator<std::_Vector_val<std::_Simple_types<std::basic_string<char,std::char_traits<char>,std::allocator<char> > > > >
PUBLIC	??D?$_Vector_const_iterator@V?$_Vector_val@U?$_Simple_types@V?$basic_string@DU?$char_traits@D@std@@V?$allocator@D@2@@std@@@std@@@std@@@std@@QBEABV?$basic_string@DU?$char_traits@D@std@@V?$allocator@D@2@@1@XZ ; std::_Vector_const_iterator<std::_Vector_val<std::_Simple_types<std::basic_string<char,std::char_traits<char>,std::allocator<char> > > > >::operator*
PUBLIC	??E?$_Vector_const_iterator@V?$_Vector_val@U?$_Simple_types@V?$basic_string@DU?$char_traits@D@std@@V?$allocator@D@2@@std@@@std@@@std@@@std@@QAEAAV01@XZ ; std::_Vector_const_iterator<std::_Vector_val<std::_Simple_types<std::basic_string<char,std::char_traits<char>,std::allocator<char> > > > >::operator++
PUBLIC	??E?$_Vector_const_iterator@V?$_Vector_val@U?$_Simple_types@V?$basic_string@DU?$char_traits@D@std@@V?$allocator@D@2@@std@@@std@@@std@@@std@@QAE?AV01@H@Z ; std::_Vector_const_iterator<std::_Vector_val<std::_Simple_types<std::basic_string<char,std::char_traits<char>,std::allocator<char> > > > >::operator++
PUBLIC	??8?$_Vector_const_iterator@V?$_Vector_val@U?$_Simple_types@V?$basic_string@DU?$char_traits@D@std@@V?$allocator@D@2@@std@@@std@@@std@@@std@@QBE_NABV01@@Z ; std::_Vector_const_iterator<std::_Vector_val<std::_Simple_types<std::basic_string<char,std::char_traits<char>,std::allocator<char> > > > >::operator==
PUBLIC	??9?$_Vector_const_iterator@V?$_Vector_val@U?$_Simple_types@V?$basic_string@DU?$char_traits@D@std@@V?$allocator@D@2@@std@@@std@@@std@@@std@@QBE_NABV01@@Z ; std::_Vector_const_iterator<std::_Vector_val<std::_Simple_types<std::basic_string<char,std::char_traits<char>,std::allocator<char> > > > >::operator!=
PUBLIC	?_Compat@?$_Vector_const_iterator@V?$_Vector_val@U?$_Simple_types@V?$basic_string@DU?$char_traits@D@std@@V?$allocator@D@2@@std@@@std@@@std@@@std@@QBEXABV12@@Z ; std::_Vector_const_iterator<std::_Vector_val<std::_Simple_types<std::basic_string<char,std::char_traits<char>,std::allocator<char> > > > >::_Compat
PUBLIC	??1?$_Vector_const_iterator@V?$_Vector_val@U?$_Simple_types@V?$basic_string@DU?$char_traits@D@std@@V?$allocator@D@2@@std@@@std@@@std@@@std@@QAE@XZ ; std::_Vector_const_iterator<std::_Vector_val<std::_Simple_types<std::basic_string<char,std::char_traits<char>,std::allocator<char> > > > >::~_Vector_const_iterator<std::_Vector_val<std::_Simple_types<std::basic_string<char,std::char_traits<char>,std::allocator<char> > > > >
PUBLIC	??0?$_Vector_const_iterator@V?$_Vector_val@U?$_Simple_types@V?$basic_string@DU?$char_traits@D@std@@V?$allocator@D@2@@std@@@std@@@std@@@std@@QAE@ABV01@@Z ; std::_Vector_const_iterator<std::_Vector_val<std::_Simple_types<std::basic_string<char,std::char_traits<char>,std::allocator<char> > > > >::_Vector_const_iterator<std::_Vector_val<std::_Simple_types<std::basic_string<char,std::char_traits<char>,std::allocator<char> > > > >
PUBLIC	??0?$_Vector_const_iterator@V?$_Vector_val@U?$_Simple_types@V?$basic_string@DU?$char_traits@D@std@@V?$allocator@D@2@@std@@@std@@@std@@@std@@QAE@$$QAV01@@Z ; std::_Vector_const_iterator<std::_Vector_val<std::_Simple_types<std::basic_string<char,std::char_traits<char>,std::allocator<char> > > > >::_Vector_const_iterator<std::_Vector_val<std::_Simple_types<std::basic_string<char,std::char_traits<char>,std::allocator<char> > > > >
PUBLIC	??4?$_Vector_const_iterator@V?$_Vector_val@U?$_Simple_types@V?$basic_string@DU?$char_traits@D@std@@V?$allocator@D@2@@std@@@std@@@std@@@std@@QAEAAV01@$$QAV01@@Z ; std::_Vector_const_iterator<std::_Vector_val<std::_Simple_types<std::basic_string<char,std::char_traits<char>,std::allocator<char> > > > >::operator=
PUBLIC	??0?$_Vector_iterator@V?$_Vector_val@U?$_Simple_types@V?$basic_string@DU?$char_traits@D@std@@V?$allocator@D@2@@std@@@std@@@std@@@std@@QAE@XZ ; std::_Vector_iterator<std::_Vector_val<std::_Simple_types<std::basic_string<char,std::char_traits<char>,std::allocator<char> > > > >::_Vector_iterator<std::_Vector_val<std::_Simple_types<std::basic_string<char,std::char_traits<char>,std::allocator<char> > > > >
PUBLIC	??0?$_Vector_iterator@V?$_Vector_val@U?$_Simple_types@V?$basic_string@DU?$char_traits@D@std@@V?$allocator@D@2@@std@@@std@@@std@@@std@@QAE@PAV?$basic_string@DU?$char_traits@D@std@@V?$allocator@D@2@@1@PBU_Container_base12@1@@Z ; std::_Vector_iterator<std::_Vector_val<std::_Simple_types<std::basic_string<char,std::char_traits<char>,std::allocator<char> > > > >::_Vector_iterator<std::_Vector_val<std::_Simple_types<std::basic_string<char,std::char_traits<char>,std::allocator<char> > > > >
PUBLIC	??D?$_Vector_iterator@V?$_Vector_val@U?$_Simple_types@V?$basic_string@DU?$char_traits@D@std@@V?$allocator@D@2@@std@@@std@@@std@@@std@@QBEAAV?$basic_string@DU?$char_traits@D@std@@V?$allocator@D@2@@1@XZ ; std::_Vector_iterator<std::_Vector_val<std::_Simple_types<std::basic_string<char,std::char_traits<char>,std::allocator<char> > > > >::operator*
PUBLIC	??E?$_Vector_iterator@V?$_Vector_val@U?$_Simple_types@V?$basic_string@DU?$char_traits@D@std@@V?$allocator@D@2@@std@@@std@@@std@@@std@@QAEAAV01@XZ ; std::_Vector_iterator<std::_Vector_val<std::_Simple_types<std::basic_string<char,std::char_traits<char>,std::allocator<char> > > > >::operator++
PUBLIC	??E?$_Vector_iterator@V?$_Vector_val@U?$_Simple_types@V?$basic_string@DU?$char_traits@D@std@@V?$allocator@D@2@@std@@@std@@@std@@@std@@QAE?AV01@H@Z ; std::_Vector_iterator<std::_Vector_val<std::_Simple_types<std::basic_string<char,std::char_traits<char>,std::allocator<char> > > > >::operator++
PUBLIC	??1?$_Vector_iterator@V?$_Vector_val@U?$_Simple_types@V?$basic_string@DU?$char_traits@D@std@@V?$allocator@D@2@@std@@@std@@@std@@@std@@QAE@XZ ; std::_Vector_iterator<std::_Vector_val<std::_Simple_types<std::basic_string<char,std::char_traits<char>,std::allocator<char> > > > >::~_Vector_iterator<std::_Vector_val<std::_Simple_types<std::basic_string<char,std::char_traits<char>,std::allocator<char> > > > >
PUBLIC	??0?$_Vector_iterator@V?$_Vector_val@U?$_Simple_types@V?$basic_string@DU?$char_traits@D@std@@V?$allocator@D@2@@std@@@std@@@std@@@std@@QAE@ABV01@@Z ; std::_Vector_iterator<std::_Vector_val<std::_Simple_types<std::basic_string<char,std::char_traits<char>,std::allocator<char> > > > >::_Vector_iterator<std::_Vector_val<std::_Simple_types<std::basic_string<char,std::char_traits<char>,std::allocator<char> > > > >
PUBLIC	??0?$_Vector_iterator@V?$_Vector_val@U?$_Simple_types@V?$basic_string@DU?$char_traits@D@std@@V?$allocator@D@2@@std@@@std@@@std@@@std@@QAE@$$QAV01@@Z ; std::_Vector_iterator<std::_Vector_val<std::_Simple_types<std::basic_string<char,std::char_traits<char>,std::allocator<char> > > > >::_Vector_iterator<std::_Vector_val<std::_Simple_types<std::basic_string<char,std::char_traits<char>,std::allocator<char> > > > >
PUBLIC	??4?$_Vector_iterator@V?$_Vector_val@U?$_Simple_types@V?$basic_string@DU?$char_traits@D@std@@V?$allocator@D@2@@std@@@std@@@std@@@std@@QAEAAV01@$$QAV01@@Z ; std::_Vector_iterator<std::_Vector_val<std::_Simple_types<std::basic_string<char,std::char_traits<char>,std::allocator<char> > > > >::operator=
PUBLIC	??$endl@DU?$char_traits@D@std@@@std@@YAAAV?$basic_ostream@DU?$char_traits@D@std@@@0@AAV10@@Z ; std::endl<char,std::char_traits<char> >
PUBLIC	??$to_upper_copy@V?$basic_string@DU?$char_traits@D@std@@V?$allocator@D@2@@std@@@algorithm@boost@@YA?AV?$basic_string@DU?$char_traits@D@std@@V?$allocator@D@2@@std@@ABV23@ABVlocale@3@@Z ; boost::algorithm::to_upper_copy<std::basic_string<char,std::char_traits<char>,std::allocator<char> > >
PUBLIC	??$?8DU?$char_traits@D@std@@V?$allocator@D@1@@std@@YA_NABV?$basic_string@DU?$char_traits@D@std@@V?$allocator@D@2@@0@0@Z ; std::operator==<char,std::char_traits<char>,std::allocator<char> >
PUBLIC	??$?ODU?$char_traits@D@std@@V?$allocator@D@1@@std@@YA_NABV?$basic_string@DU?$char_traits@D@std@@V?$allocator@D@2@@0@0@Z ; std::operator><char,std::char_traits<char>,std::allocator<char> >
PUBLIC	??$?6V?$basic_string@DU?$char_traits@D@std@@V?$allocator@D@2@@std@@@?$interface_oarchive@Vtext_oarchive@archive@boost@@@detail@archive@boost@@QAEAAVtext_oarchive@23@ABV?$basic_string@DU?$char_traits@D@std@@V?$allocator@D@2@@std@@@Z ; boost::archive::detail::interface_oarchive<boost::archive::text_oarchive>::operator<<<std::basic_string<char,std::char_traits<char>,std::allocator<char> > >
PUBLIC	??$?6V?$vector@V?$basic_string@DU?$char_traits@D@std@@V?$allocator@D@2@@std@@V?$allocator@V?$basic_string@DU?$char_traits@D@std@@V?$allocator@D@2@@std@@@2@@std@@@?$interface_oarchive@Vtext_oarchive@archive@boost@@@detail@archive@boost@@QAEAAVtext_oarchive@23@ABV?$vector@V?$basic_string@DU?$char_traits@D@std@@V?$allocator@D@2@@std@@V?$allocator@V?$basic_string@DU?$char_traits@D@std@@V?$allocator@D@2@@std@@@2@@std@@@Z ; boost::archive::detail::interface_oarchive<boost::archive::text_oarchive>::operator<<<std::vector<std::basic_string<char,std::char_traits<char>,std::allocator<char> >,std::allocator<std::basic_string<char,std::char_traits<char>,std::allocator<char> > > > >
PUBLIC	??$?5V?$basic_string@DU?$char_traits@D@std@@V?$allocator@D@2@@std@@@?$interface_iarchive@Vtext_iarchive@archive@boost@@@detail@archive@boost@@QAEAAVtext_iarchive@23@AAV?$basic_string@DU?$char_traits@D@std@@V?$allocator@D@2@@std@@@Z ; boost::archive::detail::interface_iarchive<boost::archive::text_iarchive>::operator>><std::basic_string<char,std::char_traits<char>,std::allocator<char> > >
PUBLIC	??$?5V?$vector@V?$basic_string@DU?$char_traits@D@std@@V?$allocator@D@2@@std@@V?$allocator@V?$basic_string@DU?$char_traits@D@std@@V?$allocator@D@2@@std@@@2@@std@@@?$interface_iarchive@Vtext_iarchive@archive@boost@@@detail@archive@boost@@QAEAAVtext_iarchive@23@AAV?$vector@V?$basic_string@DU?$char_traits@D@std@@V?$allocator@D@2@@std@@V?$allocator@V?$basic_string@DU?$char_traits@D@std@@V?$allocator@D@2@@std@@@2@@std@@@Z ; boost::archive::detail::interface_iarchive<boost::archive::text_iarchive>::operator>><std::vector<std::basic_string<char,std::char_traits<char>,std::allocator<char> >,std::allocator<std::basic_string<char,std::char_traits<char>,std::allocator<char> > > > >
PUBLIC	??0?$_Iterator012@Urandom_access_iterator_tag@std@@DHPBDABDU_Iterator_base12@2@@std@@QAE@XZ ; std::_Iterator012<std::random_access_iterator_tag,char,int,char const *,char const &,std::_Iterator_base12>::_Iterator012<std::random_access_iterator_tag,char,int,char const *,char const &,std::_Iterator_base12>
PUBLIC	??1?$_Iterator012@Urandom_access_iterator_tag@std@@DHPBDABDU_Iterator_base12@2@@std@@QAE@XZ ; std::_Iterator012<std::random_access_iterator_tag,char,int,char const *,char const &,std::_Iterator_base12>::~_Iterator012<std::random_access_iterator_tag,char,int,char const *,char const &,std::_Iterator_base12>
PUBLIC	??0?$_Iterator012@Urandom_access_iterator_tag@std@@DHPBDABDU_Iterator_base12@2@@std@@QAE@ABU01@@Z ; std::_Iterator012<std::random_access_iterator_tag,char,int,char const *,char const &,std::_Iterator_base12>::_Iterator012<std::random_access_iterator_tag,char,int,char const *,char const &,std::_Iterator_base12>
PUBLIC	??0?$_Iterator012@Urandom_access_iterator_tag@std@@DHPBDABDU_Iterator_base12@2@@std@@QAE@$$QAU01@@Z ; std::_Iterator012<std::random_access_iterator_tag,char,int,char const *,char const &,std::_Iterator_base12>::_Iterator012<std::random_access_iterator_tag,char,int,char const *,char const &,std::_Iterator_base12>
PUBLIC	??0?$_String_const_iterator@V?$_String_val@U?$_Simple_types@D@std@@@std@@@std@@QAE@PBDPBU_Container_base12@1@@Z ; std::_String_const_iterator<std::_String_val<std::_Simple_types<char> > >::_String_const_iterator<std::_String_val<std::_Simple_types<char> > >
PUBLIC	??D?$_String_const_iterator@V?$_String_val@U?$_Simple_types@D@std@@@std@@@std@@QBEABDXZ ; std::_String_const_iterator<std::_String_val<std::_Simple_types<char> > >::operator*
PUBLIC	??E?$_String_const_iterator@V?$_String_val@U?$_Simple_types@D@std@@@std@@@std@@QAEAAV01@XZ ; std::_String_const_iterator<std::_String_val<std::_Simple_types<char> > >::operator++
PUBLIC	??G?$_String_const_iterator@V?$_String_val@U?$_Simple_types@D@std@@@std@@@std@@QBEHABV01@@Z ; std::_String_const_iterator<std::_String_val<std::_Simple_types<char> > >::operator-
PUBLIC	??8?$_String_const_iterator@V?$_String_val@U?$_Simple_types@D@std@@@std@@@std@@QBE_NABV01@@Z ; std::_String_const_iterator<std::_String_val<std::_Simple_types<char> > >::operator==
PUBLIC	?_Compat@?$_String_const_iterator@V?$_String_val@U?$_Simple_types@D@std@@@std@@@std@@QBEXABV12@@Z ; std::_String_const_iterator<std::_String_val<std::_Simple_types<char> > >::_Compat
PUBLIC	??1?$_String_const_iterator@V?$_String_val@U?$_Simple_types@D@std@@@std@@@std@@QAE@XZ ; std::_String_const_iterator<std::_String_val<std::_Simple_types<char> > >::~_String_const_iterator<std::_String_val<std::_Simple_types<char> > >
PUBLIC	??0?$_String_const_iterator@V?$_String_val@U?$_Simple_types@D@std@@@std@@@std@@QAE@ABV01@@Z ; std::_String_const_iterator<std::_String_val<std::_Simple_types<char> > >::_String_const_iterator<std::_String_val<std::_Simple_types<char> > >
PUBLIC	??0?$_String_const_iterator@V?$_String_val@U?$_Simple_types@D@std@@@std@@@std@@QAE@$$QAV01@@Z ; std::_String_const_iterator<std::_String_val<std::_Simple_types<char> > >::_String_const_iterator<std::_String_val<std::_Simple_types<char> > >
PUBLIC	??0?$_String_iterator@V?$_String_val@U?$_Simple_types@D@std@@@std@@@std@@QAE@PADPBU_Container_base12@1@@Z ; std::_String_iterator<std::_String_val<std::_Simple_types<char> > >::_String_iterator<std::_String_val<std::_Simple_types<char> > >
PUBLIC	??D?$_String_iterator@V?$_String_val@U?$_Simple_types@D@std@@@std@@@std@@QBEAADXZ ; std::_String_iterator<std::_String_val<std::_Simple_types<char> > >::operator*
PUBLIC	??G?$_String_iterator@V?$_String_val@U?$_Simple_types@D@std@@@std@@@std@@QBEHABV?$_String_const_iterator@V?$_String_val@U?$_Simple_types@D@std@@@std@@@1@@Z ; std::_String_iterator<std::_String_val<std::_Simple_types<char> > >::operator-
PUBLIC	??1?$_String_iterator@V?$_String_val@U?$_Simple_types@D@std@@@std@@@std@@QAE@XZ ; std::_String_iterator<std::_String_val<std::_Simple_types<char> > >::~_String_iterator<std::_String_val<std::_Simple_types<char> > >
PUBLIC	??0?$_String_iterator@V?$_String_val@U?$_Simple_types@D@std@@@std@@@std@@QAE@ABV01@@Z ; std::_String_iterator<std::_String_val<std::_Simple_types<char> > >::_String_iterator<std::_String_val<std::_Simple_types<char> > >
PUBLIC	??$_Debug_pointer@$$CBD@std@@YAXPBDPB_WI@Z	; std::_Debug_pointer<char const >
PUBLIC	??$?9V?$allocator@D@std@@V01@@std@@YA_NABU?$_Wrap_alloc@V?$allocator@D@std@@@0@0@Z ; std::operator!=<std::allocator<char>,std::allocator<char> >
PUBLIC	??$assign@V?$_String_iterator@V?$_String_val@U?$_Simple_types@D@std@@@std@@@std@@@?$basic_string@DU?$char_traits@D@std@@V?$allocator@D@2@@std@@QAEAAV01@V?$_String_iterator@V?$_String_val@U?$_Simple_types@D@std@@@std@@@1@0@Z ; std::basic_string<char,std::char_traits<char>,std::allocator<char> >::assign<std::_String_iterator<std::_String_val<std::_Simple_types<char> > > >
PUBLIC	??$forward@V?$basic_string@DU?$char_traits@D@std@@V?$allocator@D@2@@std@@@std@@YA$$QAV?$basic_string@DU?$char_traits@D@std@@V?$allocator@D@2@@0@AAV10@@Z ; std::forward<std::basic_string<char,std::char_traits<char>,std::allocator<char> > >
PUBLIC	??$move@AAU?$_Wrap_alloc@V?$allocator@D@std@@@std@@@std@@YA$$QAU?$_Wrap_alloc@V?$allocator@D@std@@@0@AAU10@@Z ; std::move<std::_Wrap_alloc<std::allocator<char> > &>
PUBLIC	??$?0U?$_Wrap_alloc@V?$allocator@D@std@@@std@@X@?$_String_alloc@U?$_String_base_types@DV?$allocator@D@std@@@std@@@std@@QAE@$$QAU?$_Wrap_alloc@V?$allocator@D@std@@@1@@Z ; std::_String_alloc<std::_String_base_types<char,std::allocator<char> > >::_String_alloc<std::_String_base_types<char,std::allocator<char> > ><std::_Wrap_alloc<std::allocator<char> >,void>
PUBLIC	??$?0$$V@?$_Compressed_pair@U?$_Wrap_alloc@V?$allocator@V?$basic_string@DU?$char_traits@D@std@@V?$allocator@D@2@@std@@@std@@@std@@V?$_Vector_val@U?$_Simple_types@V?$basic_string@DU?$char_traits@D@std@@V?$allocator@D@2@@std@@@std@@@2@$00@std@@QAE@U_Zero_then_variadic_args_t@1@@Z ; std::_Compressed_pair<std::_Wrap_alloc<std::allocator<std::basic_string<char,std::char_traits<char>,std::allocator<char> > > >,std::_Vector_val<std::_Simple_types<std::basic_string<char,std::char_traits<char>,std::allocator<char> > > >,1>::_Compressed_pair<std::_Wrap_alloc<std::allocator<std::basic_string<char,std::char_traits<char>,std::allocator<char> > > >,std::_Vector_val<std::_Simple_types<std::basic_string<char,std::char_traits<char>,std::allocator<char> > > >,1><>
PUBLIC	??$?0V?$allocator@D@std@@@?$_Wrap_alloc@V?$allocator@D@std@@@std@@QAE@$$QAV?$allocator@D@1@@Z ; std::_Wrap_alloc<std::allocator<char> >::_Wrap_alloc<std::allocator<char> ><std::allocator<char> >
PUBLIC	??$_Pocma@U?$_Wrap_alloc@V?$allocator@D@std@@@std@@@std@@YAXAAU?$_Wrap_alloc@V?$allocator@D@std@@@0@0@Z ; std::_Pocma<std::_Wrap_alloc<std::allocator<char> > >
PUBLIC	??$?0$$V@?$_Compressed_pair@U?$_Wrap_alloc@V?$allocator@D@std@@@std@@V?$_String_val@U?$_Simple_types@D@std@@@2@$00@std@@QAE@U_Zero_then_variadic_args_t@1@@Z ; std::_Compressed_pair<std::_Wrap_alloc<std::allocator<char> >,std::_String_val<std::_Simple_types<char> >,1>::_Compressed_pair<std::_Wrap_alloc<std::allocator<char> >,std::_String_val<std::_Simple_types<char> >,1><>
PUBLIC	??$addressof@PAD@std@@YAPAPADAAPAD@Z		; std::addressof<char *>
PUBLIC	??$destroy@PAD@?$_Wrap_alloc@V?$allocator@D@std@@@std@@QAEXPAPAD@Z ; std::_Wrap_alloc<std::allocator<char> >::destroy<char *>
PUBLIC	??$_Unfancy@D@std@@YAPADPAD@Z			; std::_Unfancy<char>
PUBLIC	??$_Debug_pointer_if@$$CBD@std@@YAX_NPBDPB_WI@Z	; std::_Debug_pointer_if<char const >
PUBLIC	??$construct@PADAAPAD@?$_Wrap_alloc@V?$allocator@D@std@@@std@@QAEXPAPADAAPAD@Z ; std::_Wrap_alloc<std::allocator<char> >::construct<char *,char * &>
PUBLIC	?deallocate@?$allocator@U_Container_proxy@std@@@std@@QAEXPAU_Container_proxy@2@I@Z ; std::allocator<std::_Container_proxy>::deallocate
PUBLIC	?allocate@?$allocator@U_Container_proxy@std@@@std@@QAEPAU_Container_proxy@2@I@Z ; std::allocator<std::_Container_proxy>::allocate
PUBLIC	?address@?$_Wrap_alloc@V?$allocator@U_Container_proxy@std@@@std@@@std@@QBEPAU_Container_proxy@2@AAU32@@Z ; std::_Wrap_alloc<std::allocator<std::_Container_proxy> >::address
PUBLIC	?allocate@?$_Wrap_alloc@V?$allocator@U_Container_proxy@std@@@std@@@std@@QAEPAU_Container_proxy@2@I@Z ; std::_Wrap_alloc<std::allocator<std::_Container_proxy> >::allocate
PUBLIC	?deallocate@?$_Wrap_alloc@V?$allocator@U_Container_proxy@std@@@std@@@std@@QAEXPAU_Container_proxy@2@I@Z ; std::_Wrap_alloc<std::allocator<std::_Container_proxy> >::deallocate
PUBLIC	??$?0AAU?$_Wrap_alloc@V?$allocator@V?$basic_string@DU?$char_traits@D@std@@V?$allocator@D@2@@std@@@std@@@std@@@?$_Wrap_alloc@V?$allocator@U_Container_proxy@std@@@std@@@std@@QAE@AAU?$_Wrap_alloc@V?$allocator@V?$basic_string@DU?$char_traits@D@std@@V?$allocator@D@2@@std@@@std@@@1@@Z ; std::_Wrap_alloc<std::allocator<std::_Container_proxy> >::_Wrap_alloc<std::allocator<std::_Container_proxy> ><std::_Wrap_alloc<std::allocator<std::basic_string<char,std::char_traits<char>,std::allocator<char> > > > &>
PUBLIC	??$destroy@U_Container_proxy@std@@@?$_Wrap_alloc@V?$allocator@U_Container_proxy@std@@@std@@@std@@QAEXPAU_Container_proxy@1@@Z ; std::_Wrap_alloc<std::allocator<std::_Container_proxy> >::destroy<std::_Container_proxy>
PUBLIC	??$_Unfancy@U_Container_proxy@std@@@std@@YAPAU_Container_proxy@0@PAU10@@Z ; std::_Unfancy<std::_Container_proxy>
PUBLIC	??$construct@U_Container_proxy@std@@U12@@?$_Wrap_alloc@V?$allocator@U_Container_proxy@std@@@std@@@std@@QAEXPAU_Container_proxy@1@$$QAU21@@Z ; std::_Wrap_alloc<std::allocator<std::_Container_proxy> >::construct<std::_Container_proxy,std::_Container_proxy>
PUBLIC	??$_Destroy_range@V?$allocator@V?$basic_string@DU?$char_traits@D@std@@V?$allocator@D@2@@std@@@std@@PAV?$basic_string@DU?$char_traits@D@std@@V?$allocator@D@2@@2@@std@@YAXPAV?$basic_string@DU?$char_traits@D@std@@V?$allocator@D@2@@0@0AAU?$_Wrap_alloc@V?$allocator@V?$basic_string@DU?$char_traits@D@std@@V?$allocator@D@2@@std@@@std@@@0@@Z ; std::_Destroy_range<std::allocator<std::basic_string<char,std::char_traits<char>,std::allocator<char> > >,std::basic_string<char,std::char_traits<char>,std::allocator<char> > *>
PUBLIC	??$_Unfancy@$$CBD@std@@YAPBDPBD@Z		; std::_Unfancy<char const >
PUBLIC	?pointer_to@?$pointer_traits@PAD@std@@SAPADAAD@Z ; std::pointer_traits<char *>::pointer_to
PUBLIC	??$?0AAU?$_Wrap_alloc@V?$allocator@D@std@@@std@@@?$_Wrap_alloc@V?$allocator@U_Container_proxy@std@@@std@@@std@@QAE@AAU?$_Wrap_alloc@V?$allocator@D@std@@@1@@Z ; std::_Wrap_alloc<std::allocator<std::_Container_proxy> >::_Wrap_alloc<std::allocator<std::_Container_proxy> ><std::_Wrap_alloc<std::allocator<char> > &>
PUBLIC	??$addressof@D@std@@YAPADAAD@Z			; std::addressof<char>
PUBLIC	?pointer_to@?$pointer_traits@PAU_Container_proxy@std@@@std@@SAPAU_Container_proxy@2@AAU32@@Z ; std::pointer_traits<std::_Container_proxy *>::pointer_to
PUBLIC	??$addressof@U_Container_proxy@std@@@std@@YAPAU_Container_proxy@0@AAU10@@Z ; std::addressof<std::_Container_proxy>
PUBLIC	??0_Sentry_base@?$basic_ostream@DU?$char_traits@D@std@@@std@@QAE@AAV12@@Z ; std::basic_ostream<char,std::char_traits<char> >::_Sentry_base::_Sentry_base
PUBLIC	??1_Sentry_base@?$basic_ostream@DU?$char_traits@D@std@@@std@@QAE@XZ ; std::basic_ostream<char,std::char_traits<char> >::_Sentry_base::~_Sentry_base
PUBLIC	??0sentry@?$basic_ostream@DU?$char_traits@D@std@@@std@@QAE@AAV12@@Z ; std::basic_ostream<char,std::char_traits<char> >::sentry::sentry
PUBLIC	??1sentry@?$basic_ostream@DU?$char_traits@D@std@@@std@@QAE@XZ ; std::basic_ostream<char,std::char_traits<char> >::sentry::~sentry
PUBLIC	??Bsentry@?$basic_ostream@DU?$char_traits@D@std@@@std@@QBE_NXZ ; std::basic_ostream<char,std::char_traits<char> >::sentry::operator bool
PUBLIC	??0?$to_upperF@D@detail@algorithm@boost@@QAE@ABVlocale@std@@@Z ; boost::algorithm::detail::to_upperF<char>::to_upperF<char>
PUBLIC	??R?$to_upperF@D@detail@algorithm@boost@@QBEDD@Z ; boost::algorithm::detail::to_upperF<char>::operator()
PUBLIC	??$transform_range_copy@V?$basic_string@DU?$char_traits@D@std@@V?$allocator@D@2@@std@@V12@U?$to_upperF@D@detail@algorithm@boost@@@detail@algorithm@boost@@YA?AV?$basic_string@DU?$char_traits@D@std@@V?$allocator@D@2@@std@@ABV34@U?$to_upperF@D@012@@Z ; boost::algorithm::detail::transform_range_copy<std::basic_string<char,std::char_traits<char>,std::allocator<char> >,std::basic_string<char,std::char_traits<char>,std::allocator<char> >,boost::algorithm::detail::to_upperF<char> >
PUBLIC	??$?MDU?$char_traits@D@std@@V?$allocator@D@1@@std@@YA_NABV?$basic_string@DU?$char_traits@D@std@@V?$allocator@D@2@@0@0@Z ; std::operator<<char,std::char_traits<char>,std::allocator<char> >
PUBLIC	??$save_override@$$CBV?$basic_string@DU?$char_traits@D@std@@V?$allocator@D@2@@std@@@?$basic_text_oarchive@Vtext_oarchive@archive@boost@@@archive@boost@@IAEXABV?$basic_string@DU?$char_traits@D@std@@V?$allocator@D@2@@std@@@Z ; boost::archive::basic_text_oarchive<boost::archive::text_oarchive>::save_override<std::basic_string<char,std::char_traits<char>,std::allocator<char> > const >
PUBLIC	??$save_override@$$CBV?$vector@V?$basic_string@DU?$char_traits@D@std@@V?$allocator@D@2@@std@@V?$allocator@V?$basic_string@DU?$char_traits@D@std@@V?$allocator@D@2@@std@@@2@@std@@@?$basic_text_oarchive@Vtext_oarchive@archive@boost@@@archive@boost@@IAEXABV?$vector@V?$basic_string@DU?$char_traits@D@std@@V?$allocator@D@2@@std@@V?$allocator@V?$basic_string@DU?$char_traits@D@std@@V?$allocator@D@2@@std@@@2@@std@@@Z ; boost::archive::basic_text_oarchive<boost::archive::text_oarchive>::save_override<std::vector<std::basic_string<char,std::char_traits<char>,std::allocator<char> >,std::allocator<std::basic_string<char,std::char_traits<char>,std::allocator<char> > > > const >
PUBLIC	??$load_override@V?$basic_string@DU?$char_traits@D@std@@V?$allocator@D@2@@std@@@?$text_iarchive_impl@Vtext_iarchive@archive@boost@@@archive@boost@@IAEXAAV?$basic_string@DU?$char_traits@D@std@@V?$allocator@D@2@@std@@@Z ; boost::archive::text_iarchive_impl<boost::archive::text_iarchive>::load_override<std::basic_string<char,std::char_traits<char>,std::allocator<char> > >
PUBLIC	??$load_override@V?$vector@V?$basic_string@DU?$char_traits@D@std@@V?$allocator@D@2@@std@@V?$allocator@V?$basic_string@DU?$char_traits@D@std@@V?$allocator@D@2@@std@@@2@@std@@@?$text_iarchive_impl@Vtext_iarchive@archive@boost@@@archive@boost@@IAEXAAV?$vector@V?$basic_string@DU?$char_traits@D@std@@V?$allocator@D@2@@std@@V?$allocator@V?$basic_string@DU?$char_traits@D@std@@V?$allocator@D@2@@std@@@2@@std@@@Z ; boost::archive::text_iarchive_impl<boost::archive::text_iarchive>::load_override<std::vector<std::basic_string<char,std::char_traits<char>,std::allocator<char> >,std::allocator<std::basic_string<char,std::char_traits<char>,std::allocator<char> > > > >
PUBLIC	??$?8V?$allocator@D@std@@V01@@std@@YA_NABU?$_Wrap_alloc@V?$allocator@D@std@@@0@0@Z ; std::operator==<std::allocator<char>,std::allocator<char> >
PUBLIC	??$?8DD@std@@YA_NABV?$allocator@D@0@0@Z		; std::operator==<char,char>
PUBLIC	??$forward@U?$_Wrap_alloc@V?$allocator@D@std@@@std@@@std@@YA$$QAU?$_Wrap_alloc@V?$allocator@D@std@@@0@AAU10@@Z ; std::forward<std::_Wrap_alloc<std::allocator<char> > >
PUBLIC	??$?0U?$_Wrap_alloc@V?$allocator@D@std@@@std@@$$V@?$_Compressed_pair@U?$_Wrap_alloc@V?$allocator@D@std@@@std@@V?$_String_val@U?$_Simple_types@D@std@@@2@$00@std@@QAE@U_One_then_variadic_args_t@1@$$QAU?$_Wrap_alloc@V?$allocator@D@std@@@1@@Z ; std::_Compressed_pair<std::_Wrap_alloc<std::allocator<char> >,std::_String_val<std::_Simple_types<char> >,1>::_Compressed_pair<std::_Wrap_alloc<std::allocator<char> >,std::_String_val<std::_Simple_types<char> >,1><std::_Wrap_alloc<std::allocator<char> > >
PUBLIC	??$forward@V?$allocator@D@std@@@std@@YA$$QAV?$allocator@D@0@AAV10@@Z ; std::forward<std::allocator<char> >
PUBLIC	??$_Pocma@U?$_Wrap_alloc@V?$allocator@D@std@@@std@@@std@@YAXAAU?$_Wrap_alloc@V?$allocator@D@std@@@0@0U?$integral_constant@_N$00@0@@Z ; std::_Pocma<std::_Wrap_alloc<std::allocator<char> > >
PUBLIC	??$destroy@PAD@?$allocator_traits@V?$allocator@D@std@@@std@@SAXAAV?$allocator@D@1@PAPAD@Z ; std::allocator_traits<std::allocator<char> >::destroy<char *>
PUBLIC	??$forward@AAPAD@std@@YAAAPADAAPAD@Z		; std::forward<char * &>
PUBLIC	??$construct@PADAAPAD@?$allocator_traits@V?$allocator@D@std@@@std@@SAXAAV?$allocator@D@1@PAPADAAPAD@Z ; std::allocator_traits<std::allocator<char> >::construct<char *,char * &>
PUBLIC	??$forward@AAU?$_Wrap_alloc@V?$allocator@V?$basic_string@DU?$char_traits@D@std@@V?$allocator@D@2@@std@@@std@@@std@@@std@@YAAAU?$_Wrap_alloc@V?$allocator@V?$basic_string@DU?$char_traits@D@std@@V?$allocator@D@2@@std@@@std@@@0@AAU10@@Z ; std::forward<std::_Wrap_alloc<std::allocator<std::basic_string<char,std::char_traits<char>,std::allocator<char> > > > &>
PUBLIC	??$?0V?$basic_string@DU?$char_traits@D@std@@V?$allocator@D@2@@std@@@?$allocator@U_Container_proxy@std@@@std@@QAE@ABV?$allocator@V?$basic_string@DU?$char_traits@D@std@@V?$allocator@D@2@@std@@@1@@Z ; std::allocator<std::_Container_proxy>::allocator<std::_Container_proxy><std::basic_string<char,std::char_traits<char>,std::allocator<char> > >
PUBLIC	??$destroy@U_Container_proxy@std@@@?$allocator_traits@V?$allocator@U_Container_proxy@std@@@std@@@std@@SAXAAV?$allocator@U_Container_proxy@std@@@1@PAU_Container_proxy@1@@Z ; std::allocator_traits<std::allocator<std::_Container_proxy> >::destroy<std::_Container_proxy>
PUBLIC	??$forward@U_Container_proxy@std@@@std@@YA$$QAU_Container_proxy@0@AAU10@@Z ; std::forward<std::_Container_proxy>
PUBLIC	??$construct@U_Container_proxy@std@@U12@@?$allocator_traits@V?$allocator@U_Container_proxy@std@@@std@@@std@@SAXAAV?$allocator@U_Container_proxy@std@@@1@PAU_Container_proxy@1@$$QAU31@@Z ; std::allocator_traits<std::allocator<std::_Container_proxy> >::construct<std::_Container_proxy,std::_Container_proxy>
PUBLIC	??$_Destroy_range1@V?$allocator@V?$basic_string@DU?$char_traits@D@std@@V?$allocator@D@2@@std@@@std@@PAV?$basic_string@DU?$char_traits@D@std@@V?$allocator@D@2@@2@@std@@YAXPAV?$basic_string@DU?$char_traits@D@std@@V?$allocator@D@2@@0@0AAU?$_Wrap_alloc@V?$allocator@V?$basic_string@DU?$char_traits@D@std@@V?$allocator@D@2@@std@@@std@@@0@U?$integral_constant@_N$0A@@0@@Z ; std::_Destroy_range1<std::allocator<std::basic_string<char,std::char_traits<char>,std::allocator<char> > >,std::basic_string<char,std::char_traits<char>,std::allocator<char> > *>
PUBLIC	??$forward@AAU?$_Wrap_alloc@V?$allocator@D@std@@@std@@@std@@YAAAU?$_Wrap_alloc@V?$allocator@D@std@@@0@AAU10@@Z ; std::forward<std::_Wrap_alloc<std::allocator<char> > &>
PUBLIC	??$?0D@?$allocator@U_Container_proxy@std@@@std@@QAE@ABV?$allocator@D@1@@Z ; std::allocator<std::_Container_proxy>::allocator<std::_Container_proxy><char>
PUBLIC	??$?0ABV?$allocator@D@std@@X@?$_String_alloc@U?$_String_base_types@DV?$allocator@D@std@@@std@@@std@@QAE@ABV?$allocator@D@1@@Z ; std::_String_alloc<std::_String_base_types<char,std::allocator<char> > >::_String_alloc<std::_String_base_types<char,std::allocator<char> > ><std::allocator<char> const &,void>
PUBLIC	??$begin@V?$basic_string@DU?$char_traits@D@std@@V?$allocator@D@2@@std@@@range_adl_barrier@boost@@YA?AV?$_String_const_iterator@V?$_String_val@U?$_Simple_types@D@std@@@std@@@std@@ABV?$basic_string@DU?$char_traits@D@std@@V?$allocator@D@2@@3@@Z ; boost::range_adl_barrier::begin<std::basic_string<char,std::char_traits<char>,std::allocator<char> > >
PUBLIC	??$make_transform_iterator@U?$to_upperF@D@detail@algorithm@boost@@V?$_String_const_iterator@V?$_String_val@U?$_Simple_types@D@std@@@std@@@std@@@iterators@boost@@YA?AV?$transform_iterator@U?$to_upperF@D@detail@algorithm@boost@@V?$_String_const_iterator@V?$_String_val@U?$_Simple_types@D@std@@@std@@@std@@Uuse_default@iterators@4@U784@@01@V?$_String_const_iterator@V?$_String_val@U?$_Simple_types@D@std@@@std@@@std@@U?$to_upperF@D@detail@algorithm@1@@Z ; boost::iterators::make_transform_iterator<boost::algorithm::detail::to_upperF<char>,std::_String_const_iterator<std::_String_val<std::_Simple_types<char> > > >
PUBLIC	??D?$iterator_facade_base@V?$transform_iterator@U?$to_upperF@D@detail@algorithm@boost@@V?$_String_const_iterator@V?$_String_val@U?$_Simple_types@D@std@@@std@@@std@@Uuse_default@iterators@4@U784@@iterators@boost@@DUrandom_access_traversal_tag@23@DH$0A@$0A@@detail@iterators@boost@@QBEDXZ ; boost::iterators::detail::iterator_facade_base<boost::iterators::transform_iterator<boost::algorithm::detail::to_upperF<char>,std::_String_const_iterator<std::_String_val<std::_Simple_types<char> > >,boost::iterators::use_default,boost::iterators::use_default>,char,boost::iterators::random_access_traversal_tag,char,int,0,0>::operator*
PUBLIC	??E?$iterator_facade_base@V?$transform_iterator@U?$to_upperF@D@detail@algorithm@boost@@V?$_String_const_iterator@V?$_String_val@U?$_Simple_types@D@std@@@std@@@std@@Uuse_default@iterators@4@U784@@iterators@boost@@DUrandom_access_traversal_tag@23@DH$0A@$0A@@detail@iterators@boost@@QAEAAV?$transform_iterator@U?$to_upperF@D@detail@algorithm@boost@@V?$_String_const_iterator@V?$_String_val@U?$_Simple_types@D@std@@@std@@@std@@Uuse_default@iterators@4@U784@@23@XZ ; boost::iterators::detail::iterator_facade_base<boost::iterators::transform_iterator<boost::algorithm::detail::to_upperF<char>,std::_String_const_iterator<std::_String_val<std::_Simple_types<char> > >,boost::iterators::use_default,boost::iterators::use_default>,char,boost::iterators::random_access_traversal_tag,char,int,0,0>::operator++
PUBLIC	?derived@?$iterator_facade_base@V?$transform_iterator@U?$to_upperF@D@detail@algorithm@boost@@V?$_String_const_iterator@V?$_String_val@U?$_Simple_types@D@std@@@std@@@std@@Uuse_default@iterators@4@U784@@iterators@boost@@DUrandom_access_traversal_tag@23@DH$0A@$0A@@detail@iterators@boost@@IAEAAV?$transform_iterator@U?$to_upperF@D@detail@algorithm@boost@@V?$_String_const_iterator@V?$_String_val@U?$_Simple_types@D@std@@@std@@@std@@Uuse_default@iterators@4@U784@@34@XZ ; boost::iterators::detail::iterator_facade_base<boost::iterators::transform_iterator<boost::algorithm::detail::to_upperF<char>,std::_String_const_iterator<std::_String_val<std::_Simple_types<char> > >,boost::iterators::use_default,boost::iterators::use_default>,char,boost::iterators::random_access_traversal_tag,char,int,0,0>::derived
PUBLIC	?derived@?$iterator_facade_base@V?$transform_iterator@U?$to_upperF@D@detail@algorithm@boost@@V?$_String_const_iterator@V?$_String_val@U?$_Simple_types@D@std@@@std@@@std@@Uuse_default@iterators@4@U784@@iterators@boost@@DUrandom_access_traversal_tag@23@DH$0A@$0A@@detail@iterators@boost@@IBEABV?$transform_iterator@U?$to_upperF@D@detail@algorithm@boost@@V?$_String_const_iterator@V?$_String_val@U?$_Simple_types@D@std@@@std@@@std@@Uuse_default@iterators@4@U784@@34@XZ ; boost::iterators::detail::iterator_facade_base<boost::iterators::transform_iterator<boost::algorithm::detail::to_upperF<char>,std::_String_const_iterator<std::_String_val<std::_Simple_types<char> > >,boost::iterators::use_default,boost::iterators::use_default>,char,boost::iterators::random_access_traversal_tag,char,int,0,0>::derived
PUBLIC	??0?$iterator_adaptor@V?$transform_iterator@U?$to_upperF@D@detail@algorithm@boost@@V?$_String_const_iterator@V?$_String_val@U?$_Simple_types@D@std@@@std@@@std@@Uuse_default@iterators@4@U784@@iterators@boost@@V?$_String_const_iterator@V?$_String_val@U?$_Simple_types@D@std@@@std@@@std@@DUuse_default@23@DU623@@iterators@boost@@QAE@ABV?$_String_const_iterator@V?$_String_val@U?$_Simple_types@D@std@@@std@@@std@@@Z ; boost::iterators::iterator_adaptor<boost::iterators::transform_iterator<boost::algorithm::detail::to_upperF<char>,std::_String_const_iterator<std::_String_val<std::_Simple_types<char> > >,boost::iterators::use_default,boost::iterators::use_default>,std::_String_const_iterator<std::_String_val<std::_Simple_types<char> > >,char,boost::iterators::use_default,char,boost::iterators::use_default>::iterator_adaptor<boost::iterators::transform_iterator<boost::algorithm::detail::to_upperF<char>,std::_String_const_iterator<std::_String_val<std::_Simple_types<char> > >,boost::iterators::use_default,boost::iterators::use_default>,std::_String_const_iterator<std::_String_val<std::_Simple_types<char> > >,char,boost::iterators::use_default,char,boost::iterators::use_default>
PUBLIC	?base@?$iterator_adaptor@V?$transform_iterator@U?$to_upperF@D@detail@algorithm@boost@@V?$_String_const_iterator@V?$_String_val@U?$_Simple_types@D@std@@@std@@@std@@Uuse_default@iterators@4@U784@@iterators@boost@@V?$_String_const_iterator@V?$_String_val@U?$_Simple_types@D@std@@@std@@@std@@DUuse_default@23@DU623@@iterators@boost@@QBEABV?$_String_const_iterator@V?$_String_val@U?$_Simple_types@D@std@@@std@@@std@@XZ ; boost::iterators::iterator_adaptor<boost::iterators::transform_iterator<boost::algorithm::detail::to_upperF<char>,std::_String_const_iterator<std::_String_val<std::_Simple_types<char> > >,boost::iterators::use_default,boost::iterators::use_default>,std::_String_const_iterator<std::_String_val<std::_Simple_types<char> > >,char,boost::iterators::use_default,char,boost::iterators::use_default>::base
PUBLIC	?increment@?$iterator_adaptor@V?$transform_iterator@U?$to_upperF@D@detail@algorithm@boost@@V?$_String_const_iterator@V?$_String_val@U?$_Simple_types@D@std@@@std@@@std@@Uuse_default@iterators@4@U784@@iterators@boost@@V?$_String_const_iterator@V?$_String_val@U?$_Simple_types@D@std@@@std@@@std@@DUuse_default@23@DU623@@iterators@boost@@AAEXXZ ; boost::iterators::iterator_adaptor<boost::iterators::transform_iterator<boost::algorithm::detail::to_upperF<char>,std::_String_const_iterator<std::_String_val<std::_Simple_types<char> > >,boost::iterators::use_default,boost::iterators::use_default>,std::_String_const_iterator<std::_String_val<std::_Simple_types<char> > >,char,boost::iterators::use_default,char,boost::iterators::use_default>::increment
PUBLIC	??1?$iterator_adaptor@V?$transform_iterator@U?$to_upperF@D@detail@algorithm@boost@@V?$_String_const_iterator@V?$_String_val@U?$_Simple_types@D@std@@@std@@@std@@Uuse_default@iterators@4@U784@@iterators@boost@@V?$_String_const_iterator@V?$_String_val@U?$_Simple_types@D@std@@@std@@@std@@DUuse_default@23@DU623@@iterators@boost@@QAE@XZ ; boost::iterators::iterator_adaptor<boost::iterators::transform_iterator<boost::algorithm::detail::to_upperF<char>,std::_String_const_iterator<std::_String_val<std::_Simple_types<char> > >,boost::iterators::use_default,boost::iterators::use_default>,std::_String_const_iterator<std::_String_val<std::_Simple_types<char> > >,char,boost::iterators::use_default,char,boost::iterators::use_default>::~iterator_adaptor<boost::iterators::transform_iterator<boost::algorithm::detail::to_upperF<char>,std::_String_const_iterator<std::_String_val<std::_Simple_types<char> > >,boost::iterators::use_default,boost::iterators::use_default>,std::_String_const_iterator<std::_String_val<std::_Simple_types<char> > >,char,boost::iterators::use_default,char,boost::iterators::use_default>
PUBLIC	??0?$iterator_adaptor@V?$transform_iterator@U?$to_upperF@D@detail@algorithm@boost@@V?$_String_const_iterator@V?$_String_val@U?$_Simple_types@D@std@@@std@@@std@@Uuse_default@iterators@4@U784@@iterators@boost@@V?$_String_const_iterator@V?$_String_val@U?$_Simple_types@D@std@@@std@@@std@@DUuse_default@23@DU623@@iterators@boost@@QAE@ABV012@@Z ; boost::iterators::iterator_adaptor<boost::iterators::transform_iterator<boost::algorithm::detail::to_upperF<char>,std::_String_const_iterator<std::_String_val<std::_Simple_types<char> > >,boost::iterators::use_default,boost::iterators::use_default>,std::_String_const_iterator<std::_String_val<std::_Simple_types<char> > >,char,boost::iterators::use_default,char,boost::iterators::use_default>::iterator_adaptor<boost::iterators::transform_iterator<boost::algorithm::detail::to_upperF<char>,std::_String_const_iterator<std::_String_val<std::_Simple_types<char> > >,boost::iterators::use_default,boost::iterators::use_default>,std::_String_const_iterator<std::_String_val<std::_Simple_types<char> > >,char,boost::iterators::use_default,char,boost::iterators::use_default>
PUBLIC	??0?$iterator_adaptor@V?$transform_iterator@U?$to_upperF@D@detail@algorithm@boost@@V?$_String_const_iterator@V?$_String_val@U?$_Simple_types@D@std@@@std@@@std@@Uuse_default@iterators@4@U784@@iterators@boost@@V?$_String_const_iterator@V?$_String_val@U?$_Simple_types@D@std@@@std@@@std@@DUuse_default@23@DU623@@iterators@boost@@QAE@$$QAV012@@Z ; boost::iterators::iterator_adaptor<boost::iterators::transform_iterator<boost::algorithm::detail::to_upperF<char>,std::_String_const_iterator<std::_String_val<std::_Simple_types<char> > >,boost::iterators::use_default,boost::iterators::use_default>,std::_String_const_iterator<std::_String_val<std::_Simple_types<char> > >,char,boost::iterators::use_default,char,boost::iterators::use_default>::iterator_adaptor<boost::iterators::transform_iterator<boost::algorithm::detail::to_upperF<char>,std::_String_const_iterator<std::_String_val<std::_Simple_types<char> > >,boost::iterators::use_default,boost::iterators::use_default>,std::_String_const_iterator<std::_String_val<std::_Simple_types<char> > >,char,boost::iterators::use_default,char,boost::iterators::use_default>
PUBLIC	??0?$transform_iterator@U?$to_upperF@D@detail@algorithm@boost@@V?$_String_const_iterator@V?$_String_val@U?$_Simple_types@D@std@@@std@@@std@@Uuse_default@iterators@4@U784@@iterators@boost@@QAE@ABV?$_String_const_iterator@V?$_String_val@U?$_Simple_types@D@std@@@std@@@std@@U?$to_upperF@D@detail@algorithm@2@@Z ; boost::iterators::transform_iterator<boost::algorithm::detail::to_upperF<char>,std::_String_const_iterator<std::_String_val<std::_Simple_types<char> > >,boost::iterators::use_default,boost::iterators::use_default>::transform_iterator<boost::algorithm::detail::to_upperF<char>,std::_String_const_iterator<std::_String_val<std::_Simple_types<char> > >,boost::iterators::use_default,boost::iterators::use_default>
PUBLIC	?dereference@?$transform_iterator@U?$to_upperF@D@detail@algorithm@boost@@V?$_String_const_iterator@V?$_String_val@U?$_Simple_types@D@std@@@std@@@std@@Uuse_default@iterators@4@U784@@iterators@boost@@ABEDXZ ; boost::iterators::transform_iterator<boost::algorithm::detail::to_upperF<char>,std::_String_const_iterator<std::_String_val<std::_Simple_types<char> > >,boost::iterators::use_default,boost::iterators::use_default>::dereference
PUBLIC	??1?$transform_iterator@U?$to_upperF@D@detail@algorithm@boost@@V?$_String_const_iterator@V?$_String_val@U?$_Simple_types@D@std@@@std@@@std@@Uuse_default@iterators@4@U784@@iterators@boost@@QAE@XZ ; boost::iterators::transform_iterator<boost::algorithm::detail::to_upperF<char>,std::_String_const_iterator<std::_String_val<std::_Simple_types<char> > >,boost::iterators::use_default,boost::iterators::use_default>::~transform_iterator<boost::algorithm::detail::to_upperF<char>,std::_String_const_iterator<std::_String_val<std::_Simple_types<char> > >,boost::iterators::use_default,boost::iterators::use_default>
PUBLIC	??0?$transform_iterator@U?$to_upperF@D@detail@algorithm@boost@@V?$_String_const_iterator@V?$_String_val@U?$_Simple_types@D@std@@@std@@@std@@Uuse_default@iterators@4@U784@@iterators@boost@@QAE@ABV012@@Z ; boost::iterators::transform_iterator<boost::algorithm::detail::to_upperF<char>,std::_String_const_iterator<std::_String_val<std::_Simple_types<char> > >,boost::iterators::use_default,boost::iterators::use_default>::transform_iterator<boost::algorithm::detail::to_upperF<char>,std::_String_const_iterator<std::_String_val<std::_Simple_types<char> > >,boost::iterators::use_default,boost::iterators::use_default>
PUBLIC	??0?$transform_iterator@U?$to_upperF@D@detail@algorithm@boost@@V?$_String_const_iterator@V?$_String_val@U?$_Simple_types@D@std@@@std@@@std@@Uuse_default@iterators@4@U784@@iterators@boost@@QAE@$$QAV012@@Z ; boost::iterators::transform_iterator<boost::algorithm::detail::to_upperF<char>,std::_String_const_iterator<std::_String_val<std::_Simple_types<char> > >,boost::iterators::use_default,boost::iterators::use_default>::transform_iterator<boost::algorithm::detail::to_upperF<char>,std::_String_const_iterator<std::_String_val<std::_Simple_types<char> > >,boost::iterators::use_default,boost::iterators::use_default>
PUBLIC	??$end@V?$basic_string@DU?$char_traits@D@std@@V?$allocator@D@2@@std@@@range_adl_barrier@boost@@YA?AV?$_String_const_iterator@V?$_String_val@U?$_Simple_types@D@std@@@std@@@std@@ABV?$basic_string@DU?$char_traits@D@std@@V?$allocator@D@2@@3@@Z ; boost::range_adl_barrier::end<std::basic_string<char,std::char_traits<char>,std::allocator<char> > >
PUBLIC	??$?0V?$transform_iterator@U?$to_upperF@D@detail@algorithm@boost@@V?$_String_const_iterator@V?$_String_val@U?$_Simple_types@D@std@@@std@@@std@@Uuse_default@iterators@4@U784@@iterators@boost@@X@?$basic_string@DU?$char_traits@D@std@@V?$allocator@D@2@@std@@QAE@V?$transform_iterator@U?$to_upperF@D@detail@algorithm@boost@@V?$_String_const_iterator@V?$_String_val@U?$_Simple_types@D@std@@@std@@@std@@Uuse_default@iterators@4@U784@@iterators@boost@@0ABV?$allocator@D@1@@Z ; std::basic_string<char,std::char_traits<char>,std::allocator<char> >::basic_string<char,std::char_traits<char>,std::allocator<char> ><boost::iterators::transform_iterator<boost::algorithm::detail::to_upperF<char>,std::_String_const_iterator<std::_String_val<std::_Simple_types<char> > >,boost::iterators::use_default,boost::iterators::use_default>,void>
PUBLIC	??$save_override@$$CBV?$basic_string@DU?$char_traits@D@std@@V?$allocator@D@2@@std@@@?$common_oarchive@Vtext_oarchive@archive@boost@@@detail@archive@boost@@IAEXABV?$basic_string@DU?$char_traits@D@std@@V?$allocator@D@2@@std@@@Z ; boost::archive::detail::common_oarchive<boost::archive::text_oarchive>::save_override<std::basic_string<char,std::char_traits<char>,std::allocator<char> > const >
PUBLIC	??$save_override@$$CBV?$vector@V?$basic_string@DU?$char_traits@D@std@@V?$allocator@D@2@@std@@V?$allocator@V?$basic_string@DU?$char_traits@D@std@@V?$allocator@D@2@@std@@@2@@std@@@?$common_oarchive@Vtext_oarchive@archive@boost@@@detail@archive@boost@@IAEXABV?$vector@V?$basic_string@DU?$char_traits@D@std@@V?$allocator@D@2@@std@@V?$allocator@V?$basic_string@DU?$char_traits@D@std@@V?$allocator@D@2@@std@@@2@@std@@@Z ; boost::archive::detail::common_oarchive<boost::archive::text_oarchive>::save_override<std::vector<std::basic_string<char,std::char_traits<char>,std::allocator<char> >,std::allocator<std::basic_string<char,std::char_traits<char>,std::allocator<char> > > > const >
PUBLIC	??$load_override@V?$basic_string@DU?$char_traits@D@std@@V?$allocator@D@2@@std@@@?$basic_text_iarchive@Vtext_iarchive@archive@boost@@@archive@boost@@IAEXAAV?$basic_string@DU?$char_traits@D@std@@V?$allocator@D@2@@std@@@Z ; boost::archive::basic_text_iarchive<boost::archive::text_iarchive>::load_override<std::basic_string<char,std::char_traits<char>,std::allocator<char> > >
PUBLIC	??$load_override@V?$vector@V?$basic_string@DU?$char_traits@D@std@@V?$allocator@D@2@@std@@V?$allocator@V?$basic_string@DU?$char_traits@D@std@@V?$allocator@D@2@@std@@@2@@std@@@?$basic_text_iarchive@Vtext_iarchive@archive@boost@@@archive@boost@@IAEXAAV?$vector@V?$basic_string@DU?$char_traits@D@std@@V?$allocator@D@2@@std@@V?$allocator@V?$basic_string@DU?$char_traits@D@std@@V?$allocator@D@2@@std@@@2@@std@@@Z ; boost::archive::basic_text_iarchive<boost::archive::text_iarchive>::load_override<std::vector<std::basic_string<char,std::char_traits<char>,std::allocator<char> >,std::allocator<std::basic_string<char,std::char_traits<char>,std::allocator<char> > > > >
PUBLIC	??$destroy@PAD@?$allocator@D@std@@QAEXPAPAD@Z	; std::allocator<char>::destroy<char *>
PUBLIC	??$construct@PADAAPAD@?$allocator@D@std@@QAEXPAPADAAPAD@Z ; std::allocator<char>::construct<char *,char * &>
PUBLIC	??$destroy@U_Container_proxy@std@@@?$allocator@U_Container_proxy@std@@@std@@QAEXPAU_Container_proxy@1@@Z ; std::allocator<std::_Container_proxy>::destroy<std::_Container_proxy>
PUBLIC	??$construct@U_Container_proxy@std@@U12@@?$allocator@U_Container_proxy@std@@@std@@QAEXPAU_Container_proxy@1@$$QAU21@@Z ; std::allocator<std::_Container_proxy>::construct<std::_Container_proxy,std::_Container_proxy>
PUBLIC	??$_Unfancy@V?$basic_string@DU?$char_traits@D@std@@V?$allocator@D@2@@std@@@std@@YAPAV?$basic_string@DU?$char_traits@D@std@@V?$allocator@D@2@@0@PAV10@@Z ; std::_Unfancy<std::basic_string<char,std::char_traits<char>,std::allocator<char> > >
PUBLIC	??$destroy@V?$basic_string@DU?$char_traits@D@std@@V?$allocator@D@2@@std@@@?$_Wrap_alloc@V?$allocator@V?$basic_string@DU?$char_traits@D@std@@V?$allocator@D@2@@std@@@std@@@std@@QAEXPAV?$basic_string@DU?$char_traits@D@std@@V?$allocator@D@2@@1@@Z ; std::_Wrap_alloc<std::allocator<std::basic_string<char,std::char_traits<char>,std::allocator<char> > > >::destroy<std::basic_string<char,std::char_traits<char>,std::allocator<char> > >
PUBLIC	??$forward@ABV?$allocator@D@std@@@std@@YAABV?$allocator@D@0@ABV10@@Z ; std::forward<std::allocator<char> const &>
PUBLIC	??$?0ABV?$allocator@D@std@@$$V@?$_Compressed_pair@U?$_Wrap_alloc@V?$allocator@D@std@@@std@@V?$_String_val@U?$_Simple_types@D@std@@@2@$00@std@@QAE@U_One_then_variadic_args_t@1@ABV?$allocator@D@1@@Z ; std::_Compressed_pair<std::_Wrap_alloc<std::allocator<char> >,std::_String_val<std::_Simple_types<char> >,1>::_Compressed_pair<std::_Wrap_alloc<std::allocator<char> >,std::_String_val<std::_Simple_types<char> >,1><std::allocator<char> const &>
PUBLIC	??$range_begin@$$CBV?$basic_string@DU?$char_traits@D@std@@V?$allocator@D@2@@std@@@range_detail@boost@@YA?AV?$_String_const_iterator@V?$_String_val@U?$_Simple_types@D@std@@@std@@@std@@ABV?$basic_string@DU?$char_traits@D@std@@V?$allocator@D@2@@3@@Z ; boost::range_detail::range_begin<std::basic_string<char,std::char_traits<char>,std::allocator<char> > const >
PUBLIC	??$range_end@$$CBV?$basic_string@DU?$char_traits@D@std@@V?$allocator@D@2@@std@@@range_detail@boost@@YA?AV?$_String_const_iterator@V?$_String_val@U?$_Simple_types@D@std@@@std@@@std@@ABV?$basic_string@DU?$char_traits@D@std@@V?$allocator@D@2@@3@@Z ; boost::range_detail::range_end<std::basic_string<char,std::char_traits<char>,std::allocator<char> > const >
PUBLIC	??$_Debug_range@V?$transform_iterator@U?$to_upperF@D@detail@algorithm@boost@@V?$_String_const_iterator@V?$_String_val@U?$_Simple_types@D@std@@@std@@@std@@Uuse_default@iterators@4@U784@@iterators@boost@@@std@@YAXV?$transform_iterator@U?$to_upperF@D@detail@algorithm@boost@@V?$_String_const_iterator@V?$_String_val@U?$_Simple_types@D@std@@@std@@@std@@Uuse_default@iterators@4@U784@@iterators@boost@@0PB_WI@Z ; std::_Debug_range<boost::iterators::transform_iterator<boost::algorithm::detail::to_upperF<char>,std::_String_const_iterator<std::_String_val<std::_Simple_types<char> > >,boost::iterators::use_default,boost::iterators::use_default> >
PUBLIC	??$_Unchecked@V?$transform_iterator@U?$to_upperF@D@detail@algorithm@boost@@V?$_String_const_iterator@V?$_String_val@U?$_Simple_types@D@std@@@std@@@std@@Uuse_default@iterators@4@U784@@iterators@boost@@@std@@YA?AV?$transform_iterator@U?$to_upperF@D@detail@algorithm@boost@@V?$_String_const_iterator@V?$_String_val@U?$_Simple_types@D@std@@@std@@@std@@Uuse_default@iterators@4@U784@@iterators@boost@@V123@@Z ; std::_Unchecked<boost::iterators::transform_iterator<boost::algorithm::detail::to_upperF<char>,std::_String_const_iterator<std::_String_val<std::_Simple_types<char> > >,boost::iterators::use_default,boost::iterators::use_default> >
PUBLIC	??$_Construct@V?$transform_iterator@U?$to_upperF@D@detail@algorithm@boost@@V?$_String_const_iterator@V?$_String_val@U?$_Simple_types@D@std@@@std@@@std@@Uuse_default@iterators@4@U784@@iterators@boost@@@?$basic_string@DU?$char_traits@D@std@@V?$allocator@D@2@@std@@QAEXV?$transform_iterator@U?$to_upperF@D@detail@algorithm@boost@@V?$_String_const_iterator@V?$_String_val@U?$_Simple_types@D@std@@@std@@@std@@Uuse_default@iterators@4@U784@@iterators@boost@@0Uinput_iterator_tag@1@@Z ; std::basic_string<char,std::char_traits<char>,std::allocator<char> >::_Construct<boost::iterators::transform_iterator<boost::algorithm::detail::to_upperF<char>,std::_String_const_iterator<std::_String_val<std::_Simple_types<char> > >,boost::iterators::use_default,boost::iterators::use_default> >
PUBLIC	??$save@Vtext_oarchive@archive@boost@@$$CBV?$basic_string@DU?$char_traits@D@std@@V?$allocator@D@2@@std@@@archive@boost@@YAXAAVtext_oarchive@01@ABV?$basic_string@DU?$char_traits@D@std@@V?$allocator@D@2@@std@@@Z ; boost::archive::save<boost::archive::text_oarchive,std::basic_string<char,std::char_traits<char>,std::allocator<char> > const >
PUBLIC	??$save@Vtext_oarchive@archive@boost@@$$CBV?$vector@V?$basic_string@DU?$char_traits@D@std@@V?$allocator@D@2@@std@@V?$allocator@V?$basic_string@DU?$char_traits@D@std@@V?$allocator@D@2@@std@@@2@@std@@@archive@boost@@YAXAAVtext_oarchive@01@ABV?$vector@V?$basic_string@DU?$char_traits@D@std@@V?$allocator@D@2@@std@@V?$allocator@V?$basic_string@DU?$char_traits@D@std@@V?$allocator@D@2@@std@@@2@@std@@@Z ; boost::archive::save<boost::archive::text_oarchive,std::vector<std::basic_string<char,std::char_traits<char>,std::allocator<char> >,std::allocator<std::basic_string<char,std::char_traits<char>,std::allocator<char> > > > const >
PUBLIC	??$load_override@V?$basic_string@DU?$char_traits@D@std@@V?$allocator@D@2@@std@@@?$common_iarchive@Vtext_iarchive@archive@boost@@@detail@archive@boost@@IAEXAAV?$basic_string@DU?$char_traits@D@std@@V?$allocator@D@2@@std@@@Z ; boost::archive::detail::common_iarchive<boost::archive::text_iarchive>::load_override<std::basic_string<char,std::char_traits<char>,std::allocator<char> > >
PUBLIC	??$load_override@V?$vector@V?$basic_string@DU?$char_traits@D@std@@V?$allocator@D@2@@std@@V?$allocator@V?$basic_string@DU?$char_traits@D@std@@V?$allocator@D@2@@std@@@2@@std@@@?$common_iarchive@Vtext_iarchive@archive@boost@@@detail@archive@boost@@IAEXAAV?$vector@V?$basic_string@DU?$char_traits@D@std@@V?$allocator@D@2@@std@@V?$allocator@V?$basic_string@DU?$char_traits@D@std@@V?$allocator@D@2@@std@@@2@@std@@@Z ; boost::archive::detail::common_iarchive<boost::archive::text_iarchive>::load_override<std::vector<std::basic_string<char,std::char_traits<char>,std::allocator<char> >,std::allocator<std::basic_string<char,std::char_traits<char>,std::allocator<char> > > > >
PUBLIC	??$destroy@V?$basic_string@DU?$char_traits@D@std@@V?$allocator@D@2@@std@@@?$allocator_traits@V?$allocator@V?$basic_string@DU?$char_traits@D@std@@V?$allocator@D@2@@std@@@std@@@std@@SAXAAV?$allocator@V?$basic_string@DU?$char_traits@D@std@@V?$allocator@D@2@@std@@@1@PAV?$basic_string@DU?$char_traits@D@std@@V?$allocator@D@2@@1@@Z ; std::allocator_traits<std::allocator<std::basic_string<char,std::char_traits<char>,std::allocator<char> > > >::destroy<std::basic_string<char,std::char_traits<char>,std::allocator<char> > >
PUBLIC	??$?0ABV?$allocator@D@std@@@?$_Wrap_alloc@V?$allocator@D@std@@@std@@QAE@ABV?$allocator@D@1@@Z ; std::_Wrap_alloc<std::allocator<char> >::_Wrap_alloc<std::allocator<char> ><std::allocator<char> const &>
PUBLIC	??$_Debug_range2@V?$transform_iterator@U?$to_upperF@D@detail@algorithm@boost@@V?$_String_const_iterator@V?$_String_val@U?$_Simple_types@D@std@@@std@@@std@@Uuse_default@iterators@4@U784@@iterators@boost@@@std@@YAXV?$transform_iterator@U?$to_upperF@D@detail@algorithm@boost@@V?$_String_const_iterator@V?$_String_val@U?$_Simple_types@D@std@@@std@@@std@@Uuse_default@iterators@4@U784@@iterators@boost@@0PB_WIUinput_iterator_tag@0@@Z ; std::_Debug_range2<boost::iterators::transform_iterator<boost::algorithm::detail::to_upperF<char>,std::_String_const_iterator<std::_String_val<std::_Simple_types<char> > >,boost::iterators::use_default,boost::iterators::use_default> >
PUBLIC	??$?9V?$transform_iterator@U?$to_upperF@D@detail@algorithm@boost@@V?$_String_const_iterator@V?$_String_val@U?$_Simple_types@D@std@@@std@@@std@@Uuse_default@iterators@4@U784@@iterators@boost@@DUrandom_access_traversal_tag@12@DHV012@DU312@DH@iterators@boost@@YA_NABV?$iterator_facade@V?$transform_iterator@U?$to_upperF@D@detail@algorithm@boost@@V?$_String_const_iterator@V?$_String_val@U?$_Simple_types@D@std@@@std@@@std@@Uuse_default@iterators@4@U784@@iterators@boost@@DUrandom_access_traversal_tag@23@DH@01@0@Z ; boost::iterators::operator!=<boost::iterators::transform_iterator<boost::algorithm::detail::to_upperF<char>,std::_String_const_iterator<std::_String_val<std::_Simple_types<char> > >,boost::iterators::use_default,boost::iterators::use_default>,char,boost::iterators::random_access_traversal_tag,char,int,boost::iterators::transform_iterator<boost::algorithm::detail::to_upperF<char>,std::_String_const_iterator<std::_String_val<std::_Simple_types<char> > >,boost::iterators::use_default,boost::iterators::use_default>,char,boost::iterators::random_access_traversal_tag,char,int>
PUBLIC	??$invoke@V?$basic_string@DU?$char_traits@D@std@@V?$allocator@D@2@@std@@@?$save_non_pointer_type@Vtext_oarchive@archive@boost@@@detail@archive@boost@@SAXAAVtext_oarchive@23@ABV?$basic_string@DU?$char_traits@D@std@@V?$allocator@D@2@@std@@@Z ; boost::archive::detail::save_non_pointer_type<boost::archive::text_oarchive>::invoke<std::basic_string<char,std::char_traits<char>,std::allocator<char> > >
PUBLIC	??$invoke@V?$vector@V?$basic_string@DU?$char_traits@D@std@@V?$allocator@D@2@@std@@V?$allocator@V?$basic_string@DU?$char_traits@D@std@@V?$allocator@D@2@@std@@@2@@std@@@?$save_non_pointer_type@Vtext_oarchive@archive@boost@@@detail@archive@boost@@SAXAAVtext_oarchive@23@ABV?$vector@V?$basic_string@DU?$char_traits@D@std@@V?$allocator@D@2@@std@@V?$allocator@V?$basic_string@DU?$char_traits@D@std@@V?$allocator@D@2@@std@@@2@@std@@@Z ; boost::archive::detail::save_non_pointer_type<boost::archive::text_oarchive>::invoke<std::vector<std::basic_string<char,std::char_traits<char>,std::allocator<char> >,std::allocator<std::basic_string<char,std::char_traits<char>,std::allocator<char> > > > >
PUBLIC	??$load@Vtext_iarchive@archive@boost@@V?$basic_string@DU?$char_traits@D@std@@V?$allocator@D@2@@std@@@archive@boost@@YAXAAVtext_iarchive@01@AAV?$basic_string@DU?$char_traits@D@std@@V?$allocator@D@2@@std@@@Z ; boost::archive::load<boost::archive::text_iarchive,std::basic_string<char,std::char_traits<char>,std::allocator<char> > >
PUBLIC	??$load@Vtext_iarchive@archive@boost@@V?$vector@V?$basic_string@DU?$char_traits@D@std@@V?$allocator@D@2@@std@@V?$allocator@V?$basic_string@DU?$char_traits@D@std@@V?$allocator@D@2@@std@@@2@@std@@@archive@boost@@YAXAAVtext_iarchive@01@AAV?$vector@V?$basic_string@DU?$char_traits@D@std@@V?$allocator@D@2@@std@@V?$allocator@V?$basic_string@DU?$char_traits@D@std@@V?$allocator@D@2@@std@@@2@@std@@@Z ; boost::archive::load<boost::archive::text_iarchive,std::vector<std::basic_string<char,std::char_traits<char>,std::allocator<char> >,std::allocator<std::basic_string<char,std::char_traits<char>,std::allocator<char> > > > >
PUBLIC	??$destroy@V?$basic_string@DU?$char_traits@D@std@@V?$allocator@D@2@@std@@@?$allocator@V?$basic_string@DU?$char_traits@D@std@@V?$allocator@D@2@@std@@@std@@QAEXPAV?$basic_string@DU?$char_traits@D@std@@V?$allocator@D@2@@1@@Z ; std::allocator<std::basic_string<char,std::char_traits<char>,std::allocator<char> > >::destroy<std::basic_string<char,std::char_traits<char>,std::allocator<char> > >
PUBLIC	??$increment@V?$transform_iterator@U?$to_upperF@D@detail@algorithm@boost@@V?$_String_const_iterator@V?$_String_val@U?$_Simple_types@D@std@@@std@@@std@@Uuse_default@iterators@4@U784@@iterators@boost@@@iterator_core_access@iterators@boost@@CAXAAV?$transform_iterator@U?$to_upperF@D@detail@algorithm@boost@@V?$_String_const_iterator@V?$_String_val@U?$_Simple_types@D@std@@@std@@@std@@Uuse_default@iterators@4@U784@@12@@Z ; boost::iterators::iterator_core_access::increment<boost::iterators::transform_iterator<boost::algorithm::detail::to_upperF<char>,std::_String_const_iterator<std::_String_val<std::_Simple_types<char> > >,boost::iterators::use_default,boost::iterators::use_default> >
PUBLIC	??$dereference@V?$transform_iterator@U?$to_upperF@D@detail@algorithm@boost@@V?$_String_const_iterator@V?$_String_val@U?$_Simple_types@D@std@@@std@@@std@@Uuse_default@iterators@4@U784@@iterators@boost@@@iterator_core_access@iterators@boost@@CADABV?$transform_iterator@U?$to_upperF@D@detail@algorithm@boost@@V?$_String_const_iterator@V?$_String_val@U?$_Simple_types@D@std@@@std@@@std@@Uuse_default@iterators@4@U784@@12@@Z ; boost::iterators::iterator_core_access::dereference<boost::iterators::transform_iterator<boost::algorithm::detail::to_upperF<char>,std::_String_const_iterator<std::_String_val<std::_Simple_types<char> > >,boost::iterators::use_default,boost::iterators::use_default> >
PUBLIC	?pointer_to@?$pointer_traits@PBD@std@@SAPBDABD@Z ; std::pointer_traits<char const *>::pointer_to
PUBLIC	??$addressof@$$CBD@std@@YAPBDABD@Z		; std::addressof<char const >
PUBLIC	??$?8V?$transform_iterator@U?$to_upperF@D@detail@algorithm@boost@@V?$_String_const_iterator@V?$_String_val@U?$_Simple_types@D@std@@@std@@@std@@Uuse_default@iterators@4@U784@@iterators@boost@@DUrandom_access_traversal_tag@12@DHV012@DU312@DH@iterators@boost@@YA_NABV?$iterator_facade@V?$transform_iterator@U?$to_upperF@D@detail@algorithm@boost@@V?$_String_const_iterator@V?$_String_val@U?$_Simple_types@D@std@@@std@@@std@@Uuse_default@iterators@4@U784@@iterators@boost@@DUrandom_access_traversal_tag@23@DH@01@0@Z ; boost::iterators::operator==<boost::iterators::transform_iterator<boost::algorithm::detail::to_upperF<char>,std::_String_const_iterator<std::_String_val<std::_Simple_types<char> > >,boost::iterators::use_default,boost::iterators::use_default>,char,boost::iterators::random_access_traversal_tag,char,int,boost::iterators::transform_iterator<boost::algorithm::detail::to_upperF<char>,std::_String_const_iterator<std::_String_val<std::_Simple_types<char> > >,boost::iterators::use_default,boost::iterators::use_default>,char,boost::iterators::random_access_traversal_tag,char,int>
PUBLIC	??$equal@V?$transform_iterator@U?$to_upperF@D@detail@algorithm@boost@@V?$_String_const_iterator@V?$_String_val@U?$_Simple_types@D@std@@@std@@@std@@Uuse_default@iterators@4@U784@@iterators@boost@@V123@@iterator_core_access@iterators@boost@@CA_NABV?$transform_iterator@U?$to_upperF@D@detail@algorithm@boost@@V?$_String_const_iterator@V?$_String_val@U?$_Simple_types@D@std@@@std@@@std@@Uuse_default@iterators@4@U784@@12@0U?$bool_@$00@mpl@2@@Z ; boost::iterators::iterator_core_access::equal<boost::iterators::transform_iterator<boost::algorithm::detail::to_upperF<char>,std::_String_const_iterator<std::_String_val<std::_Simple_types<char> > >,boost::iterators::use_default,boost::iterators::use_default>,boost::iterators::transform_iterator<boost::algorithm::detail::to_upperF<char>,std::_String_const_iterator<std::_String_val<std::_Simple_types<char> > >,boost::iterators::use_default,boost::iterators::use_default> >
PUBLIC	??$check_object_versioning@V?$basic_string@DU?$char_traits@D@std@@V?$allocator@D@2@@std@@@detail@archive@boost@@YAXXZ ; boost::archive::detail::check_object_versioning<std::basic_string<char,std::char_traits<char>,std::allocator<char> > >
PUBLIC	??$invoke@V?$basic_string@DU?$char_traits@D@std@@V?$allocator@D@2@@std@@@save_primitive@?$save_non_pointer_type@Vtext_oarchive@archive@boost@@@detail@archive@boost@@SAXAAVtext_oarchive@34@ABV?$basic_string@DU?$char_traits@D@std@@V?$allocator@D@2@@std@@@Z ; boost::archive::detail::save_non_pointer_type<boost::archive::text_oarchive>::save_primitive::invoke<std::basic_string<char,std::char_traits<char>,std::allocator<char> > >
PUBLIC	??$check_object_versioning@V?$vector@V?$basic_string@DU?$char_traits@D@std@@V?$allocator@D@2@@std@@V?$allocator@V?$basic_string@DU?$char_traits@D@std@@V?$allocator@D@2@@std@@@2@@std@@@detail@archive@boost@@YAXXZ ; boost::archive::detail::check_object_versioning<std::vector<std::basic_string<char,std::char_traits<char>,std::allocator<char> >,std::allocator<std::basic_string<char,std::char_traits<char>,std::allocator<char> > > > >
PUBLIC	??$invoke@V?$vector@V?$basic_string@DU?$char_traits@D@std@@V?$allocator@D@2@@std@@V?$allocator@V?$basic_string@DU?$char_traits@D@std@@V?$allocator@D@2@@std@@@2@@std@@@save_standard@?$save_non_pointer_type@Vtext_oarchive@archive@boost@@@detail@archive@boost@@SAXAAVtext_oarchive@34@ABV?$vector@V?$basic_string@DU?$char_traits@D@std@@V?$allocator@D@2@@std@@V?$allocator@V?$basic_string@DU?$char_traits@D@std@@V?$allocator@D@2@@std@@@2@@std@@@Z ; boost::archive::detail::save_non_pointer_type<boost::archive::text_oarchive>::save_standard::invoke<std::vector<std::basic_string<char,std::char_traits<char>,std::allocator<char> >,std::allocator<std::basic_string<char,std::char_traits<char>,std::allocator<char> > > > >
PUBLIC	??$check_const_loading@V?$basic_string@DU?$char_traits@D@std@@V?$allocator@D@2@@std@@@detail@archive@boost@@YAXXZ ; boost::archive::detail::check_const_loading<std::basic_string<char,std::char_traits<char>,std::allocator<char> > >
PUBLIC	??$invoke@V?$basic_string@DU?$char_traits@D@std@@V?$allocator@D@2@@std@@@?$load_non_pointer_type@Vtext_iarchive@archive@boost@@@detail@archive@boost@@SAXAAVtext_iarchive@23@AAV?$basic_string@DU?$char_traits@D@std@@V?$allocator@D@2@@std@@@Z ; boost::archive::detail::load_non_pointer_type<boost::archive::text_iarchive>::invoke<std::basic_string<char,std::char_traits<char>,std::allocator<char> > >
PUBLIC	??$check_const_loading@V?$vector@V?$basic_string@DU?$char_traits@D@std@@V?$allocator@D@2@@std@@V?$allocator@V?$basic_string@DU?$char_traits@D@std@@V?$allocator@D@2@@std@@@2@@std@@@detail@archive@boost@@YAXXZ ; boost::archive::detail::check_const_loading<std::vector<std::basic_string<char,std::char_traits<char>,std::allocator<char> >,std::allocator<std::basic_string<char,std::char_traits<char>,std::allocator<char> > > > >
PUBLIC	??$invoke@V?$vector@V?$basic_string@DU?$char_traits@D@std@@V?$allocator@D@2@@std@@V?$allocator@V?$basic_string@DU?$char_traits@D@std@@V?$allocator@D@2@@std@@@2@@std@@@?$load_non_pointer_type@Vtext_iarchive@archive@boost@@@detail@archive@boost@@SAXAAVtext_iarchive@23@AAV?$vector@V?$basic_string@DU?$char_traits@D@std@@V?$allocator@D@2@@std@@V?$allocator@V?$basic_string@DU?$char_traits@D@std@@V?$allocator@D@2@@std@@@2@@std@@@Z ; boost::archive::detail::load_non_pointer_type<boost::archive::text_iarchive>::invoke<std::vector<std::basic_string<char,std::char_traits<char>,std::allocator<char> >,std::allocator<std::basic_string<char,std::char_traits<char>,std::allocator<char> > > > >
PUBLIC	??$dereference@$$CBU?$bool_@$00@mpl@boost@@@?$integral_constant@_N$00@boost@@SAABU?$bool_@$00@mpl@1@PBU231@@Z ; boost::integral_constant<bool,1>::dereference<boost::mpl::bool_<1> const >
PUBLIC	??$toupper@D@std@@YADDABVlocale@0@@Z		; std::toupper<char>
PUBLIC	??$equal@V?$transform_iterator@U?$to_upperF@D@detail@algorithm@boost@@V?$_String_const_iterator@V?$_String_val@U?$_Simple_types@D@std@@@std@@@std@@Uuse_default@iterators@4@U784@@iterators@boost@@V?$_String_const_iterator@V?$_String_val@U?$_Simple_types@D@std@@@std@@@std@@DUuse_default@23@DU623@@?$iterator_adaptor@V?$transform_iterator@U?$to_upperF@D@detail@algorithm@boost@@V?$_String_const_iterator@V?$_String_val@U?$_Simple_types@D@std@@@std@@@std@@Uuse_default@iterators@4@U784@@iterators@boost@@V?$_String_const_iterator@V?$_String_val@U?$_Simple_types@D@std@@@std@@@std@@DUuse_default@23@DU623@@iterators@boost@@ABE_NABV012@@Z ; boost::iterators::iterator_adaptor<boost::iterators::transform_iterator<boost::algorithm::detail::to_upperF<char>,std::_String_const_iterator<std::_String_val<std::_Simple_types<char> > >,boost::iterators::use_default,boost::iterators::use_default>,std::_String_const_iterator<std::_String_val<std::_Simple_types<char> > >,char,boost::iterators::use_default,char,boost::iterators::use_default>::equal<boost::iterators::transform_iterator<boost::algorithm::detail::to_upperF<char>,std::_String_const_iterator<std::_String_val<std::_Simple_types<char> > >,boost::iterators::use_default,boost::iterators::use_default>,std::_String_const_iterator<std::_String_val<std::_Simple_types<char> > >,char,boost::iterators::use_default,char,boost::iterators::use_default>
PUBLIC	??$save_primitive@Vtext_oarchive@archive@boost@@V?$basic_string@DU?$char_traits@D@std@@V?$allocator@D@2@@std@@@save_access@archive@boost@@SAXAAVtext_oarchive@12@ABV?$basic_string@DU?$char_traits@D@std@@V?$allocator@D@2@@std@@@Z ; boost::archive::save_access::save_primitive<boost::archive::text_oarchive,std::basic_string<char,std::char_traits<char>,std::allocator<char> > >
PUBLIC	?use@?$singleton@V?$oserializer@Vtext_oarchive@archive@boost@@V?$vector@V?$basic_string@DU?$char_traits@D@std@@V?$allocator@D@2@@std@@V?$allocator@V?$basic_string@DU?$char_traits@D@std@@V?$allocator@D@2@@std@@@2@@std@@@detail@archive@boost@@@serialization@boost@@CAXPBV?$oserializer@Vtext_oarchive@archive@boost@@V?$vector@V?$basic_string@DU?$char_traits@D@std@@V?$allocator@D@2@@std@@V?$allocator@V?$basic_string@DU?$char_traits@D@std@@V?$allocator@D@2@@std@@@2@@std@@@detail@archive@3@@Z ; boost::serialization::singleton<boost::archive::detail::oserializer<boost::archive::text_oarchive,std::vector<std::basic_string<char,std::char_traits<char>,std::allocator<char> >,std::allocator<std::basic_string<char,std::char_traits<char>,std::allocator<char> > > > > >::use
PUBLIC	?get_instance@?$singleton@V?$oserializer@Vtext_oarchive@archive@boost@@V?$vector@V?$basic_string@DU?$char_traits@D@std@@V?$allocator@D@2@@std@@V?$allocator@V?$basic_string@DU?$char_traits@D@std@@V?$allocator@D@2@@std@@@2@@std@@@detail@archive@boost@@@serialization@boost@@CAAAV?$oserializer@Vtext_oarchive@archive@boost@@V?$vector@V?$basic_string@DU?$char_traits@D@std@@V?$allocator@D@2@@std@@V?$allocator@V?$basic_string@DU?$char_traits@D@std@@V?$allocator@D@2@@std@@@2@@std@@@detail@archive@3@XZ ; boost::serialization::singleton<boost::archive::detail::oserializer<boost::archive::text_oarchive,std::vector<std::basic_string<char,std::char_traits<char>,std::allocator<char> >,std::allocator<std::basic_string<char,std::char_traits<char>,std::allocator<char> > > > > >::get_instance
PUBLIC	?get_const_instance@?$singleton@V?$oserializer@Vtext_oarchive@archive@boost@@V?$vector@V?$basic_string@DU?$char_traits@D@std@@V?$allocator@D@2@@std@@V?$allocator@V?$basic_string@DU?$char_traits@D@std@@V?$allocator@D@2@@std@@@2@@std@@@detail@archive@boost@@@serialization@boost@@SAABV?$oserializer@Vtext_oarchive@archive@boost@@V?$vector@V?$basic_string@DU?$char_traits@D@std@@V?$allocator@D@2@@std@@V?$allocator@V?$basic_string@DU?$char_traits@D@std@@V?$allocator@D@2@@std@@@2@@std@@@detail@archive@3@XZ ; boost::serialization::singleton<boost::archive::detail::oserializer<boost::archive::text_oarchive,std::vector<std::basic_string<char,std::char_traits<char>,std::allocator<char> >,std::allocator<std::basic_string<char,std::char_traits<char>,std::allocator<char> > > > > >::get_const_instance
PUBLIC	??0?$oserializer@Vtext_oarchive@archive@boost@@V?$vector@V?$basic_string@DU?$char_traits@D@std@@V?$allocator@D@2@@std@@V?$allocator@V?$basic_string@DU?$char_traits@D@std@@V?$allocator@D@2@@std@@@2@@std@@@detail@archive@boost@@QAE@XZ ; boost::archive::detail::oserializer<boost::archive::text_oarchive,std::vector<std::basic_string<char,std::char_traits<char>,std::allocator<char> >,std::allocator<std::basic_string<char,std::char_traits<char>,std::allocator<char> > > > >::oserializer<boost::archive::text_oarchive,std::vector<std::basic_string<char,std::char_traits<char>,std::allocator<char> >,std::allocator<std::basic_string<char,std::char_traits<char>,std::allocator<char> > > > >
PUBLIC	?save_object_data@?$oserializer@Vtext_oarchive@archive@boost@@V?$vector@V?$basic_string@DU?$char_traits@D@std@@V?$allocator@D@2@@std@@V?$allocator@V?$basic_string@DU?$char_traits@D@std@@V?$allocator@D@2@@std@@@2@@std@@@detail@archive@boost@@UBEXAAVbasic_oarchive@234@PBX@Z ; boost::archive::detail::oserializer<boost::archive::text_oarchive,std::vector<std::basic_string<char,std::char_traits<char>,std::allocator<char> >,std::allocator<std::basic_string<char,std::char_traits<char>,std::allocator<char> > > > >::save_object_data
PUBLIC	?class_info@?$oserializer@Vtext_oarchive@archive@boost@@V?$vector@V?$basic_string@DU?$char_traits@D@std@@V?$allocator@D@2@@std@@V?$allocator@V?$basic_string@DU?$char_traits@D@std@@V?$allocator@D@2@@std@@@2@@std@@@detail@archive@boost@@UBE_NXZ ; boost::archive::detail::oserializer<boost::archive::text_oarchive,std::vector<std::basic_string<char,std::char_traits<char>,std::allocator<char> >,std::allocator<std::basic_string<char,std::char_traits<char>,std::allocator<char> > > > >::class_info
PUBLIC	?tracking@?$oserializer@Vtext_oarchive@archive@boost@@V?$vector@V?$basic_string@DU?$char_traits@D@std@@V?$allocator@D@2@@std@@V?$allocator@V?$basic_string@DU?$char_traits@D@std@@V?$allocator@D@2@@std@@@2@@std@@@detail@archive@boost@@UBE_NI@Z ; boost::archive::detail::oserializer<boost::archive::text_oarchive,std::vector<std::basic_string<char,std::char_traits<char>,std::allocator<char> >,std::allocator<std::basic_string<char,std::char_traits<char>,std::allocator<char> > > > >::tracking
PUBLIC	?version@?$oserializer@Vtext_oarchive@archive@boost@@V?$vector@V?$basic_string@DU?$char_traits@D@std@@V?$allocator@D@2@@std@@V?$allocator@V?$basic_string@DU?$char_traits@D@std@@V?$allocator@D@2@@std@@@2@@std@@@detail@archive@boost@@UBE?AVversion_type@34@XZ ; boost::archive::detail::oserializer<boost::archive::text_oarchive,std::vector<std::basic_string<char,std::char_traits<char>,std::allocator<char> >,std::allocator<std::basic_string<char,std::char_traits<char>,std::allocator<char> > > > >::version
PUBLIC	?is_polymorphic@?$oserializer@Vtext_oarchive@archive@boost@@V?$vector@V?$basic_string@DU?$char_traits@D@std@@V?$allocator@D@2@@std@@V?$allocator@V?$basic_string@DU?$char_traits@D@std@@V?$allocator@D@2@@std@@@2@@std@@@detail@archive@boost@@UBE_NXZ ; boost::archive::detail::oserializer<boost::archive::text_oarchive,std::vector<std::basic_string<char,std::char_traits<char>,std::allocator<char> >,std::allocator<std::basic_string<char,std::char_traits<char>,std::allocator<char> > > > >::is_polymorphic
PUBLIC	??1?$oserializer@Vtext_oarchive@archive@boost@@V?$vector@V?$basic_string@DU?$char_traits@D@std@@V?$allocator@D@2@@std@@V?$allocator@V?$basic_string@DU?$char_traits@D@std@@V?$allocator@D@2@@std@@@2@@std@@@detail@archive@boost@@UAE@XZ ; boost::archive::detail::oserializer<boost::archive::text_oarchive,std::vector<std::basic_string<char,std::char_traits<char>,std::allocator<char> >,std::allocator<std::basic_string<char,std::char_traits<char>,std::allocator<char> > > > >::~oserializer<boost::archive::text_oarchive,std::vector<std::basic_string<char,std::char_traits<char>,std::allocator<char> >,std::allocator<std::basic_string<char,std::char_traits<char>,std::allocator<char> > > > >
PUBLIC	??_G?$oserializer@Vtext_oarchive@archive@boost@@V?$vector@V?$basic_string@DU?$char_traits@D@std@@V?$allocator@D@2@@std@@V?$allocator@V?$basic_string@DU?$char_traits@D@std@@V?$allocator@D@2@@std@@@2@@std@@@detail@archive@boost@@UAEPAXI@Z ; boost::archive::detail::oserializer<boost::archive::text_oarchive,std::vector<std::basic_string<char,std::char_traits<char>,std::allocator<char> >,std::allocator<std::basic_string<char,std::char_traits<char>,std::allocator<char> > > > >::`scalar deleting destructor'
PUBLIC	??$check_object_level@V?$basic_string@DU?$char_traits@D@std@@V?$allocator@D@2@@std@@@detail@archive@boost@@YAXXZ ; boost::archive::detail::check_object_level<std::basic_string<char,std::char_traits<char>,std::allocator<char> > >
PUBLIC	??$invoke@V?$basic_string@DU?$char_traits@D@std@@V?$allocator@D@2@@std@@@load_primitive@?$load_non_pointer_type@Vtext_iarchive@archive@boost@@@detail@archive@boost@@SAXAAVtext_iarchive@34@AAV?$basic_string@DU?$char_traits@D@std@@V?$allocator@D@2@@std@@@Z ; boost::archive::detail::load_non_pointer_type<boost::archive::text_iarchive>::load_primitive::invoke<std::basic_string<char,std::char_traits<char>,std::allocator<char> > >
PUBLIC	??$check_object_level@V?$vector@V?$basic_string@DU?$char_traits@D@std@@V?$allocator@D@2@@std@@V?$allocator@V?$basic_string@DU?$char_traits@D@std@@V?$allocator@D@2@@std@@@2@@std@@@detail@archive@boost@@YAXXZ ; boost::archive::detail::check_object_level<std::vector<std::basic_string<char,std::char_traits<char>,std::allocator<char> >,std::allocator<std::basic_string<char,std::char_traits<char>,std::allocator<char> > > > >
PUBLIC	??$invoke@V?$vector@V?$basic_string@DU?$char_traits@D@std@@V?$allocator@D@2@@std@@V?$allocator@V?$basic_string@DU?$char_traits@D@std@@V?$allocator@D@2@@std@@@2@@std@@@load_standard@?$load_non_pointer_type@Vtext_iarchive@archive@boost@@@detail@archive@boost@@SAXAAVtext_iarchive@34@ABV?$vector@V?$basic_string@DU?$char_traits@D@std@@V?$allocator@D@2@@std@@V?$allocator@V?$basic_string@DU?$char_traits@D@std@@V?$allocator@D@2@@std@@@2@@std@@@Z ; boost::archive::detail::load_non_pointer_type<boost::archive::text_iarchive>::load_standard::invoke<std::vector<std::basic_string<char,std::char_traits<char>,std::allocator<char> >,std::allocator<std::basic_string<char,std::char_traits<char>,std::allocator<char> > > > >
PUBLIC	??1?$singleton_wrapper@V?$oserializer@Vtext_oarchive@archive@boost@@V?$vector@V?$basic_string@DU?$char_traits@D@std@@V?$allocator@D@2@@std@@V?$allocator@V?$basic_string@DU?$char_traits@D@std@@V?$allocator@D@2@@std@@@2@@std@@@detail@archive@boost@@@detail@serialization@boost@@UAE@XZ ; boost::serialization::detail::singleton_wrapper<boost::archive::detail::oserializer<boost::archive::text_oarchive,std::vector<std::basic_string<char,std::char_traits<char>,std::allocator<char> >,std::allocator<std::basic_string<char,std::char_traits<char>,std::allocator<char> > > > > >::~singleton_wrapper<boost::archive::detail::oserializer<boost::archive::text_oarchive,std::vector<std::basic_string<char,std::char_traits<char>,std::allocator<char> >,std::allocator<std::basic_string<char,std::char_traits<char>,std::allocator<char> > > > > >
PUBLIC	??0?$singleton_wrapper@V?$oserializer@Vtext_oarchive@archive@boost@@V?$vector@V?$basic_string@DU?$char_traits@D@std@@V?$allocator@D@2@@std@@V?$allocator@V?$basic_string@DU?$char_traits@D@std@@V?$allocator@D@2@@std@@@2@@std@@@detail@archive@boost@@@detail@serialization@boost@@QAE@XZ ; boost::serialization::detail::singleton_wrapper<boost::archive::detail::oserializer<boost::archive::text_oarchive,std::vector<std::basic_string<char,std::char_traits<char>,std::allocator<char> >,std::allocator<std::basic_string<char,std::char_traits<char>,std::allocator<char> > > > > >::singleton_wrapper<boost::archive::detail::oserializer<boost::archive::text_oarchive,std::vector<std::basic_string<char,std::char_traits<char>,std::allocator<char> >,std::allocator<std::basic_string<char,std::char_traits<char>,std::allocator<char> > > > > >
PUBLIC	??_G?$singleton_wrapper@V?$oserializer@Vtext_oarchive@archive@boost@@V?$vector@V?$basic_string@DU?$char_traits@D@std@@V?$allocator@D@2@@std@@V?$allocator@V?$basic_string@DU?$char_traits@D@std@@V?$allocator@D@2@@std@@@2@@std@@@detail@archive@boost@@@detail@serialization@boost@@UAEPAXI@Z ; boost::serialization::detail::singleton_wrapper<boost::archive::detail::oserializer<boost::archive::text_oarchive,std::vector<std::basic_string<char,std::char_traits<char>,std::allocator<char> >,std::allocator<std::basic_string<char,std::char_traits<char>,std::allocator<char> > > > > >::`scalar deleting destructor'
PUBLIC	??__Ft@?1??get_instance@?$singleton@V?$oserializer@Vtext_oarchive@archive@boost@@V?$vector@V?$basic_string@DU?$char_traits@D@std@@V?$allocator@D@2@@std@@V?$allocator@V?$basic_string@DU?$char_traits@D@std@@V?$allocator@D@2@@std@@@2@@std@@@detail@archive@boost@@@serialization@boost@@CAAAV?$oserializer@Vtext_oarchive@archive@boost@@V?$vector@V?$basic_string@DU?$char_traits@D@std@@V?$allocator@D@2@@std@@V?$allocator@V?$basic_string@DU?$char_traits@D@std@@V?$allocator@D@2@@std@@@2@@std@@@detail@archive@3@XZ@YAXXZ ; `boost::serialization::singleton<boost::archive::detail::oserializer<boost::archive::text_oarchive,std::vector<std::basic_string<char,std::char_traits<char>,std::allocator<char> >,std::allocator<std::basic_string<char,std::char_traits<char>,std::allocator<char> > > > > >::get_instance'::`2'::`dynamic atexit destructor for 't''
PUBLIC	?use@?$singleton@V?$extended_type_info_typeid@V?$vector@V?$basic_string@DU?$char_traits@D@std@@V?$allocator@D@2@@std@@V?$allocator@V?$basic_string@DU?$char_traits@D@std@@V?$allocator@D@2@@std@@@2@@std@@@serialization@boost@@@serialization@boost@@CAXPBV?$extended_type_info_typeid@V?$vector@V?$basic_string@DU?$char_traits@D@std@@V?$allocator@D@2@@std@@V?$allocator@V?$basic_string@DU?$char_traits@D@std@@V?$allocator@D@2@@std@@@2@@std@@@23@@Z ; boost::serialization::singleton<boost::serialization::extended_type_info_typeid<std::vector<std::basic_string<char,std::char_traits<char>,std::allocator<char> >,std::allocator<std::basic_string<char,std::char_traits<char>,std::allocator<char> > > > > >::use
PUBLIC	?get_instance@?$singleton@V?$extended_type_info_typeid@V?$vector@V?$basic_string@DU?$char_traits@D@std@@V?$allocator@D@2@@std@@V?$allocator@V?$basic_string@DU?$char_traits@D@std@@V?$allocator@D@2@@std@@@2@@std@@@serialization@boost@@@serialization@boost@@CAAAV?$extended_type_info_typeid@V?$vector@V?$basic_string@DU?$char_traits@D@std@@V?$allocator@D@2@@std@@V?$allocator@V?$basic_string@DU?$char_traits@D@std@@V?$allocator@D@2@@std@@@2@@std@@@23@XZ ; boost::serialization::singleton<boost::serialization::extended_type_info_typeid<std::vector<std::basic_string<char,std::char_traits<char>,std::allocator<char> >,std::allocator<std::basic_string<char,std::char_traits<char>,std::allocator<char> > > > > >::get_instance
PUBLIC	?get_const_instance@?$singleton@V?$extended_type_info_typeid@V?$vector@V?$basic_string@DU?$char_traits@D@std@@V?$allocator@D@2@@std@@V?$allocator@V?$basic_string@DU?$char_traits@D@std@@V?$allocator@D@2@@std@@@2@@std@@@serialization@boost@@@serialization@boost@@SAABV?$extended_type_info_typeid@V?$vector@V?$basic_string@DU?$char_traits@D@std@@V?$allocator@D@2@@std@@V?$allocator@V?$basic_string@DU?$char_traits@D@std@@V?$allocator@D@2@@std@@@2@@std@@@23@XZ ; boost::serialization::singleton<boost::serialization::extended_type_info_typeid<std::vector<std::basic_string<char,std::char_traits<char>,std::allocator<char> >,std::allocator<std::basic_string<char,std::char_traits<char>,std::allocator<char> > > > > >::get_const_instance
PUBLIC	??0?$extended_type_info_typeid@V?$vector@V?$basic_string@DU?$char_traits@D@std@@V?$allocator@D@2@@std@@V?$allocator@V?$basic_string@DU?$char_traits@D@std@@V?$allocator@D@2@@std@@@2@@std@@@serialization@boost@@QAE@XZ ; boost::serialization::extended_type_info_typeid<std::vector<std::basic_string<char,std::char_traits<char>,std::allocator<char> >,std::allocator<std::basic_string<char,std::char_traits<char>,std::allocator<char> > > > >::extended_type_info_typeid<std::vector<std::basic_string<char,std::char_traits<char>,std::allocator<char> >,std::allocator<std::basic_string<char,std::char_traits<char>,std::allocator<char> > > > >
PUBLIC	??1?$extended_type_info_typeid@V?$vector@V?$basic_string@DU?$char_traits@D@std@@V?$allocator@D@2@@std@@V?$allocator@V?$basic_string@DU?$char_traits@D@std@@V?$allocator@D@2@@std@@@2@@std@@@serialization@boost@@UAE@XZ ; boost::serialization::extended_type_info_typeid<std::vector<std::basic_string<char,std::char_traits<char>,std::allocator<char> >,std::allocator<std::basic_string<char,std::char_traits<char>,std::allocator<char> > > > >::~extended_type_info_typeid<std::vector<std::basic_string<char,std::char_traits<char>,std::allocator<char> >,std::allocator<std::basic_string<char,std::char_traits<char>,std::allocator<char> > > > >
PUBLIC	?construct@?$extended_type_info_typeid@V?$vector@V?$basic_string@DU?$char_traits@D@std@@V?$allocator@D@2@@std@@V?$allocator@V?$basic_string@DU?$char_traits@D@std@@V?$allocator@D@2@@std@@@2@@std@@@serialization@boost@@UBAPAXIZZ ; boost::serialization::extended_type_info_typeid<std::vector<std::basic_string<char,std::char_traits<char>,std::allocator<char> >,std::allocator<std::basic_string<char,std::char_traits<char>,std::allocator<char> > > > >::construct
PUBLIC	?destroy@?$extended_type_info_typeid@V?$vector@V?$basic_string@DU?$char_traits@D@std@@V?$allocator@D@2@@std@@V?$allocator@V?$basic_string@DU?$char_traits@D@std@@V?$allocator@D@2@@std@@@2@@std@@@serialization@boost@@UBEXQBX@Z ; boost::serialization::extended_type_info_typeid<std::vector<std::basic_string<char,std::char_traits<char>,std::allocator<char> >,std::allocator<std::basic_string<char,std::char_traits<char>,std::allocator<char> > > > >::destroy
PUBLIC	??_G?$extended_type_info_typeid@V?$vector@V?$basic_string@DU?$char_traits@D@std@@V?$allocator@D@2@@std@@V?$allocator@V?$basic_string@DU?$char_traits@D@std@@V?$allocator@D@2@@std@@@2@@std@@@serialization@boost@@UAEPAXI@Z ; boost::serialization::extended_type_info_typeid<std::vector<std::basic_string<char,std::char_traits<char>,std::allocator<char> >,std::allocator<std::basic_string<char,std::char_traits<char>,std::allocator<char> > > > >::`scalar deleting destructor'
PUBLIC	??$destroy@V?$vector@V?$basic_string@DU?$char_traits@D@std@@V?$allocator@D@2@@std@@V?$allocator@V?$basic_string@DU?$char_traits@D@std@@V?$allocator@D@2@@std@@@2@@std@@@access@serialization@boost@@SAXPBV?$vector@V?$basic_string@DU?$char_traits@D@std@@V?$allocator@D@2@@std@@V?$allocator@V?$basic_string@DU?$char_traits@D@std@@V?$allocator@D@2@@std@@@2@@std@@@Z ; boost::serialization::access::destroy<std::vector<std::basic_string<char,std::char_traits<char>,std::allocator<char> >,std::allocator<std::basic_string<char,std::char_traits<char>,std::allocator<char> > > > >
PUBLIC	??$__vcrt_va_start_verify_argument_type@I@@YAXXZ ; __vcrt_va_start_verify_argument_type<unsigned int>
PUBLIC	??$factory@V?$vector@V?$basic_string@DU?$char_traits@D@std@@V?$allocator@D@2@@std@@V?$allocator@V?$basic_string@DU?$char_traits@D@std@@V?$allocator@D@2@@std@@@2@@std@@$0A@@serialization@boost@@YAPAV?$vector@V?$basic_string@DU?$char_traits@D@std@@V?$allocator@D@2@@std@@V?$allocator@V?$basic_string@DU?$char_traits@D@std@@V?$allocator@D@2@@std@@@2@@std@@PAD@Z ; boost::serialization::factory<std::vector<std::basic_string<char,std::char_traits<char>,std::allocator<char> >,std::allocator<std::basic_string<char,std::char_traits<char>,std::allocator<char> > > >,0>
PUBLIC	??$factory@V?$vector@V?$basic_string@DU?$char_traits@D@std@@V?$allocator@D@2@@std@@V?$allocator@V?$basic_string@DU?$char_traits@D@std@@V?$allocator@D@2@@std@@@2@@std@@$00@serialization@boost@@YAPAV?$vector@V?$basic_string@DU?$char_traits@D@std@@V?$allocator@D@2@@std@@V?$allocator@V?$basic_string@DU?$char_traits@D@std@@V?$allocator@D@2@@std@@@2@@std@@PAD@Z ; boost::serialization::factory<std::vector<std::basic_string<char,std::char_traits<char>,std::allocator<char> >,std::allocator<std::basic_string<char,std::char_traits<char>,std::allocator<char> > > >,1>
PUBLIC	??$factory@V?$vector@V?$basic_string@DU?$char_traits@D@std@@V?$allocator@D@2@@std@@V?$allocator@V?$basic_string@DU?$char_traits@D@std@@V?$allocator@D@2@@std@@@2@@std@@$01@serialization@boost@@YAPAV?$vector@V?$basic_string@DU?$char_traits@D@std@@V?$allocator@D@2@@std@@V?$allocator@V?$basic_string@DU?$char_traits@D@std@@V?$allocator@D@2@@std@@@2@@std@@PAD@Z ; boost::serialization::factory<std::vector<std::basic_string<char,std::char_traits<char>,std::allocator<char> >,std::allocator<std::basic_string<char,std::char_traits<char>,std::allocator<char> > > >,2>
PUBLIC	??$factory@V?$vector@V?$basic_string@DU?$char_traits@D@std@@V?$allocator@D@2@@std@@V?$allocator@V?$basic_string@DU?$char_traits@D@std@@V?$allocator@D@2@@std@@@2@@std@@$02@serialization@boost@@YAPAV?$vector@V?$basic_string@DU?$char_traits@D@std@@V?$allocator@D@2@@std@@V?$allocator@V?$basic_string@DU?$char_traits@D@std@@V?$allocator@D@2@@std@@@2@@std@@PAD@Z ; boost::serialization::factory<std::vector<std::basic_string<char,std::char_traits<char>,std::allocator<char> >,std::allocator<std::basic_string<char,std::char_traits<char>,std::allocator<char> > > >,3>
PUBLIC	??$factory@V?$vector@V?$basic_string@DU?$char_traits@D@std@@V?$allocator@D@2@@std@@V?$allocator@V?$basic_string@DU?$char_traits@D@std@@V?$allocator@D@2@@std@@@2@@std@@$03@serialization@boost@@YAPAV?$vector@V?$basic_string@DU?$char_traits@D@std@@V?$allocator@D@2@@std@@V?$allocator@V?$basic_string@DU?$char_traits@D@std@@V?$allocator@D@2@@std@@@2@@std@@PAD@Z ; boost::serialization::factory<std::vector<std::basic_string<char,std::char_traits<char>,std::allocator<char> >,std::allocator<std::basic_string<char,std::char_traits<char>,std::allocator<char> > > >,4>
PUBLIC	??1?$singleton_wrapper@V?$extended_type_info_typeid@V?$vector@V?$basic_string@DU?$char_traits@D@std@@V?$allocator@D@2@@std@@V?$allocator@V?$basic_string@DU?$char_traits@D@std@@V?$allocator@D@2@@std@@@2@@std@@@serialization@boost@@@detail@serialization@boost@@UAE@XZ ; boost::serialization::detail::singleton_wrapper<boost::serialization::extended_type_info_typeid<std::vector<std::basic_string<char,std::char_traits<char>,std::allocator<char> >,std::allocator<std::basic_string<char,std::char_traits<char>,std::allocator<char> > > > > >::~singleton_wrapper<boost::serialization::extended_type_info_typeid<std::vector<std::basic_string<char,std::char_traits<char>,std::allocator<char> >,std::allocator<std::basic_string<char,std::char_traits<char>,std::allocator<char> > > > > >
PUBLIC	??0?$singleton_wrapper@V?$extended_type_info_typeid@V?$vector@V?$basic_string@DU?$char_traits@D@std@@V?$allocator@D@2@@std@@V?$allocator@V?$basic_string@DU?$char_traits@D@std@@V?$allocator@D@2@@std@@@2@@std@@@serialization@boost@@@detail@serialization@boost@@QAE@XZ ; boost::serialization::detail::singleton_wrapper<boost::serialization::extended_type_info_typeid<std::vector<std::basic_string<char,std::char_traits<char>,std::allocator<char> >,std::allocator<std::basic_string<char,std::char_traits<char>,std::allocator<char> > > > > >::singleton_wrapper<boost::serialization::extended_type_info_typeid<std::vector<std::basic_string<char,std::char_traits<char>,std::allocator<char> >,std::allocator<std::basic_string<char,std::char_traits<char>,std::allocator<char> > > > > >
PUBLIC	??_G?$singleton_wrapper@V?$extended_type_info_typeid@V?$vector@V?$basic_string@DU?$char_traits@D@std@@V?$allocator@D@2@@std@@V?$allocator@V?$basic_string@DU?$char_traits@D@std@@V?$allocator@D@2@@std@@@2@@std@@@serialization@boost@@@detail@serialization@boost@@UAEPAXI@Z ; boost::serialization::detail::singleton_wrapper<boost::serialization::extended_type_info_typeid<std::vector<std::basic_string<char,std::char_traits<char>,std::allocator<char> >,std::allocator<std::basic_string<char,std::char_traits<char>,std::allocator<char> > > > > >::`scalar deleting destructor'
PUBLIC	??__Ft@?1??get_instance@?$singleton@V?$extended_type_info_typeid@V?$vector@V?$basic_string@DU?$char_traits@D@std@@V?$allocator@D@2@@std@@V?$allocator@V?$basic_string@DU?$char_traits@D@std@@V?$allocator@D@2@@std@@@2@@std@@@serialization@boost@@@serialization@boost@@CAAAV?$extended_type_info_typeid@V?$vector@V?$basic_string@DU?$char_traits@D@std@@V?$allocator@D@2@@std@@V?$allocator@V?$basic_string@DU?$char_traits@D@std@@V?$allocator@D@2@@std@@@2@@std@@@23@XZ@YAXXZ ; `boost::serialization::singleton<boost::serialization::extended_type_info_typeid<std::vector<std::basic_string<char,std::char_traits<char>,std::allocator<char> >,std::allocator<std::basic_string<char,std::char_traits<char>,std::allocator<char> > > > > >::get_instance'::`2'::`dynamic atexit destructor for 't''
PUBLIC	??$guid@V?$vector@V?$basic_string@DU?$char_traits@D@std@@V?$allocator@D@2@@std@@V?$allocator@V?$basic_string@DU?$char_traits@D@std@@V?$allocator@D@2@@std@@@2@@std@@@serialization@boost@@YAPBDXZ ; boost::serialization::guid<std::vector<std::basic_string<char,std::char_traits<char>,std::allocator<char> >,std::allocator<std::basic_string<char,std::char_traits<char>,std::allocator<char> > > > >
PUBLIC	??$smart_cast_reference@AAVtext_oarchive@archive@boost@@Vbasic_oarchive@detail@23@@serialization@boost@@YAAAVtext_oarchive@archive@1@AAVbasic_oarchive@detail@31@@Z ; boost::serialization::smart_cast_reference<boost::archive::text_oarchive &,boost::archive::detail::basic_oarchive>
PUBLIC	??$serialize_adl@Vtext_oarchive@archive@boost@@V?$vector@V?$basic_string@DU?$char_traits@D@std@@V?$allocator@D@2@@std@@V?$allocator@V?$basic_string@DU?$char_traits@D@std@@V?$allocator@D@2@@std@@@2@@std@@@serialization@boost@@YAXAAVtext_oarchive@archive@1@AAV?$vector@V?$basic_string@DU?$char_traits@D@std@@V?$allocator@D@2@@std@@V?$allocator@V?$basic_string@DU?$char_traits@D@std@@V?$allocator@D@2@@std@@@2@@std@@I@Z ; boost::serialization::serialize_adl<boost::archive::text_oarchive,std::vector<std::basic_string<char,std::char_traits<char>,std::allocator<char> >,std::allocator<std::basic_string<char,std::char_traits<char>,std::allocator<char> > > > >
PUBLIC	??$load_primitive@Vtext_iarchive@archive@boost@@V?$basic_string@DU?$char_traits@D@std@@V?$allocator@D@2@@std@@@load_access@archive@boost@@SAXAAVtext_iarchive@12@AAV?$basic_string@DU?$char_traits@D@std@@V?$allocator@D@2@@std@@@Z ; boost::archive::load_access::load_primitive<boost::archive::text_iarchive,std::basic_string<char,std::char_traits<char>,std::allocator<char> > >
PUBLIC	?use@?$singleton@V?$iserializer@Vtext_iarchive@archive@boost@@V?$vector@V?$basic_string@DU?$char_traits@D@std@@V?$allocator@D@2@@std@@V?$allocator@V?$basic_string@DU?$char_traits@D@std@@V?$allocator@D@2@@std@@@2@@std@@@detail@archive@boost@@@serialization@boost@@CAXPBV?$iserializer@Vtext_iarchive@archive@boost@@V?$vector@V?$basic_string@DU?$char_traits@D@std@@V?$allocator@D@2@@std@@V?$allocator@V?$basic_string@DU?$char_traits@D@std@@V?$allocator@D@2@@std@@@2@@std@@@detail@archive@3@@Z ; boost::serialization::singleton<boost::archive::detail::iserializer<boost::archive::text_iarchive,std::vector<std::basic_string<char,std::char_traits<char>,std::allocator<char> >,std::allocator<std::basic_string<char,std::char_traits<char>,std::allocator<char> > > > > >::use
PUBLIC	?get_instance@?$singleton@V?$iserializer@Vtext_iarchive@archive@boost@@V?$vector@V?$basic_string@DU?$char_traits@D@std@@V?$allocator@D@2@@std@@V?$allocator@V?$basic_string@DU?$char_traits@D@std@@V?$allocator@D@2@@std@@@2@@std@@@detail@archive@boost@@@serialization@boost@@CAAAV?$iserializer@Vtext_iarchive@archive@boost@@V?$vector@V?$basic_string@DU?$char_traits@D@std@@V?$allocator@D@2@@std@@V?$allocator@V?$basic_string@DU?$char_traits@D@std@@V?$allocator@D@2@@std@@@2@@std@@@detail@archive@3@XZ ; boost::serialization::singleton<boost::archive::detail::iserializer<boost::archive::text_iarchive,std::vector<std::basic_string<char,std::char_traits<char>,std::allocator<char> >,std::allocator<std::basic_string<char,std::char_traits<char>,std::allocator<char> > > > > >::get_instance
PUBLIC	?get_const_instance@?$singleton@V?$iserializer@Vtext_iarchive@archive@boost@@V?$vector@V?$basic_string@DU?$char_traits@D@std@@V?$allocator@D@2@@std@@V?$allocator@V?$basic_string@DU?$char_traits@D@std@@V?$allocator@D@2@@std@@@2@@std@@@detail@archive@boost@@@serialization@boost@@SAABV?$iserializer@Vtext_iarchive@archive@boost@@V?$vector@V?$basic_string@DU?$char_traits@D@std@@V?$allocator@D@2@@std@@V?$allocator@V?$basic_string@DU?$char_traits@D@std@@V?$allocator@D@2@@std@@@2@@std@@@detail@archive@3@XZ ; boost::serialization::singleton<boost::archive::detail::iserializer<boost::archive::text_iarchive,std::vector<std::basic_string<char,std::char_traits<char>,std::allocator<char> >,std::allocator<std::basic_string<char,std::char_traits<char>,std::allocator<char> > > > > >::get_const_instance
PUBLIC	?destroy@?$iserializer@Vtext_iarchive@archive@boost@@V?$vector@V?$basic_string@DU?$char_traits@D@std@@V?$allocator@D@2@@std@@V?$allocator@V?$basic_string@DU?$char_traits@D@std@@V?$allocator@D@2@@std@@@2@@std@@@detail@archive@boost@@EBEXPAX@Z ; boost::archive::detail::iserializer<boost::archive::text_iarchive,std::vector<std::basic_string<char,std::char_traits<char>,std::allocator<char> >,std::allocator<std::basic_string<char,std::char_traits<char>,std::allocator<char> > > > >::destroy
PUBLIC	??0?$iserializer@Vtext_iarchive@archive@boost@@V?$vector@V?$basic_string@DU?$char_traits@D@std@@V?$allocator@D@2@@std@@V?$allocator@V?$basic_string@DU?$char_traits@D@std@@V?$allocator@D@2@@std@@@2@@std@@@detail@archive@boost@@IAE@XZ ; boost::archive::detail::iserializer<boost::archive::text_iarchive,std::vector<std::basic_string<char,std::char_traits<char>,std::allocator<char> >,std::allocator<std::basic_string<char,std::char_traits<char>,std::allocator<char> > > > >::iserializer<boost::archive::text_iarchive,std::vector<std::basic_string<char,std::char_traits<char>,std::allocator<char> >,std::allocator<std::basic_string<char,std::char_traits<char>,std::allocator<char> > > > >
PUBLIC	?load_object_data@?$iserializer@Vtext_iarchive@archive@boost@@V?$vector@V?$basic_string@DU?$char_traits@D@std@@V?$allocator@D@2@@std@@V?$allocator@V?$basic_string@DU?$char_traits@D@std@@V?$allocator@D@2@@std@@@2@@std@@@detail@archive@boost@@UBEXAAVbasic_iarchive@234@PAXI@Z ; boost::archive::detail::iserializer<boost::archive::text_iarchive,std::vector<std::basic_string<char,std::char_traits<char>,std::allocator<char> >,std::allocator<std::basic_string<char,std::char_traits<char>,std::allocator<char> > > > >::load_object_data
PUBLIC	?class_info@?$iserializer@Vtext_iarchive@archive@boost@@V?$vector@V?$basic_string@DU?$char_traits@D@std@@V?$allocator@D@2@@std@@V?$allocator@V?$basic_string@DU?$char_traits@D@std@@V?$allocator@D@2@@std@@@2@@std@@@detail@archive@boost@@UBE_NXZ ; boost::archive::detail::iserializer<boost::archive::text_iarchive,std::vector<std::basic_string<char,std::char_traits<char>,std::allocator<char> >,std::allocator<std::basic_string<char,std::char_traits<char>,std::allocator<char> > > > >::class_info
PUBLIC	?tracking@?$iserializer@Vtext_iarchive@archive@boost@@V?$vector@V?$basic_string@DU?$char_traits@D@std@@V?$allocator@D@2@@std@@V?$allocator@V?$basic_string@DU?$char_traits@D@std@@V?$allocator@D@2@@std@@@2@@std@@@detail@archive@boost@@UBE_NI@Z ; boost::archive::detail::iserializer<boost::archive::text_iarchive,std::vector<std::basic_string<char,std::char_traits<char>,std::allocator<char> >,std::allocator<std::basic_string<char,std::char_traits<char>,std::allocator<char> > > > >::tracking
PUBLIC	?version@?$iserializer@Vtext_iarchive@archive@boost@@V?$vector@V?$basic_string@DU?$char_traits@D@std@@V?$allocator@D@2@@std@@V?$allocator@V?$basic_string@DU?$char_traits@D@std@@V?$allocator@D@2@@std@@@2@@std@@@detail@archive@boost@@UBE?AVversion_type@34@XZ ; boost::archive::detail::iserializer<boost::archive::text_iarchive,std::vector<std::basic_string<char,std::char_traits<char>,std::allocator<char> >,std::allocator<std::basic_string<char,std::char_traits<char>,std::allocator<char> > > > >::version
PUBLIC	?is_polymorphic@?$iserializer@Vtext_iarchive@archive@boost@@V?$vector@V?$basic_string@DU?$char_traits@D@std@@V?$allocator@D@2@@std@@V?$allocator@V?$basic_string@DU?$char_traits@D@std@@V?$allocator@D@2@@std@@@2@@std@@@detail@archive@boost@@UBE_NXZ ; boost::archive::detail::iserializer<boost::archive::text_iarchive,std::vector<std::basic_string<char,std::char_traits<char>,std::allocator<char> >,std::allocator<std::basic_string<char,std::char_traits<char>,std::allocator<char> > > > >::is_polymorphic
PUBLIC	??1?$iserializer@Vtext_iarchive@archive@boost@@V?$vector@V?$basic_string@DU?$char_traits@D@std@@V?$allocator@D@2@@std@@V?$allocator@V?$basic_string@DU?$char_traits@D@std@@V?$allocator@D@2@@std@@@2@@std@@@detail@archive@boost@@UAE@XZ ; boost::archive::detail::iserializer<boost::archive::text_iarchive,std::vector<std::basic_string<char,std::char_traits<char>,std::allocator<char> >,std::allocator<std::basic_string<char,std::char_traits<char>,std::allocator<char> > > > >::~iserializer<boost::archive::text_iarchive,std::vector<std::basic_string<char,std::char_traits<char>,std::allocator<char> >,std::allocator<std::basic_string<char,std::char_traits<char>,std::allocator<char> > > > >
PUBLIC	??_G?$iserializer@Vtext_iarchive@archive@boost@@V?$vector@V?$basic_string@DU?$char_traits@D@std@@V?$allocator@D@2@@std@@V?$allocator@V?$basic_string@DU?$char_traits@D@std@@V?$allocator@D@2@@std@@@2@@std@@@detail@archive@boost@@UAEPAXI@Z ; boost::archive::detail::iserializer<boost::archive::text_iarchive,std::vector<std::basic_string<char,std::char_traits<char>,std::allocator<char> >,std::allocator<std::basic_string<char,std::char_traits<char>,std::allocator<char> > > > >::`scalar deleting destructor'
PUBLIC	?call@?$guid_impl@V?$vector@V?$basic_string@DU?$char_traits@D@std@@V?$allocator@D@2@@std@@V?$allocator@V?$basic_string@DU?$char_traits@D@std@@V?$allocator@D@2@@std@@@2@@std@@@ext@serialization@boost@@SAPBDXZ ; boost::serialization::ext::guid_impl<std::vector<std::basic_string<char,std::char_traits<char>,std::allocator<char> >,std::allocator<std::basic_string<char,std::char_traits<char>,std::allocator<char> > > > >::call
PUBLIC	??$save@I@?$text_oarchive_impl@Vtext_oarchive@archive@boost@@@archive@boost@@IAEXABI@Z ; boost::archive::text_oarchive_impl<boost::archive::text_oarchive>::save<unsigned int>
PUBLIC	??1?$singleton_wrapper@V?$iserializer@Vtext_iarchive@archive@boost@@V?$vector@V?$basic_string@DU?$char_traits@D@std@@V?$allocator@D@2@@std@@V?$allocator@V?$basic_string@DU?$char_traits@D@std@@V?$allocator@D@2@@std@@@2@@std@@@detail@archive@boost@@@detail@serialization@boost@@UAE@XZ ; boost::serialization::detail::singleton_wrapper<boost::archive::detail::iserializer<boost::archive::text_iarchive,std::vector<std::basic_string<char,std::char_traits<char>,std::allocator<char> >,std::allocator<std::basic_string<char,std::char_traits<char>,std::allocator<char> > > > > >::~singleton_wrapper<boost::archive::detail::iserializer<boost::archive::text_iarchive,std::vector<std::basic_string<char,std::char_traits<char>,std::allocator<char> >,std::allocator<std::basic_string<char,std::char_traits<char>,std::allocator<char> > > > > >
PUBLIC	??0?$singleton_wrapper@V?$iserializer@Vtext_iarchive@archive@boost@@V?$vector@V?$basic_string@DU?$char_traits@D@std@@V?$allocator@D@2@@std@@V?$allocator@V?$basic_string@DU?$char_traits@D@std@@V?$allocator@D@2@@std@@@2@@std@@@detail@archive@boost@@@detail@serialization@boost@@QAE@XZ ; boost::serialization::detail::singleton_wrapper<boost::archive::detail::iserializer<boost::archive::text_iarchive,std::vector<std::basic_string<char,std::char_traits<char>,std::allocator<char> >,std::allocator<std::basic_string<char,std::char_traits<char>,std::allocator<char> > > > > >::singleton_wrapper<boost::archive::detail::iserializer<boost::archive::text_iarchive,std::vector<std::basic_string<char,std::char_traits<char>,std::allocator<char> >,std::allocator<std::basic_string<char,std::char_traits<char>,std::allocator<char> > > > > >
PUBLIC	??_G?$singleton_wrapper@V?$iserializer@Vtext_iarchive@archive@boost@@V?$vector@V?$basic_string@DU?$char_traits@D@std@@V?$allocator@D@2@@std@@V?$allocator@V?$basic_string@DU?$char_traits@D@std@@V?$allocator@D@2@@std@@@2@@std@@@detail@archive@boost@@@detail@serialization@boost@@UAEPAXI@Z ; boost::serialization::detail::singleton_wrapper<boost::archive::detail::iserializer<boost::archive::text_iarchive,std::vector<std::basic_string<char,std::char_traits<char>,std::allocator<char> >,std::allocator<std::basic_string<char,std::char_traits<char>,std::allocator<char> > > > > >::`scalar deleting destructor'
PUBLIC	??__Ft@?1??get_instance@?$singleton@V?$iserializer@Vtext_iarchive@archive@boost@@V?$vector@V?$basic_string@DU?$char_traits@D@std@@V?$allocator@D@2@@std@@V?$allocator@V?$basic_string@DU?$char_traits@D@std@@V?$allocator@D@2@@std@@@2@@std@@@detail@archive@boost@@@serialization@boost@@CAAAV?$iserializer@Vtext_iarchive@archive@boost@@V?$vector@V?$basic_string@DU?$char_traits@D@std@@V?$allocator@D@2@@std@@V?$allocator@V?$basic_string@DU?$char_traits@D@std@@V?$allocator@D@2@@std@@@2@@std@@@detail@archive@3@XZ@YAXXZ ; `boost::serialization::singleton<boost::archive::detail::iserializer<boost::archive::text_iarchive,std::vector<std::basic_string<char,std::char_traits<char>,std::allocator<char> >,std::allocator<std::basic_string<char,std::char_traits<char>,std::allocator<char> > > > > >::get_instance'::`2'::`dynamic atexit destructor for 't''
PUBLIC	??$cast@Vbasic_oarchive@detail@archive@boost@@@?$reference@AAVtext_oarchive@archive@boost@@@smart_cast_impl@serialization@boost@@SAAAVtext_oarchive@archive@3@AAVbasic_oarchive@detail@53@@Z ; boost::serialization::smart_cast_impl::reference<boost::archive::text_oarchive &>::cast<boost::archive::detail::basic_oarchive>
PUBLIC	??$serialize@Vtext_oarchive@archive@boost@@V?$basic_string@DU?$char_traits@D@std@@V?$allocator@D@2@@std@@V?$allocator@V?$basic_string@DU?$char_traits@D@std@@V?$allocator@D@2@@std@@@5@@serialization@boost@@YAXAAVtext_oarchive@archive@1@AAV?$vector@V?$basic_string@DU?$char_traits@D@std@@V?$allocator@D@2@@std@@V?$allocator@V?$basic_string@DU?$char_traits@D@std@@V?$allocator@D@2@@std@@@2@@std@@I@Z ; boost::serialization::serialize<boost::archive::text_oarchive,std::basic_string<char,std::char_traits<char>,std::allocator<char> >,std::allocator<std::basic_string<char,std::char_traits<char>,std::allocator<char> > > >
PUBLIC	??$smart_cast_reference@AAVtext_iarchive@archive@boost@@Vbasic_iarchive@detail@23@@serialization@boost@@YAAAVtext_iarchive@archive@1@AAVbasic_iarchive@detail@31@@Z ; boost::serialization::smart_cast_reference<boost::archive::text_iarchive &,boost::archive::detail::basic_iarchive>
PUBLIC	??$serialize_adl@Vtext_iarchive@archive@boost@@V?$vector@V?$basic_string@DU?$char_traits@D@std@@V?$allocator@D@2@@std@@V?$allocator@V?$basic_string@DU?$char_traits@D@std@@V?$allocator@D@2@@std@@@2@@std@@@serialization@boost@@YAXAAVtext_iarchive@archive@1@AAV?$vector@V?$basic_string@DU?$char_traits@D@std@@V?$allocator@D@2@@std@@V?$allocator@V?$basic_string@DU?$char_traits@D@std@@V?$allocator@D@2@@std@@@2@@std@@I@Z ; boost::serialization::serialize_adl<boost::archive::text_iarchive,std::vector<std::basic_string<char,std::char_traits<char>,std::allocator<char> >,std::allocator<std::basic_string<char,std::char_traits<char>,std::allocator<char> > > > >
PUBLIC	??$save@I@?$basic_text_oprimitive@V?$basic_ostream@DU?$char_traits@D@std@@@std@@@archive@boost@@IAEXABI@Z ; boost::archive::basic_text_oprimitive<std::basic_ostream<char,std::char_traits<char> > >::save<unsigned int>
PUBLIC	??$load@I@?$text_iarchive_impl@Vtext_iarchive@archive@boost@@@archive@boost@@IAEXAAI@Z ; boost::archive::text_iarchive_impl<boost::archive::text_iarchive>::load<unsigned int>
PUBLIC	??$cast@Vbasic_oarchive@detail@archive@boost@@@polymorphic@?$reference@AAVtext_oarchive@archive@boost@@@smart_cast_impl@serialization@boost@@SAAAVtext_oarchive@archive@4@AAVbasic_oarchive@detail@64@@Z ; boost::serialization::smart_cast_impl::reference<boost::archive::text_oarchive &>::polymorphic::cast<boost::archive::detail::basic_oarchive>
PUBLIC	??$split_free@Vtext_oarchive@archive@boost@@V?$vector@V?$basic_string@DU?$char_traits@D@std@@V?$allocator@D@2@@std@@V?$allocator@V?$basic_string@DU?$char_traits@D@std@@V?$allocator@D@2@@std@@@2@@std@@@serialization@boost@@YAXAAVtext_oarchive@archive@1@AAV?$vector@V?$basic_string@DU?$char_traits@D@std@@V?$allocator@D@2@@std@@V?$allocator@V?$basic_string@DU?$char_traits@D@std@@V?$allocator@D@2@@std@@@2@@std@@I@Z ; boost::serialization::split_free<boost::archive::text_oarchive,std::vector<std::basic_string<char,std::char_traits<char>,std::allocator<char> >,std::allocator<std::basic_string<char,std::char_traits<char>,std::allocator<char> > > > >
PUBLIC	??$cast@Vbasic_iarchive@detail@archive@boost@@@?$reference@AAVtext_iarchive@archive@boost@@@smart_cast_impl@serialization@boost@@SAAAVtext_iarchive@archive@3@AAVbasic_iarchive@detail@53@@Z ; boost::serialization::smart_cast_impl::reference<boost::archive::text_iarchive &>::cast<boost::archive::detail::basic_iarchive>
PUBLIC	??$serialize@Vtext_iarchive@archive@boost@@V?$basic_string@DU?$char_traits@D@std@@V?$allocator@D@2@@std@@V?$allocator@V?$basic_string@DU?$char_traits@D@std@@V?$allocator@D@2@@std@@@5@@serialization@boost@@YAXAAVtext_iarchive@archive@1@AAV?$vector@V?$basic_string@DU?$char_traits@D@std@@V?$allocator@D@2@@std@@V?$allocator@V?$basic_string@DU?$char_traits@D@std@@V?$allocator@D@2@@std@@@2@@std@@I@Z ; boost::serialization::serialize<boost::archive::text_iarchive,std::basic_string<char,std::char_traits<char>,std::allocator<char> >,std::allocator<std::basic_string<char,std::char_traits<char>,std::allocator<char> > > >
PUBLIC	??$throw_exception@Varchive_exception@archive@boost@@@serialization@boost@@YAXABVarchive_exception@archive@1@@Z ; boost::serialization::throw_exception<boost::archive::archive_exception>
PUBLIC	??$save_impl@I@?$basic_text_oprimitive@V?$basic_ostream@DU?$char_traits@D@std@@@std@@@archive@boost@@IAEXABIAAU?$bool_@$0A@@mpl@2@@Z ; boost::archive::basic_text_oprimitive<std::basic_ostream<char,std::char_traits<char> > >::save_impl<unsigned int>
PUBLIC	??$load@I@?$basic_text_iprimitive@V?$basic_istream@DU?$char_traits@D@std@@@std@@@archive@boost@@IAEXAAI@Z ; boost::archive::basic_text_iprimitive<std::basic_istream<char,std::char_traits<char> > >::load<unsigned int>
PUBLIC	??$cast@Vbasic_oarchive@detail@archive@boost@@@cross@polymorphic@?$reference@AAVtext_oarchive@archive@boost@@@smart_cast_impl@serialization@boost@@SAAAVtext_oarchive@archive@5@AAVbasic_oarchive@detail@75@@Z ; boost::serialization::smart_cast_impl::reference<boost::archive::text_oarchive &>::polymorphic::cross::cast<boost::archive::detail::basic_oarchive>
PUBLIC	?invoke@?$free_saver@Vtext_oarchive@archive@boost@@V?$vector@V?$basic_string@DU?$char_traits@D@std@@V?$allocator@D@2@@std@@V?$allocator@V?$basic_string@DU?$char_traits@D@std@@V?$allocator@D@2@@std@@@2@@std@@@serialization@boost@@SAXAAVtext_oarchive@archive@3@ABV?$vector@V?$basic_string@DU?$char_traits@D@std@@V?$allocator@D@2@@std@@V?$allocator@V?$basic_string@DU?$char_traits@D@std@@V?$allocator@D@2@@std@@@2@@std@@I@Z ; boost::serialization::free_saver<boost::archive::text_oarchive,std::vector<std::basic_string<char,std::char_traits<char>,std::allocator<char> >,std::allocator<std::basic_string<char,std::char_traits<char>,std::allocator<char> > > > >::invoke
PUBLIC	??$cast@Vbasic_iarchive@detail@archive@boost@@@polymorphic@?$reference@AAVtext_iarchive@archive@boost@@@smart_cast_impl@serialization@boost@@SAAAVtext_iarchive@archive@4@AAVbasic_iarchive@detail@64@@Z ; boost::serialization::smart_cast_impl::reference<boost::archive::text_iarchive &>::polymorphic::cast<boost::archive::detail::basic_iarchive>
PUBLIC	??$split_free@Vtext_iarchive@archive@boost@@V?$vector@V?$basic_string@DU?$char_traits@D@std@@V?$allocator@D@2@@std@@V?$allocator@V?$basic_string@DU?$char_traits@D@std@@V?$allocator@D@2@@std@@@2@@std@@@serialization@boost@@YAXAAVtext_iarchive@archive@1@AAV?$vector@V?$basic_string@DU?$char_traits@D@std@@V?$allocator@D@2@@std@@V?$allocator@V?$basic_string@DU?$char_traits@D@std@@V?$allocator@D@2@@std@@@2@@std@@I@Z ; boost::serialization::split_free<boost::archive::text_iarchive,std::vector<std::basic_string<char,std::char_traits<char>,std::allocator<char> >,std::allocator<std::basic_string<char,std::char_traits<char>,std::allocator<char> > > > >
PUBLIC	??$save@Vtext_oarchive@archive@boost@@V?$basic_string@DU?$char_traits@D@std@@V?$allocator@D@2@@std@@V?$allocator@V?$basic_string@DU?$char_traits@D@std@@V?$allocator@D@2@@std@@@5@@serialization@boost@@YAXAAVtext_oarchive@archive@1@ABV?$vector@V?$basic_string@DU?$char_traits@D@std@@V?$allocator@D@2@@std@@V?$allocator@V?$basic_string@DU?$char_traits@D@std@@V?$allocator@D@2@@std@@@2@@std@@I@Z ; boost::serialization::save<boost::archive::text_oarchive,std::basic_string<char,std::char_traits<char>,std::allocator<char> >,std::allocator<std::basic_string<char,std::char_traits<char>,std::allocator<char> > > >
PUBLIC	??$cast@Vbasic_iarchive@detail@archive@boost@@@cross@polymorphic@?$reference@AAVtext_iarchive@archive@boost@@@smart_cast_impl@serialization@boost@@SAAAVtext_iarchive@archive@5@AAVbasic_iarchive@detail@75@@Z ; boost::serialization::smart_cast_impl::reference<boost::archive::text_iarchive &>::polymorphic::cross::cast<boost::archive::detail::basic_iarchive>
PUBLIC	?invoke@?$free_loader@Vtext_iarchive@archive@boost@@V?$vector@V?$basic_string@DU?$char_traits@D@std@@V?$allocator@D@2@@std@@V?$allocator@V?$basic_string@DU?$char_traits@D@std@@V?$allocator@D@2@@std@@@2@@std@@@serialization@boost@@SAXAAVtext_iarchive@archive@3@AAV?$vector@V?$basic_string@DU?$char_traits@D@std@@V?$allocator@D@2@@std@@V?$allocator@V?$basic_string@DU?$char_traits@D@std@@V?$allocator@D@2@@std@@@2@@std@@I@Z ; boost::serialization::free_loader<boost::archive::text_iarchive,std::vector<std::basic_string<char,std::char_traits<char>,std::allocator<char> >,std::allocator<std::basic_string<char,std::char_traits<char>,std::allocator<char> > > > >::invoke
PUBLIC	??$save@Vtext_oarchive@archive@boost@@V?$basic_string@DU?$char_traits@D@std@@V?$allocator@D@2@@std@@V?$allocator@V?$basic_string@DU?$char_traits@D@std@@V?$allocator@D@2@@std@@@5@@serialization@boost@@YAXAAVtext_oarchive@archive@1@ABV?$vector@V?$basic_string@DU?$char_traits@D@std@@V?$allocator@D@2@@std@@V?$allocator@V?$basic_string@DU?$char_traits@D@std@@V?$allocator@D@2@@std@@@2@@std@@IU?$bool_@$0A@@mpl@1@@Z ; boost::serialization::save<boost::archive::text_oarchive,std::basic_string<char,std::char_traits<char>,std::allocator<char> >,std::allocator<std::basic_string<char,std::char_traits<char>,std::allocator<char> > > >
PUBLIC	??$load@Vtext_iarchive@archive@boost@@V?$basic_string@DU?$char_traits@D@std@@V?$allocator@D@2@@std@@V?$allocator@V?$basic_string@DU?$char_traits@D@std@@V?$allocator@D@2@@std@@@5@@serialization@boost@@YAXAAVtext_iarchive@archive@1@AAV?$vector@V?$basic_string@DU?$char_traits@D@std@@V?$allocator@D@2@@std@@V?$allocator@V?$basic_string@DU?$char_traits@D@std@@V?$allocator@D@2@@std@@@2@@std@@I@Z ; boost::serialization::load<boost::archive::text_iarchive,std::basic_string<char,std::char_traits<char>,std::allocator<char> >,std::allocator<std::basic_string<char,std::char_traits<char>,std::allocator<char> > > >
PUBLIC	??$save_collection@Vtext_oarchive@archive@boost@@V?$vector@V?$basic_string@DU?$char_traits@D@std@@V?$allocator@D@2@@std@@V?$allocator@V?$basic_string@DU?$char_traits@D@std@@V?$allocator@D@2@@std@@@2@@std@@@stl@serialization@boost@@YAXAAVtext_oarchive@archive@2@ABV?$vector@V?$basic_string@DU?$char_traits@D@std@@V?$allocator@D@2@@std@@V?$allocator@V?$basic_string@DU?$char_traits@D@std@@V?$allocator@D@2@@std@@@2@@std@@@Z ; boost::serialization::stl::save_collection<boost::archive::text_oarchive,std::vector<std::basic_string<char,std::char_traits<char>,std::allocator<char> >,std::allocator<std::basic_string<char,std::char_traits<char>,std::allocator<char> > > > >
PUBLIC	??$load@Vtext_iarchive@archive@boost@@V?$basic_string@DU?$char_traits@D@std@@V?$allocator@D@2@@std@@V?$allocator@V?$basic_string@DU?$char_traits@D@std@@V?$allocator@D@2@@std@@@5@@serialization@boost@@YAXAAVtext_iarchive@archive@1@AAV?$vector@V?$basic_string@DU?$char_traits@D@std@@V?$allocator@D@2@@std@@V?$allocator@V?$basic_string@DU?$char_traits@D@std@@V?$allocator@D@2@@std@@@2@@std@@IU?$bool_@$0A@@mpl@1@@Z ; boost::serialization::load<boost::archive::text_iarchive,std::basic_string<char,std::char_traits<char>,std::allocator<char> >,std::allocator<std::basic_string<char,std::char_traits<char>,std::allocator<char> > > >
PUBLIC	??$save_collection@Vtext_oarchive@archive@boost@@V?$vector@V?$basic_string@DU?$char_traits@D@std@@V?$allocator@D@2@@std@@V?$allocator@V?$basic_string@DU?$char_traits@D@std@@V?$allocator@D@2@@std@@@2@@std@@@stl@serialization@boost@@YAXAAVtext_oarchive@archive@2@ABV?$vector@V?$basic_string@DU?$char_traits@D@std@@V?$allocator@D@2@@std@@V?$allocator@V?$basic_string@DU?$char_traits@D@std@@V?$allocator@D@2@@std@@@2@@std@@Vcollection_size_type@12@@Z ; boost::serialization::stl::save_collection<boost::archive::text_oarchive,std::vector<std::basic_string<char,std::char_traits<char>,std::allocator<char> >,std::allocator<std::basic_string<char,std::char_traits<char>,std::allocator<char> > > > >
PUBLIC	??$make_nvp@Vcollection_size_type@serialization@boost@@@serialization@boost@@YA?BU?$nvp@Vcollection_size_type@serialization@boost@@@01@PBDAAVcollection_size_type@01@@Z ; boost::serialization::make_nvp<boost::serialization::collection_size_type>
PUBLIC	??0?$nvp@Vcollection_size_type@serialization@boost@@@serialization@boost@@QAE@PBDAAVcollection_size_type@12@@Z ; boost::serialization::nvp<boost::serialization::collection_size_type>::nvp<boost::serialization::collection_size_type>
PUBLIC	?value@?$nvp@Vcollection_size_type@serialization@boost@@@serialization@boost@@QBEAAVcollection_size_type@23@XZ ; boost::serialization::nvp<boost::serialization::collection_size_type>::value
PUBLIC	?const_value@?$nvp@Vcollection_size_type@serialization@boost@@@serialization@boost@@QBEABVcollection_size_type@23@XZ ; boost::serialization::nvp<boost::serialization::collection_size_type>::const_value
PUBLIC	??$?5$$CBU?$nvp@Vcollection_size_type@serialization@boost@@@serialization@boost@@@?$interface_iarchive@Vtext_iarchive@archive@boost@@@detail@archive@boost@@QAEAAVtext_iarchive@23@ABU?$nvp@Vcollection_size_type@serialization@boost@@@serialization@3@@Z ; boost::archive::detail::interface_iarchive<boost::archive::text_iarchive>::operator>><boost::serialization::nvp<boost::serialization::collection_size_type> const >
PUBLIC	??$make_nvp@Vitem_version_type@serialization@boost@@@serialization@boost@@YA?BU?$nvp@Vitem_version_type@serialization@boost@@@01@PBDAAVitem_version_type@01@@Z ; boost::serialization::make_nvp<boost::serialization::item_version_type>
PUBLIC	??0?$nvp@Vitem_version_type@serialization@boost@@@serialization@boost@@QAE@PBDAAVitem_version_type@12@@Z ; boost::serialization::nvp<boost::serialization::item_version_type>::nvp<boost::serialization::item_version_type>
PUBLIC	?value@?$nvp@Vitem_version_type@serialization@boost@@@serialization@boost@@QBEAAVitem_version_type@23@XZ ; boost::serialization::nvp<boost::serialization::item_version_type>::value
PUBLIC	??$?5$$CBU?$nvp@Vitem_version_type@serialization@boost@@@serialization@boost@@@?$interface_iarchive@Vtext_iarchive@archive@boost@@@detail@archive@boost@@QAEAAVtext_iarchive@23@ABU?$nvp@Vitem_version_type@serialization@boost@@@serialization@3@@Z ; boost::archive::detail::interface_iarchive<boost::archive::text_iarchive>::operator>><boost::serialization::nvp<boost::serialization::item_version_type> const >
PUBLIC	??$collection_load_impl@Vtext_iarchive@archive@boost@@V?$vector@V?$basic_string@DU?$char_traits@D@std@@V?$allocator@D@2@@std@@V?$allocator@V?$basic_string@DU?$char_traits@D@std@@V?$allocator@D@2@@std@@@2@@std@@@stl@serialization@boost@@YAXAAVtext_iarchive@archive@2@AAV?$vector@V?$basic_string@DU?$char_traits@D@std@@V?$allocator@D@2@@std@@V?$allocator@V?$basic_string@DU?$char_traits@D@std@@V?$allocator@D@2@@std@@@2@@std@@Vcollection_size_type@12@Vitem_version_type@12@@Z ; boost::serialization::stl::collection_load_impl<boost::archive::text_iarchive,std::vector<std::basic_string<char,std::char_traits<char>,std::allocator<char> >,std::allocator<std::basic_string<char,std::char_traits<char>,std::allocator<char> > > > >
PUBLIC	??$_Umove@PAV?$basic_string@DU?$char_traits@D@std@@V?$allocator@D@2@@std@@@?$vector@V?$basic_string@DU?$char_traits@D@std@@V?$allocator@D@2@@std@@V?$allocator@V?$basic_string@DU?$char_traits@D@std@@V?$allocator@D@2@@std@@@2@@std@@IAEPAV?$basic_string@DU?$char_traits@D@std@@V?$allocator@D@2@@1@PAV21@00@Z ; std::vector<std::basic_string<char,std::char_traits<char>,std::allocator<char> >,std::allocator<std::basic_string<char,std::char_traits<char>,std::allocator<char> > > >::_Umove<std::basic_string<char,std::char_traits<char>,std::allocator<char> > *>
PUBLIC	??$?6U?$nvp@Vcollection_size_type@serialization@boost@@@serialization@boost@@@?$interface_oarchive@Vtext_oarchive@archive@boost@@@detail@archive@boost@@QAEAAVtext_oarchive@23@ABU?$nvp@Vcollection_size_type@serialization@boost@@@serialization@3@@Z ; boost::archive::detail::interface_oarchive<boost::archive::text_oarchive>::operator<<<boost::serialization::nvp<boost::serialization::collection_size_type> >
PUBLIC	??$make_nvp@$$CBVitem_version_type@serialization@boost@@@serialization@boost@@YA?BU?$nvp@$$CBVitem_version_type@serialization@boost@@@01@PBDABVitem_version_type@01@@Z ; boost::serialization::make_nvp<boost::serialization::item_version_type const >
PUBLIC	??0?$nvp@$$CBVitem_version_type@serialization@boost@@@serialization@boost@@QAE@PBDABVitem_version_type@12@@Z ; boost::serialization::nvp<boost::serialization::item_version_type const >::nvp<boost::serialization::item_version_type const >
PUBLIC	?const_value@?$nvp@$$CBVitem_version_type@serialization@boost@@@serialization@boost@@QBEABVitem_version_type@23@XZ ; boost::serialization::nvp<boost::serialization::item_version_type const >::const_value
PUBLIC	??$?6U?$nvp@$$CBVitem_version_type@serialization@boost@@@serialization@boost@@@?$interface_oarchive@Vtext_oarchive@archive@boost@@@detail@archive@boost@@QAEAAVtext_oarchive@23@ABU?$nvp@$$CBVitem_version_type@serialization@boost@@@serialization@3@@Z ; boost::archive::detail::interface_oarchive<boost::archive::text_oarchive>::operator<<<boost::serialization::nvp<boost::serialization::item_version_type const > >
PUBLIC	??$save_construct_data_adl@Vtext_oarchive@archive@boost@@V?$basic_string@DU?$char_traits@D@std@@V?$allocator@D@2@@std@@@serialization@boost@@YAXAAVtext_oarchive@archive@1@PBV?$basic_string@DU?$char_traits@D@std@@V?$allocator@D@2@@std@@I@Z ; boost::serialization::save_construct_data_adl<boost::archive::text_oarchive,std::basic_string<char,std::char_traits<char>,std::allocator<char> > >
PUBLIC	??$make_nvp@$$CBV?$basic_string@DU?$char_traits@D@std@@V?$allocator@D@2@@std@@@serialization@boost@@YA?BU?$nvp@$$CBV?$basic_string@DU?$char_traits@D@std@@V?$allocator@D@2@@std@@@01@PBDABV?$basic_string@DU?$char_traits@D@std@@V?$allocator@D@2@@std@@@Z ; boost::serialization::make_nvp<std::basic_string<char,std::char_traits<char>,std::allocator<char> > const >
PUBLIC	??0?$nvp@$$CBV?$basic_string@DU?$char_traits@D@std@@V?$allocator@D@2@@std@@@serialization@boost@@QAE@PBDABV?$basic_string@DU?$char_traits@D@std@@V?$allocator@D@2@@std@@@Z ; boost::serialization::nvp<std::basic_string<char,std::char_traits<char>,std::allocator<char> > const >::nvp<std::basic_string<char,std::char_traits<char>,std::allocator<char> > const >
PUBLIC	?const_value@?$nvp@$$CBV?$basic_string@DU?$char_traits@D@std@@V?$allocator@D@2@@std@@@serialization@boost@@QBEABV?$basic_string@DU?$char_traits@D@std@@V?$allocator@D@2@@std@@XZ ; boost::serialization::nvp<std::basic_string<char,std::char_traits<char>,std::allocator<char> > const >::const_value
PUBLIC	??$?6U?$nvp@$$CBV?$basic_string@DU?$char_traits@D@std@@V?$allocator@D@2@@std@@@serialization@boost@@@?$interface_oarchive@Vtext_oarchive@archive@boost@@@detail@archive@boost@@QAEAAVtext_oarchive@23@ABU?$nvp@$$CBV?$basic_string@DU?$char_traits@D@std@@V?$allocator@D@2@@std@@@serialization@3@@Z ; boost::archive::detail::interface_oarchive<boost::archive::text_oarchive>::operator<<<boost::serialization::nvp<std::basic_string<char,std::char_traits<char>,std::allocator<char> > const > >
PUBLIC	??$load_override@$$CBU?$nvp@Vcollection_size_type@serialization@boost@@@serialization@boost@@@?$text_iarchive_impl@Vtext_iarchive@archive@boost@@@archive@boost@@IAEXABU?$nvp@Vcollection_size_type@serialization@boost@@@serialization@2@@Z ; boost::archive::text_iarchive_impl<boost::archive::text_iarchive>::load_override<boost::serialization::nvp<boost::serialization::collection_size_type> const >
PUBLIC	??$load_override@$$CBU?$nvp@Vitem_version_type@serialization@boost@@@serialization@boost@@@?$text_iarchive_impl@Vtext_iarchive@archive@boost@@@archive@boost@@IAEXABU?$nvp@Vitem_version_type@serialization@boost@@@serialization@2@@Z ; boost::archive::text_iarchive_impl<boost::archive::text_iarchive>::load_override<boost::serialization::nvp<boost::serialization::item_version_type> const >
PUBLIC	??$make_nvp@V?$basic_string@DU?$char_traits@D@std@@V?$allocator@D@2@@std@@@serialization@boost@@YA?BU?$nvp@V?$basic_string@DU?$char_traits@D@std@@V?$allocator@D@2@@std@@@01@PBDAAV?$basic_string@DU?$char_traits@D@std@@V?$allocator@D@2@@std@@@Z ; boost::serialization::make_nvp<std::basic_string<char,std::char_traits<char>,std::allocator<char> > >
PUBLIC	??0?$nvp@V?$basic_string@DU?$char_traits@D@std@@V?$allocator@D@2@@std@@@serialization@boost@@QAE@PBDAAV?$basic_string@DU?$char_traits@D@std@@V?$allocator@D@2@@std@@@Z ; boost::serialization::nvp<std::basic_string<char,std::char_traits<char>,std::allocator<char> > >::nvp<std::basic_string<char,std::char_traits<char>,std::allocator<char> > >
PUBLIC	?value@?$nvp@V?$basic_string@DU?$char_traits@D@std@@V?$allocator@D@2@@std@@@serialization@boost@@QBEAAV?$basic_string@DU?$char_traits@D@std@@V?$allocator@D@2@@std@@XZ ; boost::serialization::nvp<std::basic_string<char,std::char_traits<char>,std::allocator<char> > >::value
PUBLIC	??$?5$$CBU?$nvp@V?$basic_string@DU?$char_traits@D@std@@V?$allocator@D@2@@std@@@serialization@boost@@@?$interface_iarchive@Vtext_iarchive@archive@boost@@@detail@archive@boost@@QAEAAVtext_iarchive@23@ABU?$nvp@V?$basic_string@DU?$char_traits@D@std@@V?$allocator@D@2@@std@@@serialization@3@@Z ; boost::archive::detail::interface_iarchive<boost::archive::text_iarchive>::operator>><boost::serialization::nvp<std::basic_string<char,std::char_traits<char>,std::allocator<char> > > const >
PUBLIC	??$_Uninitialized_move@PAV?$basic_string@DU?$char_traits@D@std@@V?$allocator@D@2@@std@@PAV12@V?$allocator@V?$basic_string@DU?$char_traits@D@std@@V?$allocator@D@2@@std@@@2@@std@@YAPAV?$basic_string@DU?$char_traits@D@std@@V?$allocator@D@2@@0@PAV10@00AAU?$_Wrap_alloc@V?$allocator@V?$basic_string@DU?$char_traits@D@std@@V?$allocator@D@2@@std@@@std@@@0@@Z ; std::_Uninitialized_move<std::basic_string<char,std::char_traits<char>,std::allocator<char> > *,std::basic_string<char,std::char_traits<char>,std::allocator<char> > *,std::allocator<std::basic_string<char,std::char_traits<char>,std::allocator<char> > > >
PUBLIC	??$?0AAPBDPAVitem_version_type@serialization@boost@@X$0A@@?$pair@PBDPAVitem_version_type@serialization@boost@@@std@@QAE@AAPBD$$QAPAVitem_version_type@serialization@boost@@@Z ; std::pair<char const *,boost::serialization::item_version_type *>::pair<char const *,boost::serialization::item_version_type *><char const * &,boost::serialization::item_version_type *,void,0>
PUBLIC	??$?0AAPBDPAVcollection_size_type@serialization@boost@@X$0A@@?$pair@PBDPAVcollection_size_type@serialization@boost@@@std@@QAE@AAPBD$$QAPAVcollection_size_type@serialization@boost@@@Z ; std::pair<char const *,boost::serialization::collection_size_type *>::pair<char const *,boost::serialization::collection_size_type *><char const * &,boost::serialization::collection_size_type *,void,0>
PUBLIC	??$_Uninitialized_default_fill_n@PAV?$basic_string@DU?$char_traits@D@std@@V?$allocator@D@2@@std@@IV?$allocator@V?$basic_string@DU?$char_traits@D@std@@V?$allocator@D@2@@std@@@2@@std@@YAXPAV?$basic_string@DU?$char_traits@D@std@@V?$allocator@D@2@@0@IAAU?$_Wrap_alloc@V?$allocator@V?$basic_string@DU?$char_traits@D@std@@V?$allocator@D@2@@std@@@std@@@0@@Z ; std::_Uninitialized_default_fill_n<std::basic_string<char,std::char_traits<char>,std::allocator<char> > *,unsigned int,std::allocator<std::basic_string<char,std::char_traits<char>,std::allocator<char> > > >
PUBLIC	??$save_override@$$CBU?$nvp@Vcollection_size_type@serialization@boost@@@serialization@boost@@@?$basic_text_oarchive@Vtext_oarchive@archive@boost@@@archive@boost@@IAEXABU?$nvp@Vcollection_size_type@serialization@boost@@@serialization@2@@Z ; boost::archive::basic_text_oarchive<boost::archive::text_oarchive>::save_override<boost::serialization::nvp<boost::serialization::collection_size_type> const >
PUBLIC	??$save_override@$$CBU?$nvp@$$CBVitem_version_type@serialization@boost@@@serialization@boost@@@?$basic_text_oarchive@Vtext_oarchive@archive@boost@@@archive@boost@@IAEXABU?$nvp@$$CBVitem_version_type@serialization@boost@@@serialization@2@@Z ; boost::archive::basic_text_oarchive<boost::archive::text_oarchive>::save_override<boost::serialization::nvp<boost::serialization::item_version_type const > const >
PUBLIC	??$save_construct_data@Vtext_oarchive@archive@boost@@V?$basic_string@DU?$char_traits@D@std@@V?$allocator@D@2@@std@@@serialization@boost@@YAXAAVtext_oarchive@archive@1@PBV?$basic_string@DU?$char_traits@D@std@@V?$allocator@D@2@@std@@I@Z ; boost::serialization::save_construct_data<boost::archive::text_oarchive,std::basic_string<char,std::char_traits<char>,std::allocator<char> > >
PUBLIC	??$save_override@$$CBU?$nvp@$$CBV?$basic_string@DU?$char_traits@D@std@@V?$allocator@D@2@@std@@@serialization@boost@@@?$basic_text_oarchive@Vtext_oarchive@archive@boost@@@archive@boost@@IAEXABU?$nvp@$$CBV?$basic_string@DU?$char_traits@D@std@@V?$allocator@D@2@@std@@@serialization@2@@Z ; boost::archive::basic_text_oarchive<boost::archive::text_oarchive>::save_override<boost::serialization::nvp<std::basic_string<char,std::char_traits<char>,std::allocator<char> > const > const >
PUBLIC	??$load_override@$$CBU?$nvp@Vcollection_size_type@serialization@boost@@@serialization@boost@@@?$basic_text_iarchive@Vtext_iarchive@archive@boost@@@archive@boost@@IAEXABU?$nvp@Vcollection_size_type@serialization@boost@@@serialization@2@@Z ; boost::archive::basic_text_iarchive<boost::archive::text_iarchive>::load_override<boost::serialization::nvp<boost::serialization::collection_size_type> const >
PUBLIC	??$load_override@$$CBU?$nvp@Vitem_version_type@serialization@boost@@@serialization@boost@@@?$basic_text_iarchive@Vtext_iarchive@archive@boost@@@archive@boost@@IAEXABU?$nvp@Vitem_version_type@serialization@boost@@@serialization@2@@Z ; boost::archive::basic_text_iarchive<boost::archive::text_iarchive>::load_override<boost::serialization::nvp<boost::serialization::item_version_type> const >
PUBLIC	??$load_override@$$CBU?$nvp@V?$basic_string@DU?$char_traits@D@std@@V?$allocator@D@2@@std@@@serialization@boost@@@?$text_iarchive_impl@Vtext_iarchive@archive@boost@@@archive@boost@@IAEXABU?$nvp@V?$basic_string@DU?$char_traits@D@std@@V?$allocator@D@2@@std@@@serialization@2@@Z ; boost::archive::text_iarchive_impl<boost::archive::text_iarchive>::load_override<boost::serialization::nvp<std::basic_string<char,std::char_traits<char>,std::allocator<char> > > const >
PUBLIC	??$_Unchecked@PAV?$basic_string@DU?$char_traits@D@std@@V?$allocator@D@2@@std@@@std@@YAPAV?$basic_string@DU?$char_traits@D@std@@V?$allocator@D@2@@0@PAV10@@Z ; std::_Unchecked<std::basic_string<char,std::char_traits<char>,std::allocator<char> > *>
PUBLIC	??$_Uninitialized_move_al_unchecked@PAV?$basic_string@DU?$char_traits@D@std@@V?$allocator@D@2@@std@@PAV12@V?$allocator@V?$basic_string@DU?$char_traits@D@std@@V?$allocator@D@2@@std@@@2@@std@@YAPAV?$basic_string@DU?$char_traits@D@std@@V?$allocator@D@2@@0@PAV10@00AAU?$_Wrap_alloc@V?$allocator@V?$basic_string@DU?$char_traits@D@std@@V?$allocator@D@2@@std@@@std@@@0@@Z ; std::_Uninitialized_move_al_unchecked<std::basic_string<char,std::char_traits<char>,std::allocator<char> > *,std::basic_string<char,std::char_traits<char>,std::allocator<char> > *,std::allocator<std::basic_string<char,std::char_traits<char>,std::allocator<char> > > >
PUBLIC	??$_Rechecked@PAV?$basic_string@DU?$char_traits@D@std@@V?$allocator@D@2@@std@@PAV12@@std@@YAAAPAV?$basic_string@DU?$char_traits@D@std@@V?$allocator@D@2@@0@AAPAV10@PAV10@@Z ; std::_Rechecked<std::basic_string<char,std::char_traits<char>,std::allocator<char> > *,std::basic_string<char,std::char_traits<char>,std::allocator<char> > *>
PUBLIC	??$forward@AAPBD@std@@YAAAPBDAAPBD@Z		; std::forward<char const * &>
PUBLIC	??$forward@PAVitem_version_type@serialization@boost@@@std@@YA$$QAPAVitem_version_type@serialization@boost@@AAPAV123@@Z ; std::forward<boost::serialization::item_version_type *>
PUBLIC	??$forward@PAVcollection_size_type@serialization@boost@@@std@@YA$$QAPAVcollection_size_type@serialization@boost@@AAPAV123@@Z ; std::forward<boost::serialization::collection_size_type *>
PUBLIC	??$_Uninitialized_default_fill_n1@PAV?$basic_string@DU?$char_traits@D@std@@V?$allocator@D@2@@std@@IV?$allocator@V?$basic_string@DU?$char_traits@D@std@@V?$allocator@D@2@@std@@@2@@std@@YAXPAV?$basic_string@DU?$char_traits@D@std@@V?$allocator@D@2@@0@IAAU?$_Wrap_alloc@V?$allocator@V?$basic_string@DU?$char_traits@D@std@@V?$allocator@D@2@@std@@@std@@@0@U?$integral_constant@_N$0A@@0@@Z ; std::_Uninitialized_default_fill_n1<std::basic_string<char,std::char_traits<char>,std::allocator<char> > *,unsigned int,std::allocator<std::basic_string<char,std::char_traits<char>,std::allocator<char> > > >
PUBLIC	??$?0AAPBDPAV?$basic_string@DU?$char_traits@D@std@@V?$allocator@D@2@@std@@X$0A@@?$pair@PBDPAV?$basic_string@DU?$char_traits@D@std@@V?$allocator@D@2@@std@@@std@@QAE@AAPBD$$QAPAV?$basic_string@DU?$char_traits@D@std@@V?$allocator@D@2@@1@@Z ; std::pair<char const *,std::basic_string<char,std::char_traits<char>,std::allocator<char> > *>::pair<char const *,std::basic_string<char,std::char_traits<char>,std::allocator<char> > *><char const * &,std::basic_string<char,std::char_traits<char>,std::allocator<char> > *,void,0>
PUBLIC	??$?0AAPBDPBV?$basic_string@DU?$char_traits@D@std@@V?$allocator@D@2@@std@@X$0A@@?$pair@PBDPBV?$basic_string@DU?$char_traits@D@std@@V?$allocator@D@2@@std@@@std@@QAE@AAPBD$$QAPBV?$basic_string@DU?$char_traits@D@std@@V?$allocator@D@2@@1@@Z ; std::pair<char const *,std::basic_string<char,std::char_traits<char>,std::allocator<char> > const *>::pair<char const *,std::basic_string<char,std::char_traits<char>,std::allocator<char> > const *><char const * &,std::basic_string<char,std::char_traits<char>,std::allocator<char> > const *,void,0>
PUBLIC	??$?0AAPBDPBVitem_version_type@serialization@boost@@X$0A@@?$pair@PBDPBVitem_version_type@serialization@boost@@@std@@QAE@AAPBD$$QAPBVitem_version_type@serialization@boost@@@Z ; std::pair<char const *,boost::serialization::item_version_type const *>::pair<char const *,boost::serialization::item_version_type const *><char const * &,boost::serialization::item_version_type const *,void,0>
PUBLIC	??$save_override@$$CBU?$nvp@Vcollection_size_type@serialization@boost@@@serialization@boost@@@?$common_oarchive@Vtext_oarchive@archive@boost@@@detail@archive@boost@@IAEXABU?$nvp@Vcollection_size_type@serialization@boost@@@serialization@3@@Z ; boost::archive::detail::common_oarchive<boost::archive::text_oarchive>::save_override<boost::serialization::nvp<boost::serialization::collection_size_type> const >
PUBLIC	??$save_override@$$CBU?$nvp@$$CBVitem_version_type@serialization@boost@@@serialization@boost@@@?$common_oarchive@Vtext_oarchive@archive@boost@@@detail@archive@boost@@IAEXABU?$nvp@$$CBVitem_version_type@serialization@boost@@@serialization@3@@Z ; boost::archive::detail::common_oarchive<boost::archive::text_oarchive>::save_override<boost::serialization::nvp<boost::serialization::item_version_type const > const >
PUBLIC	??$save_override@$$CBU?$nvp@$$CBV?$basic_string@DU?$char_traits@D@std@@V?$allocator@D@2@@std@@@serialization@boost@@@?$common_oarchive@Vtext_oarchive@archive@boost@@@detail@archive@boost@@IAEXABU?$nvp@$$CBV?$basic_string@DU?$char_traits@D@std@@V?$allocator@D@2@@std@@@serialization@3@@Z ; boost::archive::detail::common_oarchive<boost::archive::text_oarchive>::save_override<boost::serialization::nvp<std::basic_string<char,std::char_traits<char>,std::allocator<char> > const > const >
PUBLIC	??$load_override@$$CBU?$nvp@Vcollection_size_type@serialization@boost@@@serialization@boost@@@?$common_iarchive@Vtext_iarchive@archive@boost@@@detail@archive@boost@@IAEXABU?$nvp@Vcollection_size_type@serialization@boost@@@serialization@3@@Z ; boost::archive::detail::common_iarchive<boost::archive::text_iarchive>::load_override<boost::serialization::nvp<boost::serialization::collection_size_type> const >
PUBLIC	??$load_override@$$CBU?$nvp@Vitem_version_type@serialization@boost@@@serialization@boost@@@?$common_iarchive@Vtext_iarchive@archive@boost@@@detail@archive@boost@@IAEXABU?$nvp@Vitem_version_type@serialization@boost@@@serialization@3@@Z ; boost::archive::detail::common_iarchive<boost::archive::text_iarchive>::load_override<boost::serialization::nvp<boost::serialization::item_version_type> const >
PUBLIC	??$load_override@$$CBU?$nvp@V?$basic_string@DU?$char_traits@D@std@@V?$allocator@D@2@@std@@@serialization@boost@@@?$basic_text_iarchive@Vtext_iarchive@archive@boost@@@archive@boost@@IAEXABU?$nvp@V?$basic_string@DU?$char_traits@D@std@@V?$allocator@D@2@@std@@@serialization@2@@Z ; boost::archive::basic_text_iarchive<boost::archive::text_iarchive>::load_override<boost::serialization::nvp<std::basic_string<char,std::char_traits<char>,std::allocator<char> > > const >
PUBLIC	??$move@AAV?$basic_string@DU?$char_traits@D@std@@V?$allocator@D@2@@std@@@std@@YA$$QAV?$basic_string@DU?$char_traits@D@std@@V?$allocator@D@2@@0@AAV10@@Z ; std::move<std::basic_string<char,std::char_traits<char>,std::allocator<char> > &>
PUBLIC	??$_Ptr_move_cat@V?$basic_string@DU?$char_traits@D@std@@V?$allocator@D@2@@std@@V12@@std@@YA?AU_General_ptr_iterator_tag@0@ABQAV?$basic_string@DU?$char_traits@D@std@@V?$allocator@D@2@@0@0@Z ; std::_Ptr_move_cat<std::basic_string<char,std::char_traits<char>,std::allocator<char> >,std::basic_string<char,std::char_traits<char>,std::allocator<char> > >
PUBLIC	??$_Uninitialized_move_al_unchecked1@PAV?$basic_string@DU?$char_traits@D@std@@V?$allocator@D@2@@std@@PAV12@V?$allocator@V?$basic_string@DU?$char_traits@D@std@@V?$allocator@D@2@@std@@@2@@std@@YAPAV?$basic_string@DU?$char_traits@D@std@@V?$allocator@D@2@@0@PAV10@00AAU?$_Wrap_alloc@V?$allocator@V?$basic_string@DU?$char_traits@D@std@@V?$allocator@D@2@@std@@@std@@@0@U_General_ptr_iterator_tag@0@U_Any_tag@0@@Z ; std::_Uninitialized_move_al_unchecked1<std::basic_string<char,std::char_traits<char>,std::allocator<char> > *,std::basic_string<char,std::char_traits<char>,std::allocator<char> > *,std::allocator<std::basic_string<char,std::char_traits<char>,std::allocator<char> > > >
PUBLIC	??$?0U?$integral_constant@_N$00@std@@@_Any_tag@std@@QAE@$$QAU?$integral_constant@_N$00@1@@Z ; std::_Any_tag::_Any_tag<std::integral_constant<bool,1> >
PUBLIC	??$construct@V?$basic_string@DU?$char_traits@D@std@@V?$allocator@D@2@@std@@$$V@?$_Wrap_alloc@V?$allocator@V?$basic_string@DU?$char_traits@D@std@@V?$allocator@D@2@@std@@@std@@@std@@QAEXPAV?$basic_string@DU?$char_traits@D@std@@V?$allocator@D@2@@1@@Z ; std::_Wrap_alloc<std::allocator<std::basic_string<char,std::char_traits<char>,std::allocator<char> > > >::construct<std::basic_string<char,std::char_traits<char>,std::allocator<char> > >
PUBLIC	??$forward@PAV?$basic_string@DU?$char_traits@D@std@@V?$allocator@D@2@@std@@@std@@YA$$QAPAV?$basic_string@DU?$char_traits@D@std@@V?$allocator@D@2@@0@AAPAV10@@Z ; std::forward<std::basic_string<char,std::char_traits<char>,std::allocator<char> > *>
PUBLIC	??$forward@PBV?$basic_string@DU?$char_traits@D@std@@V?$allocator@D@2@@std@@@std@@YA$$QAPBV?$basic_string@DU?$char_traits@D@std@@V?$allocator@D@2@@0@AAPBV10@@Z ; std::forward<std::basic_string<char,std::char_traits<char>,std::allocator<char> > const *>
PUBLIC	??$forward@PBVitem_version_type@serialization@boost@@@std@@YA$$QAPBVitem_version_type@serialization@boost@@AAPBV123@@Z ; std::forward<boost::serialization::item_version_type const *>
PUBLIC	??$save@Vtext_oarchive@archive@boost@@$$CBU?$nvp@Vcollection_size_type@serialization@boost@@@serialization@3@@archive@boost@@YAXAAVtext_oarchive@01@ABU?$nvp@Vcollection_size_type@serialization@boost@@@serialization@1@@Z ; boost::archive::save<boost::archive::text_oarchive,boost::serialization::nvp<boost::serialization::collection_size_type> const >
PUBLIC	??$save@Vtext_oarchive@archive@boost@@$$CBU?$nvp@$$CBVitem_version_type@serialization@boost@@@serialization@3@@archive@boost@@YAXAAVtext_oarchive@01@ABU?$nvp@$$CBVitem_version_type@serialization@boost@@@serialization@1@@Z ; boost::archive::save<boost::archive::text_oarchive,boost::serialization::nvp<boost::serialization::item_version_type const > const >
PUBLIC	??$save@Vtext_oarchive@archive@boost@@$$CBU?$nvp@$$CBV?$basic_string@DU?$char_traits@D@std@@V?$allocator@D@2@@std@@@serialization@3@@archive@boost@@YAXAAVtext_oarchive@01@ABU?$nvp@$$CBV?$basic_string@DU?$char_traits@D@std@@V?$allocator@D@2@@std@@@serialization@1@@Z ; boost::archive::save<boost::archive::text_oarchive,boost::serialization::nvp<std::basic_string<char,std::char_traits<char>,std::allocator<char> > const > const >
PUBLIC	??$load@Vtext_iarchive@archive@boost@@$$CBU?$nvp@Vcollection_size_type@serialization@boost@@@serialization@3@@archive@boost@@YAXAAVtext_iarchive@01@ABU?$nvp@Vcollection_size_type@serialization@boost@@@serialization@1@@Z ; boost::archive::load<boost::archive::text_iarchive,boost::serialization::nvp<boost::serialization::collection_size_type> const >
PUBLIC	??$load@Vtext_iarchive@archive@boost@@$$CBU?$nvp@Vitem_version_type@serialization@boost@@@serialization@3@@archive@boost@@YAXAAVtext_iarchive@01@ABU?$nvp@Vitem_version_type@serialization@boost@@@serialization@1@@Z ; boost::archive::load<boost::archive::text_iarchive,boost::serialization::nvp<boost::serialization::item_version_type> const >
PUBLIC	??$load_override@$$CBU?$nvp@V?$basic_string@DU?$char_traits@D@std@@V?$allocator@D@2@@std@@@serialization@boost@@@?$common_iarchive@Vtext_iarchive@archive@boost@@@detail@archive@boost@@IAEXABU?$nvp@V?$basic_string@DU?$char_traits@D@std@@V?$allocator@D@2@@std@@@serialization@3@@Z ; boost::archive::detail::common_iarchive<boost::archive::text_iarchive>::load_override<boost::serialization::nvp<std::basic_string<char,std::char_traits<char>,std::allocator<char> > > const >
PUBLIC	??$construct@V?$basic_string@DU?$char_traits@D@std@@V?$allocator@D@2@@std@@V12@@?$_Wrap_alloc@V?$allocator@V?$basic_string@DU?$char_traits@D@std@@V?$allocator@D@2@@std@@@std@@@std@@QAEXPAV?$basic_string@DU?$char_traits@D@std@@V?$allocator@D@2@@1@$$QAV21@@Z ; std::_Wrap_alloc<std::allocator<std::basic_string<char,std::char_traits<char>,std::allocator<char> > > >::construct<std::basic_string<char,std::char_traits<char>,std::allocator<char> >,std::basic_string<char,std::char_traits<char>,std::allocator<char> > >
PUBLIC	??$construct@V?$basic_string@DU?$char_traits@D@std@@V?$allocator@D@2@@std@@$$V@?$allocator_traits@V?$allocator@V?$basic_string@DU?$char_traits@D@std@@V?$allocator@D@2@@std@@@std@@@std@@SAXAAV?$allocator@V?$basic_string@DU?$char_traits@D@std@@V?$allocator@D@2@@std@@@1@PAV?$basic_string@DU?$char_traits@D@std@@V?$allocator@D@2@@1@@Z ; std::allocator_traits<std::allocator<std::basic_string<char,std::char_traits<char>,std::allocator<char> > > >::construct<std::basic_string<char,std::char_traits<char>,std::allocator<char> > >
PUBLIC	??$invoke@U?$nvp@Vcollection_size_type@serialization@boost@@@serialization@boost@@@?$save_non_pointer_type@Vtext_oarchive@archive@boost@@@detail@archive@boost@@SAXAAVtext_oarchive@23@ABU?$nvp@Vcollection_size_type@serialization@boost@@@serialization@3@@Z ; boost::archive::detail::save_non_pointer_type<boost::archive::text_oarchive>::invoke<boost::serialization::nvp<boost::serialization::collection_size_type> >
PUBLIC	??$invoke@U?$nvp@$$CBVitem_version_type@serialization@boost@@@serialization@boost@@@?$save_non_pointer_type@Vtext_oarchive@archive@boost@@@detail@archive@boost@@SAXAAVtext_oarchive@23@ABU?$nvp@$$CBVitem_version_type@serialization@boost@@@serialization@3@@Z ; boost::archive::detail::save_non_pointer_type<boost::archive::text_oarchive>::invoke<boost::serialization::nvp<boost::serialization::item_version_type const > >
PUBLIC	??$invoke@U?$nvp@$$CBV?$basic_string@DU?$char_traits@D@std@@V?$allocator@D@2@@std@@@serialization@boost@@@?$save_non_pointer_type@Vtext_oarchive@archive@boost@@@detail@archive@boost@@SAXAAVtext_oarchive@23@ABU?$nvp@$$CBV?$basic_string@DU?$char_traits@D@std@@V?$allocator@D@2@@std@@@serialization@3@@Z ; boost::archive::detail::save_non_pointer_type<boost::archive::text_oarchive>::invoke<boost::serialization::nvp<std::basic_string<char,std::char_traits<char>,std::allocator<char> > const > >
PUBLIC	??$check_const_loading@$$CBU?$nvp@Vcollection_size_type@serialization@boost@@@serialization@boost@@@detail@archive@boost@@YAXXZ ; boost::archive::detail::check_const_loading<boost::serialization::nvp<boost::serialization::collection_size_type> const >
PUBLIC	??$invoke@$$CBU?$nvp@Vcollection_size_type@serialization@boost@@@serialization@boost@@@?$load_non_pointer_type@Vtext_iarchive@archive@boost@@@detail@archive@boost@@SAXAAVtext_iarchive@23@ABU?$nvp@Vcollection_size_type@serialization@boost@@@serialization@3@@Z ; boost::archive::detail::load_non_pointer_type<boost::archive::text_iarchive>::invoke<boost::serialization::nvp<boost::serialization::collection_size_type> const >
PUBLIC	??$check_const_loading@$$CBU?$nvp@Vitem_version_type@serialization@boost@@@serialization@boost@@@detail@archive@boost@@YAXXZ ; boost::archive::detail::check_const_loading<boost::serialization::nvp<boost::serialization::item_version_type> const >
PUBLIC	??$invoke@$$CBU?$nvp@Vitem_version_type@serialization@boost@@@serialization@boost@@@?$load_non_pointer_type@Vtext_iarchive@archive@boost@@@detail@archive@boost@@SAXAAVtext_iarchive@23@ABU?$nvp@Vitem_version_type@serialization@boost@@@serialization@3@@Z ; boost::archive::detail::load_non_pointer_type<boost::archive::text_iarchive>::invoke<boost::serialization::nvp<boost::serialization::item_version_type> const >
PUBLIC	??$load@Vtext_iarchive@archive@boost@@$$CBU?$nvp@V?$basic_string@DU?$char_traits@D@std@@V?$allocator@D@2@@std@@@serialization@3@@archive@boost@@YAXAAVtext_iarchive@01@ABU?$nvp@V?$basic_string@DU?$char_traits@D@std@@V?$allocator@D@2@@std@@@serialization@1@@Z ; boost::archive::load<boost::archive::text_iarchive,boost::serialization::nvp<std::basic_string<char,std::char_traits<char>,std::allocator<char> > > const >
PUBLIC	??$construct@V?$basic_string@DU?$char_traits@D@std@@V?$allocator@D@2@@std@@V12@@?$allocator_traits@V?$allocator@V?$basic_string@DU?$char_traits@D@std@@V?$allocator@D@2@@std@@@std@@@std@@SAXAAV?$allocator@V?$basic_string@DU?$char_traits@D@std@@V?$allocator@D@2@@std@@@1@PAV?$basic_string@DU?$char_traits@D@std@@V?$allocator@D@2@@1@$$QAV31@@Z ; std::allocator_traits<std::allocator<std::basic_string<char,std::char_traits<char>,std::allocator<char> > > >::construct<std::basic_string<char,std::char_traits<char>,std::allocator<char> >,std::basic_string<char,std::char_traits<char>,std::allocator<char> > >
PUBLIC	??$construct@V?$basic_string@DU?$char_traits@D@std@@V?$allocator@D@2@@std@@$$V@?$allocator@V?$basic_string@DU?$char_traits@D@std@@V?$allocator@D@2@@std@@@std@@QAEXPAV?$basic_string@DU?$char_traits@D@std@@V?$allocator@D@2@@1@@Z ; std::allocator<std::basic_string<char,std::char_traits<char>,std::allocator<char> > >::construct<std::basic_string<char,std::char_traits<char>,std::allocator<char> > >
PUBLIC	??$check_object_versioning@U?$nvp@Vcollection_size_type@serialization@boost@@@serialization@boost@@@detail@archive@boost@@YAXXZ ; boost::archive::detail::check_object_versioning<boost::serialization::nvp<boost::serialization::collection_size_type> >
PUBLIC	??$invoke@U?$nvp@Vcollection_size_type@serialization@boost@@@serialization@boost@@@save_only@?$save_non_pointer_type@Vtext_oarchive@archive@boost@@@detail@archive@boost@@SAXAAVtext_oarchive@34@ABU?$nvp@Vcollection_size_type@serialization@boost@@@serialization@4@@Z ; boost::archive::detail::save_non_pointer_type<boost::archive::text_oarchive>::save_only::invoke<boost::serialization::nvp<boost::serialization::collection_size_type> >
PUBLIC	??$check_object_versioning@U?$nvp@$$CBVitem_version_type@serialization@boost@@@serialization@boost@@@detail@archive@boost@@YAXXZ ; boost::archive::detail::check_object_versioning<boost::serialization::nvp<boost::serialization::item_version_type const > >
PUBLIC	??$invoke@U?$nvp@$$CBVitem_version_type@serialization@boost@@@serialization@boost@@@save_only@?$save_non_pointer_type@Vtext_oarchive@archive@boost@@@detail@archive@boost@@SAXAAVtext_oarchive@34@ABU?$nvp@$$CBVitem_version_type@serialization@boost@@@serialization@4@@Z ; boost::archive::detail::save_non_pointer_type<boost::archive::text_oarchive>::save_only::invoke<boost::serialization::nvp<boost::serialization::item_version_type const > >
PUBLIC	??$check_object_versioning@U?$nvp@$$CBV?$basic_string@DU?$char_traits@D@std@@V?$allocator@D@2@@std@@@serialization@boost@@@detail@archive@boost@@YAXXZ ; boost::archive::detail::check_object_versioning<boost::serialization::nvp<std::basic_string<char,std::char_traits<char>,std::allocator<char> > const > >
PUBLIC	??$invoke@U?$nvp@$$CBV?$basic_string@DU?$char_traits@D@std@@V?$allocator@D@2@@std@@@serialization@boost@@@save_only@?$save_non_pointer_type@Vtext_oarchive@archive@boost@@@detail@archive@boost@@SAXAAVtext_oarchive@34@ABU?$nvp@$$CBV?$basic_string@DU?$char_traits@D@std@@V?$allocator@D@2@@std@@@serialization@4@@Z ; boost::archive::detail::save_non_pointer_type<boost::archive::text_oarchive>::save_only::invoke<boost::serialization::nvp<std::basic_string<char,std::char_traits<char>,std::allocator<char> > const > >
PUBLIC	??$check_object_versioning@$$CBU?$nvp@Vcollection_size_type@serialization@boost@@@serialization@boost@@@detail@archive@boost@@YAXXZ ; boost::archive::detail::check_object_versioning<boost::serialization::nvp<boost::serialization::collection_size_type> const >
PUBLIC	??$check_object_level@$$CBU?$nvp@Vcollection_size_type@serialization@boost@@@serialization@boost@@@detail@archive@boost@@YAXXZ ; boost::archive::detail::check_object_level<boost::serialization::nvp<boost::serialization::collection_size_type> const >
PUBLIC	??$invoke@U?$nvp@Vcollection_size_type@serialization@boost@@@serialization@boost@@@load_only@?$load_non_pointer_type@Vtext_iarchive@archive@boost@@@detail@archive@boost@@SAXAAVtext_iarchive@34@ABU?$nvp@Vcollection_size_type@serialization@boost@@@serialization@4@@Z ; boost::archive::detail::load_non_pointer_type<boost::archive::text_iarchive>::load_only::invoke<boost::serialization::nvp<boost::serialization::collection_size_type> >
PUBLIC	??$check_object_versioning@$$CBU?$nvp@Vitem_version_type@serialization@boost@@@serialization@boost@@@detail@archive@boost@@YAXXZ ; boost::archive::detail::check_object_versioning<boost::serialization::nvp<boost::serialization::item_version_type> const >
PUBLIC	??$check_object_level@$$CBU?$nvp@Vitem_version_type@serialization@boost@@@serialization@boost@@@detail@archive@boost@@YAXXZ ; boost::archive::detail::check_object_level<boost::serialization::nvp<boost::serialization::item_version_type> const >
PUBLIC	??$invoke@U?$nvp@Vitem_version_type@serialization@boost@@@serialization@boost@@@load_only@?$load_non_pointer_type@Vtext_iarchive@archive@boost@@@detail@archive@boost@@SAXAAVtext_iarchive@34@ABU?$nvp@Vitem_version_type@serialization@boost@@@serialization@4@@Z ; boost::archive::detail::load_non_pointer_type<boost::archive::text_iarchive>::load_only::invoke<boost::serialization::nvp<boost::serialization::item_version_type> >
PUBLIC	??$check_const_loading@$$CBU?$nvp@V?$basic_string@DU?$char_traits@D@std@@V?$allocator@D@2@@std@@@serialization@boost@@@detail@archive@boost@@YAXXZ ; boost::archive::detail::check_const_loading<boost::serialization::nvp<std::basic_string<char,std::char_traits<char>,std::allocator<char> > > const >
PUBLIC	??$invoke@$$CBU?$nvp@V?$basic_string@DU?$char_traits@D@std@@V?$allocator@D@2@@std@@@serialization@boost@@@?$load_non_pointer_type@Vtext_iarchive@archive@boost@@@detail@archive@boost@@SAXAAVtext_iarchive@23@ABU?$nvp@V?$basic_string@DU?$char_traits@D@std@@V?$allocator@D@2@@std@@@serialization@3@@Z ; boost::archive::detail::load_non_pointer_type<boost::archive::text_iarchive>::invoke<boost::serialization::nvp<std::basic_string<char,std::char_traits<char>,std::allocator<char> > > const >
PUBLIC	??$construct@V?$basic_string@DU?$char_traits@D@std@@V?$allocator@D@2@@std@@V12@@?$allocator@V?$basic_string@DU?$char_traits@D@std@@V?$allocator@D@2@@std@@@std@@QAEXPAV?$basic_string@DU?$char_traits@D@std@@V?$allocator@D@2@@1@$$QAV21@@Z ; std::allocator<std::basic_string<char,std::char_traits<char>,std::allocator<char> > >::construct<std::basic_string<char,std::char_traits<char>,std::allocator<char> >,std::basic_string<char,std::char_traits<char>,std::allocator<char> > >
PUBLIC	??$serialize_adl@Vtext_oarchive@archive@boost@@U?$nvp@Vcollection_size_type@serialization@boost@@@serialization@3@@serialization@boost@@YAXAAVtext_oarchive@archive@1@AAU?$nvp@Vcollection_size_type@serialization@boost@@@01@I@Z ; boost::serialization::serialize_adl<boost::archive::text_oarchive,boost::serialization::nvp<boost::serialization::collection_size_type> >
PUBLIC	??$serialize_adl@Vtext_oarchive@archive@boost@@U?$nvp@$$CBVitem_version_type@serialization@boost@@@serialization@3@@serialization@boost@@YAXAAVtext_oarchive@archive@1@AAU?$nvp@$$CBVitem_version_type@serialization@boost@@@01@I@Z ; boost::serialization::serialize_adl<boost::archive::text_oarchive,boost::serialization::nvp<boost::serialization::item_version_type const > >
PUBLIC	??$serialize_adl@Vtext_oarchive@archive@boost@@U?$nvp@$$CBV?$basic_string@DU?$char_traits@D@std@@V?$allocator@D@2@@std@@@serialization@3@@serialization@boost@@YAXAAVtext_oarchive@archive@1@AAU?$nvp@$$CBV?$basic_string@DU?$char_traits@D@std@@V?$allocator@D@2@@std@@@01@I@Z ; boost::serialization::serialize_adl<boost::archive::text_oarchive,boost::serialization::nvp<std::basic_string<char,std::char_traits<char>,std::allocator<char> > const > >
PUBLIC	??$serialize_adl@Vtext_iarchive@archive@boost@@U?$nvp@Vcollection_size_type@serialization@boost@@@serialization@3@@serialization@boost@@YAXAAVtext_iarchive@archive@1@AAU?$nvp@Vcollection_size_type@serialization@boost@@@01@I@Z ; boost::serialization::serialize_adl<boost::archive::text_iarchive,boost::serialization::nvp<boost::serialization::collection_size_type> >
PUBLIC	??$serialize_adl@Vtext_iarchive@archive@boost@@U?$nvp@Vitem_version_type@serialization@boost@@@serialization@3@@serialization@boost@@YAXAAVtext_iarchive@archive@1@AAU?$nvp@Vitem_version_type@serialization@boost@@@01@I@Z ; boost::serialization::serialize_adl<boost::archive::text_iarchive,boost::serialization::nvp<boost::serialization::item_version_type> >
PUBLIC	??$check_object_versioning@$$CBU?$nvp@V?$basic_string@DU?$char_traits@D@std@@V?$allocator@D@2@@std@@@serialization@boost@@@detail@archive@boost@@YAXXZ ; boost::archive::detail::check_object_versioning<boost::serialization::nvp<std::basic_string<char,std::char_traits<char>,std::allocator<char> > > const >
PUBLIC	??$check_object_level@$$CBU?$nvp@V?$basic_string@DU?$char_traits@D@std@@V?$allocator@D@2@@std@@@serialization@boost@@@detail@archive@boost@@YAXXZ ; boost::archive::detail::check_object_level<boost::serialization::nvp<std::basic_string<char,std::char_traits<char>,std::allocator<char> > > const >
PUBLIC	??$invoke@U?$nvp@V?$basic_string@DU?$char_traits@D@std@@V?$allocator@D@2@@std@@@serialization@boost@@@load_only@?$load_non_pointer_type@Vtext_iarchive@archive@boost@@@detail@archive@boost@@SAXAAVtext_iarchive@34@ABU?$nvp@V?$basic_string@DU?$char_traits@D@std@@V?$allocator@D@2@@std@@@serialization@4@@Z ; boost::archive::detail::load_non_pointer_type<boost::archive::text_iarchive>::load_only::invoke<boost::serialization::nvp<std::basic_string<char,std::char_traits<char>,std::allocator<char> > > >
PUBLIC	??$serialize@Vtext_oarchive@archive@boost@@U?$nvp@Vcollection_size_type@serialization@boost@@@serialization@3@@serialization@boost@@YAXAAVtext_oarchive@archive@1@AAU?$nvp@Vcollection_size_type@serialization@boost@@@01@I@Z ; boost::serialization::serialize<boost::archive::text_oarchive,boost::serialization::nvp<boost::serialization::collection_size_type> >
PUBLIC	??$serialize@Vtext_oarchive@archive@boost@@U?$nvp@$$CBVitem_version_type@serialization@boost@@@serialization@3@@serialization@boost@@YAXAAVtext_oarchive@archive@1@AAU?$nvp@$$CBVitem_version_type@serialization@boost@@@01@I@Z ; boost::serialization::serialize<boost::archive::text_oarchive,boost::serialization::nvp<boost::serialization::item_version_type const > >
PUBLIC	??$serialize@Vtext_oarchive@archive@boost@@U?$nvp@$$CBV?$basic_string@DU?$char_traits@D@std@@V?$allocator@D@2@@std@@@serialization@3@@serialization@boost@@YAXAAVtext_oarchive@archive@1@AAU?$nvp@$$CBV?$basic_string@DU?$char_traits@D@std@@V?$allocator@D@2@@std@@@01@I@Z ; boost::serialization::serialize<boost::archive::text_oarchive,boost::serialization::nvp<std::basic_string<char,std::char_traits<char>,std::allocator<char> > const > >
PUBLIC	??$serialize@Vtext_iarchive@archive@boost@@U?$nvp@Vcollection_size_type@serialization@boost@@@serialization@3@@serialization@boost@@YAXAAVtext_iarchive@archive@1@AAU?$nvp@Vcollection_size_type@serialization@boost@@@01@I@Z ; boost::serialization::serialize<boost::archive::text_iarchive,boost::serialization::nvp<boost::serialization::collection_size_type> >
PUBLIC	??$serialize@Vtext_iarchive@archive@boost@@U?$nvp@Vitem_version_type@serialization@boost@@@serialization@3@@serialization@boost@@YAXAAVtext_iarchive@archive@1@AAU?$nvp@Vitem_version_type@serialization@boost@@@01@I@Z ; boost::serialization::serialize<boost::archive::text_iarchive,boost::serialization::nvp<boost::serialization::item_version_type> >
PUBLIC	??$serialize_adl@Vtext_iarchive@archive@boost@@U?$nvp@V?$basic_string@DU?$char_traits@D@std@@V?$allocator@D@2@@std@@@serialization@3@@serialization@boost@@YAXAAVtext_iarchive@archive@1@AAU?$nvp@V?$basic_string@DU?$char_traits@D@std@@V?$allocator@D@2@@std@@@01@I@Z ; boost::serialization::serialize_adl<boost::archive::text_iarchive,boost::serialization::nvp<std::basic_string<char,std::char_traits<char>,std::allocator<char> > > >
PUBLIC	??$serialize@Vtext_oarchive@archive@boost@@U?$nvp@Vcollection_size_type@serialization@boost@@@serialization@3@@access@serialization@boost@@SAXAAVtext_oarchive@archive@2@AAU?$nvp@Vcollection_size_type@serialization@boost@@@12@I@Z ; boost::serialization::access::serialize<boost::archive::text_oarchive,boost::serialization::nvp<boost::serialization::collection_size_type> >
PUBLIC	??$serialize@Vtext_oarchive@archive@boost@@U?$nvp@$$CBVitem_version_type@serialization@boost@@@serialization@3@@access@serialization@boost@@SAXAAVtext_oarchive@archive@2@AAU?$nvp@$$CBVitem_version_type@serialization@boost@@@12@I@Z ; boost::serialization::access::serialize<boost::archive::text_oarchive,boost::serialization::nvp<boost::serialization::item_version_type const > >
PUBLIC	??$serialize@Vtext_oarchive@archive@boost@@U?$nvp@$$CBV?$basic_string@DU?$char_traits@D@std@@V?$allocator@D@2@@std@@@serialization@3@@access@serialization@boost@@SAXAAVtext_oarchive@archive@2@AAU?$nvp@$$CBV?$basic_string@DU?$char_traits@D@std@@V?$allocator@D@2@@std@@@12@I@Z ; boost::serialization::access::serialize<boost::archive::text_oarchive,boost::serialization::nvp<std::basic_string<char,std::char_traits<char>,std::allocator<char> > const > >
PUBLIC	??$serialize@Vtext_iarchive@archive@boost@@U?$nvp@Vcollection_size_type@serialization@boost@@@serialization@3@@access@serialization@boost@@SAXAAVtext_iarchive@archive@2@AAU?$nvp@Vcollection_size_type@serialization@boost@@@12@I@Z ; boost::serialization::access::serialize<boost::archive::text_iarchive,boost::serialization::nvp<boost::serialization::collection_size_type> >
PUBLIC	??$serialize@Vtext_iarchive@archive@boost@@U?$nvp@Vitem_version_type@serialization@boost@@@serialization@3@@access@serialization@boost@@SAXAAVtext_iarchive@archive@2@AAU?$nvp@Vitem_version_type@serialization@boost@@@12@I@Z ; boost::serialization::access::serialize<boost::archive::text_iarchive,boost::serialization::nvp<boost::serialization::item_version_type> >
PUBLIC	??$serialize@Vtext_iarchive@archive@boost@@U?$nvp@V?$basic_string@DU?$char_traits@D@std@@V?$allocator@D@2@@std@@@serialization@3@@serialization@boost@@YAXAAVtext_iarchive@archive@1@AAU?$nvp@V?$basic_string@DU?$char_traits@D@std@@V?$allocator@D@2@@std@@@01@I@Z ; boost::serialization::serialize<boost::archive::text_iarchive,boost::serialization::nvp<std::basic_string<char,std::char_traits<char>,std::allocator<char> > > >
PUBLIC	??$serialize@Vtext_oarchive@archive@boost@@@?$nvp@Vcollection_size_type@serialization@boost@@@serialization@boost@@QAEXAAVtext_oarchive@archive@2@I@Z ; boost::serialization::nvp<boost::serialization::collection_size_type>::serialize<boost::archive::text_oarchive>
PUBLIC	??$serialize@Vtext_oarchive@archive@boost@@@?$nvp@$$CBVitem_version_type@serialization@boost@@@serialization@boost@@QAEXAAVtext_oarchive@archive@2@I@Z ; boost::serialization::nvp<boost::serialization::item_version_type const >::serialize<boost::archive::text_oarchive>
PUBLIC	??$serialize@Vtext_oarchive@archive@boost@@@?$nvp@$$CBV?$basic_string@DU?$char_traits@D@std@@V?$allocator@D@2@@std@@@serialization@boost@@QAEXAAVtext_oarchive@archive@2@I@Z ; boost::serialization::nvp<std::basic_string<char,std::char_traits<char>,std::allocator<char> > const >::serialize<boost::archive::text_oarchive>
PUBLIC	??$serialize@Vtext_iarchive@archive@boost@@@?$nvp@Vcollection_size_type@serialization@boost@@@serialization@boost@@QAEXAAVtext_iarchive@archive@2@I@Z ; boost::serialization::nvp<boost::serialization::collection_size_type>::serialize<boost::archive::text_iarchive>
PUBLIC	??$serialize@Vtext_iarchive@archive@boost@@@?$nvp@Vitem_version_type@serialization@boost@@@serialization@boost@@QAEXAAVtext_iarchive@archive@2@I@Z ; boost::serialization::nvp<boost::serialization::item_version_type>::serialize<boost::archive::text_iarchive>
PUBLIC	??$serialize@Vtext_iarchive@archive@boost@@U?$nvp@V?$basic_string@DU?$char_traits@D@std@@V?$allocator@D@2@@std@@@serialization@3@@access@serialization@boost@@SAXAAVtext_iarchive@archive@2@AAU?$nvp@V?$basic_string@DU?$char_traits@D@std@@V?$allocator@D@2@@std@@@12@I@Z ; boost::serialization::access::serialize<boost::archive::text_iarchive,boost::serialization::nvp<std::basic_string<char,std::char_traits<char>,std::allocator<char> > > >
PUBLIC	??$split_member@Vtext_oarchive@archive@boost@@U?$nvp@Vcollection_size_type@serialization@boost@@@serialization@3@@serialization@boost@@YAXAAVtext_oarchive@archive@1@AAU?$nvp@Vcollection_size_type@serialization@boost@@@01@I@Z ; boost::serialization::split_member<boost::archive::text_oarchive,boost::serialization::nvp<boost::serialization::collection_size_type> >
PUBLIC	??$split_member@Vtext_oarchive@archive@boost@@U?$nvp@$$CBVitem_version_type@serialization@boost@@@serialization@3@@serialization@boost@@YAXAAVtext_oarchive@archive@1@AAU?$nvp@$$CBVitem_version_type@serialization@boost@@@01@I@Z ; boost::serialization::split_member<boost::archive::text_oarchive,boost::serialization::nvp<boost::serialization::item_version_type const > >
PUBLIC	??$split_member@Vtext_oarchive@archive@boost@@U?$nvp@$$CBV?$basic_string@DU?$char_traits@D@std@@V?$allocator@D@2@@std@@@serialization@3@@serialization@boost@@YAXAAVtext_oarchive@archive@1@AAU?$nvp@$$CBV?$basic_string@DU?$char_traits@D@std@@V?$allocator@D@2@@std@@@01@I@Z ; boost::serialization::split_member<boost::archive::text_oarchive,boost::serialization::nvp<std::basic_string<char,std::char_traits<char>,std::allocator<char> > const > >
PUBLIC	??$split_member@Vtext_iarchive@archive@boost@@U?$nvp@Vcollection_size_type@serialization@boost@@@serialization@3@@serialization@boost@@YAXAAVtext_iarchive@archive@1@AAU?$nvp@Vcollection_size_type@serialization@boost@@@01@I@Z ; boost::serialization::split_member<boost::archive::text_iarchive,boost::serialization::nvp<boost::serialization::collection_size_type> >
PUBLIC	??$split_member@Vtext_iarchive@archive@boost@@U?$nvp@Vitem_version_type@serialization@boost@@@serialization@3@@serialization@boost@@YAXAAVtext_iarchive@archive@1@AAU?$nvp@Vitem_version_type@serialization@boost@@@01@I@Z ; boost::serialization::split_member<boost::archive::text_iarchive,boost::serialization::nvp<boost::serialization::item_version_type> >
PUBLIC	??$serialize@Vtext_iarchive@archive@boost@@@?$nvp@V?$basic_string@DU?$char_traits@D@std@@V?$allocator@D@2@@std@@@serialization@boost@@QAEXAAVtext_iarchive@archive@2@I@Z ; boost::serialization::nvp<std::basic_string<char,std::char_traits<char>,std::allocator<char> > >::serialize<boost::archive::text_iarchive>
PUBLIC	?invoke@?$member_saver@Vtext_oarchive@archive@boost@@U?$nvp@Vcollection_size_type@serialization@boost@@@serialization@3@@detail@serialization@boost@@SAXAAVtext_oarchive@archive@4@ABU?$nvp@Vcollection_size_type@serialization@boost@@@34@I@Z ; boost::serialization::detail::member_saver<boost::archive::text_oarchive,boost::serialization::nvp<boost::serialization::collection_size_type> >::invoke
PUBLIC	?invoke@?$member_saver@Vtext_oarchive@archive@boost@@U?$nvp@$$CBVitem_version_type@serialization@boost@@@serialization@3@@detail@serialization@boost@@SAXAAVtext_oarchive@archive@4@ABU?$nvp@$$CBVitem_version_type@serialization@boost@@@34@I@Z ; boost::serialization::detail::member_saver<boost::archive::text_oarchive,boost::serialization::nvp<boost::serialization::item_version_type const > >::invoke
PUBLIC	?invoke@?$member_saver@Vtext_oarchive@archive@boost@@U?$nvp@$$CBV?$basic_string@DU?$char_traits@D@std@@V?$allocator@D@2@@std@@@serialization@3@@detail@serialization@boost@@SAXAAVtext_oarchive@archive@4@ABU?$nvp@$$CBV?$basic_string@DU?$char_traits@D@std@@V?$allocator@D@2@@std@@@34@I@Z ; boost::serialization::detail::member_saver<boost::archive::text_oarchive,boost::serialization::nvp<std::basic_string<char,std::char_traits<char>,std::allocator<char> > const > >::invoke
PUBLIC	?invoke@?$member_loader@Vtext_iarchive@archive@boost@@U?$nvp@Vcollection_size_type@serialization@boost@@@serialization@3@@detail@serialization@boost@@SAXAAVtext_iarchive@archive@4@AAU?$nvp@Vcollection_size_type@serialization@boost@@@34@I@Z ; boost::serialization::detail::member_loader<boost::archive::text_iarchive,boost::serialization::nvp<boost::serialization::collection_size_type> >::invoke
PUBLIC	?invoke@?$member_loader@Vtext_iarchive@archive@boost@@U?$nvp@Vitem_version_type@serialization@boost@@@serialization@3@@detail@serialization@boost@@SAXAAVtext_iarchive@archive@4@AAU?$nvp@Vitem_version_type@serialization@boost@@@34@I@Z ; boost::serialization::detail::member_loader<boost::archive::text_iarchive,boost::serialization::nvp<boost::serialization::item_version_type> >::invoke
PUBLIC	??$split_member@Vtext_iarchive@archive@boost@@U?$nvp@V?$basic_string@DU?$char_traits@D@std@@V?$allocator@D@2@@std@@@serialization@3@@serialization@boost@@YAXAAVtext_iarchive@archive@1@AAU?$nvp@V?$basic_string@DU?$char_traits@D@std@@V?$allocator@D@2@@std@@@01@I@Z ; boost::serialization::split_member<boost::archive::text_iarchive,boost::serialization::nvp<std::basic_string<char,std::char_traits<char>,std::allocator<char> > > >
PUBLIC	??$member_load@Vtext_iarchive@archive@boost@@U?$nvp@Vitem_version_type@serialization@boost@@@serialization@3@@access@serialization@boost@@SAXAAVtext_iarchive@archive@2@AAU?$nvp@Vitem_version_type@serialization@boost@@@12@I@Z ; boost::serialization::access::member_load<boost::archive::text_iarchive,boost::serialization::nvp<boost::serialization::item_version_type> >
PUBLIC	??$member_load@Vtext_iarchive@archive@boost@@U?$nvp@Vcollection_size_type@serialization@boost@@@serialization@3@@access@serialization@boost@@SAXAAVtext_iarchive@archive@2@AAU?$nvp@Vcollection_size_type@serialization@boost@@@12@I@Z ; boost::serialization::access::member_load<boost::archive::text_iarchive,boost::serialization::nvp<boost::serialization::collection_size_type> >
PUBLIC	??$member_save@Vtext_oarchive@archive@boost@@$$CBU?$nvp@$$CBV?$basic_string@DU?$char_traits@D@std@@V?$allocator@D@2@@std@@@serialization@3@@access@serialization@boost@@SAXAAVtext_oarchive@archive@2@ABU?$nvp@$$CBV?$basic_string@DU?$char_traits@D@std@@V?$allocator@D@2@@std@@@12@I@Z ; boost::serialization::access::member_save<boost::archive::text_oarchive,boost::serialization::nvp<std::basic_string<char,std::char_traits<char>,std::allocator<char> > const > const >
PUBLIC	??$member_save@Vtext_oarchive@archive@boost@@$$CBU?$nvp@$$CBVitem_version_type@serialization@boost@@@serialization@3@@access@serialization@boost@@SAXAAVtext_oarchive@archive@2@ABU?$nvp@$$CBVitem_version_type@serialization@boost@@@12@I@Z ; boost::serialization::access::member_save<boost::archive::text_oarchive,boost::serialization::nvp<boost::serialization::item_version_type const > const >
PUBLIC	??$member_save@Vtext_oarchive@archive@boost@@$$CBU?$nvp@Vcollection_size_type@serialization@boost@@@serialization@3@@access@serialization@boost@@SAXAAVtext_oarchive@archive@2@ABU?$nvp@Vcollection_size_type@serialization@boost@@@12@I@Z ; boost::serialization::access::member_save<boost::archive::text_oarchive,boost::serialization::nvp<boost::serialization::collection_size_type> const >
PUBLIC	?invoke@?$member_loader@Vtext_iarchive@archive@boost@@U?$nvp@V?$basic_string@DU?$char_traits@D@std@@V?$allocator@D@2@@std@@@serialization@3@@detail@serialization@boost@@SAXAAVtext_iarchive@archive@4@AAU?$nvp@V?$basic_string@DU?$char_traits@D@std@@V?$allocator@D@2@@std@@@34@I@Z ; boost::serialization::detail::member_loader<boost::archive::text_iarchive,boost::serialization::nvp<std::basic_string<char,std::char_traits<char>,std::allocator<char> > > >::invoke
PUBLIC	??$load@Vtext_iarchive@archive@boost@@@?$nvp@Vitem_version_type@serialization@boost@@@serialization@boost@@QAEXAAVtext_iarchive@archive@2@I@Z ; boost::serialization::nvp<boost::serialization::item_version_type>::load<boost::archive::text_iarchive>
PUBLIC	??$load@Vtext_iarchive@archive@boost@@@?$nvp@Vcollection_size_type@serialization@boost@@@serialization@boost@@QAEXAAVtext_iarchive@archive@2@I@Z ; boost::serialization::nvp<boost::serialization::collection_size_type>::load<boost::archive::text_iarchive>
PUBLIC	??$save@Vtext_oarchive@archive@boost@@@?$nvp@$$CBV?$basic_string@DU?$char_traits@D@std@@V?$allocator@D@2@@std@@@serialization@boost@@QBEXAAVtext_oarchive@archive@2@I@Z ; boost::serialization::nvp<std::basic_string<char,std::char_traits<char>,std::allocator<char> > const >::save<boost::archive::text_oarchive>
PUBLIC	??$save@Vtext_oarchive@archive@boost@@@?$nvp@$$CBVitem_version_type@serialization@boost@@@serialization@boost@@QBEXAAVtext_oarchive@archive@2@I@Z ; boost::serialization::nvp<boost::serialization::item_version_type const >::save<boost::archive::text_oarchive>
PUBLIC	??$save@Vtext_oarchive@archive@boost@@@?$nvp@Vcollection_size_type@serialization@boost@@@serialization@boost@@QBEXAAVtext_oarchive@archive@2@I@Z ; boost::serialization::nvp<boost::serialization::collection_size_type>::save<boost::archive::text_oarchive>
PUBLIC	??$member_load@Vtext_iarchive@archive@boost@@U?$nvp@V?$basic_string@DU?$char_traits@D@std@@V?$allocator@D@2@@std@@@serialization@3@@access@serialization@boost@@SAXAAVtext_iarchive@archive@2@AAU?$nvp@V?$basic_string@DU?$char_traits@D@std@@V?$allocator@D@2@@std@@@12@I@Z ; boost::serialization::access::member_load<boost::archive::text_iarchive,boost::serialization::nvp<std::basic_string<char,std::char_traits<char>,std::allocator<char> > > >
PUBLIC	??$?5Vitem_version_type@serialization@boost@@@?$interface_iarchive@Vtext_iarchive@archive@boost@@@detail@archive@boost@@QAEAAVtext_iarchive@23@AAVitem_version_type@serialization@3@@Z ; boost::archive::detail::interface_iarchive<boost::archive::text_iarchive>::operator>><boost::serialization::item_version_type>
PUBLIC	??$?5Vcollection_size_type@serialization@boost@@@?$interface_iarchive@Vtext_iarchive@archive@boost@@@detail@archive@boost@@QAEAAVtext_iarchive@23@AAVcollection_size_type@serialization@3@@Z ; boost::archive::detail::interface_iarchive<boost::archive::text_iarchive>::operator>><boost::serialization::collection_size_type>
PUBLIC	??$?6Vitem_version_type@serialization@boost@@@?$interface_oarchive@Vtext_oarchive@archive@boost@@@detail@archive@boost@@QAEAAVtext_oarchive@23@ABVitem_version_type@serialization@3@@Z ; boost::archive::detail::interface_oarchive<boost::archive::text_oarchive>::operator<<<boost::serialization::item_version_type>
PUBLIC	??$?6Vcollection_size_type@serialization@boost@@@?$interface_oarchive@Vtext_oarchive@archive@boost@@@detail@archive@boost@@QAEAAVtext_oarchive@23@ABVcollection_size_type@serialization@3@@Z ; boost::archive::detail::interface_oarchive<boost::archive::text_oarchive>::operator<<<boost::serialization::collection_size_type>
PUBLIC	??$load@Vtext_iarchive@archive@boost@@@?$nvp@V?$basic_string@DU?$char_traits@D@std@@V?$allocator@D@2@@std@@@serialization@boost@@QAEXAAVtext_iarchive@archive@2@I@Z ; boost::serialization::nvp<std::basic_string<char,std::char_traits<char>,std::allocator<char> > >::load<boost::archive::text_iarchive>
PUBLIC	??$load_override@Vitem_version_type@serialization@boost@@@?$text_iarchive_impl@Vtext_iarchive@archive@boost@@@archive@boost@@IAEXAAVitem_version_type@serialization@2@@Z ; boost::archive::text_iarchive_impl<boost::archive::text_iarchive>::load_override<boost::serialization::item_version_type>
PUBLIC	??$load_override@Vcollection_size_type@serialization@boost@@@?$text_iarchive_impl@Vtext_iarchive@archive@boost@@@archive@boost@@IAEXAAVcollection_size_type@serialization@2@@Z ; boost::archive::text_iarchive_impl<boost::archive::text_iarchive>::load_override<boost::serialization::collection_size_type>
PUBLIC	??$save_override@$$CBVitem_version_type@serialization@boost@@@?$basic_text_oarchive@Vtext_oarchive@archive@boost@@@archive@boost@@IAEXABVitem_version_type@serialization@2@@Z ; boost::archive::basic_text_oarchive<boost::archive::text_oarchive>::save_override<boost::serialization::item_version_type const >
PUBLIC	??$save_override@$$CBVcollection_size_type@serialization@boost@@@?$basic_text_oarchive@Vtext_oarchive@archive@boost@@@archive@boost@@IAEXABVcollection_size_type@serialization@2@@Z ; boost::archive::basic_text_oarchive<boost::archive::text_oarchive>::save_override<boost::serialization::collection_size_type const >
PUBLIC	??$load_override@Vitem_version_type@serialization@boost@@@?$basic_text_iarchive@Vtext_iarchive@archive@boost@@@archive@boost@@IAEXAAVitem_version_type@serialization@2@@Z ; boost::archive::basic_text_iarchive<boost::archive::text_iarchive>::load_override<boost::serialization::item_version_type>
PUBLIC	??$load_override@Vcollection_size_type@serialization@boost@@@?$basic_text_iarchive@Vtext_iarchive@archive@boost@@@archive@boost@@IAEXAAVcollection_size_type@serialization@2@@Z ; boost::archive::basic_text_iarchive<boost::archive::text_iarchive>::load_override<boost::serialization::collection_size_type>
PUBLIC	??$save_override@$$CBVitem_version_type@serialization@boost@@@?$common_oarchive@Vtext_oarchive@archive@boost@@@detail@archive@boost@@IAEXABVitem_version_type@serialization@3@@Z ; boost::archive::detail::common_oarchive<boost::archive::text_oarchive>::save_override<boost::serialization::item_version_type const >
PUBLIC	??$save_override@$$CBVcollection_size_type@serialization@boost@@@?$common_oarchive@Vtext_oarchive@archive@boost@@@detail@archive@boost@@IAEXABVcollection_size_type@serialization@3@@Z ; boost::archive::detail::common_oarchive<boost::archive::text_oarchive>::save_override<boost::serialization::collection_size_type const >
PUBLIC	??$load_override@Vitem_version_type@serialization@boost@@@?$common_iarchive@Vtext_iarchive@archive@boost@@@detail@archive@boost@@IAEXAAVitem_version_type@serialization@3@@Z ; boost::archive::detail::common_iarchive<boost::archive::text_iarchive>::load_override<boost::serialization::item_version_type>
PUBLIC	??$load_override@Vcollection_size_type@serialization@boost@@@?$common_iarchive@Vtext_iarchive@archive@boost@@@detail@archive@boost@@IAEXAAVcollection_size_type@serialization@3@@Z ; boost::archive::detail::common_iarchive<boost::archive::text_iarchive>::load_override<boost::serialization::collection_size_type>
PUBLIC	??$save@Vtext_oarchive@archive@boost@@$$CBVitem_version_type@serialization@3@@archive@boost@@YAXAAVtext_oarchive@01@ABVitem_version_type@serialization@1@@Z ; boost::archive::save<boost::archive::text_oarchive,boost::serialization::item_version_type const >
PUBLIC	??$save@Vtext_oarchive@archive@boost@@$$CBVcollection_size_type@serialization@3@@archive@boost@@YAXAAVtext_oarchive@01@ABVcollection_size_type@serialization@1@@Z ; boost::archive::save<boost::archive::text_oarchive,boost::serialization::collection_size_type const >
PUBLIC	??$load@Vtext_iarchive@archive@boost@@Vitem_version_type@serialization@3@@archive@boost@@YAXAAVtext_iarchive@01@AAVitem_version_type@serialization@1@@Z ; boost::archive::load<boost::archive::text_iarchive,boost::serialization::item_version_type>
PUBLIC	??$load@Vtext_iarchive@archive@boost@@Vcollection_size_type@serialization@3@@archive@boost@@YAXAAVtext_iarchive@01@AAVcollection_size_type@serialization@1@@Z ; boost::archive::load<boost::archive::text_iarchive,boost::serialization::collection_size_type>
PUBLIC	??$invoke@Vitem_version_type@serialization@boost@@@?$save_non_pointer_type@Vtext_oarchive@archive@boost@@@detail@archive@boost@@SAXAAVtext_oarchive@23@ABVitem_version_type@serialization@3@@Z ; boost::archive::detail::save_non_pointer_type<boost::archive::text_oarchive>::invoke<boost::serialization::item_version_type>
PUBLIC	??$invoke@Vcollection_size_type@serialization@boost@@@?$save_non_pointer_type@Vtext_oarchive@archive@boost@@@detail@archive@boost@@SAXAAVtext_oarchive@23@ABVcollection_size_type@serialization@3@@Z ; boost::archive::detail::save_non_pointer_type<boost::archive::text_oarchive>::invoke<boost::serialization::collection_size_type>
PUBLIC	??$check_const_loading@Vitem_version_type@serialization@boost@@@detail@archive@boost@@YAXXZ ; boost::archive::detail::check_const_loading<boost::serialization::item_version_type>
PUBLIC	??$invoke@Vitem_version_type@serialization@boost@@@?$load_non_pointer_type@Vtext_iarchive@archive@boost@@@detail@archive@boost@@SAXAAVtext_iarchive@23@AAVitem_version_type@serialization@3@@Z ; boost::archive::detail::load_non_pointer_type<boost::archive::text_iarchive>::invoke<boost::serialization::item_version_type>
PUBLIC	??$check_const_loading@Vcollection_size_type@serialization@boost@@@detail@archive@boost@@YAXXZ ; boost::archive::detail::check_const_loading<boost::serialization::collection_size_type>
PUBLIC	??$invoke@Vcollection_size_type@serialization@boost@@@?$load_non_pointer_type@Vtext_iarchive@archive@boost@@@detail@archive@boost@@SAXAAVtext_iarchive@23@AAVcollection_size_type@serialization@3@@Z ; boost::archive::detail::load_non_pointer_type<boost::archive::text_iarchive>::invoke<boost::serialization::collection_size_type>
PUBLIC	??$check_object_versioning@Vitem_version_type@serialization@boost@@@detail@archive@boost@@YAXXZ ; boost::archive::detail::check_object_versioning<boost::serialization::item_version_type>
PUBLIC	??$invoke@Vitem_version_type@serialization@boost@@@save_primitive@?$save_non_pointer_type@Vtext_oarchive@archive@boost@@@detail@archive@boost@@SAXAAVtext_oarchive@34@ABVitem_version_type@serialization@4@@Z ; boost::archive::detail::save_non_pointer_type<boost::archive::text_oarchive>::save_primitive::invoke<boost::serialization::item_version_type>
PUBLIC	??$check_object_versioning@Vcollection_size_type@serialization@boost@@@detail@archive@boost@@YAXXZ ; boost::archive::detail::check_object_versioning<boost::serialization::collection_size_type>
PUBLIC	??$invoke@Vcollection_size_type@serialization@boost@@@save_primitive@?$save_non_pointer_type@Vtext_oarchive@archive@boost@@@detail@archive@boost@@SAXAAVtext_oarchive@34@ABVcollection_size_type@serialization@4@@Z ; boost::archive::detail::save_non_pointer_type<boost::archive::text_oarchive>::save_primitive::invoke<boost::serialization::collection_size_type>
PUBLIC	??$check_object_level@Vitem_version_type@serialization@boost@@@detail@archive@boost@@YAXXZ ; boost::archive::detail::check_object_level<boost::serialization::item_version_type>
PUBLIC	??$invoke@Vitem_version_type@serialization@boost@@@load_primitive@?$load_non_pointer_type@Vtext_iarchive@archive@boost@@@detail@archive@boost@@SAXAAVtext_iarchive@34@AAVitem_version_type@serialization@4@@Z ; boost::archive::detail::load_non_pointer_type<boost::archive::text_iarchive>::load_primitive::invoke<boost::serialization::item_version_type>
PUBLIC	??$check_object_level@Vcollection_size_type@serialization@boost@@@detail@archive@boost@@YAXXZ ; boost::archive::detail::check_object_level<boost::serialization::collection_size_type>
PUBLIC	??$invoke@Vcollection_size_type@serialization@boost@@@load_primitive@?$load_non_pointer_type@Vtext_iarchive@archive@boost@@@detail@archive@boost@@SAXAAVtext_iarchive@34@AAVcollection_size_type@serialization@4@@Z ; boost::archive::detail::load_non_pointer_type<boost::archive::text_iarchive>::load_primitive::invoke<boost::serialization::collection_size_type>
PUBLIC	??$save_primitive@Vtext_oarchive@archive@boost@@Vitem_version_type@serialization@3@@save_access@archive@boost@@SAXAAVtext_oarchive@12@ABVitem_version_type@serialization@2@@Z ; boost::archive::save_access::save_primitive<boost::archive::text_oarchive,boost::serialization::item_version_type>
PUBLIC	??$save_primitive@Vtext_oarchive@archive@boost@@Vcollection_size_type@serialization@3@@save_access@archive@boost@@SAXAAVtext_oarchive@12@ABVcollection_size_type@serialization@2@@Z ; boost::archive::save_access::save_primitive<boost::archive::text_oarchive,boost::serialization::collection_size_type>
PUBLIC	??$load_primitive@Vtext_iarchive@archive@boost@@Vitem_version_type@serialization@3@@load_access@archive@boost@@SAXAAVtext_iarchive@12@AAVitem_version_type@serialization@2@@Z ; boost::archive::load_access::load_primitive<boost::archive::text_iarchive,boost::serialization::item_version_type>
PUBLIC	??$load_primitive@Vtext_iarchive@archive@boost@@Vcollection_size_type@serialization@3@@load_access@archive@boost@@SAXAAVtext_iarchive@12@AAVcollection_size_type@serialization@2@@Z ; boost::archive::load_access::load_primitive<boost::archive::text_iarchive,boost::serialization::collection_size_type>
PUBLIC	??$save@Vcollection_size_type@serialization@boost@@@?$text_oarchive_impl@Vtext_oarchive@archive@boost@@@archive@boost@@IAEXABVcollection_size_type@serialization@2@@Z ; boost::archive::text_oarchive_impl<boost::archive::text_oarchive>::save<boost::serialization::collection_size_type>
PUBLIC	??$load@Vcollection_size_type@serialization@boost@@@?$text_iarchive_impl@Vtext_iarchive@archive@boost@@@archive@boost@@IAEXAAVcollection_size_type@serialization@2@@Z ; boost::archive::text_iarchive_impl<boost::archive::text_iarchive>::load<boost::serialization::collection_size_type>
PUBLIC	??$save@Vcollection_size_type@serialization@boost@@@?$basic_text_oprimitive@V?$basic_ostream@DU?$char_traits@D@std@@@std@@@archive@boost@@IAEXABVcollection_size_type@serialization@2@@Z ; boost::archive::basic_text_oprimitive<std::basic_ostream<char,std::char_traits<char> > >::save<boost::serialization::collection_size_type>
PUBLIC	??$load@Vcollection_size_type@serialization@boost@@@?$basic_text_iprimitive@V?$basic_istream@DU?$char_traits@D@std@@@std@@@archive@boost@@IAEXAAVcollection_size_type@serialization@2@@Z ; boost::archive::basic_text_iprimitive<std::basic_istream<char,std::char_traits<char> > >::load<boost::serialization::collection_size_type>
PUBLIC	??$save_impl@Vcollection_size_type@serialization@boost@@@?$basic_text_oprimitive@V?$basic_ostream@DU?$char_traits@D@std@@@std@@@archive@boost@@IAEXABVcollection_size_type@serialization@2@AAU?$bool_@$0A@@mpl@2@@Z ; boost::archive::basic_text_oprimitive<std::basic_ostream<char,std::char_traits<char> > >::save_impl<boost::serialization::collection_size_type>
PUBLIC	??_7exception@std@@6B@				; std::exception::`vftable'
PUBLIC	??_C@_0BC@EOODALEL@Unknown?5exception?$AA@	; `string'
PUBLIC	??_C@_1JA@MHADJNIL@?$AAc?$AA?3?$AA?2?$AAp?$AAr?$AAo?$AAg?$AAr?$AAa?$AAm?$AA?5?$AAf?$AAi?$AAl?$AAe?$AAs?$AA?5?$AA?$CI?$AAx?$AA8?$AA6?$AA?$CJ?$AA?2?$AAm?$AAi?$AAc?$AAr?$AAo?$AAs?$AAo?$AAf?$AAt@ ; `string'
PUBLIC	??_C@_1DC@POOIKBAO@?$AAI?$AAT?$AAE?$AAR?$AAA?$AAT?$AAO?$AAR?$AA?5?$AAL?$AAI?$AAS?$AAT?$AA?5?$AAC?$AAO?$AAR?$AAR?$AAU?$AAP?$AAT?$AAE?$AAD?$AA?$CB?$AA?$AA@ ; `string'
PUBLIC	?__LINE__Var@?0??_Allocate@std@@YAPAXII_N@Z@4JA	; `std::_Allocate'::`1'::__LINE__Var
PUBLIC	??_C@_0BE@LMNLACIC@_Ptr_container?5?$CB?$DN?50?$AA@ ; `string'
PUBLIC	??_C@_1DG@HGDKEBPG@?$AA?$CC?$AA_?$AAP?$AAt?$AAr?$AA_?$AAc?$AAo?$AAn?$AAt?$AAa?$AAi?$AAn?$AAe?$AAr?$AA?5?$AA?$CB?$AA?$DN?$AA?5?$AA0?$AA?$CC?$AA?5?$AA?$CG?$AA?$CG?$AA?5?$AA0?$AA?$AA@ ; `string'
PUBLIC	??_C@_17CNPHIMPH@?$AA?$CF?$AAl?$AAs?$AA?$AA@	; `string'
PUBLIC	??_C@_1JA@DKOIEICI@?$AAc?$AA?3?$AA?2?$AAp?$AAr?$AAo?$AAg?$AAr?$AAa?$AAm?$AA?5?$AAf?$AAi?$AAl?$AAe?$AAs?$AA?5?$AA?$CI?$AAx?$AA8?$AA6?$AA?$CJ?$AA?2?$AAm?$AAi?$AAc?$AAr?$AAo?$AAs?$AAo?$AAf?$AAt@ ; `string'
PUBLIC	??_C@_1BO@NKFMJPA@?$AAs?$AAt?$AAd?$AA?3?$AA?3?$AA_?$AAA?$AAl?$AAl?$AAo?$AAc?$AAa?$AAt?$AAe?$AA?$AA@ ; `string'
PUBLIC	??_C@_1CG@JNLFBNGN@?$AA?$CC?$AAi?$AAn?$AAv?$AAa?$AAl?$AAi?$AAd?$AA?5?$AAa?$AAr?$AAg?$AAu?$AAm?$AAe?$AAn?$AAt?$AA?$CC?$AA?$AA@ ; `string'
PUBLIC	??_C@_09GLJCAGLP@_Ptr?5?$CB?$DN?50?$AA@		; `string'
PUBLIC	??_C@_1CC@GKJLLHIM@?$AA?$CC?$AA_?$AAP?$AAt?$AAr?$AA?5?$AA?$CB?$AA?$DN?$AA?5?$AA0?$AA?$CC?$AA?5?$AA?$CG?$AA?$CG?$AA?5?$AA0?$AA?$AA@ ; `string'
PUBLIC	?__LINE__Var@?0??_Deallocate@std@@YAXPAXII@Z@4JA ; `std::_Deallocate'::`1'::__LINE__Var
PUBLIC	??_C@_0BN@HMCJOMKN@_Count?5?$DM?$DN?5?$CIsize_t?$CJ?$CI?91?$CJ?5?1?5_Sz?$AA@ ; `string'
PUBLIC	??_C@_1EI@MLOBABC@?$AA?$CC?$AA_?$AAC?$AAo?$AAu?$AAn?$AAt?$AA?5?$AA?$DM?$AA?$DN?$AA?5?$AA?$CI?$AAs?$AAi?$AAz?$AAe?$AA_?$AAt?$AA?$CJ?$AA?$CI?$AA?9?$AA1?$AA?$CJ?$AA?5?$AA?1?$AA?5?$AA_?$AAS?$AAz?$AA?$CC?$AA?5?$AA?$CG@ ; `string'
PUBLIC	??_C@_1CC@LOFJFFDB@?$AAs?$AAt?$AAd?$AA?3?$AA?3?$AA_?$AAD?$AAe?$AAa?$AAl?$AAl?$AAo?$AAc?$AAa?$AAt?$AAe?$AA?$AA@ ; `string'
PUBLIC	??_C@_0DD@GBGGGKGG@?$CI_Ptr_user?5?$CG?5?$CI_BIG_ALLOCATION_AL@ ; `string'
PUBLIC	??_C@_1HE@CDMBFOKC@?$AA?$CC?$AA?$CI?$AA_?$AAP?$AAt?$AAr?$AA_?$AAu?$AAs?$AAe?$AAr?$AA?5?$AA?$CG?$AA?5?$AA?$CI?$AA_?$AAB?$AAI?$AAG?$AA_?$AAA?$AAL?$AAL?$AAO?$AAC?$AAA?$AAT?$AAI?$AAO?$AAN?$AA_?$AAA@ ; `string'
PUBLIC	??_C@_0EI@NOJHEJCJ@reinterpret_cast?$DMuintptr_t?5?$CK?$DO?$CI_P@ ; `string'
PUBLIC	??_C@_1JO@EKLKIEHP@?$AA?$CC?$AAr?$AAe?$AAi?$AAn?$AAt?$AAe?$AAr?$AAp?$AAr?$AAe?$AAt?$AA_?$AAc?$AAa?$AAs?$AAt?$AA?$DM?$AAu?$AAi?$AAn?$AAt?$AAp?$AAt?$AAr?$AA_?$AAt?$AA?5?$AA?$CK?$AA?$DO?$AA?$CI?$AA_@ ; `string'
PUBLIC	??_C@_0BL@OCKMEJON@_Ptr_container?5?$DM?5_Ptr_user?$AA@ ; `string'
PUBLIC	??_C@_1EE@PDHAHDDC@?$AA?$CC?$AA_?$AAP?$AAt?$AAr?$AA_?$AAc?$AAo?$AAn?$AAt?$AAa?$AAi?$AAn?$AAe?$AAr?$AA?5?$AA?$DM?$AA?5?$AA_?$AAP?$AAt?$AAr?$AA_?$AAu?$AAs?$AAe?$AAr?$AA?$CC?$AA?5?$AA?$CG?$AA?$CG?$AA?5@ ; `string'
PUBLIC	??_C@_0DB@GLFJLNCE@2?5?$CK?5sizeof?$CIvoid?5?$CK?$CJ?5?$DM?$DN?5_Ptr_user?5@ ; `string'
PUBLIC	??_C@_1HA@NAPGMHAO@?$AA?$CC?$AA2?$AA?5?$AA?$CK?$AA?5?$AAs?$AAi?$AAz?$AAe?$AAo?$AAf?$AA?$CI?$AAv?$AAo?$AAi?$AAd?$AA?5?$AA?$CK?$AA?$CJ?$AA?5?$AA?$DM?$AA?$DN?$AA?5?$AA_?$AAP?$AAt?$AAr?$AA_?$AAu?$AAs?$AAe?$AAr@ ; `string'
PUBLIC	??_C@_0CN@BLHJCAL@_Ptr_user?5?9?5_Ptr_container?5?$DM?$DN?5_N@ ; `string'
PUBLIC	??_C@_1GI@DHJGPFNI@?$AA?$CC?$AA_?$AAP?$AAt?$AAr?$AA_?$AAu?$AAs?$AAe?$AAr?$AA?5?$AA?9?$AA?5?$AA_?$AAP?$AAt?$AAr?$AA_?$AAc?$AAo?$AAn?$AAt?$AAa?$AAi?$AAn?$AAe?$AAr?$AA?5?$AA?$DM?$AA?$DN?$AA?5?$AA_@ ; `string'
PUBLIC	?npos@?$basic_string@DU?$char_traits@D@std@@V?$allocator@D@2@@std@@2IB ; std::basic_string<char,std::char_traits<char>,std::allocator<char> >::npos
PUBLIC	??_7bad_cast@std@@6B@				; std::bad_cast::`vftable'
PUBLIC	??_C@_08EPJLHIJG@bad?5cast?$AA@			; `string'
PUBLIC	??_R0?AVexception@std@@@8			; std::exception `RTTI Type Descriptor'
PUBLIC	__CT??_R0?AVexception@std@@@8??0exception@std@@QAE@ABV01@@Z12
PUBLIC	??_C@_00CNPNBAHC@?$AA@				; `string'
PUBLIC	??_C@_1IO@DBEBMPEE@?$AAs?$AA?3?$AA?2?$AAu?$AAs?$AAe?$AAr?$AAs?$AA?2?$AAp?$AAu?$AAb?$AAl?$AAi?$AAc?$AA?2?$AAd?$AAo?$AAc?$AAu?$AAm?$AAe?$AAn?$AAt?$AAs?$AA?2?$AAb?$AAo?$AAo?$AAs?$AAt?$AA_@ ; `string'
PUBLIC	??_C@_1GE@MNCNLAH@?$AAt?$AA_?$AA?5?$AA?$DM?$AA?$DN?$AA?5?$AAb?$AAo?$AAo?$AAs?$AAt?$AA?3?$AA?3?$AAi?$AAn?$AAt?$AAe?$AAg?$AAe?$AAr?$AA_?$AAt?$AAr?$AAa?$AAi?$AAt?$AAs?$AA?$DM?$AAb?$AAa?$AAs?$AAe@ ; `string'
PUBLIC	??_C@_0CI@FNPHFCCM@Standard?5C?$CL?$CL?5Libraries?5Invalid?5A@ ; `string'
PUBLIC	??_C@_1FO@GJIHNDLM@?$AA?$CC?$AAS?$AAt?$AAa?$AAn?$AAd?$AAa?$AAr?$AAd?$AA?5?$AAC?$AA?$CL?$AA?$CL?$AA?5?$AAL?$AAi?$AAb?$AAr?$AAa?$AAr?$AAi?$AAe?$AAs?$AA?5?$AAI?$AAn?$AAv?$AAa?$AAl?$AAi?$AAd?$AA?5@ ; `string'
PUBLIC	??_C@_1KC@JIPKAKFO@?$AAs?$AA?3?$AA?2?$AAu?$AAs?$AAe?$AAr?$AAs?$AA?2?$AAp?$AAu?$AAb?$AAl?$AAi?$AAc?$AA?2?$AAd?$AAo?$AAc?$AAu?$AAm?$AAe?$AAn?$AAt?$AAs?$AA?2?$AAb?$AAo?$AAo?$AAs?$AAt?$AA_@ ; `string'
PUBLIC	??_7CCompany@@6B@				; CCompany::`vftable'
PUBLIC	??_C@_08FGJDGFCJ@CCompany?$AA@			; `string'
PUBLIC	??_C@_0P@HGHHJMJK@Company?5name?3?5?$AA@	; `string'
PUBLIC	??_C@_09GAGNALJM@Address?3?5?$AA@		; `string'
PUBLIC	??_C@_07FEKBIJ@Hours?3?5?$AA@			; `string'
PUBLIC	??_C@_09INCOPIGL@Website?3?5?$AA@		; `string'
PUBLIC	??_C@_0L@EIELKJJE@Enter?5name?$AA@		; `string'
PUBLIC	??_C@_0BD@LCFAHLH@Edit?5phone?5numbers?$AA@	; `string'
PUBLIC	??_C@_0BB@EEBFEAFE@Edit?5fax?5numbers?$AA@	; `string'
PUBLIC	??_C@_0BF@PEBHBCKH@Edit?5email?5addresses?$AA@	; `string'
PUBLIC	??_C@_0O@EEFLFDIA@Enter?5address?$AA@		; `string'
PUBLIC	??_C@_0M@BGJFKBDI@Enter?5hours?$AA@		; `string'
PUBLIC	??_C@_0O@OAMALGNP@Enter?5website?$AA@		; `string'
PUBLIC	??_C@_0BH@KBHLMDIH@Finish?5editing?5contact?$AA@ ; `string'
PUBLIC	??_C@_0BB@FAHCJKFO@Add?5phone?5number?$AA@	; `string'
PUBLIC	??_C@_0BE@HPCFJHJF@Remove?5phone?5number?$AA@	; `string'
PUBLIC	??_C@_0BI@KGPMIEGO@Return?5to?5previous?5menu?$AA@ ; `string'
PUBLIC	??_C@_0P@PJBDCCA@Add?5fax?5number?$AA@		; `string'
PUBLIC	??_C@_0BC@KGBPMKIC@Remove?5fax?5number?$AA@	; `string'
PUBLIC	??_C@_0BC@BFBEABLC@Add?5email?5address?$AA@	; `string'
PUBLIC	??_C@_0BF@BJINENIH@Remove?5email?5address?$AA@	; `string'
PUBLIC	??_C@_0N@KEFPBKIO@phone?5number?$AA@		; `string'
PUBLIC	??_C@_0L@IDMPELLM@fax?5number?$AA@		; `string'
PUBLIC	??_C@_0O@JDDDPOOG@email?5address?$AA@		; `string'
PUBLIC	??_C@_01EEMJAFIK@?6?$AA@			; `string'
PUBLIC	??_C@_0BE@MLGHGCIF@?5?5?5?5?5?5?5?5?5?5?5?5Name?3?5?5?$AA@ ; `string'
PUBLIC	??_C@_0BE@HDLJGIGO@?5?5?5Phone?5Numbers?3?5?5?$AA@ ; `string'
PUBLIC	??_C@_0BE@PAALNHLB@?5?5?5?5?5?5?5?5?5?5?5?5?5?5?5?5?5?5?5?$AA@ ; `string'
PUBLIC	??_C@_0BE@BBGIJEAL@?5?5?5?5?5Fax?5Numbers?3?5?5?$AA@ ; `string'
PUBLIC	??_C@_0BE@DDKDJAIC@?5Email?5Addresses?3?5?5?$AA@ ; `string'
PUBLIC	??_C@_0BE@LOEDLNEE@?5?5?5?5?5?5?5?5?5Address?3?5?5?$AA@ ; `string'
PUBLIC	??_C@_0BE@JHLBEJEA@?5?5?5?5?5?5?5?5?5?5?5Hours?3?5?5?$AA@ ; `string'
PUBLIC	??_C@_0BE@JNHHJJAI@?5?5?5?5?5?5?5?5?5Website?3?5?5?$AA@ ; `string'
PUBLIC	??_C@_01GPOEFGEJ@?7?$AA@			; `string'
PUBLIC	??_C@_1IM@NCODKBJH@?$AAc?$AA?3?$AA?2?$AAp?$AAr?$AAo?$AAg?$AAr?$AAa?$AAm?$AA?5?$AAf?$AAi?$AAl?$AAe?$AAs?$AA?5?$AA?$CI?$AAx?$AA8?$AA6?$AA?$CJ?$AA?2?$AAm?$AAi?$AAc?$AAr?$AAo?$AAs?$AAo?$AAf?$AAt@ ; `string'
PUBLIC	??_C@_1EE@EJDKCLKB@?$AAv?$AAe?$AAc?$AAt?$AAo?$AAr?$AA?5?$AAi?$AAt?$AAe?$AAr?$AAa?$AAt?$AAo?$AAr?$AA?5?$AAn?$AAo?$AAt?$AA?5?$AAi?$AAn?$AAc?$AAr?$AAe?$AAm?$AAe?$AAn?$AAt?$AAa?$AAb?$AAl@ ; `string'
PUBLIC	??_C@_0CE@OFMIGAMM@Standard?5C?$CL?$CL?5Libraries?5Out?5of?5Ra@ ; `string'
PUBLIC	??_C@_1FG@IBPIFFN@?$AA?$CC?$AAS?$AAt?$AAa?$AAn?$AAd?$AAa?$AAr?$AAd?$AA?5?$AAC?$AA?$CL?$AA?$CL?$AA?5?$AAL?$AAi?$AAb?$AAr?$AAa?$AAr?$AAi?$AAe?$AAs?$AA?5?$AAO?$AAu?$AAt?$AA?5?$AAo?$AAf?$AA?5?$AAR@ ; `string'
PUBLIC	??_C@_1BHA@MHIPJLE@?$AAs?$AAt?$AAd?$AA?3?$AA?3?$AA_?$AAV?$AAe?$AAc?$AAt?$AAo?$AAr?$AA_?$AAc?$AAo?$AAn?$AAs?$AAt?$AA_?$AAi?$AAt?$AAe?$AAr?$AAa?$AAt?$AAo?$AAr?$AA?$DM?$AAc?$AAl?$AAa?$AAs@ ; `string'
PUBLIC	??_C@_1BO@MEPPHOO@?$AA?$CC?$AAo?$AAu?$AAt?$AA?5?$AAo?$AAf?$AA?5?$AAr?$AAa?$AAn?$AAg?$AAe?$AA?$CC?$AA?$AA@ ; `string'
PUBLIC	??_C@_1EG@FOHJJHAC@?$AAv?$AAe?$AAc?$AAt?$AAo?$AAr?$AA?5?$AAi?$AAt?$AAe?$AAr?$AAa?$AAt?$AAo?$AAr?$AA?5?$AAn?$AAo?$AAt?$AA?5?$AAd?$AAe?$AAr?$AAe?$AAf?$AAe?$AAr?$AAe?$AAn?$AAc?$AAa?$AAb@ ; `string'
PUBLIC	??_C@_1BGO@ENKEMOHL@?$AAs?$AAt?$AAd?$AA?3?$AA?3?$AA_?$AAV?$AAe?$AAc?$AAt?$AAo?$AAr?$AA_?$AAc?$AAo?$AAn?$AAs?$AAt?$AA_?$AAi?$AAt?$AAe?$AAr?$AAa?$AAt?$AAo?$AAr?$AA?$DM?$AAc?$AAl?$AAa?$AAs@ ; `string'
PUBLIC	??_C@_1IO@EADHKMNI@?$AAc?$AA?3?$AA?2?$AAp?$AAr?$AAo?$AAg?$AAr?$AAa?$AAm?$AA?5?$AAf?$AAi?$AAl?$AAe?$AAs?$AA?5?$AA?$CI?$AAx?$AA8?$AA6?$AA?$CJ?$AA?2?$AAm?$AAi?$AAc?$AAr?$AAo?$AAs?$AAo?$AAf?$AAt@ ; `string'
PUBLIC	??_C@_1DM@HINDPMBP@?$AAv?$AAe?$AAc?$AAt?$AAo?$AAr?$AA?5?$AAi?$AAt?$AAe?$AAr?$AAa?$AAt?$AAo?$AAr?$AAs?$AA?5?$AAi?$AAn?$AAc?$AAo?$AAm?$AAp?$AAa?$AAt?$AAi?$AAb?$AAl?$AAe?$AA?$AA@ ; `string'
PUBLIC	??_C@_1BGI@CFILNOOP@?$AAs?$AAt?$AAd?$AA?3?$AA?3?$AA_?$AAV?$AAe?$AAc?$AAt?$AAo?$AAr?$AA_?$AAc?$AAo?$AAn?$AAs?$AAt?$AA_?$AAi?$AAt?$AAe?$AAr?$AAa?$AAt?$AAo?$AAr?$AA?$DM?$AAc?$AAl?$AAa?$AAs@ ; `string'
PUBLIC	??_C@_1EE@HAKOGNPH@?$AAs?$AAt?$AAr?$AAi?$AAn?$AAg?$AA?5?$AAi?$AAt?$AAe?$AAr?$AAa?$AAt?$AAo?$AAr?$AA?5?$AAn?$AAo?$AAt?$AA?5?$AAi?$AAn?$AAc?$AAr?$AAe?$AAm?$AAe?$AAn?$AAt?$AAa?$AAb?$AAl@ ; `string'
PUBLIC	??_C@_1EG@CNCHLAOB@?$AAs?$AAt?$AAr?$AAi?$AAn?$AAg?$AA?5?$AAi?$AAt?$AAe?$AAr?$AAa?$AAt?$AAo?$AAr?$AA?5?$AAn?$AAo?$AAt?$AA?5?$AAd?$AAe?$AAr?$AAe?$AAf?$AAe?$AAr?$AAe?$AAn?$AAc?$AAa?$AAb@ ; `string'
PUBLIC	??_C@_1MI@IFMPOAI@?$AAs?$AAt?$AAd?$AA?3?$AA?3?$AA_?$AAS?$AAt?$AAr?$AAi?$AAn?$AAg?$AA_?$AAc?$AAo?$AAn?$AAs?$AAt?$AA_?$AAi?$AAt?$AAe?$AAr?$AAa?$AAt?$AAo?$AAr?$AA?$DM?$AAc?$AAl?$AAa?$AAs@ ; `string'
PUBLIC	??_C@_1MG@GDGHDIKC@?$AAs?$AAt?$AAd?$AA?3?$AA?3?$AA_?$AAS?$AAt?$AAr?$AAi?$AAn?$AAg?$AA_?$AAc?$AAo?$AAn?$AAs?$AAt?$AA_?$AAi?$AAt?$AAe?$AAr?$AAa?$AAt?$AAo?$AAr?$AA?$DM?$AAc?$AAl?$AAa?$AAs@ ; `string'
PUBLIC	??_C@_0BA@JFNIOLAK@string?5too?5long?$AA@	; `string'
PUBLIC	??_C@_0BI@CFPLBAOH@invalid?5string?5position?$AA@ ; `string'
PUBLIC	??_C@_1DM@KDEKGMPF@?$AAs?$AAt?$AAr?$AAi?$AAn?$AAg?$AA?5?$AAi?$AAt?$AAe?$AAr?$AAa?$AAt?$AAo?$AAr?$AAs?$AA?5?$AAi?$AAn?$AAc?$AAo?$AAm?$AAp?$AAa?$AAt?$AAi?$AAb?$AAl?$AAe?$AA?$AA@ ; `string'
PUBLIC	??_C@_1MA@BDELDFHB@?$AAs?$AAt?$AAd?$AA?3?$AA?3?$AA_?$AAS?$AAt?$AAr?$AAi?$AAn?$AAg?$AA_?$AAc?$AAo?$AAn?$AAs?$AAt?$AA_?$AAi?$AAt?$AAe?$AAr?$AAa?$AAt?$AAo?$AAr?$AA?$DM?$AAc?$AAl?$AAa?$AAs@ ; `string'
PUBLIC	?_Psave@?$_Facetptr@V?$ctype@D@std@@@std@@2PBVfacet@locale@2@B ; std::_Facetptr<std::ctype<char> >::_Psave
PUBLIC	__TI2?AVbad_cast@std@@
PUBLIC	__CTA2?AVbad_cast@std@@
PUBLIC	??_R0?AVbad_cast@std@@@8			; std::bad_cast `RTTI Type Descriptor'
PUBLIC	__CT??_R0?AVbad_cast@std@@@8??0bad_cast@std@@QAE@ABV01@@Z12
PUBLIC	??_C@_1CK@EOPGIILJ@?$AAi?$AAn?$AAv?$AAa?$AAl?$AAi?$AAd?$AA?5?$AAn?$AAu?$AAl?$AAl?$AA?5?$AAp?$AAo?$AAi?$AAn?$AAt?$AAe?$AAr?$AA?$AA@ ; `string'
PUBLIC	?data@?1???B?$integral_constant@_N$00@boost@@QBEABU?$bool_@$00@mpl@2@XZ@4DB ;  ?? ::DB::mpl::XZ::`boost::integral_constant<bool,1>::operator boost::mpl::bool_<1> const &'::`2'::data
PUBLIC	?instance@?$singleton@V?$oserializer@Vtext_oarchive@archive@boost@@V?$vector@V?$basic_string@DU?$char_traits@D@std@@V?$allocator@D@2@@std@@V?$allocator@V?$basic_string@DU?$char_traits@D@std@@V?$allocator@D@2@@std@@@2@@std@@@detail@archive@boost@@@serialization@boost@@0AAV?$oserializer@Vtext_oarchive@archive@boost@@V?$vector@V?$basic_string@DU?$char_traits@D@std@@V?$allocator@D@2@@std@@V?$allocator@V?$basic_string@DU?$char_traits@D@std@@V?$allocator@D@2@@std@@@2@@std@@@detail@archive@3@A ; boost::serialization::singleton<boost::archive::detail::oserializer<boost::archive::text_oarchive,std::vector<std::basic_string<char,std::char_traits<char>,std::allocator<char> >,std::allocator<std::basic_string<char,std::char_traits<char>,std::allocator<char> > > > > >::instance
PUBLIC	??_7?$oserializer@Vtext_oarchive@archive@boost@@V?$vector@V?$basic_string@DU?$char_traits@D@std@@V?$allocator@D@2@@std@@V?$allocator@V?$basic_string@DU?$char_traits@D@std@@V?$allocator@D@2@@std@@@2@@std@@@detail@archive@boost@@6B@ ; boost::archive::detail::oserializer<boost::archive::text_oarchive,std::vector<std::basic_string<char,std::char_traits<char>,std::allocator<char> >,std::allocator<std::basic_string<char,std::char_traits<char>,std::allocator<char> > > > >::`vftable'
PUBLIC	?m_is_destroyed@?$singleton_wrapper@V?$oserializer@Vtext_oarchive@archive@boost@@V?$vector@V?$basic_string@DU?$char_traits@D@std@@V?$allocator@D@2@@std@@V?$allocator@V?$basic_string@DU?$char_traits@D@std@@V?$allocator@D@2@@std@@@2@@std@@@detail@archive@boost@@@detail@serialization@boost@@2_NA ; boost::serialization::detail::singleton_wrapper<boost::archive::detail::oserializer<boost::archive::text_oarchive,std::vector<std::basic_string<char,std::char_traits<char>,std::allocator<char> >,std::allocator<std::basic_string<char,std::char_traits<char>,std::allocator<char> > > > > >::m_is_destroyed
PUBLIC	??_7?$singleton_wrapper@V?$oserializer@Vtext_oarchive@archive@boost@@V?$vector@V?$basic_string@DU?$char_traits@D@std@@V?$allocator@D@2@@std@@V?$allocator@V?$basic_string@DU?$char_traits@D@std@@V?$allocator@D@2@@std@@@2@@std@@@detail@archive@boost@@@detail@serialization@boost@@6B@ ; boost::serialization::detail::singleton_wrapper<boost::archive::detail::oserializer<boost::archive::text_oarchive,std::vector<std::basic_string<char,std::char_traits<char>,std::allocator<char> >,std::allocator<std::basic_string<char,std::char_traits<char>,std::allocator<char> > > > > >::`vftable'
PUBLIC	?t@?1??get_instance@?$singleton@V?$oserializer@Vtext_oarchive@archive@boost@@V?$vector@V?$basic_string@DU?$char_traits@D@std@@V?$allocator@D@2@@std@@V?$allocator@V?$basic_string@DU?$char_traits@D@std@@V?$allocator@D@2@@std@@@2@@std@@@detail@archive@boost@@@serialization@boost@@CAAAV?$oserializer@Vtext_oarchive@archive@boost@@V?$vector@V?$basic_string@DU?$char_traits@D@std@@V?$allocator@D@2@@std@@V?$allocator@V?$basic_string@DU?$char_traits@D@std@@V?$allocator@D@2@@std@@@2@@std@@@detail@archive@4@XZ@4V?$singleton_wrapper@V?$oserializer@Vtext_oarchive@archive@boost@@V?$vector@V?$basic_string@DU?$char_traits@D@std@@V?$allocator@D@2@@std@@V?$allocator@V?$basic_string@DU?$char_traits@D@std@@V?$allocator@D@2@@std@@@2@@std@@@detail@archive@boost@@@634@A ; `boost::serialization::singleton<boost::archive::detail::oserializer<boost::archive::text_oarchive,std::vector<std::basic_string<char,std::char_traits<char>,std::allocator<char> >,std::allocator<std::basic_string<char,std::char_traits<char>,std::allocator<char> > > > > >::get_instance'::`2'::t
PUBLIC	?$TSS0@?1??get_instance@?$singleton@V?$oserializer@Vtext_oarchive@archive@boost@@V?$vector@V?$basic_string@DU?$char_traits@D@std@@V?$allocator@D@2@@std@@V?$allocator@V?$basic_string@DU?$char_traits@D@std@@V?$allocator@D@2@@std@@@2@@std@@@detail@archive@boost@@@serialization@boost@@CAAAV?$oserializer@Vtext_oarchive@archive@boost@@V?$vector@V?$basic_string@DU?$char_traits@D@std@@V?$allocator@D@2@@std@@V?$allocator@V?$basic_string@DU?$char_traits@D@std@@V?$allocator@D@2@@std@@@2@@std@@@detail@archive@4@XZ@4HA ; TSS0<`template-parameter-2',boost::serialization::singleton<boost::archive::detail::oserializer<boost::archive::text_oarchive,std::vector<std::basic_string<char,std::char_traits<char>,std::allocator<char> >,std::allocator<std::basic_string<char,std::char_traits<char>,std::allocator<char> > > > > >::et_instance,signed char,boost::archive::Vtext_oarchive::erializer,std::vector<std::basic_string<char,std::char_traits<char>,std::allocator<char> >,std::allocator<std::basic_string<char,std::char_traits<char>,std::allocator<char> > > > >
PUBLIC	??_C@_1JC@GIHFICPP@?$AAs?$AA?3?$AA?2?$AAu?$AAs?$AAe?$AAr?$AAs?$AA?2?$AAp?$AAu?$AAb?$AAl?$AAi?$AAc?$AA?2?$AAd?$AAo?$AAc?$AAu?$AAm?$AAe?$AAn?$AAt?$AAs?$AA?2?$AAb?$AAo?$AAo?$AAs?$AAt?$AA_@ ; `string'
PUBLIC	??_C@_1GC@KKEDEOBO@?$AA?$CB?$AA?5?$AAd?$AAe?$AAt?$AAa?$AAi?$AAl?$AA?3?$AA?3?$AAs?$AAi?$AAn?$AAg?$AAl?$AAe?$AAt?$AAo?$AAn?$AA_?$AAw?$AAr?$AAa?$AAp?$AAp?$AAe?$AAr?$AA?$DM?$AA?5?$AAT?$AA?5?$AA?$DO@ ; `string'
PUBLIC	?instance@?$singleton@V?$extended_type_info_typeid@V?$vector@V?$basic_string@DU?$char_traits@D@std@@V?$allocator@D@2@@std@@V?$allocator@V?$basic_string@DU?$char_traits@D@std@@V?$allocator@D@2@@std@@@2@@std@@@serialization@boost@@@serialization@boost@@0AAV?$extended_type_info_typeid@V?$vector@V?$basic_string@DU?$char_traits@D@std@@V?$allocator@D@2@@std@@V?$allocator@V?$basic_string@DU?$char_traits@D@std@@V?$allocator@D@2@@std@@@2@@std@@@23@A ; boost::serialization::singleton<boost::serialization::extended_type_info_typeid<std::vector<std::basic_string<char,std::char_traits<char>,std::allocator<char> >,std::allocator<std::basic_string<char,std::char_traits<char>,std::allocator<char> > > > > >::instance
PUBLIC	??_7?$extended_type_info_typeid@V?$vector@V?$basic_string@DU?$char_traits@D@std@@V?$allocator@D@2@@std@@V?$allocator@V?$basic_string@DU?$char_traits@D@std@@V?$allocator@D@2@@std@@@2@@std@@@serialization@boost@@6B@ ; boost::serialization::extended_type_info_typeid<std::vector<std::basic_string<char,std::char_traits<char>,std::allocator<char> >,std::allocator<std::basic_string<char,std::char_traits<char>,std::allocator<char> > > > >::`vftable'
