; Listing generated by Microsoft (R) Optimizing Compiler Version 19.00.24215.1 

	TITLE	S:\Chris\OneDrive - UAT\C++ Programming II\pete_final\pete_final\Contact.cpp
	.686P
	.XMM
	include listing.inc
	.model	flat

INCLUDELIB MSVCRTD
INCLUDELIB OLDNAMES

PUBLIC	?__empty_global_delete@@YAXPAX@Z		; __empty_global_delete
PUBLIC	?__empty_global_delete@@YAXPAXI@Z		; __empty_global_delete
PUBLIC	??0CContact@@QAE@XZ				; CContact::CContact
PUBLIC	??1CContact@@UAE@XZ				; CContact::~CContact
PUBLIC	??_GCContact@@UAEPAXI@Z				; CContact::`scalar deleting destructor'
PUBLIC	??_7CContact@@6B@				; CContact::`vftable'
PUBLIC	??_R4CContact@@6B@				; CContact::`RTTI Complete Object Locator'
PUBLIC	??_R0?AVCContact@@@8				; CContact `RTTI Type Descriptor'
PUBLIC	??_R3CContact@@8				; CContact::`RTTI Class Hierarchy Descriptor'
PUBLIC	??_R2CContact@@8				; CContact::`RTTI Base Class Array'
PUBLIC	??_R1A@?0A@EA@CContact@@8			; CContact::`RTTI Base Class Descriptor at (0,-1,0,64)'
EXTRN	__purecall:PROC
EXTRN	??3@YAXPAXI@Z:PROC				; operator delete
EXTRN	??0CCustomMenu@@QAE@XZ:PROC			; CCustomMenu::CCustomMenu
EXTRN	??1CCustomMenu@@QAE@XZ:PROC			; CCustomMenu::~CCustomMenu
EXTRN	??_ECContact@@UAEPAXI@Z:PROC			; CContact::`vector deleting destructor'
EXTRN	@__security_check_cookie@4:PROC
EXTRN	__RTC_CheckEsp:PROC
EXTRN	__RTC_InitBase:PROC
EXTRN	__RTC_Shutdown:PROC
EXTRN	___CxxFrameHandler3:PROC
EXTRN	??_7type_info@@6B@:QWORD			; type_info::`vftable'
EXTRN	___security_cookie:DWORD
;	COMDAT rtc$TMZ
rtc$TMZ	SEGMENT
__RTC_Shutdown.rtc$TMZ DD FLAT:__RTC_Shutdown
rtc$TMZ	ENDS
;	COMDAT rtc$IMZ
rtc$IMZ	SEGMENT
__RTC_InitBase.rtc$IMZ DD FLAT:__RTC_InitBase
rtc$IMZ	ENDS
;	COMDAT ??_R1A@?0A@EA@CContact@@8
rdata$r	SEGMENT
??_R1A@?0A@EA@CContact@@8 DD FLAT:??_R0?AVCContact@@@8	; CContact::`RTTI Base Class Descriptor at (0,-1,0,64)'
	DD	00H
	DD	00H
	DD	0ffffffffH
	DD	00H
	DD	040H
	DD	FLAT:??_R3CContact@@8
rdata$r	ENDS
;	COMDAT ??_R2CContact@@8
rdata$r	SEGMENT
??_R2CContact@@8 DD FLAT:??_R1A@?0A@EA@CContact@@8	; CContact::`RTTI Base Class Array'
rdata$r	ENDS
;	COMDAT ??_R3CContact@@8
rdata$r	SEGMENT
??_R3CContact@@8 DD 00H					; CContact::`RTTI Class Hierarchy Descriptor'
	DD	00H
	DD	01H
	DD	FLAT:??_R2CContact@@8
rdata$r	ENDS
;	COMDAT ??_R0?AVCContact@@@8
data$r	SEGMENT
??_R0?AVCContact@@@8 DD FLAT:??_7type_info@@6B@		; CContact `RTTI Type Descriptor'
	DD	00H
	DB	'.?AVCContact@@', 00H
data$r	ENDS
;	COMDAT ??_R4CContact@@6B@
rdata$r	SEGMENT
??_R4CContact@@6B@ DD 00H				; CContact::`RTTI Complete Object Locator'
	DD	00H
	DD	00H
	DD	FLAT:??_R0?AVCContact@@@8
	DD	FLAT:??_R3CContact@@8
rdata$r	ENDS
;	COMDAT ??_7CContact@@6B@
CONST	SEGMENT
??_7CContact@@6B@ DD FLAT:??_R4CContact@@6B@		; CContact::`vftable'
	DD	FLAT:??_ECContact@@UAEPAXI@Z
	DD	FLAT:__purecall
	DD	FLAT:__purecall
	DD	FLAT:__purecall
	DD	FLAT:__purecall
	DD	FLAT:__purecall
	DD	FLAT:__purecall
	DD	FLAT:__purecall
	DD	FLAT:__purecall
	DD	FLAT:__purecall
	DD	FLAT:__purecall
	DD	FLAT:__purecall
CONST	ENDS
;	COMDAT xdata$x
xdata$x	SEGMENT
__unwindtable$??0CContact@@QAE@XZ DD 0ffffffffH
	DD	FLAT:__unwindfunclet$??0CContact@@QAE@XZ$0
	DD	00H
	DD	FLAT:__unwindfunclet$??0CContact@@QAE@XZ$1
	DD	01H
	DD	FLAT:__unwindfunclet$??0CContact@@QAE@XZ$2
__ehfuncinfo$??0CContact@@QAE@XZ DD 019930522H
	DD	03H
	DD	FLAT:__unwindtable$??0CContact@@QAE@XZ
	DD	2 DUP(00H)
	DD	2 DUP(00H)
	DD	00H
	DD	01H
xdata$x	ENDS
; Function compile flags: /Odtp /RTCsu /ZI
;	COMDAT ??_GCContact@@UAEPAXI@Z
_TEXT	SEGMENT
_this$ = -8						; size = 4
___flags$ = 8						; size = 4
??_GCContact@@UAEPAXI@Z PROC				; CContact::`scalar deleting destructor', COMDAT
; _this$ = ecx
  00000	55		 push	 ebp
  00001	8b ec		 mov	 ebp, esp
  00003	81 ec cc 00 00
	00		 sub	 esp, 204		; 000000ccH
  00009	53		 push	 ebx
  0000a	56		 push	 esi
  0000b	57		 push	 edi
  0000c	51		 push	 ecx
  0000d	8d bd 34 ff ff
	ff		 lea	 edi, DWORD PTR [ebp-204]
  00013	b9 33 00 00 00	 mov	 ecx, 51			; 00000033H
  00018	b8 cc cc cc cc	 mov	 eax, -858993460		; ccccccccH
  0001d	f3 ab		 rep stosd
  0001f	59		 pop	 ecx
  00020	89 4d f8	 mov	 DWORD PTR _this$[ebp], ecx
  00023	8b 4d f8	 mov	 ecx, DWORD PTR _this$[ebp]
  00026	e8 00 00 00 00	 call	 ??1CContact@@UAE@XZ	; CContact::~CContact
  0002b	8b 45 08	 mov	 eax, DWORD PTR ___flags$[ebp]
  0002e	83 e0 01	 and	 eax, 1
  00031	74 0e		 je	 SHORT $LN2@scalar
  00033	6a 44		 push	 68			; 00000044H
  00035	8b 45 f8	 mov	 eax, DWORD PTR _this$[ebp]
  00038	50		 push	 eax
  00039	e8 00 00 00 00	 call	 ??3@YAXPAXI@Z		; operator delete
  0003e	83 c4 08	 add	 esp, 8
$LN2@scalar:
  00041	8b 45 f8	 mov	 eax, DWORD PTR _this$[ebp]
  00044	5f		 pop	 edi
  00045	5e		 pop	 esi
  00046	5b		 pop	 ebx
  00047	81 c4 cc 00 00
	00		 add	 esp, 204		; 000000ccH
  0004d	3b ec		 cmp	 ebp, esp
  0004f	e8 00 00 00 00	 call	 __RTC_CheckEsp
  00054	8b e5		 mov	 esp, ebp
  00056	5d		 pop	 ebp
  00057	c2 04 00	 ret	 4
??_GCContact@@UAEPAXI@Z ENDP				; CContact::`scalar deleting destructor'
_TEXT	ENDS
; Function compile flags: /Odtp /RTCsu /ZI
; File s:\chris\onedrive - uat\c++ programming ii\pete_final\pete_final\contact.cpp
;	COMDAT ??1CContact@@UAE@XZ
_TEXT	SEGMENT
_this$ = -8						; size = 4
??1CContact@@UAE@XZ PROC				; CContact::~CContact, COMDAT
; _this$ = ecx

; 11   : {

  00000	55		 push	 ebp
  00001	8b ec		 mov	 ebp, esp
  00003	81 ec cc 00 00
	00		 sub	 esp, 204		; 000000ccH
  00009	53		 push	 ebx
  0000a	56		 push	 esi
  0000b	57		 push	 edi
  0000c	51		 push	 ecx
  0000d	8d bd 34 ff ff
	ff		 lea	 edi, DWORD PTR [ebp-204]
  00013	b9 33 00 00 00	 mov	 ecx, 51			; 00000033H
  00018	b8 cc cc cc cc	 mov	 eax, -858993460		; ccccccccH
  0001d	f3 ab		 rep stosd
  0001f	59		 pop	 ecx
  00020	89 4d f8	 mov	 DWORD PTR _this$[ebp], ecx
  00023	8b 45 f8	 mov	 eax, DWORD PTR _this$[ebp]
  00026	c7 00 00 00 00
	00		 mov	 DWORD PTR [eax], OFFSET ??_7CContact@@6B@

; 12   : }

  0002c	8b 4d f8	 mov	 ecx, DWORD PTR _this$[ebp]
  0002f	83 c1 34	 add	 ecx, 52			; 00000034H
  00032	e8 00 00 00 00	 call	 ??1CCustomMenu@@QAE@XZ	; CCustomMenu::~CCustomMenu
  00037	8b 4d f8	 mov	 ecx, DWORD PTR _this$[ebp]
  0003a	83 c1 24	 add	 ecx, 36			; 00000024H
  0003d	e8 00 00 00 00	 call	 ??1CCustomMenu@@QAE@XZ	; CCustomMenu::~CCustomMenu
  00042	8b 4d f8	 mov	 ecx, DWORD PTR _this$[ebp]
  00045	83 c1 14	 add	 ecx, 20			; 00000014H
  00048	e8 00 00 00 00	 call	 ??1CCustomMenu@@QAE@XZ	; CCustomMenu::~CCustomMenu
  0004d	8b 4d f8	 mov	 ecx, DWORD PTR _this$[ebp]
  00050	83 c1 04	 add	 ecx, 4
  00053	e8 00 00 00 00	 call	 ??1CCustomMenu@@QAE@XZ	; CCustomMenu::~CCustomMenu
  00058	5f		 pop	 edi
  00059	5e		 pop	 esi
  0005a	5b		 pop	 ebx
  0005b	81 c4 cc 00 00
	00		 add	 esp, 204		; 000000ccH
  00061	3b ec		 cmp	 ebp, esp
  00063	e8 00 00 00 00	 call	 __RTC_CheckEsp
  00068	8b e5		 mov	 esp, ebp
  0006a	5d		 pop	 ebp
  0006b	c3		 ret	 0
??1CContact@@UAE@XZ ENDP				; CContact::~CContact
_TEXT	ENDS
; Function compile flags: /Odtp /RTCsu /ZI
; File s:\chris\onedrive - uat\c++ programming ii\pete_final\pete_final\contact.cpp
;	COMDAT ??0CContact@@QAE@XZ
_TEXT	SEGMENT
_this$ = -20						; size = 4
__$EHRec$ = -12						; size = 12
??0CContact@@QAE@XZ PROC				; CContact::CContact, COMDAT
; _this$ = ecx

; 6    : {

  00000	55		 push	 ebp
  00001	8b ec		 mov	 ebp, esp
  00003	6a ff		 push	 -1
  00005	68 00 00 00 00	 push	 __ehhandler$??0CContact@@QAE@XZ
  0000a	64 a1 00 00 00
	00		 mov	 eax, DWORD PTR fs:0
  00010	50		 push	 eax
  00011	81 ec cc 00 00
	00		 sub	 esp, 204		; 000000ccH
  00017	53		 push	 ebx
  00018	56		 push	 esi
  00019	57		 push	 edi
  0001a	51		 push	 ecx
  0001b	8d bd 28 ff ff
	ff		 lea	 edi, DWORD PTR [ebp-216]
  00021	b9 33 00 00 00	 mov	 ecx, 51			; 00000033H
  00026	b8 cc cc cc cc	 mov	 eax, -858993460		; ccccccccH
  0002b	f3 ab		 rep stosd
  0002d	59		 pop	 ecx
  0002e	a1 00 00 00 00	 mov	 eax, DWORD PTR ___security_cookie
  00033	33 c5		 xor	 eax, ebp
  00035	50		 push	 eax
  00036	8d 45 f4	 lea	 eax, DWORD PTR __$EHRec$[ebp]
  00039	64 a3 00 00 00
	00		 mov	 DWORD PTR fs:0, eax
  0003f	89 4d ec	 mov	 DWORD PTR _this$[ebp], ecx
  00042	8b 45 ec	 mov	 eax, DWORD PTR _this$[ebp]
  00045	c7 00 00 00 00
	00		 mov	 DWORD PTR [eax], OFFSET ??_7CContact@@6B@
  0004b	8b 4d ec	 mov	 ecx, DWORD PTR _this$[ebp]
  0004e	83 c1 04	 add	 ecx, 4
  00051	e8 00 00 00 00	 call	 ??0CCustomMenu@@QAE@XZ	; CCustomMenu::CCustomMenu
  00056	c7 45 fc 00 00
	00 00		 mov	 DWORD PTR __$EHRec$[ebp+8], 0
  0005d	8b 4d ec	 mov	 ecx, DWORD PTR _this$[ebp]
  00060	83 c1 14	 add	 ecx, 20			; 00000014H
  00063	e8 00 00 00 00	 call	 ??0CCustomMenu@@QAE@XZ	; CCustomMenu::CCustomMenu
  00068	c6 45 fc 01	 mov	 BYTE PTR __$EHRec$[ebp+8], 1
  0006c	8b 4d ec	 mov	 ecx, DWORD PTR _this$[ebp]
  0006f	83 c1 24	 add	 ecx, 36			; 00000024H
  00072	e8 00 00 00 00	 call	 ??0CCustomMenu@@QAE@XZ	; CCustomMenu::CCustomMenu
  00077	c6 45 fc 02	 mov	 BYTE PTR __$EHRec$[ebp+8], 2
  0007b	8b 4d ec	 mov	 ecx, DWORD PTR _this$[ebp]
  0007e	83 c1 34	 add	 ecx, 52			; 00000034H
  00081	e8 00 00 00 00	 call	 ??0CCustomMenu@@QAE@XZ	; CCustomMenu::CCustomMenu

; 7    : }

  00086	c7 45 fc ff ff
	ff ff		 mov	 DWORD PTR __$EHRec$[ebp+8], -1
  0008d	8b 45 ec	 mov	 eax, DWORD PTR _this$[ebp]
  00090	8b 4d f4	 mov	 ecx, DWORD PTR __$EHRec$[ebp]
  00093	64 89 0d 00 00
	00 00		 mov	 DWORD PTR fs:0, ecx
  0009a	59		 pop	 ecx
  0009b	5f		 pop	 edi
  0009c	5e		 pop	 esi
  0009d	5b		 pop	 ebx
  0009e	81 c4 d8 00 00
	00		 add	 esp, 216		; 000000d8H
  000a4	3b ec		 cmp	 ebp, esp
  000a6	e8 00 00 00 00	 call	 __RTC_CheckEsp
  000ab	8b e5		 mov	 esp, ebp
  000ad	5d		 pop	 ebp
  000ae	c3		 ret	 0
_TEXT	ENDS
;	COMDAT text$x
text$x	SEGMENT
__unwindfunclet$??0CContact@@QAE@XZ$0:
  00000	8b 4d ec	 mov	 ecx, DWORD PTR _this$[ebp]
  00003	83 c1 04	 add	 ecx, 4
  00006	e9 00 00 00 00	 jmp	 ??1CCustomMenu@@QAE@XZ	; CCustomMenu::~CCustomMenu
__unwindfunclet$??0CContact@@QAE@XZ$1:
  0000b	8b 4d ec	 mov	 ecx, DWORD PTR _this$[ebp]
  0000e	83 c1 14	 add	 ecx, 20			; 00000014H
  00011	e9 00 00 00 00	 jmp	 ??1CCustomMenu@@QAE@XZ	; CCustomMenu::~CCustomMenu
__unwindfunclet$??0CContact@@QAE@XZ$2:
  00016	8b 4d ec	 mov	 ecx, DWORD PTR _this$[ebp]
  00019	83 c1 24	 add	 ecx, 36			; 00000024H
  0001c	e9 00 00 00 00	 jmp	 ??1CCustomMenu@@QAE@XZ	; CCustomMenu::~CCustomMenu
__ehhandler$??0CContact@@QAE@XZ:
  00021	8b 54 24 08	 mov	 edx, DWORD PTR [esp+8]
  00025	8d 42 0c	 lea	 eax, DWORD PTR [edx+12]
  00028	8b 8a 24 ff ff
	ff		 mov	 ecx, DWORD PTR [edx-220]
  0002e	33 c8		 xor	 ecx, eax
  00030	e8 00 00 00 00	 call	 @__security_check_cookie@4
  00035	b8 00 00 00 00	 mov	 eax, OFFSET __ehfuncinfo$??0CContact@@QAE@XZ
  0003a	e9 00 00 00 00	 jmp	 ___CxxFrameHandler3
text$x	ENDS
??0CContact@@QAE@XZ ENDP				; CContact::CContact
; Function compile flags: /Odtp /RTCsu /ZI
; File s:\chris\onedrive - uat\c++ programming ii\pete_final\pete_final\contact.cpp
;	COMDAT ?__empty_global_delete@@YAXPAXI@Z
_TEXT	SEGMENT
___formal$ = 8						; size = 4
___formal$ = 12						; size = 4
?__empty_global_delete@@YAXPAXI@Z PROC			; __empty_global_delete, COMDAT

  00000	55		 push	 ebp
  00001	8b ec		 mov	 ebp, esp
  00003	81 ec c0 00 00
	00		 sub	 esp, 192		; 000000c0H
  00009	53		 push	 ebx
  0000a	56		 push	 esi
  0000b	57		 push	 edi
  0000c	8d bd 40 ff ff
	ff		 lea	 edi, DWORD PTR [ebp-192]
  00012	b9 30 00 00 00	 mov	 ecx, 48			; 00000030H
  00017	b8 cc cc cc cc	 mov	 eax, -858993460		; ccccccccH
  0001c	f3 ab		 rep stosd
  0001e	5f		 pop	 edi
  0001f	5e		 pop	 esi
  00020	5b		 pop	 ebx
  00021	8b e5		 mov	 esp, ebp
  00023	5d		 pop	 ebp
  00024	c3		 ret	 0
?__empty_global_delete@@YAXPAXI@Z ENDP			; __empty_global_delete
_TEXT	ENDS
; Function compile flags: /Odtp /RTCsu /ZI
; File s:\chris\onedrive - uat\c++ programming ii\pete_final\pete_final\contact.cpp
;	COMDAT ?__empty_global_delete@@YAXPAX@Z
_TEXT	SEGMENT
___formal$ = 8						; size = 4
?__empty_global_delete@@YAXPAX@Z PROC			; __empty_global_delete, COMDAT

  00000	55		 push	 ebp
  00001	8b ec		 mov	 ebp, esp
  00003	81 ec c0 00 00
	00		 sub	 esp, 192		; 000000c0H
  00009	53		 push	 ebx
  0000a	56		 push	 esi
  0000b	57		 push	 edi
  0000c	8d bd 40 ff ff
	ff		 lea	 edi, DWORD PTR [ebp-192]
  00012	b9 30 00 00 00	 mov	 ecx, 48			; 00000030H
  00017	b8 cc cc cc cc	 mov	 eax, -858993460		; ccccccccH
  0001c	f3 ab		 rep stosd
  0001e	5f		 pop	 edi
  0001f	5e		 pop	 esi
  00020	5b		 pop	 ebx
  00021	8b e5		 mov	 esp, ebp
  00023	5d		 pop	 ebp
  00024	c3		 ret	 0
?__empty_global_delete@@YAXPAX@Z ENDP			; __empty_global_delete
_TEXT	ENDS
END
