; Listing generated by Microsoft (R) Optimizing Compiler Version 19.00.24215.1 

	TITLE	S:\Chris\OneDrive - UAT\C++ Programming II\pete_final\pete_final\CustomMenu.cpp
	.686P
	.XMM
	include listing.inc
	.model	flat

INCLUDELIB MSVCRTD
INCLUDELIB OLDNAMES

PUBLIC	?__empty_global_delete@@YAXPAX@Z		; __empty_global_delete
PUBLIC	?__empty_global_delete@@YAXPAXI@Z		; __empty_global_delete
PUBLIC	??2@YAPAXIPAX@Z					; operator new
PUBLIC	??3@YAXPAX0@Z					; operator delete
PUBLIC	?length@?$char_traits@D@std@@SAIPBD@Z		; std::char_traits<char>::length
PUBLIC	?copy@?$char_traits@D@std@@SAPADPADPBDI@Z	; std::char_traits<char>::copy
PUBLIC	?move@?$char_traits@D@std@@SAPADPADPBDI@Z	; std::char_traits<char>::move
PUBLIC	?assign@?$char_traits@D@std@@SAXAADABD@Z	; std::char_traits<char>::assign
PUBLIC	?eq_int_type@?$char_traits@D@std@@SA_NABH0@Z	; std::char_traits<char>::eq_int_type
PUBLIC	?eof@?$char_traits@D@std@@SAHXZ			; std::char_traits<char>::eof
PUBLIC	??0_Container_proxy@std@@QAE@XZ			; std::_Container_proxy::_Container_proxy
PUBLIC	??0_Container_base12@std@@QAE@XZ		; std::_Container_base12::_Container_base12
PUBLIC	??1_Container_base12@std@@QAE@XZ		; std::_Container_base12::~_Container_base12
PUBLIC	?_Getpfirst@_Container_base12@std@@QBEPAPAU_Iterator_base12@2@XZ ; std::_Container_base12::_Getpfirst
PUBLIC	?_Orphan_all@_Container_base12@std@@QAEXXZ	; std::_Container_base12::_Orphan_all
PUBLIC	??0_Iterator_base12@std@@QAE@XZ			; std::_Iterator_base12::_Iterator_base12
PUBLIC	??0_Iterator_base12@std@@QAE@ABU01@@Z		; std::_Iterator_base12::_Iterator_base12
PUBLIC	??4_Iterator_base12@std@@QAEAAU01@ABU01@@Z	; std::_Iterator_base12::operator=
PUBLIC	??1_Iterator_base12@std@@QAE@XZ			; std::_Iterator_base12::~_Iterator_base12
PUBLIC	?_Adopt@_Iterator_base12@std@@QAEXPBU_Container_base12@2@@Z ; std::_Iterator_base12::_Adopt
PUBLIC	?_Clrcont@_Iterator_base12@std@@QAEXXZ		; std::_Iterator_base12::_Clrcont
PUBLIC	?_Getcont@_Iterator_base12@std@@QBEPBU_Container_base12@2@XZ ; std::_Iterator_base12::_Getcont
PUBLIC	?_Getpnext@_Iterator_base12@std@@QAEPAPAU12@XZ	; std::_Iterator_base12::_Getpnext
PUBLIC	?_Orphan_me@_Iterator_base12@std@@QAEXXZ	; std::_Iterator_base12::_Orphan_me
PUBLIC	?_Allocate@std@@YAPAXII_N@Z			; std::_Allocate
PUBLIC	?_Deallocate@std@@YAXPAXII@Z			; std::_Deallocate
PUBLIC	??0?$allocator@D@std@@QAE@XZ			; std::allocator<char>::allocator<char>
PUBLIC	??0?$allocator@D@std@@QAE@ABV01@@Z		; std::allocator<char>::allocator<char>
PUBLIC	?deallocate@?$allocator@D@std@@QAEXPADI@Z	; std::allocator<char>::deallocate
PUBLIC	?allocate@?$allocator@D@std@@QAEPADI@Z		; std::allocator<char>::allocate
PUBLIC	?max_size@?$allocator@D@std@@QBEIXZ		; std::allocator<char>::max_size
PUBLIC	?max_size@?$allocator_traits@V?$allocator@D@std@@@std@@SAIABV?$allocator@D@2@@Z ; std::allocator_traits<std::allocator<char> >::max_size
PUBLIC	?select_on_container_copy_construction@?$allocator_traits@V?$allocator@D@std@@@std@@SA?AV?$allocator@D@2@ABV32@@Z ; std::allocator_traits<std::allocator<char> >::select_on_container_copy_construction
PUBLIC	?select_on_container_copy_construction@?$_Wrap_alloc@V?$allocator@D@std@@@std@@QBE?AU12@U_Nil@2@@Z ; std::_Wrap_alloc<std::allocator<char> >::select_on_container_copy_construction
PUBLIC	?address@?$_Wrap_alloc@V?$allocator@D@std@@@std@@QBEPADAAD@Z ; std::_Wrap_alloc<std::allocator<char> >::address
PUBLIC	??0?$_Wrap_alloc@V?$allocator@D@std@@@std@@QAE@XZ ; std::_Wrap_alloc<std::allocator<char> >::_Wrap_alloc<std::allocator<char> >
PUBLIC	??0?$_Wrap_alloc@V?$allocator@D@std@@@std@@QAE@$$QAU01@@Z ; std::_Wrap_alloc<std::allocator<char> >::_Wrap_alloc<std::allocator<char> >
PUBLIC	??4?$_Wrap_alloc@V?$allocator@D@std@@@std@@QAEAAU01@$$QAU01@@Z ; std::_Wrap_alloc<std::allocator<char> >::operator=
PUBLIC	?allocate@?$_Wrap_alloc@V?$allocator@D@std@@@std@@QAEPADI@Z ; std::_Wrap_alloc<std::allocator<char> >::allocate
PUBLIC	?deallocate@?$_Wrap_alloc@V?$allocator@D@std@@@std@@QAEXPADI@Z ; std::_Wrap_alloc<std::allocator<char> >::deallocate
PUBLIC	?max_size@?$_Wrap_alloc@V?$allocator@D@std@@@std@@QBEIU_Nil@2@@Z ; std::_Wrap_alloc<std::allocator<char> >::max_size
PUBLIC	??0?$_String_val@U?$_Simple_types@D@std@@@std@@QAE@XZ ; std::_String_val<std::_Simple_types<char> >::_String_val<std::_Simple_types<char> >
PUBLIC	?_Myptr@?$_String_val@U?$_Simple_types@D@std@@@std@@QAEPADXZ ; std::_String_val<std::_Simple_types<char> >::_Myptr
PUBLIC	?_Myptr@?$_String_val@U?$_Simple_types@D@std@@@std@@QBEPBDXZ ; std::_String_val<std::_Simple_types<char> >::_Myptr
PUBLIC	??0_Bxty@?$_String_val@U?$_Simple_types@D@std@@@std@@QAE@XZ ; std::_String_val<std::_Simple_types<char> >::_Bxty::_Bxty
PUBLIC	??1_Bxty@?$_String_val@U?$_Simple_types@D@std@@@std@@QAE@XZ ; std::_String_val<std::_Simple_types<char> >::_Bxty::~_Bxty
PUBLIC	??1?$_String_val@U?$_Simple_types@D@std@@@std@@QAE@XZ ; std::_String_val<std::_Simple_types<char> >::~_String_val<std::_Simple_types<char> >
PUBLIC	?_Myptr@?$_String_alloc@U?$_String_base_types@DV?$allocator@D@std@@@std@@@std@@QAEPADXZ ; std::_String_alloc<std::_String_base_types<char,std::allocator<char> > >::_Myptr
PUBLIC	?_Myptr@?$_String_alloc@U?$_String_base_types@DV?$allocator@D@std@@@std@@@std@@QBEPBDXZ ; std::_String_alloc<std::_String_base_types<char,std::allocator<char> > >::_Myptr
PUBLIC	??0?$_String_alloc@U?$_String_base_types@DV?$allocator@D@std@@@std@@@std@@QAE@XZ ; std::_String_alloc<std::_String_base_types<char,std::allocator<char> > >::_String_alloc<std::_String_base_types<char,std::allocator<char> > >
PUBLIC	??1?$_String_alloc@U?$_String_base_types@DV?$allocator@D@std@@@std@@@std@@QAE@XZ ; std::_String_alloc<std::_String_base_types<char,std::allocator<char> > >::~_String_alloc<std::_String_base_types<char,std::allocator<char> > >
PUBLIC	?_Copy_alloc@?$_String_alloc@U?$_String_base_types@DV?$allocator@D@std@@@std@@@std@@QAEXABU?$_Wrap_alloc@V?$allocator@D@std@@@2@@Z ; std::_String_alloc<std::_String_base_types<char,std::allocator<char> > >::_Copy_alloc
PUBLIC	?_Move_alloc@?$_String_alloc@U?$_String_base_types@DV?$allocator@D@std@@@std@@@std@@QAEXAAU?$_Wrap_alloc@V?$allocator@D@std@@@2@@Z ; std::_String_alloc<std::_String_base_types<char,std::allocator<char> > >::_Move_alloc
PUBLIC	?_Alloc_proxy@?$_String_alloc@U?$_String_base_types@DV?$allocator@D@std@@@std@@@std@@QAEXXZ ; std::_String_alloc<std::_String_base_types<char,std::allocator<char> > >::_Alloc_proxy
PUBLIC	?_Free_proxy@?$_String_alloc@U?$_String_base_types@DV?$allocator@D@std@@@std@@@std@@QAEXXZ ; std::_String_alloc<std::_String_base_types<char,std::allocator<char> > >::_Free_proxy
PUBLIC	?_Myproxy@?$_String_alloc@U?$_String_base_types@DV?$allocator@D@std@@@std@@@std@@QAEAAPAU_Container_proxy@2@XZ ; std::_String_alloc<std::_String_base_types<char,std::allocator<char> > >::_Myproxy
PUBLIC	?_Orphan_all@?$_String_alloc@U?$_String_base_types@DV?$allocator@D@std@@@std@@@std@@QAEXXZ ; std::_String_alloc<std::_String_base_types<char,std::allocator<char> > >::_Orphan_all
PUBLIC	?_Getal@?$_String_alloc@U?$_String_base_types@DV?$allocator@D@std@@@std@@@std@@QAEAAU?$_Wrap_alloc@V?$allocator@D@std@@@2@XZ ; std::_String_alloc<std::_String_base_types<char,std::allocator<char> > >::_Getal
PUBLIC	?_Getal@?$_String_alloc@U?$_String_base_types@DV?$allocator@D@std@@@std@@@std@@QBEABU?$_Wrap_alloc@V?$allocator@D@std@@@2@XZ ; std::_String_alloc<std::_String_base_types<char,std::allocator<char> > >::_Getal
PUBLIC	?_Get_data@?$_String_alloc@U?$_String_base_types@DV?$allocator@D@std@@@std@@@std@@QAEAAV?$_String_val@U?$_Simple_types@D@std@@@2@XZ ; std::_String_alloc<std::_String_base_types<char,std::allocator<char> > >::_Get_data
PUBLIC	?_Get_data@?$_String_alloc@U?$_String_base_types@DV?$allocator@D@std@@@std@@@std@@QBEABV?$_String_val@U?$_Simple_types@D@std@@@2@XZ ; std::_String_alloc<std::_String_base_types<char,std::allocator<char> > >::_Get_data
PUBLIC	?_Bx@?$_String_alloc@U?$_String_base_types@DV?$allocator@D@std@@@std@@@std@@QAEAAT_Bxty@?$_String_val@U?$_Simple_types@D@std@@@2@XZ ; std::_String_alloc<std::_String_base_types<char,std::allocator<char> > >::_Bx
PUBLIC	?_Mysize@?$_String_alloc@U?$_String_base_types@DV?$allocator@D@std@@@std@@@std@@QAEAAIXZ ; std::_String_alloc<std::_String_base_types<char,std::allocator<char> > >::_Mysize
PUBLIC	?_Mysize@?$_String_alloc@U?$_String_base_types@DV?$allocator@D@std@@@std@@@std@@QBEABIXZ ; std::_String_alloc<std::_String_base_types<char,std::allocator<char> > >::_Mysize
PUBLIC	?_Myres@?$_String_alloc@U?$_String_base_types@DV?$allocator@D@std@@@std@@@std@@QAEAAIXZ ; std::_String_alloc<std::_String_base_types<char,std::allocator<char> > >::_Myres
PUBLIC	?_Get_first@?$_Compressed_pair@U?$_Wrap_alloc@V?$allocator@D@std@@@std@@V?$_String_val@U?$_Simple_types@D@std@@@2@$00@std@@QAEAAU?$_Wrap_alloc@V?$allocator@D@std@@@2@XZ ; std::_Compressed_pair<std::_Wrap_alloc<std::allocator<char> >,std::_String_val<std::_Simple_types<char> >,1>::_Get_first
PUBLIC	?_Get_first@?$_Compressed_pair@U?$_Wrap_alloc@V?$allocator@D@std@@@std@@V?$_String_val@U?$_Simple_types@D@std@@@2@$00@std@@QBEABU?$_Wrap_alloc@V?$allocator@D@std@@@2@XZ ; std::_Compressed_pair<std::_Wrap_alloc<std::allocator<char> >,std::_String_val<std::_Simple_types<char> >,1>::_Get_first
PUBLIC	?_Get_second@?$_Compressed_pair@U?$_Wrap_alloc@V?$allocator@D@std@@@std@@V?$_String_val@U?$_Simple_types@D@std@@@2@$00@std@@QAEAAV?$_String_val@U?$_Simple_types@D@std@@@2@XZ ; std::_Compressed_pair<std::_Wrap_alloc<std::allocator<char> >,std::_String_val<std::_Simple_types<char> >,1>::_Get_second
PUBLIC	?_Get_second@?$_Compressed_pair@U?$_Wrap_alloc@V?$allocator@D@std@@@std@@V?$_String_val@U?$_Simple_types@D@std@@@2@$00@std@@QBEABV?$_String_val@U?$_Simple_types@D@std@@@2@XZ ; std::_Compressed_pair<std::_Wrap_alloc<std::allocator<char> >,std::_String_val<std::_Simple_types<char> >,1>::_Get_second
PUBLIC	??1?$_Compressed_pair@U?$_Wrap_alloc@V?$allocator@D@std@@@std@@V?$_String_val@U?$_Simple_types@D@std@@@2@$00@std@@QAE@XZ ; std::_Compressed_pair<std::_Wrap_alloc<std::allocator<char> >,std::_String_val<std::_Simple_types<char> >,1>::~_Compressed_pair<std::_Wrap_alloc<std::allocator<char> >,std::_String_val<std::_Simple_types<char> >,1>
PUBLIC	??0?$basic_string@DU?$char_traits@D@std@@V?$allocator@D@2@@std@@QAE@ABV01@@Z ; std::basic_string<char,std::char_traits<char>,std::allocator<char> >::basic_string<char,std::char_traits<char>,std::allocator<char> >
PUBLIC	??0?$basic_string@DU?$char_traits@D@std@@V?$allocator@D@2@@std@@QAE@XZ ; std::basic_string<char,std::char_traits<char>,std::allocator<char> >::basic_string<char,std::char_traits<char>,std::allocator<char> >
PUBLIC	??0?$basic_string@DU?$char_traits@D@std@@V?$allocator@D@2@@std@@QAE@$$QAV01@@Z ; std::basic_string<char,std::char_traits<char>,std::allocator<char> >::basic_string<char,std::char_traits<char>,std::allocator<char> >
PUBLIC	??4?$basic_string@DU?$char_traits@D@std@@V?$allocator@D@2@@std@@QAEAAV01@$$QAV01@@Z ; std::basic_string<char,std::char_traits<char>,std::allocator<char> >::operator=
PUBLIC	?_Assign_rv@?$basic_string@DU?$char_traits@D@std@@V?$allocator@D@2@@std@@QAEX$$QAV12@@Z ; std::basic_string<char,std::char_traits<char>,std::allocator<char> >::_Assign_rv
PUBLIC	??1?$basic_string@DU?$char_traits@D@std@@V?$allocator@D@2@@std@@QAE@XZ ; std::basic_string<char,std::char_traits<char>,std::allocator<char> >::~basic_string<char,std::char_traits<char>,std::allocator<char> >
PUBLIC	??4?$basic_string@DU?$char_traits@D@std@@V?$allocator@D@2@@std@@QAEAAV01@ABV01@@Z ; std::basic_string<char,std::char_traits<char>,std::allocator<char> >::operator=
PUBLIC	?assign@?$basic_string@DU?$char_traits@D@std@@V?$allocator@D@2@@std@@QAEAAV12@ABV12@@Z ; std::basic_string<char,std::char_traits<char>,std::allocator<char> >::assign
PUBLIC	?assign@?$basic_string@DU?$char_traits@D@std@@V?$allocator@D@2@@std@@QAEAAV12@ABV12@II@Z ; std::basic_string<char,std::char_traits<char>,std::allocator<char> >::assign
PUBLIC	?erase@?$basic_string@DU?$char_traits@D@std@@V?$allocator@D@2@@std@@QAEAAV12@I@Z ; std::basic_string<char,std::char_traits<char>,std::allocator<char> >::erase
PUBLIC	?erase@?$basic_string@DU?$char_traits@D@std@@V?$allocator@D@2@@std@@QAEAAV12@II@Z ; std::basic_string<char,std::char_traits<char>,std::allocator<char> >::erase
PUBLIC	?replace@?$basic_string@DU?$char_traits@D@std@@V?$allocator@D@2@@std@@QAEAAV12@IIABV12@II@Z ; std::basic_string<char,std::char_traits<char>,std::allocator<char> >::replace
PUBLIC	?replace@?$basic_string@DU?$char_traits@D@std@@V?$allocator@D@2@@std@@QAEAAV12@IIPBDI@Z ; std::basic_string<char,std::char_traits<char>,std::allocator<char> >::replace
PUBLIC	?replace@?$basic_string@DU?$char_traits@D@std@@V?$allocator@D@2@@std@@QAEAAV12@V?$_String_const_iterator@V?$_String_val@U?$_Simple_types@D@std@@@std@@@2@0V?$_String_iterator@V?$_String_val@U?$_Simple_types@D@std@@@std@@@2@1@Z ; std::basic_string<char,std::char_traits<char>,std::allocator<char> >::replace
PUBLIC	?begin@?$basic_string@DU?$char_traits@D@std@@V?$allocator@D@2@@std@@QAE?AV?$_String_iterator@V?$_String_val@U?$_Simple_types@D@std@@@std@@@2@XZ ; std::basic_string<char,std::char_traits<char>,std::allocator<char> >::begin
PUBLIC	?end@?$basic_string@DU?$char_traits@D@std@@V?$allocator@D@2@@std@@QAE?AV?$_String_iterator@V?$_String_val@U?$_Simple_types@D@std@@@std@@@2@XZ ; std::basic_string<char,std::char_traits<char>,std::allocator<char> >::end
PUBLIC	?c_str@?$basic_string@DU?$char_traits@D@std@@V?$allocator@D@2@@std@@QBEPBDXZ ; std::basic_string<char,std::char_traits<char>,std::allocator<char> >::c_str
PUBLIC	?size@?$basic_string@DU?$char_traits@D@std@@V?$allocator@D@2@@std@@QBEIXZ ; std::basic_string<char,std::char_traits<char>,std::allocator<char> >::size
PUBLIC	?max_size@?$basic_string@DU?$char_traits@D@std@@V?$allocator@D@2@@std@@QBEIXZ ; std::basic_string<char,std::char_traits<char>,std::allocator<char> >::max_size
PUBLIC	?_Clamp_suffix_size@?$basic_string@DU?$char_traits@D@std@@V?$allocator@D@2@@std@@QBEIII@Z ; std::basic_string<char,std::char_traits<char>,std::allocator<char> >::_Clamp_suffix_size
PUBLIC	?_Copy@?$basic_string@DU?$char_traits@D@std@@V?$allocator@D@2@@std@@QAEXII@Z ; std::basic_string<char,std::char_traits<char>,std::allocator<char> >::_Copy
PUBLIC	?_Eos@?$basic_string@DU?$char_traits@D@std@@V?$allocator@D@2@@std@@QAEXI@Z ; std::basic_string<char,std::char_traits<char>,std::allocator<char> >::_Eos
PUBLIC	?_Grow@?$basic_string@DU?$char_traits@D@std@@V?$allocator@D@2@@std@@QAE_NI_N@Z ; std::basic_string<char,std::char_traits<char>,std::allocator<char> >::_Grow
PUBLIC	?_Inside@?$basic_string@DU?$char_traits@D@std@@V?$allocator@D@2@@std@@QAE_NPBD@Z ; std::basic_string<char,std::char_traits<char>,std::allocator<char> >::_Inside
PUBLIC	?_Tidy@?$basic_string@DU?$char_traits@D@std@@V?$allocator@D@2@@std@@QAEX_NI@Z ; std::basic_string<char,std::char_traits<char>,std::allocator<char> >::_Tidy
PUBLIC	?_Xlen@?$basic_string@DU?$char_traits@D@std@@V?$allocator@D@2@@std@@QBEXXZ ; std::basic_string<char,std::char_traits<char>,std::allocator<char> >::_Xlen
PUBLIC	?_Check_offset@?$basic_string@DU?$char_traits@D@std@@V?$allocator@D@2@@std@@QBEXI@Z ; std::basic_string<char,std::char_traits<char>,std::allocator<char> >::_Check_offset
PUBLIC	?_Xran@?$basic_string@DU?$char_traits@D@std@@V?$allocator@D@2@@std@@QBEXXZ ; std::basic_string<char,std::char_traits<char>,std::allocator<char> >::_Xran
PUBLIC	??8Option@CCustomMenu@@QBE_NABD@Z		; CCustomMenu::Option::operator==
PUBLIC	??MOption@CCustomMenu@@QBE_NABU01@@Z		; CCustomMenu::Option::operator<
PUBLIC	??0Option@CCustomMenu@@QAE@XZ			; CCustomMenu::Option::Option
PUBLIC	??1Option@CCustomMenu@@QAE@XZ			; CCustomMenu::Option::~Option
PUBLIC	??0Option@CCustomMenu@@QAE@ABU01@@Z		; CCustomMenu::Option::Option
PUBLIC	??0Option@CCustomMenu@@QAE@$$QAU01@@Z		; CCustomMenu::Option::Option
PUBLIC	??4Option@CCustomMenu@@QAEAAU01@$$QAU01@@Z	; CCustomMenu::Option::operator=
PUBLIC	??_GOption@CCustomMenu@@QAEPAXI@Z		; CCustomMenu::Option::`scalar deleting destructor'
PUBLIC	??0?$allocator@UOption@CCustomMenu@@@std@@QAE@XZ ; std::allocator<CCustomMenu::Option>::allocator<CCustomMenu::Option>
PUBLIC	?deallocate@?$allocator@UOption@CCustomMenu@@@std@@QAEXPAUOption@CCustomMenu@@I@Z ; std::allocator<CCustomMenu::Option>::deallocate
PUBLIC	?allocate@?$allocator@UOption@CCustomMenu@@@std@@QAEPAUOption@CCustomMenu@@I@Z ; std::allocator<CCustomMenu::Option>::allocate
PUBLIC	?max_size@?$allocator@UOption@CCustomMenu@@@std@@QBEIXZ ; std::allocator<CCustomMenu::Option>::max_size
PUBLIC	?max_size@?$allocator_traits@V?$allocator@UOption@CCustomMenu@@@std@@@std@@SAIABV?$allocator@UOption@CCustomMenu@@@2@@Z ; std::allocator_traits<std::allocator<CCustomMenu::Option> >::max_size
PUBLIC	??0?$_Wrap_alloc@V?$allocator@UOption@CCustomMenu@@@std@@@std@@QAE@XZ ; std::_Wrap_alloc<std::allocator<CCustomMenu::Option> >::_Wrap_alloc<std::allocator<CCustomMenu::Option> >
PUBLIC	?allocate@?$_Wrap_alloc@V?$allocator@UOption@CCustomMenu@@@std@@@std@@QAEPAUOption@CCustomMenu@@I@Z ; std::_Wrap_alloc<std::allocator<CCustomMenu::Option> >::allocate
PUBLIC	?deallocate@?$_Wrap_alloc@V?$allocator@UOption@CCustomMenu@@@std@@@std@@QAEXPAUOption@CCustomMenu@@I@Z ; std::_Wrap_alloc<std::allocator<CCustomMenu::Option> >::deallocate
PUBLIC	?max_size@?$_Wrap_alloc@V?$allocator@UOption@CCustomMenu@@@std@@@std@@QBEIU_Nil@2@@Z ; std::_Wrap_alloc<std::allocator<CCustomMenu::Option> >::max_size
PUBLIC	??0?$_Vector_alloc@U?$_Vec_base_types@UOption@CCustomMenu@@V?$allocator@UOption@CCustomMenu@@@std@@@std@@@std@@QAE@XZ ; std::_Vector_alloc<std::_Vec_base_types<CCustomMenu::Option,std::allocator<CCustomMenu::Option> > >::_Vector_alloc<std::_Vec_base_types<CCustomMenu::Option,std::allocator<CCustomMenu::Option> > >
PUBLIC	??1?$_Vector_alloc@U?$_Vec_base_types@UOption@CCustomMenu@@V?$allocator@UOption@CCustomMenu@@@std@@@std@@@std@@QAE@XZ ; std::_Vector_alloc<std::_Vec_base_types<CCustomMenu::Option,std::allocator<CCustomMenu::Option> > >::~_Vector_alloc<std::_Vec_base_types<CCustomMenu::Option,std::allocator<CCustomMenu::Option> > >
PUBLIC	?_Alloc_proxy@?$_Vector_alloc@U?$_Vec_base_types@UOption@CCustomMenu@@V?$allocator@UOption@CCustomMenu@@@std@@@std@@@std@@QAEXXZ ; std::_Vector_alloc<std::_Vec_base_types<CCustomMenu::Option,std::allocator<CCustomMenu::Option> > >::_Alloc_proxy
PUBLIC	?_Free_proxy@?$_Vector_alloc@U?$_Vec_base_types@UOption@CCustomMenu@@V?$allocator@UOption@CCustomMenu@@@std@@@std@@@std@@QAEXXZ ; std::_Vector_alloc<std::_Vec_base_types<CCustomMenu::Option,std::allocator<CCustomMenu::Option> > >::_Free_proxy
PUBLIC	?_Getpfirst@?$_Vector_alloc@U?$_Vec_base_types@UOption@CCustomMenu@@V?$allocator@UOption@CCustomMenu@@@std@@@std@@@std@@QBEPAPAU_Iterator_base12@2@XZ ; std::_Vector_alloc<std::_Vec_base_types<CCustomMenu::Option,std::allocator<CCustomMenu::Option> > >::_Getpfirst
PUBLIC	?_Myproxy@?$_Vector_alloc@U?$_Vec_base_types@UOption@CCustomMenu@@V?$allocator@UOption@CCustomMenu@@@std@@@std@@@std@@QAEAAPAU_Container_proxy@2@XZ ; std::_Vector_alloc<std::_Vec_base_types<CCustomMenu::Option,std::allocator<CCustomMenu::Option> > >::_Myproxy
PUBLIC	?_Orphan_all@?$_Vector_alloc@U?$_Vec_base_types@UOption@CCustomMenu@@V?$allocator@UOption@CCustomMenu@@@std@@@std@@@std@@QAEXXZ ; std::_Vector_alloc<std::_Vec_base_types<CCustomMenu::Option,std::allocator<CCustomMenu::Option> > >::_Orphan_all
PUBLIC	?_Getal@?$_Vector_alloc@U?$_Vec_base_types@UOption@CCustomMenu@@V?$allocator@UOption@CCustomMenu@@@std@@@std@@@std@@QAEAAU?$_Wrap_alloc@V?$allocator@UOption@CCustomMenu@@@std@@@2@XZ ; std::_Vector_alloc<std::_Vec_base_types<CCustomMenu::Option,std::allocator<CCustomMenu::Option> > >::_Getal
PUBLIC	?_Getal@?$_Vector_alloc@U?$_Vec_base_types@UOption@CCustomMenu@@V?$allocator@UOption@CCustomMenu@@@std@@@std@@@std@@QBEABU?$_Wrap_alloc@V?$allocator@UOption@CCustomMenu@@@std@@@2@XZ ; std::_Vector_alloc<std::_Vec_base_types<CCustomMenu::Option,std::allocator<CCustomMenu::Option> > >::_Getal
PUBLIC	?_Get_data@?$_Vector_alloc@U?$_Vec_base_types@UOption@CCustomMenu@@V?$allocator@UOption@CCustomMenu@@@std@@@std@@@std@@QAEAAV?$_Vector_val@U?$_Simple_types@UOption@CCustomMenu@@@std@@@2@XZ ; std::_Vector_alloc<std::_Vec_base_types<CCustomMenu::Option,std::allocator<CCustomMenu::Option> > >::_Get_data
PUBLIC	?_Get_data@?$_Vector_alloc@U?$_Vec_base_types@UOption@CCustomMenu@@V?$allocator@UOption@CCustomMenu@@@std@@@std@@@std@@QBEABV?$_Vector_val@U?$_Simple_types@UOption@CCustomMenu@@@std@@@2@XZ ; std::_Vector_alloc<std::_Vec_base_types<CCustomMenu::Option,std::allocator<CCustomMenu::Option> > >::_Get_data
PUBLIC	?_Myfirst@?$_Vector_alloc@U?$_Vec_base_types@UOption@CCustomMenu@@V?$allocator@UOption@CCustomMenu@@@std@@@std@@@std@@QAEAAPAUOption@CCustomMenu@@XZ ; std::_Vector_alloc<std::_Vec_base_types<CCustomMenu::Option,std::allocator<CCustomMenu::Option> > >::_Myfirst
PUBLIC	?_Myfirst@?$_Vector_alloc@U?$_Vec_base_types@UOption@CCustomMenu@@V?$allocator@UOption@CCustomMenu@@@std@@@std@@@std@@QBEABQAUOption@CCustomMenu@@XZ ; std::_Vector_alloc<std::_Vec_base_types<CCustomMenu::Option,std::allocator<CCustomMenu::Option> > >::_Myfirst
PUBLIC	?_Mylast@?$_Vector_alloc@U?$_Vec_base_types@UOption@CCustomMenu@@V?$allocator@UOption@CCustomMenu@@@std@@@std@@@std@@QAEAAPAUOption@CCustomMenu@@XZ ; std::_Vector_alloc<std::_Vec_base_types<CCustomMenu::Option,std::allocator<CCustomMenu::Option> > >::_Mylast
PUBLIC	?_Mylast@?$_Vector_alloc@U?$_Vec_base_types@UOption@CCustomMenu@@V?$allocator@UOption@CCustomMenu@@@std@@@std@@@std@@QBEABQAUOption@CCustomMenu@@XZ ; std::_Vector_alloc<std::_Vec_base_types<CCustomMenu::Option,std::allocator<CCustomMenu::Option> > >::_Mylast
PUBLIC	?_Myend@?$_Vector_alloc@U?$_Vec_base_types@UOption@CCustomMenu@@V?$allocator@UOption@CCustomMenu@@@std@@@std@@@std@@QAEAAPAUOption@CCustomMenu@@XZ ; std::_Vector_alloc<std::_Vec_base_types<CCustomMenu::Option,std::allocator<CCustomMenu::Option> > >::_Myend
PUBLIC	?_Myend@?$_Vector_alloc@U?$_Vec_base_types@UOption@CCustomMenu@@V?$allocator@UOption@CCustomMenu@@@std@@@std@@@std@@QBEABQAUOption@CCustomMenu@@XZ ; std::_Vector_alloc<std::_Vec_base_types<CCustomMenu::Option,std::allocator<CCustomMenu::Option> > >::_Myend
PUBLIC	??0?$_Vector_val@U?$_Simple_types@UOption@CCustomMenu@@@std@@@std@@QAE@XZ ; std::_Vector_val<std::_Simple_types<CCustomMenu::Option> >::_Vector_val<std::_Simple_types<CCustomMenu::Option> >
PUBLIC	??1?$_Vector_val@U?$_Simple_types@UOption@CCustomMenu@@@std@@@std@@QAE@XZ ; std::_Vector_val<std::_Simple_types<CCustomMenu::Option> >::~_Vector_val<std::_Simple_types<CCustomMenu::Option> >
PUBLIC	?_Get_first@?$_Compressed_pair@U?$_Wrap_alloc@V?$allocator@UOption@CCustomMenu@@@std@@@std@@V?$_Vector_val@U?$_Simple_types@UOption@CCustomMenu@@@std@@@2@$00@std@@QAEAAU?$_Wrap_alloc@V?$allocator@UOption@CCustomMenu@@@std@@@2@XZ ; std::_Compressed_pair<std::_Wrap_alloc<std::allocator<CCustomMenu::Option> >,std::_Vector_val<std::_Simple_types<CCustomMenu::Option> >,1>::_Get_first
PUBLIC	?_Get_first@?$_Compressed_pair@U?$_Wrap_alloc@V?$allocator@UOption@CCustomMenu@@@std@@@std@@V?$_Vector_val@U?$_Simple_types@UOption@CCustomMenu@@@std@@@2@$00@std@@QBEABU?$_Wrap_alloc@V?$allocator@UOption@CCustomMenu@@@std@@@2@XZ ; std::_Compressed_pair<std::_Wrap_alloc<std::allocator<CCustomMenu::Option> >,std::_Vector_val<std::_Simple_types<CCustomMenu::Option> >,1>::_Get_first
PUBLIC	?_Get_second@?$_Compressed_pair@U?$_Wrap_alloc@V?$allocator@UOption@CCustomMenu@@@std@@@std@@V?$_Vector_val@U?$_Simple_types@UOption@CCustomMenu@@@std@@@2@$00@std@@QAEAAV?$_Vector_val@U?$_Simple_types@UOption@CCustomMenu@@@std@@@2@XZ ; std::_Compressed_pair<std::_Wrap_alloc<std::allocator<CCustomMenu::Option> >,std::_Vector_val<std::_Simple_types<CCustomMenu::Option> >,1>::_Get_second
PUBLIC	?_Get_second@?$_Compressed_pair@U?$_Wrap_alloc@V?$allocator@UOption@CCustomMenu@@@std@@@std@@V?$_Vector_val@U?$_Simple_types@UOption@CCustomMenu@@@std@@@2@$00@std@@QBEABV?$_Vector_val@U?$_Simple_types@UOption@CCustomMenu@@@std@@@2@XZ ; std::_Compressed_pair<std::_Wrap_alloc<std::allocator<CCustomMenu::Option> >,std::_Vector_val<std::_Simple_types<CCustomMenu::Option> >,1>::_Get_second
PUBLIC	??1?$_Compressed_pair@U?$_Wrap_alloc@V?$allocator@UOption@CCustomMenu@@@std@@@std@@V?$_Vector_val@U?$_Simple_types@UOption@CCustomMenu@@@std@@@2@$00@std@@QAE@XZ ; std::_Compressed_pair<std::_Wrap_alloc<std::allocator<CCustomMenu::Option> >,std::_Vector_val<std::_Simple_types<CCustomMenu::Option> >,1>::~_Compressed_pair<std::_Wrap_alloc<std::allocator<CCustomMenu::Option> >,std::_Vector_val<std::_Simple_types<CCustomMenu::Option> >,1>
PUBLIC	??0?$vector@UOption@CCustomMenu@@V?$allocator@UOption@CCustomMenu@@@std@@@std@@QAE@XZ ; std::vector<CCustomMenu::Option,std::allocator<CCustomMenu::Option> >::vector<CCustomMenu::Option,std::allocator<CCustomMenu::Option> >
PUBLIC	??1?$vector@UOption@CCustomMenu@@V?$allocator@UOption@CCustomMenu@@@std@@@std@@QAE@XZ ; std::vector<CCustomMenu::Option,std::allocator<CCustomMenu::Option> >::~vector<CCustomMenu::Option,std::allocator<CCustomMenu::Option> >
PUBLIC	?capacity@?$vector@UOption@CCustomMenu@@V?$allocator@UOption@CCustomMenu@@@std@@@std@@QBEIXZ ; std::vector<CCustomMenu::Option,std::allocator<CCustomMenu::Option> >::capacity
PUBLIC	?_Unused_capacity@?$vector@UOption@CCustomMenu@@V?$allocator@UOption@CCustomMenu@@@std@@@std@@QBEIXZ ; std::vector<CCustomMenu::Option,std::allocator<CCustomMenu::Option> >::_Unused_capacity
PUBLIC	?begin@?$vector@UOption@CCustomMenu@@V?$allocator@UOption@CCustomMenu@@@std@@@std@@QAE?AV?$_Vector_iterator@V?$_Vector_val@U?$_Simple_types@UOption@CCustomMenu@@@std@@@std@@@2@XZ ; std::vector<CCustomMenu::Option,std::allocator<CCustomMenu::Option> >::begin
PUBLIC	?end@?$vector@UOption@CCustomMenu@@V?$allocator@UOption@CCustomMenu@@@std@@@std@@QAE?AV?$_Vector_iterator@V?$_Vector_val@U?$_Simple_types@UOption@CCustomMenu@@@std@@@std@@@2@XZ ; std::vector<CCustomMenu::Option,std::allocator<CCustomMenu::Option> >::end
PUBLIC	?size@?$vector@UOption@CCustomMenu@@V?$allocator@UOption@CCustomMenu@@@std@@@std@@QBEIXZ ; std::vector<CCustomMenu::Option,std::allocator<CCustomMenu::Option> >::size
PUBLIC	?max_size@?$vector@UOption@CCustomMenu@@V?$allocator@UOption@CCustomMenu@@@std@@@std@@QBEIXZ ; std::vector<CCustomMenu::Option,std::allocator<CCustomMenu::Option> >::max_size
PUBLIC	?push_back@?$vector@UOption@CCustomMenu@@V?$allocator@UOption@CCustomMenu@@@std@@@std@@QAEXABUOption@CCustomMenu@@@Z ; std::vector<CCustomMenu::Option,std::allocator<CCustomMenu::Option> >::push_back
PUBLIC	?_Destroy@?$vector@UOption@CCustomMenu@@V?$allocator@UOption@CCustomMenu@@@std@@@std@@IAEXPAUOption@CCustomMenu@@0@Z ; std::vector<CCustomMenu::Option,std::allocator<CCustomMenu::Option> >::_Destroy
PUBLIC	?_Grow_to@?$vector@UOption@CCustomMenu@@V?$allocator@UOption@CCustomMenu@@@std@@@std@@IBEII@Z ; std::vector<CCustomMenu::Option,std::allocator<CCustomMenu::Option> >::_Grow_to
PUBLIC	?_Inside@?$vector@UOption@CCustomMenu@@V?$allocator@UOption@CCustomMenu@@@std@@@std@@IBE_NPBUOption@CCustomMenu@@@Z ; std::vector<CCustomMenu::Option,std::allocator<CCustomMenu::Option> >::_Inside
PUBLIC	?_Reallocate@?$vector@UOption@CCustomMenu@@V?$allocator@UOption@CCustomMenu@@@std@@@std@@IAEXI@Z ; std::vector<CCustomMenu::Option,std::allocator<CCustomMenu::Option> >::_Reallocate
PUBLIC	?_Reserve@?$vector@UOption@CCustomMenu@@V?$allocator@UOption@CCustomMenu@@@std@@@std@@IAEXI@Z ; std::vector<CCustomMenu::Option,std::allocator<CCustomMenu::Option> >::_Reserve
PUBLIC	?_Tidy@?$vector@UOption@CCustomMenu@@V?$allocator@UOption@CCustomMenu@@@std@@@std@@IAEXXZ ; std::vector<CCustomMenu::Option,std::allocator<CCustomMenu::Option> >::_Tidy
PUBLIC	?_Xlen@?$vector@UOption@CCustomMenu@@V?$allocator@UOption@CCustomMenu@@@std@@@std@@IBEXXZ ; std::vector<CCustomMenu::Option,std::allocator<CCustomMenu::Option> >::_Xlen
PUBLIC	?_Orphan_range@?$vector@UOption@CCustomMenu@@V?$allocator@UOption@CCustomMenu@@@std@@@std@@IBEXPAUOption@CCustomMenu@@0@Z ; std::vector<CCustomMenu::Option,std::allocator<CCustomMenu::Option> >::_Orphan_range
PUBLIC	??0CCustomMenu@@QAE@XZ				; CCustomMenu::CCustomMenu
PUBLIC	??1CCustomMenu@@QAE@XZ				; CCustomMenu::~CCustomMenu
PUBLIC	?addMenuOption@CCustomMenu@@QAE_NDV?$basic_string@DU?$char_traits@D@std@@V?$allocator@D@2@@std@@@Z ; CCustomMenu::addMenuOption
PUBLIC	?displayMenuOptions@CCustomMenu@@QAEXXZ		; CCustomMenu::displayMenuOptions
PUBLIC	?contains@CCustomMenu@@QAE_ND@Z			; CCustomMenu::contains
PUBLIC	??0?$_Iterator012@Urandom_access_iterator_tag@std@@UOption@CCustomMenu@@HPBU34@ABU34@U_Iterator_base12@2@@std@@QAE@XZ ; std::_Iterator012<std::random_access_iterator_tag,CCustomMenu::Option,int,CCustomMenu::Option const *,CCustomMenu::Option const &,std::_Iterator_base12>::_Iterator012<std::random_access_iterator_tag,CCustomMenu::Option,int,CCustomMenu::Option const *,CCustomMenu::Option const &,std::_Iterator_base12>
PUBLIC	??1?$_Iterator012@Urandom_access_iterator_tag@std@@UOption@CCustomMenu@@HPBU34@ABU34@U_Iterator_base12@2@@std@@QAE@XZ ; std::_Iterator012<std::random_access_iterator_tag,CCustomMenu::Option,int,CCustomMenu::Option const *,CCustomMenu::Option const &,std::_Iterator_base12>::~_Iterator012<std::random_access_iterator_tag,CCustomMenu::Option,int,CCustomMenu::Option const *,CCustomMenu::Option const &,std::_Iterator_base12>
PUBLIC	??0?$_Iterator012@Urandom_access_iterator_tag@std@@UOption@CCustomMenu@@HPBU34@ABU34@U_Iterator_base12@2@@std@@QAE@ABU01@@Z ; std::_Iterator012<std::random_access_iterator_tag,CCustomMenu::Option,int,CCustomMenu::Option const *,CCustomMenu::Option const &,std::_Iterator_base12>::_Iterator012<std::random_access_iterator_tag,CCustomMenu::Option,int,CCustomMenu::Option const *,CCustomMenu::Option const &,std::_Iterator_base12>
PUBLIC	??0?$_Iterator012@Urandom_access_iterator_tag@std@@UOption@CCustomMenu@@HPBU34@ABU34@U_Iterator_base12@2@@std@@QAE@$$QAU01@@Z ; std::_Iterator012<std::random_access_iterator_tag,CCustomMenu::Option,int,CCustomMenu::Option const *,CCustomMenu::Option const &,std::_Iterator_base12>::_Iterator012<std::random_access_iterator_tag,CCustomMenu::Option,int,CCustomMenu::Option const *,CCustomMenu::Option const &,std::_Iterator_base12>
PUBLIC	??0?$_Vector_const_iterator@V?$_Vector_val@U?$_Simple_types@UOption@CCustomMenu@@@std@@@std@@@std@@QAE@PAUOption@CCustomMenu@@PBU_Container_base12@1@@Z ; std::_Vector_const_iterator<std::_Vector_val<std::_Simple_types<CCustomMenu::Option> > >::_Vector_const_iterator<std::_Vector_val<std::_Simple_types<CCustomMenu::Option> > >
PUBLIC	??D?$_Vector_const_iterator@V?$_Vector_val@U?$_Simple_types@UOption@CCustomMenu@@@std@@@std@@@std@@QBEABUOption@CCustomMenu@@XZ ; std::_Vector_const_iterator<std::_Vector_val<std::_Simple_types<CCustomMenu::Option> > >::operator*
PUBLIC	??C?$_Vector_const_iterator@V?$_Vector_val@U?$_Simple_types@UOption@CCustomMenu@@@std@@@std@@@std@@QBEPBUOption@CCustomMenu@@XZ ; std::_Vector_const_iterator<std::_Vector_val<std::_Simple_types<CCustomMenu::Option> > >::operator->
PUBLIC	??E?$_Vector_const_iterator@V?$_Vector_val@U?$_Simple_types@UOption@CCustomMenu@@@std@@@std@@@std@@QAEAAV01@XZ ; std::_Vector_const_iterator<std::_Vector_val<std::_Simple_types<CCustomMenu::Option> > >::operator++
PUBLIC	??8?$_Vector_const_iterator@V?$_Vector_val@U?$_Simple_types@UOption@CCustomMenu@@@std@@@std@@@std@@QBE_NABV01@@Z ; std::_Vector_const_iterator<std::_Vector_val<std::_Simple_types<CCustomMenu::Option> > >::operator==
PUBLIC	??9?$_Vector_const_iterator@V?$_Vector_val@U?$_Simple_types@UOption@CCustomMenu@@@std@@@std@@@std@@QBE_NABV01@@Z ; std::_Vector_const_iterator<std::_Vector_val<std::_Simple_types<CCustomMenu::Option> > >::operator!=
PUBLIC	??M?$_Vector_const_iterator@V?$_Vector_val@U?$_Simple_types@UOption@CCustomMenu@@@std@@@std@@@std@@QBE_NABV01@@Z ; std::_Vector_const_iterator<std::_Vector_val<std::_Simple_types<CCustomMenu::Option> > >::operator<
PUBLIC	?_Compat@?$_Vector_const_iterator@V?$_Vector_val@U?$_Simple_types@UOption@CCustomMenu@@@std@@@std@@@std@@QBEXABV12@@Z ; std::_Vector_const_iterator<std::_Vector_val<std::_Simple_types<CCustomMenu::Option> > >::_Compat
PUBLIC	??1?$_Vector_const_iterator@V?$_Vector_val@U?$_Simple_types@UOption@CCustomMenu@@@std@@@std@@@std@@QAE@XZ ; std::_Vector_const_iterator<std::_Vector_val<std::_Simple_types<CCustomMenu::Option> > >::~_Vector_const_iterator<std::_Vector_val<std::_Simple_types<CCustomMenu::Option> > >
PUBLIC	??0?$_Vector_const_iterator@V?$_Vector_val@U?$_Simple_types@UOption@CCustomMenu@@@std@@@std@@@std@@QAE@ABV01@@Z ; std::_Vector_const_iterator<std::_Vector_val<std::_Simple_types<CCustomMenu::Option> > >::_Vector_const_iterator<std::_Vector_val<std::_Simple_types<CCustomMenu::Option> > >
PUBLIC	??0?$_Vector_const_iterator@V?$_Vector_val@U?$_Simple_types@UOption@CCustomMenu@@@std@@@std@@@std@@QAE@$$QAV01@@Z ; std::_Vector_const_iterator<std::_Vector_val<std::_Simple_types<CCustomMenu::Option> > >::_Vector_const_iterator<std::_Vector_val<std::_Simple_types<CCustomMenu::Option> > >
PUBLIC	??0?$_Vector_iterator@V?$_Vector_val@U?$_Simple_types@UOption@CCustomMenu@@@std@@@std@@@std@@QAE@PAUOption@CCustomMenu@@PBU_Container_base12@1@@Z ; std::_Vector_iterator<std::_Vector_val<std::_Simple_types<CCustomMenu::Option> > >::_Vector_iterator<std::_Vector_val<std::_Simple_types<CCustomMenu::Option> > >
PUBLIC	?_Rechecked@?$_Vector_iterator@V?$_Vector_val@U?$_Simple_types@UOption@CCustomMenu@@@std@@@std@@@std@@QAEAAV12@PAUOption@CCustomMenu@@@Z ; std::_Vector_iterator<std::_Vector_val<std::_Simple_types<CCustomMenu::Option> > >::_Rechecked
PUBLIC	?_Unchecked@?$_Vector_iterator@V?$_Vector_val@U?$_Simple_types@UOption@CCustomMenu@@@std@@@std@@@std@@QBEPAUOption@CCustomMenu@@XZ ; std::_Vector_iterator<std::_Vector_val<std::_Simple_types<CCustomMenu::Option> > >::_Unchecked
PUBLIC	??1?$_Vector_iterator@V?$_Vector_val@U?$_Simple_types@UOption@CCustomMenu@@@std@@@std@@@std@@QAE@XZ ; std::_Vector_iterator<std::_Vector_val<std::_Simple_types<CCustomMenu::Option> > >::~_Vector_iterator<std::_Vector_val<std::_Simple_types<CCustomMenu::Option> > >
PUBLIC	??0?$_Vector_iterator@V?$_Vector_val@U?$_Simple_types@UOption@CCustomMenu@@@std@@@std@@@std@@QAE@ABV01@@Z ; std::_Vector_iterator<std::_Vector_val<std::_Simple_types<CCustomMenu::Option> > >::_Vector_iterator<std::_Vector_val<std::_Simple_types<CCustomMenu::Option> > >
PUBLIC	??$find@V?$_Vector_iterator@V?$_Vector_val@U?$_Simple_types@UOption@CCustomMenu@@@std@@@std@@@std@@D@std@@YA?AV?$_Vector_iterator@V?$_Vector_val@U?$_Simple_types@UOption@CCustomMenu@@@std@@@std@@@0@V10@0ABD@Z ; std::find<std::_Vector_iterator<std::_Vector_val<std::_Simple_types<CCustomMenu::Option> > >,char>
PUBLIC	??$sort@V?$_Vector_iterator@V?$_Vector_val@U?$_Simple_types@UOption@CCustomMenu@@@std@@@std@@@std@@@std@@YAXV?$_Vector_iterator@V?$_Vector_val@U?$_Simple_types@UOption@CCustomMenu@@@std@@@std@@@0@0@Z ; std::sort<std::_Vector_iterator<std::_Vector_val<std::_Simple_types<CCustomMenu::Option> > > >
PUBLIC	??$?6U?$char_traits@D@std@@@std@@YAAAV?$basic_ostream@DU?$char_traits@D@std@@@0@AAV10@D@Z ; std::operator<<<std::char_traits<char> >
PUBLIC	??$?6U?$char_traits@D@std@@@std@@YAAAV?$basic_ostream@DU?$char_traits@D@std@@@0@AAV10@PBD@Z ; std::operator<<<std::char_traits<char> >
PUBLIC	??$?6DU?$char_traits@D@std@@V?$allocator@D@1@@std@@YAAAV?$basic_ostream@DU?$char_traits@D@std@@@0@AAV10@ABV?$basic_string@DU?$char_traits@D@std@@V?$allocator@D@2@@0@@Z ; std::operator<<<char,std::char_traits<char>,std::allocator<char> >
PUBLIC	??$endl@DU?$char_traits@D@std@@@std@@YAAAV?$basic_ostream@DU?$char_traits@D@std@@@0@AAV10@@Z ; std::endl<char,std::char_traits<char> >
PUBLIC	?pointer_to@?$pointer_traits@PBUOption@CCustomMenu@@@std@@SAPBUOption@CCustomMenu@@ABU34@@Z ; std::pointer_traits<CCustomMenu::Option const *>::pointer_to
PUBLIC	??$addressof@$$CBUOption@CCustomMenu@@@std@@YAPBUOption@CCustomMenu@@ABU12@@Z ; std::addressof<CCustomMenu::Option const >
PUBLIC	??$_Unfancy@UOption@CCustomMenu@@@std@@YAPAUOption@CCustomMenu@@PAU12@@Z ; std::_Unfancy<CCustomMenu::Option>
PUBLIC	??$construct@UOption@CCustomMenu@@AAU12@@?$_Wrap_alloc@V?$allocator@UOption@CCustomMenu@@@std@@@std@@QAEXPAUOption@CCustomMenu@@AAU23@@Z ; std::_Wrap_alloc<std::allocator<CCustomMenu::Option> >::construct<CCustomMenu::Option,CCustomMenu::Option &>
PUBLIC	??$construct@UOption@CCustomMenu@@ABU12@@?$_Wrap_alloc@V?$allocator@UOption@CCustomMenu@@@std@@@std@@QAEXPAUOption@CCustomMenu@@ABU23@@Z ; std::_Wrap_alloc<std::allocator<CCustomMenu::Option> >::construct<CCustomMenu::Option,CCustomMenu::Option const &>
PUBLIC	??0?$_Iterator012@Urandom_access_iterator_tag@std@@DHPBDABDU_Iterator_base12@2@@std@@QAE@XZ ; std::_Iterator012<std::random_access_iterator_tag,char,int,char const *,char const &,std::_Iterator_base12>::_Iterator012<std::random_access_iterator_tag,char,int,char const *,char const &,std::_Iterator_base12>
PUBLIC	??1?$_Iterator012@Urandom_access_iterator_tag@std@@DHPBDABDU_Iterator_base12@2@@std@@QAE@XZ ; std::_Iterator012<std::random_access_iterator_tag,char,int,char const *,char const &,std::_Iterator_base12>::~_Iterator012<std::random_access_iterator_tag,char,int,char const *,char const &,std::_Iterator_base12>
PUBLIC	??0?$_Iterator012@Urandom_access_iterator_tag@std@@DHPBDABDU_Iterator_base12@2@@std@@QAE@ABU01@@Z ; std::_Iterator012<std::random_access_iterator_tag,char,int,char const *,char const &,std::_Iterator_base12>::_Iterator012<std::random_access_iterator_tag,char,int,char const *,char const &,std::_Iterator_base12>
PUBLIC	??0?$_Iterator012@Urandom_access_iterator_tag@std@@DHPBDABDU_Iterator_base12@2@@std@@QAE@$$QAU01@@Z ; std::_Iterator012<std::random_access_iterator_tag,char,int,char const *,char const &,std::_Iterator_base12>::_Iterator012<std::random_access_iterator_tag,char,int,char const *,char const &,std::_Iterator_base12>
PUBLIC	??0?$_String_const_iterator@V?$_String_val@U?$_Simple_types@D@std@@@std@@@std@@QAE@PBDPBU_Container_base12@1@@Z ; std::_String_const_iterator<std::_String_val<std::_Simple_types<char> > >::_String_const_iterator<std::_String_val<std::_Simple_types<char> > >
PUBLIC	??D?$_String_const_iterator@V?$_String_val@U?$_Simple_types@D@std@@@std@@@std@@QBEABDXZ ; std::_String_const_iterator<std::_String_val<std::_Simple_types<char> > >::operator*
PUBLIC	??G?$_String_const_iterator@V?$_String_val@U?$_Simple_types@D@std@@@std@@@std@@QBEHABV01@@Z ; std::_String_const_iterator<std::_String_val<std::_Simple_types<char> > >::operator-
PUBLIC	??8?$_String_const_iterator@V?$_String_val@U?$_Simple_types@D@std@@@std@@@std@@QBE_NABV01@@Z ; std::_String_const_iterator<std::_String_val<std::_Simple_types<char> > >::operator==
PUBLIC	?_Compat@?$_String_const_iterator@V?$_String_val@U?$_Simple_types@D@std@@@std@@@std@@QBEXABV12@@Z ; std::_String_const_iterator<std::_String_val<std::_Simple_types<char> > >::_Compat
PUBLIC	??1?$_String_const_iterator@V?$_String_val@U?$_Simple_types@D@std@@@std@@@std@@QAE@XZ ; std::_String_const_iterator<std::_String_val<std::_Simple_types<char> > >::~_String_const_iterator<std::_String_val<std::_Simple_types<char> > >
PUBLIC	??0?$_String_const_iterator@V?$_String_val@U?$_Simple_types@D@std@@@std@@@std@@QAE@ABV01@@Z ; std::_String_const_iterator<std::_String_val<std::_Simple_types<char> > >::_String_const_iterator<std::_String_val<std::_Simple_types<char> > >
PUBLIC	??0?$_String_const_iterator@V?$_String_val@U?$_Simple_types@D@std@@@std@@@std@@QAE@$$QAV01@@Z ; std::_String_const_iterator<std::_String_val<std::_Simple_types<char> > >::_String_const_iterator<std::_String_val<std::_Simple_types<char> > >
PUBLIC	??$?9V?$allocator@D@std@@V01@@std@@YA_NABU?$_Wrap_alloc@V?$allocator@D@std@@@0@0@Z ; std::operator!=<std::allocator<char>,std::allocator<char> >
PUBLIC	??$move@AAU?$_Wrap_alloc@V?$allocator@D@std@@@std@@@std@@YA$$QAU?$_Wrap_alloc@V?$allocator@D@std@@@0@AAU10@@Z ; std::move<std::_Wrap_alloc<std::allocator<char> > &>
PUBLIC	??$?0U?$_Wrap_alloc@V?$allocator@D@std@@@std@@X@?$_String_alloc@U?$_String_base_types@DV?$allocator@D@std@@@std@@@std@@QAE@$$QAU?$_Wrap_alloc@V?$allocator@D@std@@@1@@Z ; std::_String_alloc<std::_String_base_types<char,std::allocator<char> > >::_String_alloc<std::_String_base_types<char,std::allocator<char> > ><std::_Wrap_alloc<std::allocator<char> >,void>
PUBLIC	??$forward@V?$basic_string@DU?$char_traits@D@std@@V?$allocator@D@2@@std@@@std@@YA$$QAV?$basic_string@DU?$char_traits@D@std@@V?$allocator@D@2@@0@AAV10@@Z ; std::forward<std::basic_string<char,std::char_traits<char>,std::allocator<char> > >
PUBLIC	??$?0$$V@?$_Compressed_pair@U?$_Wrap_alloc@V?$allocator@UOption@CCustomMenu@@@std@@@std@@V?$_Vector_val@U?$_Simple_types@UOption@CCustomMenu@@@std@@@2@$00@std@@QAE@U_Zero_then_variadic_args_t@1@@Z ; std::_Compressed_pair<std::_Wrap_alloc<std::allocator<CCustomMenu::Option> >,std::_Vector_val<std::_Simple_types<CCustomMenu::Option> >,1>::_Compressed_pair<std::_Wrap_alloc<std::allocator<CCustomMenu::Option> >,std::_Vector_val<std::_Simple_types<CCustomMenu::Option> >,1><>
PUBLIC	??$?0V?$allocator@D@std@@@?$_Wrap_alloc@V?$allocator@D@std@@@std@@QAE@$$QAV?$allocator@D@1@@Z ; std::_Wrap_alloc<std::allocator<char> >::_Wrap_alloc<std::allocator<char> ><std::allocator<char> >
PUBLIC	??$_Pocca@U?$_Wrap_alloc@V?$allocator@D@std@@@std@@@std@@YAXAAU?$_Wrap_alloc@V?$allocator@D@std@@@0@ABU10@@Z ; std::_Pocca<std::_Wrap_alloc<std::allocator<char> > >
PUBLIC	??$?0$$V@?$_Compressed_pair@U?$_Wrap_alloc@V?$allocator@D@std@@@std@@V?$_String_val@U?$_Simple_types@D@std@@@2@$00@std@@QAE@U_Zero_then_variadic_args_t@1@@Z ; std::_Compressed_pair<std::_Wrap_alloc<std::allocator<char> >,std::_String_val<std::_Simple_types<char> >,1>::_Compressed_pair<std::_Wrap_alloc<std::allocator<char> >,std::_String_val<std::_Simple_types<char> >,1><>
PUBLIC	??$addressof@PAD@std@@YAPAPADAAPAD@Z		; std::addressof<char *>
PUBLIC	??$destroy@PAD@?$_Wrap_alloc@V?$allocator@D@std@@@std@@QAEXPAPAD@Z ; std::_Wrap_alloc<std::allocator<char> >::destroy<char *>
PUBLIC	??$_Unfancy@D@std@@YAPADPAD@Z			; std::_Unfancy<char>
PUBLIC	??$_Debug_pointer_if@$$CBD@std@@YAX_NPBDPB_WI@Z	; std::_Debug_pointer_if<char const >
PUBLIC	??$construct@PADAAPAD@?$_Wrap_alloc@V?$allocator@D@std@@@std@@QAEXPAPADAAPAD@Z ; std::_Wrap_alloc<std::allocator<char> >::construct<char *,char * &>
PUBLIC	?deallocate@?$allocator@U_Container_proxy@std@@@std@@QAEXPAU_Container_proxy@2@I@Z ; std::allocator<std::_Container_proxy>::deallocate
PUBLIC	?allocate@?$allocator@U_Container_proxy@std@@@std@@QAEPAU_Container_proxy@2@I@Z ; std::allocator<std::_Container_proxy>::allocate
PUBLIC	?address@?$_Wrap_alloc@V?$allocator@U_Container_proxy@std@@@std@@@std@@QBEPAU_Container_proxy@2@AAU32@@Z ; std::_Wrap_alloc<std::allocator<std::_Container_proxy> >::address
PUBLIC	?allocate@?$_Wrap_alloc@V?$allocator@U_Container_proxy@std@@@std@@@std@@QAEPAU_Container_proxy@2@I@Z ; std::_Wrap_alloc<std::allocator<std::_Container_proxy> >::allocate
PUBLIC	?deallocate@?$_Wrap_alloc@V?$allocator@U_Container_proxy@std@@@std@@@std@@QAEXPAU_Container_proxy@2@I@Z ; std::_Wrap_alloc<std::allocator<std::_Container_proxy> >::deallocate
PUBLIC	??$?0AAU?$_Wrap_alloc@V?$allocator@UOption@CCustomMenu@@@std@@@std@@@?$_Wrap_alloc@V?$allocator@U_Container_proxy@std@@@std@@@std@@QAE@AAU?$_Wrap_alloc@V?$allocator@UOption@CCustomMenu@@@std@@@1@@Z ; std::_Wrap_alloc<std::allocator<std::_Container_proxy> >::_Wrap_alloc<std::allocator<std::_Container_proxy> ><std::_Wrap_alloc<std::allocator<CCustomMenu::Option> > &>
PUBLIC	??$destroy@U_Container_proxy@std@@@?$_Wrap_alloc@V?$allocator@U_Container_proxy@std@@@std@@@std@@QAEXPAU_Container_proxy@1@@Z ; std::_Wrap_alloc<std::allocator<std::_Container_proxy> >::destroy<std::_Container_proxy>
PUBLIC	??$_Unfancy@U_Container_proxy@std@@@std@@YAPAU_Container_proxy@0@PAU10@@Z ; std::_Unfancy<std::_Container_proxy>
PUBLIC	??$construct@U_Container_proxy@std@@U12@@?$_Wrap_alloc@V?$allocator@U_Container_proxy@std@@@std@@@std@@QAEXPAU_Container_proxy@1@$$QAU21@@Z ; std::_Wrap_alloc<std::allocator<std::_Container_proxy> >::construct<std::_Container_proxy,std::_Container_proxy>
PUBLIC	??$_Umove@PAUOption@CCustomMenu@@@?$vector@UOption@CCustomMenu@@V?$allocator@UOption@CCustomMenu@@@std@@@std@@IAEPAUOption@CCustomMenu@@PAU23@00@Z ; std::vector<CCustomMenu::Option,std::allocator<CCustomMenu::Option> >::_Umove<CCustomMenu::Option *>
PUBLIC	??$_Destroy_range@V?$allocator@UOption@CCustomMenu@@@std@@PAUOption@CCustomMenu@@@std@@YAXPAUOption@CCustomMenu@@0AAU?$_Wrap_alloc@V?$allocator@UOption@CCustomMenu@@@std@@@0@@Z ; std::_Destroy_range<std::allocator<CCustomMenu::Option>,CCustomMenu::Option *>
PUBLIC	??$?0AAU?$_Wrap_alloc@V?$allocator@D@std@@@std@@@?$_Wrap_alloc@V?$allocator@U_Container_proxy@std@@@std@@@std@@QAE@AAU?$_Wrap_alloc@V?$allocator@D@std@@@1@@Z ; std::_Wrap_alloc<std::allocator<std::_Container_proxy> >::_Wrap_alloc<std::allocator<std::_Container_proxy> ><std::_Wrap_alloc<std::allocator<char> > &>
PUBLIC	?pointer_to@?$pointer_traits@PAU_Container_proxy@std@@@std@@SAPAU_Container_proxy@2@AAU32@@Z ; std::pointer_traits<std::_Container_proxy *>::pointer_to
PUBLIC	??$addressof@U_Container_proxy@std@@@std@@YAPAU_Container_proxy@0@AAU10@@Z ; std::addressof<std::_Container_proxy>
PUBLIC	??$_Debug_range@V?$_Vector_iterator@V?$_Vector_val@U?$_Simple_types@UOption@CCustomMenu@@@std@@@std@@@std@@@std@@YAXV?$_Vector_iterator@V?$_Vector_val@U?$_Simple_types@UOption@CCustomMenu@@@std@@@std@@@0@0PB_WI@Z ; std::_Debug_range<std::_Vector_iterator<std::_Vector_val<std::_Simple_types<CCustomMenu::Option> > > >
PUBLIC	??$_Unchecked@V?$_Vector_val@U?$_Simple_types@UOption@CCustomMenu@@@std@@@std@@@std@@YAPAUOption@CCustomMenu@@V?$_Vector_iterator@V?$_Vector_val@U?$_Simple_types@UOption@CCustomMenu@@@std@@@std@@@0@@Z ; std::_Unchecked<std::_Vector_val<std::_Simple_types<CCustomMenu::Option> > >
PUBLIC	??$_Find_unchecked@PAUOption@CCustomMenu@@D@std@@YAPAUOption@CCustomMenu@@PAU12@0ABD@Z ; std::_Find_unchecked<CCustomMenu::Option *,char>
PUBLIC	??$_Rechecked@V?$_Vector_val@U?$_Simple_types@UOption@CCustomMenu@@@std@@@std@@@std@@YAAAV?$_Vector_iterator@V?$_Vector_val@U?$_Simple_types@UOption@CCustomMenu@@@std@@@std@@@0@AAV10@PAUOption@CCustomMenu@@@Z ; std::_Rechecked<std::_Vector_val<std::_Simple_types<CCustomMenu::Option> > >
PUBLIC	??$sort@V?$_Vector_iterator@V?$_Vector_val@U?$_Simple_types@UOption@CCustomMenu@@@std@@@std@@@std@@U?$less@X@2@@std@@YAXV?$_Vector_iterator@V?$_Vector_val@U?$_Simple_types@UOption@CCustomMenu@@@std@@@std@@@0@0U?$less@X@0@@Z ; std::sort<std::_Vector_iterator<std::_Vector_val<std::_Simple_types<CCustomMenu::Option> > >,std::less<void> >
PUBLIC	??0_Sentry_base@?$basic_ostream@DU?$char_traits@D@std@@@std@@QAE@AAV12@@Z ; std::basic_ostream<char,std::char_traits<char> >::_Sentry_base::_Sentry_base
PUBLIC	??1_Sentry_base@?$basic_ostream@DU?$char_traits@D@std@@@std@@QAE@XZ ; std::basic_ostream<char,std::char_traits<char> >::_Sentry_base::~_Sentry_base
PUBLIC	??0sentry@?$basic_ostream@DU?$char_traits@D@std@@@std@@QAE@AAV12@@Z ; std::basic_ostream<char,std::char_traits<char> >::sentry::sentry
PUBLIC	??1sentry@?$basic_ostream@DU?$char_traits@D@std@@@std@@QAE@XZ ; std::basic_ostream<char,std::char_traits<char> >::sentry::~sentry
PUBLIC	??Bsentry@?$basic_ostream@DU?$char_traits@D@std@@@std@@QBE_NXZ ; std::basic_ostream<char,std::char_traits<char> >::sentry::operator bool
PUBLIC	??$forward@AAUOption@CCustomMenu@@@std@@YAAAUOption@CCustomMenu@@AAU12@@Z ; std::forward<CCustomMenu::Option &>
PUBLIC	??$construct@UOption@CCustomMenu@@AAU12@@?$allocator_traits@V?$allocator@UOption@CCustomMenu@@@std@@@std@@SAXAAV?$allocator@UOption@CCustomMenu@@@1@PAUOption@CCustomMenu@@AAU34@@Z ; std::allocator_traits<std::allocator<CCustomMenu::Option> >::construct<CCustomMenu::Option,CCustomMenu::Option &>
PUBLIC	??$forward@ABUOption@CCustomMenu@@@std@@YAABUOption@CCustomMenu@@ABU12@@Z ; std::forward<CCustomMenu::Option const &>
PUBLIC	??$construct@UOption@CCustomMenu@@ABU12@@?$allocator_traits@V?$allocator@UOption@CCustomMenu@@@std@@@std@@SAXAAV?$allocator@UOption@CCustomMenu@@@1@PAUOption@CCustomMenu@@ABU34@@Z ; std::allocator_traits<std::allocator<CCustomMenu::Option> >::construct<CCustomMenu::Option,CCustomMenu::Option const &>
PUBLIC	??$?8V?$allocator@D@std@@V01@@std@@YA_NABU?$_Wrap_alloc@V?$allocator@D@std@@@0@0@Z ; std::operator==<std::allocator<char>,std::allocator<char> >
PUBLIC	??$?8DD@std@@YA_NABV?$allocator@D@0@0@Z		; std::operator==<char,char>
PUBLIC	??$forward@U?$_Wrap_alloc@V?$allocator@D@std@@@std@@@std@@YA$$QAU?$_Wrap_alloc@V?$allocator@D@std@@@0@AAU10@@Z ; std::forward<std::_Wrap_alloc<std::allocator<char> > >
PUBLIC	??$?0U?$_Wrap_alloc@V?$allocator@D@std@@@std@@$$V@?$_Compressed_pair@U?$_Wrap_alloc@V?$allocator@D@std@@@std@@V?$_String_val@U?$_Simple_types@D@std@@@2@$00@std@@QAE@U_One_then_variadic_args_t@1@$$QAU?$_Wrap_alloc@V?$allocator@D@std@@@1@@Z ; std::_Compressed_pair<std::_Wrap_alloc<std::allocator<char> >,std::_String_val<std::_Simple_types<char> >,1>::_Compressed_pair<std::_Wrap_alloc<std::allocator<char> >,std::_String_val<std::_Simple_types<char> >,1><std::_Wrap_alloc<std::allocator<char> > >
PUBLIC	??$forward@V?$allocator@D@std@@@std@@YA$$QAV?$allocator@D@0@AAV10@@Z ; std::forward<std::allocator<char> >
PUBLIC	??$_Pocca@U?$_Wrap_alloc@V?$allocator@D@std@@@std@@@std@@YAXAAU?$_Wrap_alloc@V?$allocator@D@std@@@0@ABU10@U?$integral_constant@_N$0A@@0@@Z ; std::_Pocca<std::_Wrap_alloc<std::allocator<char> > >
PUBLIC	??$destroy@PAD@?$allocator_traits@V?$allocator@D@std@@@std@@SAXAAV?$allocator@D@1@PAPAD@Z ; std::allocator_traits<std::allocator<char> >::destroy<char *>
PUBLIC	??$forward@AAPAD@std@@YAAAPADAAPAD@Z		; std::forward<char * &>
PUBLIC	??$construct@PADAAPAD@?$allocator_traits@V?$allocator@D@std@@@std@@SAXAAV?$allocator@D@1@PAPADAAPAD@Z ; std::allocator_traits<std::allocator<char> >::construct<char *,char * &>
PUBLIC	??$forward@AAU?$_Wrap_alloc@V?$allocator@UOption@CCustomMenu@@@std@@@std@@@std@@YAAAU?$_Wrap_alloc@V?$allocator@UOption@CCustomMenu@@@std@@@0@AAU10@@Z ; std::forward<std::_Wrap_alloc<std::allocator<CCustomMenu::Option> > &>
PUBLIC	??$?0UOption@CCustomMenu@@@?$allocator@U_Container_proxy@std@@@std@@QAE@ABV?$allocator@UOption@CCustomMenu@@@1@@Z ; std::allocator<std::_Container_proxy>::allocator<std::_Container_proxy><CCustomMenu::Option>
PUBLIC	??$destroy@U_Container_proxy@std@@@?$allocator_traits@V?$allocator@U_Container_proxy@std@@@std@@@std@@SAXAAV?$allocator@U_Container_proxy@std@@@1@PAU_Container_proxy@1@@Z ; std::allocator_traits<std::allocator<std::_Container_proxy> >::destroy<std::_Container_proxy>
PUBLIC	??$forward@U_Container_proxy@std@@@std@@YA$$QAU_Container_proxy@0@AAU10@@Z ; std::forward<std::_Container_proxy>
PUBLIC	??$construct@U_Container_proxy@std@@U12@@?$allocator_traits@V?$allocator@U_Container_proxy@std@@@std@@@std@@SAXAAV?$allocator@U_Container_proxy@std@@@1@PAU_Container_proxy@1@$$QAU31@@Z ; std::allocator_traits<std::allocator<std::_Container_proxy> >::construct<std::_Container_proxy,std::_Container_proxy>
PUBLIC	??$_Uninitialized_move@PAUOption@CCustomMenu@@PAU12@V?$allocator@UOption@CCustomMenu@@@std@@@std@@YAPAUOption@CCustomMenu@@PAU12@00AAU?$_Wrap_alloc@V?$allocator@UOption@CCustomMenu@@@std@@@0@@Z ; std::_Uninitialized_move<CCustomMenu::Option *,CCustomMenu::Option *,std::allocator<CCustomMenu::Option> >
PUBLIC	??$_Destroy_range1@V?$allocator@UOption@CCustomMenu@@@std@@PAUOption@CCustomMenu@@@std@@YAXPAUOption@CCustomMenu@@0AAU?$_Wrap_alloc@V?$allocator@UOption@CCustomMenu@@@std@@@0@U?$integral_constant@_N$0A@@0@@Z ; std::_Destroy_range1<std::allocator<CCustomMenu::Option>,CCustomMenu::Option *>
PUBLIC	??$forward@AAU?$_Wrap_alloc@V?$allocator@D@std@@@std@@@std@@YAAAU?$_Wrap_alloc@V?$allocator@D@std@@@0@AAU10@@Z ; std::forward<std::_Wrap_alloc<std::allocator<char> > &>
PUBLIC	??$?0D@?$allocator@U_Container_proxy@std@@@std@@QAE@ABV?$allocator@D@1@@Z ; std::allocator<std::_Container_proxy>::allocator<std::_Container_proxy><char>
PUBLIC	??$_Debug_range2@V?$_Vector_iterator@V?$_Vector_val@U?$_Simple_types@UOption@CCustomMenu@@@std@@@std@@@std@@@std@@YAXV?$_Vector_iterator@V?$_Vector_val@U?$_Simple_types@UOption@CCustomMenu@@@std@@@std@@@0@0PB_WIUrandom_access_iterator_tag@0@@Z ; std::_Debug_range2<std::_Vector_iterator<std::_Vector_val<std::_Simple_types<CCustomMenu::Option> > > >
PUBLIC	??$_Find_unchecked1@PAUOption@CCustomMenu@@D@std@@YAPAUOption@CCustomMenu@@PAU12@0ABDU?$integral_constant@_N$0A@@0@@Z ; std::_Find_unchecked1<CCustomMenu::Option *,char>
PUBLIC	??$_Sort_unchecked@PAUOption@CCustomMenu@@U?$less@X@std@@@std@@YAXPAUOption@CCustomMenu@@0AAU?$less@X@0@@Z ; std::_Sort_unchecked<CCustomMenu::Option *,std::less<void> >
PUBLIC	??$construct@UOption@CCustomMenu@@AAU12@@?$allocator@UOption@CCustomMenu@@@std@@QAEXPAUOption@CCustomMenu@@AAU23@@Z ; std::allocator<CCustomMenu::Option>::construct<CCustomMenu::Option,CCustomMenu::Option &>
PUBLIC	??$construct@UOption@CCustomMenu@@ABU12@@?$allocator@UOption@CCustomMenu@@@std@@QAEXPAUOption@CCustomMenu@@ABU23@@Z ; std::allocator<CCustomMenu::Option>::construct<CCustomMenu::Option,CCustomMenu::Option const &>
PUBLIC	??$destroy@PAD@?$allocator@D@std@@QAEXPAPAD@Z	; std::allocator<char>::destroy<char *>
PUBLIC	??$construct@PADAAPAD@?$allocator@D@std@@QAEXPAPADAAPAD@Z ; std::allocator<char>::construct<char *,char * &>
PUBLIC	??$destroy@U_Container_proxy@std@@@?$allocator@U_Container_proxy@std@@@std@@QAEXPAU_Container_proxy@1@@Z ; std::allocator<std::_Container_proxy>::destroy<std::_Container_proxy>
PUBLIC	??$construct@U_Container_proxy@std@@U12@@?$allocator@U_Container_proxy@std@@@std@@QAEXPAU_Container_proxy@1@$$QAU21@@Z ; std::allocator<std::_Container_proxy>::construct<std::_Container_proxy,std::_Container_proxy>
PUBLIC	??$_Unchecked@PAUOption@CCustomMenu@@@std@@YAPAUOption@CCustomMenu@@PAU12@@Z ; std::_Unchecked<CCustomMenu::Option *>
PUBLIC	??$_Uninitialized_move_al_unchecked@PAUOption@CCustomMenu@@PAU12@V?$allocator@UOption@CCustomMenu@@@std@@@std@@YAPAUOption@CCustomMenu@@PAU12@00AAU?$_Wrap_alloc@V?$allocator@UOption@CCustomMenu@@@std@@@0@@Z ; std::_Uninitialized_move_al_unchecked<CCustomMenu::Option *,CCustomMenu::Option *,std::allocator<CCustomMenu::Option> >
PUBLIC	??$_Rechecked@PAUOption@CCustomMenu@@PAU12@@std@@YAAAPAUOption@CCustomMenu@@AAPAU12@PAU12@@Z ; std::_Rechecked<CCustomMenu::Option *,CCustomMenu::Option *>
PUBLIC	??$destroy@UOption@CCustomMenu@@@?$_Wrap_alloc@V?$allocator@UOption@CCustomMenu@@@std@@@std@@QAEXPAUOption@CCustomMenu@@@Z ; std::_Wrap_alloc<std::allocator<CCustomMenu::Option> >::destroy<CCustomMenu::Option>
PUBLIC	??$_Debug_pointer@V?$_Vector_iterator@V?$_Vector_val@U?$_Simple_types@UOption@CCustomMenu@@@std@@@std@@@std@@@std@@YAXAAV?$_Vector_iterator@V?$_Vector_val@U?$_Simple_types@UOption@CCustomMenu@@@std@@@std@@@0@PB_WI@Z ; std::_Debug_pointer<std::_Vector_iterator<std::_Vector_val<std::_Simple_types<CCustomMenu::Option> > > >
PUBLIC	??$_Sort_unchecked1@PAUOption@CCustomMenu@@HU?$less@X@std@@@std@@YAXPAUOption@CCustomMenu@@0HAAU?$less@X@0@@Z ; std::_Sort_unchecked1<CCustomMenu::Option *,int,std::less<void> >
PUBLIC	??$move@AAUOption@CCustomMenu@@@std@@YA$$QAUOption@CCustomMenu@@AAU12@@Z ; std::move<CCustomMenu::Option &>
PUBLIC	??$_Ptr_move_cat@UOption@CCustomMenu@@U12@@std@@YA?AU_General_ptr_iterator_tag@0@ABQAUOption@CCustomMenu@@0@Z ; std::_Ptr_move_cat<CCustomMenu::Option,CCustomMenu::Option>
PUBLIC	??$_Uninitialized_move_al_unchecked1@PAUOption@CCustomMenu@@PAU12@V?$allocator@UOption@CCustomMenu@@@std@@@std@@YAPAUOption@CCustomMenu@@PAU12@00AAU?$_Wrap_alloc@V?$allocator@UOption@CCustomMenu@@@std@@@0@U_General_ptr_iterator_tag@0@U_Any_tag@0@@Z ; std::_Uninitialized_move_al_unchecked1<CCustomMenu::Option *,CCustomMenu::Option *,std::allocator<CCustomMenu::Option> >
PUBLIC	??$?0U?$integral_constant@_N$00@std@@@_Any_tag@std@@QAE@$$QAU?$integral_constant@_N$00@1@@Z ; std::_Any_tag::_Any_tag<std::integral_constant<bool,1> >
PUBLIC	??$destroy@UOption@CCustomMenu@@@?$allocator_traits@V?$allocator@UOption@CCustomMenu@@@std@@@std@@SAXAAV?$allocator@UOption@CCustomMenu@@@1@PAUOption@CCustomMenu@@@Z ; std::allocator_traits<std::allocator<CCustomMenu::Option> >::destroy<CCustomMenu::Option>
PUBLIC	??$_Partition_by_median_guess_unchecked@PAUOption@CCustomMenu@@U?$less@X@std@@@std@@YA?AU?$pair@PAUOption@CCustomMenu@@PAU12@@0@PAUOption@CCustomMenu@@0AAU?$less@X@0@@Z ; std::_Partition_by_median_guess_unchecked<CCustomMenu::Option *,std::less<void> >
PUBLIC	??$_Make_heap_unchecked@PAUOption@CCustomMenu@@U?$less@X@std@@@std@@YAXPAUOption@CCustomMenu@@0AAU?$less@X@0@@Z ; std::_Make_heap_unchecked<CCustomMenu::Option *,std::less<void> >
PUBLIC	??$_Sort_heap_unchecked@PAUOption@CCustomMenu@@U?$less@X@std@@@std@@YAXPAUOption@CCustomMenu@@0AAU?$less@X@0@@Z ; std::_Sort_heap_unchecked<CCustomMenu::Option *,std::less<void> >
PUBLIC	??$_Insertion_sort_unchecked@PAUOption@CCustomMenu@@U?$less@X@std@@@std@@YAXPAUOption@CCustomMenu@@0AAU?$less@X@0@@Z ; std::_Insertion_sort_unchecked<CCustomMenu::Option *,std::less<void> >
PUBLIC	??$construct@UOption@CCustomMenu@@U12@@?$_Wrap_alloc@V?$allocator@UOption@CCustomMenu@@@std@@@std@@QAEXPAUOption@CCustomMenu@@$$QAU23@@Z ; std::_Wrap_alloc<std::allocator<CCustomMenu::Option> >::construct<CCustomMenu::Option,CCustomMenu::Option>
PUBLIC	??$destroy@UOption@CCustomMenu@@@?$allocator@UOption@CCustomMenu@@@std@@QAEXPAUOption@CCustomMenu@@@Z ; std::allocator<CCustomMenu::Option>::destroy<CCustomMenu::Option>
PUBLIC	??$_Guess_median_unchecked@PAUOption@CCustomMenu@@U?$less@X@std@@@std@@YAXPAUOption@CCustomMenu@@00AAU?$less@X@0@@Z ; std::_Guess_median_unchecked<CCustomMenu::Option *,std::less<void> >
PUBLIC	??$_Debug_lt_pred@AAU?$less@X@std@@AAUOption@CCustomMenu@@AAU34@@std@@YA_NAAU?$less@X@0@AAUOption@CCustomMenu@@1PB_WI@Z ; std::_Debug_lt_pred<std::less<void> &,CCustomMenu::Option &,CCustomMenu::Option &>
PUBLIC	??$?RAAUOption@CCustomMenu@@AAU01@@?$less@X@std@@QBE_NAAUOption@CCustomMenu@@0@Z ; std::less<void>::operator()<CCustomMenu::Option &,CCustomMenu::Option &>
PUBLIC	??$iter_swap@PAUOption@CCustomMenu@@PAU12@@std@@YAXPAUOption@CCustomMenu@@0@Z ; std::iter_swap<CCustomMenu::Option *,CCustomMenu::Option *>
PUBLIC	??$?0AAPAUOption@CCustomMenu@@AAPAU01@X$0A@@?$pair@PAUOption@CCustomMenu@@PAU12@@std@@QAE@AAPAUOption@CCustomMenu@@0@Z ; std::pair<CCustomMenu::Option *,CCustomMenu::Option *>::pair<CCustomMenu::Option *,CCustomMenu::Option *><CCustomMenu::Option * &,CCustomMenu::Option * &,void,0>
PUBLIC	??$_Pop_heap_hole_by_index@PAUOption@CCustomMenu@@HU12@U?$less@X@std@@@std@@YAXPAUOption@CCustomMenu@@HH$$QAU12@AAU?$less@X@0@@Z ; std::_Pop_heap_hole_by_index<CCustomMenu::Option *,int,CCustomMenu::Option,std::less<void> >
PUBLIC	??$_Pop_heap_unchecked@PAUOption@CCustomMenu@@U?$less@X@std@@@std@@YAXPAUOption@CCustomMenu@@0AAU?$less@X@0@@Z ; std::_Pop_heap_unchecked<CCustomMenu::Option *,std::less<void> >
PUBLIC	??$_Move_backward_unchecked@PAUOption@CCustomMenu@@PAU12@@std@@YAPAUOption@CCustomMenu@@PAU12@00@Z ; std::_Move_backward_unchecked<CCustomMenu::Option *,CCustomMenu::Option *>
PUBLIC	??$forward@UOption@CCustomMenu@@@std@@YA$$QAUOption@CCustomMenu@@AAU12@@Z ; std::forward<CCustomMenu::Option>
PUBLIC	??$construct@UOption@CCustomMenu@@U12@@?$allocator_traits@V?$allocator@UOption@CCustomMenu@@@std@@@std@@SAXAAV?$allocator@UOption@CCustomMenu@@@1@PAUOption@CCustomMenu@@$$QAU34@@Z ; std::allocator_traits<std::allocator<CCustomMenu::Option> >::construct<CCustomMenu::Option,CCustomMenu::Option>
PUBLIC	??0?$_String_iterator@V?$_String_val@U?$_Simple_types@D@std@@@std@@@std@@QAE@PADPBU_Container_base12@1@@Z ; std::_String_iterator<std::_String_val<std::_Simple_types<char> > >::_String_iterator<std::_String_val<std::_Simple_types<char> > >
PUBLIC	??D?$_String_iterator@V?$_String_val@U?$_Simple_types@D@std@@@std@@@std@@QBEAADXZ ; std::_String_iterator<std::_String_val<std::_Simple_types<char> > >::operator*
PUBLIC	??G?$_String_iterator@V?$_String_val@U?$_Simple_types@D@std@@@std@@@std@@QBEHABV?$_String_const_iterator@V?$_String_val@U?$_Simple_types@D@std@@@std@@@1@@Z ; std::_String_iterator<std::_String_val<std::_Simple_types<char> > >::operator-
PUBLIC	??1?$_String_iterator@V?$_String_val@U?$_Simple_types@D@std@@@std@@@std@@QAE@XZ ; std::_String_iterator<std::_String_val<std::_Simple_types<char> > >::~_String_iterator<std::_String_val<std::_Simple_types<char> > >
PUBLIC	??0?$_String_iterator@V?$_String_val@U?$_Simple_types@D@std@@@std@@@std@@QAE@ABV01@@Z ; std::_String_iterator<std::_String_val<std::_Simple_types<char> > >::_String_iterator<std::_String_val<std::_Simple_types<char> > >
PUBLIC	??$assign@V?$_String_iterator@V?$_String_val@U?$_Simple_types@D@std@@@std@@@std@@@?$basic_string@DU?$char_traits@D@std@@V?$allocator@D@2@@std@@QAEAAV01@V?$_String_iterator@V?$_String_val@U?$_Simple_types@D@std@@@std@@@1@0@Z ; std::basic_string<char,std::char_traits<char>,std::allocator<char> >::assign<std::_String_iterator<std::_String_val<std::_Simple_types<char> > > >
PUBLIC	??$_Pocma@U?$_Wrap_alloc@V?$allocator@D@std@@@std@@@std@@YAXAAU?$_Wrap_alloc@V?$allocator@D@std@@@0@0@Z ; std::_Pocma<std::_Wrap_alloc<std::allocator<char> > >
PUBLIC	?pointer_to@?$pointer_traits@PAD@std@@SAPADAAD@Z ; std::pointer_traits<char *>::pointer_to
PUBLIC	??$addressof@D@std@@YAPADAAD@Z			; std::addressof<char>
PUBLIC	??$_Med3_unchecked@PAUOption@CCustomMenu@@U?$less@X@std@@@std@@YAXPAUOption@CCustomMenu@@00AAU?$less@X@0@@Z ; std::_Med3_unchecked<CCustomMenu::Option *,std::less<void> >
PUBLIC	??$swap@UOption@CCustomMenu@@X@std@@YAXAAUOption@CCustomMenu@@0@Z ; std::swap<CCustomMenu::Option,void>
PUBLIC	??$forward@AAPAUOption@CCustomMenu@@@std@@YAAAPAUOption@CCustomMenu@@AAPAU12@@Z ; std::forward<CCustomMenu::Option * &>
PUBLIC	??$_Push_heap_by_index@PAUOption@CCustomMenu@@HU12@U?$less@X@std@@@std@@YAXPAUOption@CCustomMenu@@HH$$QAU12@AAU?$less@X@0@@Z ; std::_Push_heap_by_index<CCustomMenu::Option *,int,CCustomMenu::Option,std::less<void> >
PUBLIC	??$_Pop_heap_hole_unchecked@PAUOption@CCustomMenu@@U12@U?$less@X@std@@@std@@YAXPAUOption@CCustomMenu@@00$$QAU12@AAU?$less@X@0@@Z ; std::_Pop_heap_hole_unchecked<CCustomMenu::Option *,CCustomMenu::Option,std::less<void> >
PUBLIC	??$_Move_backward_unchecked1@PAUOption@CCustomMenu@@PAU12@@std@@YAPAUOption@CCustomMenu@@PAU12@00U_General_ptr_iterator_tag@0@@Z ; std::_Move_backward_unchecked1<CCustomMenu::Option *,CCustomMenu::Option *>
PUBLIC	??$construct@UOption@CCustomMenu@@U12@@?$allocator@UOption@CCustomMenu@@@std@@QAEXPAUOption@CCustomMenu@@$$QAU23@@Z ; std::allocator<CCustomMenu::Option>::construct<CCustomMenu::Option,CCustomMenu::Option>
PUBLIC	??$_Pocma@U?$_Wrap_alloc@V?$allocator@D@std@@@std@@@std@@YAXAAU?$_Wrap_alloc@V?$allocator@D@std@@@0@0U?$integral_constant@_N$00@0@@Z ; std::_Pocma<std::_Wrap_alloc<std::allocator<char> > >
PUBLIC	??$_Unfancy@$$CBD@std@@YAPBDPBD@Z		; std::_Unfancy<char const >
PUBLIC	??_C@_1JA@MHADJNIL@?$AAc?$AA?3?$AA?2?$AAp?$AAr?$AAo?$AAg?$AAr?$AAa?$AAm?$AA?5?$AAf?$AAi?$AAl?$AAe?$AAs?$AA?5?$AA?$CI?$AAx?$AA8?$AA6?$AA?$CJ?$AA?2?$AAm?$AAi?$AAc?$AAr?$AAo?$AAs?$AAo?$AAf?$AAt@ ; `string'
PUBLIC	??_C@_1DC@POOIKBAO@?$AAI?$AAT?$AAE?$AAR?$AAA?$AAT?$AAO?$AAR?$AA?5?$AAL?$AAI?$AAS?$AAT?$AA?5?$AAC?$AAO?$AAR?$AAR?$AAU?$AAP?$AAT?$AAE?$AAD?$AA?$CB?$AA?$AA@ ; `string'
PUBLIC	?__LINE__Var@?0??_Allocate@std@@YAPAXII_N@Z@4JA	; `std::_Allocate'::`1'::__LINE__Var
PUBLIC	??_C@_0BE@LMNLACIC@_Ptr_container?5?$CB?$DN?50?$AA@ ; `string'
PUBLIC	??_C@_1DG@HGDKEBPG@?$AA?$CC?$AA_?$AAP?$AAt?$AAr?$AA_?$AAc?$AAo?$AAn?$AAt?$AAa?$AAi?$AAn?$AAe?$AAr?$AA?5?$AA?$CB?$AA?$DN?$AA?5?$AA0?$AA?$CC?$AA?5?$AA?$CG?$AA?$CG?$AA?5?$AA0?$AA?$AA@ ; `string'
PUBLIC	??_C@_17CNPHIMPH@?$AA?$CF?$AAl?$AAs?$AA?$AA@	; `string'
PUBLIC	??_C@_1JA@DKOIEICI@?$AAc?$AA?3?$AA?2?$AAp?$AAr?$AAo?$AAg?$AAr?$AAa?$AAm?$AA?5?$AAf?$AAi?$AAl?$AAe?$AAs?$AA?5?$AA?$CI?$AAx?$AA8?$AA6?$AA?$CJ?$AA?2?$AAm?$AAi?$AAc?$AAr?$AAo?$AAs?$AAo?$AAf?$AAt@ ; `string'
PUBLIC	??_C@_1BO@NKFMJPA@?$AAs?$AAt?$AAd?$AA?3?$AA?3?$AA_?$AAA?$AAl?$AAl?$AAo?$AAc?$AAa?$AAt?$AAe?$AA?$AA@ ; `string'
PUBLIC	??_C@_1CG@JNLFBNGN@?$AA?$CC?$AAi?$AAn?$AAv?$AAa?$AAl?$AAi?$AAd?$AA?5?$AAa?$AAr?$AAg?$AAu?$AAm?$AAe?$AAn?$AAt?$AA?$CC?$AA?$AA@ ; `string'
PUBLIC	??_C@_09GLJCAGLP@_Ptr?5?$CB?$DN?50?$AA@		; `string'
PUBLIC	??_C@_1CC@GKJLLHIM@?$AA?$CC?$AA_?$AAP?$AAt?$AAr?$AA?5?$AA?$CB?$AA?$DN?$AA?5?$AA0?$AA?$CC?$AA?5?$AA?$CG?$AA?$CG?$AA?5?$AA0?$AA?$AA@ ; `string'
PUBLIC	?__LINE__Var@?0??_Deallocate@std@@YAXPAXII@Z@4JA ; `std::_Deallocate'::`1'::__LINE__Var
PUBLIC	??_C@_0BN@HMCJOMKN@_Count?5?$DM?$DN?5?$CIsize_t?$CJ?$CI?91?$CJ?5?1?5_Sz?$AA@ ; `string'
PUBLIC	??_C@_1EI@MLOBABC@?$AA?$CC?$AA_?$AAC?$AAo?$AAu?$AAn?$AAt?$AA?5?$AA?$DM?$AA?$DN?$AA?5?$AA?$CI?$AAs?$AAi?$AAz?$AAe?$AA_?$AAt?$AA?$CJ?$AA?$CI?$AA?9?$AA1?$AA?$CJ?$AA?5?$AA?1?$AA?5?$AA_?$AAS?$AAz?$AA?$CC?$AA?5?$AA?$CG@ ; `string'
PUBLIC	??_C@_1CC@LOFJFFDB@?$AAs?$AAt?$AAd?$AA?3?$AA?3?$AA_?$AAD?$AAe?$AAa?$AAl?$AAl?$AAo?$AAc?$AAa?$AAt?$AAe?$AA?$AA@ ; `string'
PUBLIC	??_C@_0DD@GBGGGKGG@?$CI_Ptr_user?5?$CG?5?$CI_BIG_ALLOCATION_AL@ ; `string'
PUBLIC	??_C@_1HE@CDMBFOKC@?$AA?$CC?$AA?$CI?$AA_?$AAP?$AAt?$AAr?$AA_?$AAu?$AAs?$AAe?$AAr?$AA?5?$AA?$CG?$AA?5?$AA?$CI?$AA_?$AAB?$AAI?$AAG?$AA_?$AAA?$AAL?$AAL?$AAO?$AAC?$AAA?$AAT?$AAI?$AAO?$AAN?$AA_?$AAA@ ; `string'
PUBLIC	??_C@_0EI@NOJHEJCJ@reinterpret_cast?$DMuintptr_t?5?$CK?$DO?$CI_P@ ; `string'
PUBLIC	??_C@_1JO@EKLKIEHP@?$AA?$CC?$AAr?$AAe?$AAi?$AAn?$AAt?$AAe?$AAr?$AAp?$AAr?$AAe?$AAt?$AA_?$AAc?$AAa?$AAs?$AAt?$AA?$DM?$AAu?$AAi?$AAn?$AAt?$AAp?$AAt?$AAr?$AA_?$AAt?$AA?5?$AA?$CK?$AA?$DO?$AA?$CI?$AA_@ ; `string'
PUBLIC	??_C@_0BL@OCKMEJON@_Ptr_container?5?$DM?5_Ptr_user?$AA@ ; `string'
PUBLIC	??_C@_1EE@PDHAHDDC@?$AA?$CC?$AA_?$AAP?$AAt?$AAr?$AA_?$AAc?$AAo?$AAn?$AAt?$AAa?$AAi?$AAn?$AAe?$AAr?$AA?5?$AA?$DM?$AA?5?$AA_?$AAP?$AAt?$AAr?$AA_?$AAu?$AAs?$AAe?$AAr?$AA?$CC?$AA?5?$AA?$CG?$AA?$CG?$AA?5@ ; `string'
PUBLIC	??_C@_0DB@GLFJLNCE@2?5?$CK?5sizeof?$CIvoid?5?$CK?$CJ?5?$DM?$DN?5_Ptr_user?5@ ; `string'
PUBLIC	??_C@_1HA@NAPGMHAO@?$AA?$CC?$AA2?$AA?5?$AA?$CK?$AA?5?$AAs?$AAi?$AAz?$AAe?$AAo?$AAf?$AA?$CI?$AAv?$AAo?$AAi?$AAd?$AA?5?$AA?$CK?$AA?$CJ?$AA?5?$AA?$DM?$AA?$DN?$AA?5?$AA_?$AAP?$AAt?$AAr?$AA_?$AAu?$AAs?$AAe?$AAr@ ; `string'
PUBLIC	??_C@_0CN@BLHJCAL@_Ptr_user?5?9?5_Ptr_container?5?$DM?$DN?5_N@ ; `string'
PUBLIC	??_C@_1GI@DHJGPFNI@?$AA?$CC?$AA_?$AAP?$AAt?$AAr?$AA_?$AAu?$AAs?$AAe?$AAr?$AA?5?$AA?9?$AA?5?$AA_?$AAP?$AAt?$AAr?$AA_?$AAc?$AAo?$AAn?$AAt?$AAa?$AAi?$AAn?$AAe?$AAr?$AA?5?$AA?$DM?$AA?$DN?$AA?5?$AA_@ ; `string'
PUBLIC	?npos@?$basic_string@DU?$char_traits@D@std@@V?$allocator@D@2@@std@@2IB ; std::basic_string<char,std::char_traits<char>,std::allocator<char> >::npos
PUBLIC	??_C@_03KOEIKCBF@?$CJ?5?5?$AA@			; `string'
PUBLIC	??_C@_01GPOEFGEJ@?7?$AA@			; `string'
PUBLIC	??_C@_1IM@NCODKBJH@?$AAc?$AA?3?$AA?2?$AAp?$AAr?$AAo?$AAg?$AAr?$AAa?$AAm?$AA?5?$AAf?$AAi?$AAl?$AAe?$AAs?$AA?5?$AA?$CI?$AAx?$AA8?$AA6?$AA?$CJ?$AA?2?$AAm?$AAi?$AAc?$AAr?$AAo?$AAs?$AAo?$AAf?$AAt@ ; `string'
PUBLIC	??_C@_1EE@EJDKCLKB@?$AAv?$AAe?$AAc?$AAt?$AAo?$AAr?$AA?5?$AAi?$AAt?$AAe?$AAr?$AAa?$AAt?$AAo?$AAr?$AA?5?$AAn?$AAo?$AAt?$AA?5?$AAi?$AAn?$AAc?$AAr?$AAe?$AAm?$AAe?$AAn?$AAt?$AAa?$AAb?$AAl@ ; `string'
PUBLIC	??_C@_0CE@OFMIGAMM@Standard?5C?$CL?$CL?5Libraries?5Out?5of?5Ra@ ; `string'
PUBLIC	??_C@_1FG@IBPIFFN@?$AA?$CC?$AAS?$AAt?$AAa?$AAn?$AAd?$AAa?$AAr?$AAd?$AA?5?$AAC?$AA?$CL?$AA?$CL?$AA?5?$AAL?$AAi?$AAb?$AAr?$AAa?$AAr?$AAi?$AAe?$AAs?$AA?5?$AAO?$AAu?$AAt?$AA?5?$AAo?$AAf?$AA?5?$AAR@ ; `string'
PUBLIC	??_C@_1PE@FEBODMLG@?$AAs?$AAt?$AAd?$AA?3?$AA?3?$AA_?$AAV?$AAe?$AAc?$AAt?$AAo?$AAr?$AA_?$AAc?$AAo?$AAn?$AAs?$AAt?$AA_?$AAi?$AAt?$AAe?$AAr?$AAa?$AAt?$AAo?$AAr?$AA?$DM?$AAc?$AAl?$AAa?$AAs@ ; `string'
PUBLIC	??_C@_1BO@MEPPHOO@?$AA?$CC?$AAo?$AAu?$AAt?$AA?5?$AAo?$AAf?$AA?5?$AAr?$AAa?$AAn?$AAg?$AAe?$AA?$CC?$AA?$AA@ ; `string'
PUBLIC	??_C@_1IO@EADHKMNI@?$AAc?$AA?3?$AA?2?$AAp?$AAr?$AAo?$AAg?$AAr?$AAa?$AAm?$AA?5?$AAf?$AAi?$AAl?$AAe?$AAs?$AA?5?$AA?$CI?$AAx?$AA8?$AA6?$AA?$CJ?$AA?2?$AAm?$AAi?$AAc?$AAr?$AAo?$AAs?$AAo?$AAf?$AAt@ ; `string'
PUBLIC	??_C@_1EG@FOHJJHAC@?$AAv?$AAe?$AAc?$AAt?$AAo?$AAr?$AA?5?$AAi?$AAt?$AAe?$AAr?$AAa?$AAt?$AAo?$AAr?$AA?5?$AAn?$AAo?$AAt?$AA?5?$AAd?$AAe?$AAr?$AAe?$AAf?$AAe?$AAr?$AAe?$AAn?$AAc?$AAa?$AAb@ ; `string'
PUBLIC	??_C@_1PC@BPDPMBHD@?$AAs?$AAt?$AAd?$AA?3?$AA?3?$AA_?$AAV?$AAe?$AAc?$AAt?$AAo?$AAr?$AA_?$AAc?$AAo?$AAn?$AAs?$AAt?$AA_?$AAi?$AAt?$AAe?$AAr?$AAa?$AAt?$AAo?$AAr?$AA?$DM?$AAc?$AAl?$AAa?$AAs@ ; `string'
PUBLIC	??_C@_1DM@HINDPMBP@?$AAv?$AAe?$AAc?$AAt?$AAo?$AAr?$AA?5?$AAi?$AAt?$AAe?$AAr?$AAa?$AAt?$AAo?$AAr?$AAs?$AA?5?$AAi?$AAn?$AAc?$AAo?$AAm?$AAp?$AAa?$AAt?$AAi?$AAb?$AAl?$AAe?$AA?$AA@ ; `string'
PUBLIC	??_C@_0CI@FNPHFCCM@Standard?5C?$CL?$CL?5Libraries?5Invalid?5A@ ; `string'
PUBLIC	??_C@_1FO@GJIHNDLM@?$AA?$CC?$AAS?$AAt?$AAa?$AAn?$AAd?$AAa?$AAr?$AAd?$AA?5?$AAC?$AA?$CL?$AA?$CL?$AA?5?$AAL?$AAi?$AAb?$AAr?$AAa?$AAr?$AAi?$AAe?$AAs?$AA?5?$AAI?$AAn?$AAv?$AAa?$AAl?$AAi?$AAd?$AA?5@ ; `string'
PUBLIC	??_C@_1OM@HACCCHHK@?$AAs?$AAt?$AAd?$AA?3?$AA?3?$AA_?$AAV?$AAe?$AAc?$AAt?$AAo?$AAr?$AA_?$AAc?$AAo?$AAn?$AAs?$AAt?$AA_?$AAi?$AAt?$AAe?$AAr?$AAa?$AAt?$AAo?$AAr?$AA?$DM?$AAc?$AAl?$AAa?$AAs@ ; `string'
PUBLIC	??_C@_0BD@OLBABOEK@vector?$DMT?$DO?5too?5long?$AA@ ; `string'
PUBLIC	??_C@_0BA@JFNIOLAK@string?5too?5long?$AA@	; `string'
PUBLIC	??_C@_0BI@CFPLBAOH@invalid?5string?5position?$AA@ ; `string'
PUBLIC	??_C@_1CK@EOPGIILJ@?$AAi?$AAn?$AAv?$AAa?$AAl?$AAi?$AAd?$AA?5?$AAn?$AAu?$AAl?$AAl?$AA?5?$AAp?$AAo?$AAi?$AAn?$AAt?$AAe?$AAr?$AA?$AA@ ; `string'
PUBLIC	??_C@_1CO@DGLIKNHI@?$AAi?$AAn?$AAv?$AAa?$AAl?$AAi?$AAd?$AA?5?$AAi?$AAt?$AAe?$AAr?$AAa?$AAt?$AAo?$AAr?$AA?5?$AAr?$AAa?$AAn?$AAg?$AAe?$AA?$AA@ ; `string'
PUBLIC	??_C@_1JC@ELNBGKIG@?$AAc?$AA?3?$AA?2?$AAp?$AAr?$AAo?$AAg?$AAr?$AAa?$AAm?$AA?5?$AAf?$AAi?$AAl?$AAe?$AAs?$AA?5?$AA?$CI?$AAx?$AA8?$AA6?$AA?$CJ?$AA?2?$AAm?$AAi?$AAc?$AAr?$AAo?$AAs?$AAo?$AAf?$AAt@ ; `string'
PUBLIC	??_C@_1CG@LEJCKCBB@?$AAi?$AAn?$AAv?$AAa?$AAl?$AAi?$AAd?$AA?5?$AAc?$AAo?$AAm?$AAp?$AAa?$AAr?$AAa?$AAt?$AAo?$AAr?$AA?$AA@ ; `string'
PUBLIC	??_C@_1DM@KDEKGMPF@?$AAs?$AAt?$AAr?$AAi?$AAn?$AAg?$AA?5?$AAi?$AAt?$AAe?$AAr?$AAa?$AAt?$AAo?$AAr?$AAs?$AA?5?$AAi?$AAn?$AAc?$AAo?$AAm?$AAp?$AAa?$AAt?$AAi?$AAb?$AAl?$AAe?$AA?$AA@ ; `string'
PUBLIC	??_C@_1MA@BDELDFHB@?$AAs?$AAt?$AAd?$AA?3?$AA?3?$AA_?$AAS?$AAt?$AAr?$AAi?$AAn?$AAg?$AA_?$AAc?$AAo?$AAn?$AAs?$AAt?$AA_?$AAi?$AAt?$AAe?$AAr?$AAa?$AAt?$AAo?$AAr?$AA?$DM?$AAc?$AAl?$AAa?$AAs@ ; `string'
PUBLIC	??_C@_1EG@CNCHLAOB@?$AAs?$AAt?$AAr?$AAi?$AAn?$AAg?$AA?5?$AAi?$AAt?$AAe?$AAr?$AAa?$AAt?$AAo?$AAr?$AA?5?$AAn?$AAo?$AAt?$AA?5?$AAd?$AAe?$AAr?$AAe?$AAf?$AAe?$AAr?$AAe?$AAn?$AAc?$AAa?$AAb@ ; `string'
PUBLIC	??_C@_1MG@GDGHDIKC@?$AAs?$AAt?$AAd?$AA?3?$AA?3?$AA_?$AAS?$AAt?$AAr?$AAi?$AAn?$AAg?$AA_?$AAc?$AAo?$AAn?$AAs?$AAt?$AA_?$AAi?$AAt?$AAe?$AAr?$AAa?$AAt?$AAo?$AAr?$AA?$DM?$AAc?$AAl?$AAa?$AAs@ ; `string'
EXTRN	??2@YAPAXI@Z:PROC				; operator new
EXTRN	??3@YAXPAX@Z:PROC				; operator delete
EXTRN	??3@YAXPAXI@Z:PROC				; operator delete
EXTRN	__imp___invalid_parameter:PROC
EXTRN	__imp_??0_Lockit@std@@QAE@H@Z:PROC
EXTRN	__imp_??1_Lockit@std@@QAE@XZ:PROC
EXTRN	_memcpy:PROC
EXTRN	__imp__memmove:PROC
EXTRN	__imp_?uncaught_exception@std@@YA_NXZ:PROC
EXTRN	_strlen:PROC
EXTRN	__imp___CrtDbgReportW:PROC
EXTRN	__imp_?_Debug_message@std@@YAXPB_W0I@Z:PROC
EXTRN	__imp_?_Xbad_alloc@std@@YAXXZ:PROC
EXTRN	__imp_?_Xlength_error@std@@YAXPBD@Z:PROC
EXTRN	__imp_?_Xout_of_range@std@@YAXPBD@Z:PROC
EXTRN	__imp__toupper:PROC
EXTRN	__imp_?good@ios_base@std@@QBE_NXZ:PROC
EXTRN	__imp_?flags@ios_base@std@@QBEHXZ:PROC
EXTRN	__imp_?width@ios_base@std@@QBE_JXZ:PROC
EXTRN	__imp_?width@ios_base@std@@QAE_J_J@Z:PROC
EXTRN	__imp_?sputc@?$basic_streambuf@DU?$char_traits@D@std@@@std@@QAEHD@Z:PROC
EXTRN	__imp_?sputn@?$basic_streambuf@DU?$char_traits@D@std@@@std@@QAE_JPBD_J@Z:PROC
EXTRN	__imp_?setstate@?$basic_ios@DU?$char_traits@D@std@@@std@@QAEXH_N@Z:PROC
EXTRN	__imp_?tie@?$basic_ios@DU?$char_traits@D@std@@@std@@QBEPAV?$basic_ostream@DU?$char_traits@D@std@@@2@XZ:PROC
EXTRN	__imp_?rdbuf@?$basic_ios@DU?$char_traits@D@std@@@std@@QBEPAV?$basic_streambuf@DU?$char_traits@D@std@@@2@XZ:PROC
EXTRN	__imp_?fill@?$basic_ios@DU?$char_traits@D@std@@@std@@QBEDXZ:PROC
EXTRN	__imp_?widen@?$basic_ios@DU?$char_traits@D@std@@@std@@QBEDD@Z:PROC
EXTRN	__imp_?_Osfx@?$basic_ostream@DU?$char_traits@D@std@@@std@@QAEXXZ:PROC
EXTRN	__imp_??6?$basic_ostream@DU?$char_traits@D@std@@@std@@QAEAAV01@P6AAAV01@AAV01@@Z@Z:PROC
EXTRN	__imp_?put@?$basic_ostream@DU?$char_traits@D@std@@@std@@QAEAAV12@D@Z:PROC
EXTRN	__imp_?flush@?$basic_ostream@DU?$char_traits@D@std@@@std@@QAEAAV12@XZ:PROC
EXTRN	@_RTC_CheckStackVars@8:PROC
EXTRN	@__security_check_cookie@4:PROC
EXTRN	__CxxThrowException@8:PROC
EXTRN	__RTC_CheckEsp:PROC
EXTRN	__RTC_InitBase:PROC
EXTRN	__RTC_Shutdown:PROC
EXTRN	___CxxFrameHandler3:PROC
EXTRN	__imp_?cout@std@@3V?$basic_ostream@DU?$char_traits@D@std@@@1@A:BYTE
EXTRN	___security_cookie:DWORD
;	COMDAT rtc$TMZ
rtc$TMZ	SEGMENT
__RTC_Shutdown.rtc$TMZ DD FLAT:__RTC_Shutdown
rtc$TMZ	ENDS
;	COMDAT rtc$IMZ
rtc$IMZ	SEGMENT
__RTC_InitBase.rtc$IMZ DD FLAT:__RTC_InitBase
rtc$IMZ	ENDS
;	COMDAT ??_C@_1MG@GDGHDIKC@?$AAs?$AAt?$AAd?$AA?3?$AA?3?$AA_?$AAS?$AAt?$AAr?$AAi?$AAn?$AAg?$AA_?$AAc?$AAo?$AAn?$AAs?$AAt?$AA_?$AAi?$AAt?$AAe?$AAr?$AAa?$AAt?$AAo?$AAr?$AA?$DM?$AAc?$AAl?$AAa?$AAs@
CONST	SEGMENT
??_C@_1MG@GDGHDIKC@?$AAs?$AAt?$AAd?$AA?3?$AA?3?$AA_?$AAS?$AAt?$AAr?$AAi?$AAn?$AAg?$AA_?$AAc?$AAo?$AAn?$AAs?$AAt?$AA_?$AAi?$AAt?$AAe?$AAr?$AAa?$AAt?$AAo?$AAr?$AA?$DM?$AAc?$AAl?$AAa?$AAs@ DB 's'
	DB	00H, 't', 00H, 'd', 00H, ':', 00H, ':', 00H, '_', 00H, 'S', 00H
	DB	't', 00H, 'r', 00H, 'i', 00H, 'n', 00H, 'g', 00H, '_', 00H, 'c'
	DB	00H, 'o', 00H, 'n', 00H, 's', 00H, 't', 00H, '_', 00H, 'i', 00H
	DB	't', 00H, 'e', 00H, 'r', 00H, 'a', 00H, 't', 00H, 'o', 00H, 'r'
	DB	00H, '<', 00H, 'c', 00H, 'l', 00H, 'a', 00H, 's', 00H, 's', 00H
	DB	' ', 00H, 's', 00H, 't', 00H, 'd', 00H, ':', 00H, ':', 00H, '_'
	DB	00H, 'S', 00H, 't', 00H, 'r', 00H, 'i', 00H, 'n', 00H, 'g', 00H
	DB	'_', 00H, 'v', 00H, 'a', 00H, 'l', 00H, '<', 00H, 's', 00H, 't'
	DB	00H, 'r', 00H, 'u', 00H, 'c', 00H, 't', 00H, ' ', 00H, 's', 00H
	DB	't', 00H, 'd', 00H, ':', 00H, ':', 00H, '_', 00H, 'S', 00H, 'i'
	DB	00H, 'm', 00H, 'p', 00H, 'l', 00H, 'e', 00H, '_', 00H, 't', 00H
	DB	'y', 00H, 'p', 00H, 'e', 00H, 's', 00H, '<', 00H, 'c', 00H, 'h'
	DB	00H, 'a', 00H, 'r', 00H, '>', 00H, ' ', 00H, '>', 00H, ' ', 00H
	DB	'>', 00H, ':', 00H, ':', 00H, 'o', 00H, 'p', 00H, 'e', 00H, 'r'
	DB	00H, 'a', 00H, 't', 00H, 'o', 00H, 'r', 00H, ' ', 00H, '*', 00H
	DB	00H, 00H					; `string'
CONST	ENDS
;	COMDAT ??_C@_1EG@CNCHLAOB@?$AAs?$AAt?$AAr?$AAi?$AAn?$AAg?$AA?5?$AAi?$AAt?$AAe?$AAr?$AAa?$AAt?$AAo?$AAr?$AA?5?$AAn?$AAo?$AAt?$AA?5?$AAd?$AAe?$AAr?$AAe?$AAf?$AAe?$AAr?$AAe?$AAn?$AAc?$AAa?$AAb@
CONST	SEGMENT
??_C@_1EG@CNCHLAOB@?$AAs?$AAt?$AAr?$AAi?$AAn?$AAg?$AA?5?$AAi?$AAt?$AAe?$AAr?$AAa?$AAt?$AAo?$AAr?$AA?5?$AAn?$AAo?$AAt?$AA?5?$AAd?$AAe?$AAr?$AAe?$AAf?$AAe?$AAr?$AAe?$AAn?$AAc?$AAa?$AAb@ DB 's'
	DB	00H, 't', 00H, 'r', 00H, 'i', 00H, 'n', 00H, 'g', 00H, ' ', 00H
	DB	'i', 00H, 't', 00H, 'e', 00H, 'r', 00H, 'a', 00H, 't', 00H, 'o'
	DB	00H, 'r', 00H, ' ', 00H, 'n', 00H, 'o', 00H, 't', 00H, ' ', 00H
	DB	'd', 00H, 'e', 00H, 'r', 00H, 'e', 00H, 'f', 00H, 'e', 00H, 'r'
	DB	00H, 'e', 00H, 'n', 00H, 'c', 00H, 'a', 00H, 'b', 00H, 'l', 00H
	DB	'e', 00H, 00H, 00H				; `string'
CONST	ENDS
;	COMDAT ??_C@_1MA@BDELDFHB@?$AAs?$AAt?$AAd?$AA?3?$AA?3?$AA_?$AAS?$AAt?$AAr?$AAi?$AAn?$AAg?$AA_?$AAc?$AAo?$AAn?$AAs?$AAt?$AA_?$AAi?$AAt?$AAe?$AAr?$AAa?$AAt?$AAo?$AAr?$AA?$DM?$AAc?$AAl?$AAa?$AAs@
CONST	SEGMENT
??_C@_1MA@BDELDFHB@?$AAs?$AAt?$AAd?$AA?3?$AA?3?$AA_?$AAS?$AAt?$AAr?$AAi?$AAn?$AAg?$AA_?$AAc?$AAo?$AAn?$AAs?$AAt?$AA_?$AAi?$AAt?$AAe?$AAr?$AAa?$AAt?$AAo?$AAr?$AA?$DM?$AAc?$AAl?$AAa?$AAs@ DB 's'
	DB	00H, 't', 00H, 'd', 00H, ':', 00H, ':', 00H, '_', 00H, 'S', 00H
	DB	't', 00H, 'r', 00H, 'i', 00H, 'n', 00H, 'g', 00H, '_', 00H, 'c'
	DB	00H, 'o', 00H, 'n', 00H, 's', 00H, 't', 00H, '_', 00H, 'i', 00H
	DB	't', 00H, 'e', 00H, 'r', 00H, 'a', 00H, 't', 00H, 'o', 00H, 'r'
	DB	00H, '<', 00H, 'c', 00H, 'l', 00H, 'a', 00H, 's', 00H, 's', 00H
	DB	' ', 00H, 's', 00H, 't', 00H, 'd', 00H, ':', 00H, ':', 00H, '_'
	DB	00H, 'S', 00H, 't', 00H, 'r', 00H, 'i', 00H, 'n', 00H, 'g', 00H
	DB	'_', 00H, 'v', 00H, 'a', 00H, 'l', 00H, '<', 00H, 's', 00H, 't'
	DB	00H, 'r', 00H, 'u', 00H, 'c', 00H, 't', 00H, ' ', 00H, 's', 00H
	DB	't', 00H, 'd', 00H, ':', 00H, ':', 00H, '_', 00H, 'S', 00H, 'i'
	DB	00H, 'm', 00H, 'p', 00H, 'l', 00H, 'e', 00H, '_', 00H, 't', 00H
	DB	'y', 00H, 'p', 00H, 'e', 00H, 's', 00H, '<', 00H, 'c', 00H, 'h'
	DB	00H, 'a', 00H, 'r', 00H, '>', 00H, ' ', 00H, '>', 00H, ' ', 00H
	DB	'>', 00H, ':', 00H, ':', 00H, '_', 00H, 'C', 00H, 'o', 00H, 'm'
	DB	00H, 'p', 00H, 'a', 00H, 't', 00H, 00H, 00H	; `string'
CONST	ENDS
;	COMDAT ??_C@_1DM@KDEKGMPF@?$AAs?$AAt?$AAr?$AAi?$AAn?$AAg?$AA?5?$AAi?$AAt?$AAe?$AAr?$AAa?$AAt?$AAo?$AAr?$AAs?$AA?5?$AAi?$AAn?$AAc?$AAo?$AAm?$AAp?$AAa?$AAt?$AAi?$AAb?$AAl?$AAe?$AA?$AA@
CONST	SEGMENT
??_C@_1DM@KDEKGMPF@?$AAs?$AAt?$AAr?$AAi?$AAn?$AAg?$AA?5?$AAi?$AAt?$AAe?$AAr?$AAa?$AAt?$AAo?$AAr?$AAs?$AA?5?$AAi?$AAn?$AAc?$AAo?$AAm?$AAp?$AAa?$AAt?$AAi?$AAb?$AAl?$AAe?$AA?$AA@ DB 's'
	DB	00H, 't', 00H, 'r', 00H, 'i', 00H, 'n', 00H, 'g', 00H, ' ', 00H
	DB	'i', 00H, 't', 00H, 'e', 00H, 'r', 00H, 'a', 00H, 't', 00H, 'o'
	DB	00H, 'r', 00H, 's', 00H, ' ', 00H, 'i', 00H, 'n', 00H, 'c', 00H
	DB	'o', 00H, 'm', 00H, 'p', 00H, 'a', 00H, 't', 00H, 'i', 00H, 'b'
	DB	00H, 'l', 00H, 'e', 00H, 00H, 00H		; `string'
CONST	ENDS
;	COMDAT ??_C@_1CG@LEJCKCBB@?$AAi?$AAn?$AAv?$AAa?$AAl?$AAi?$AAd?$AA?5?$AAc?$AAo?$AAm?$AAp?$AAa?$AAr?$AAa?$AAt?$AAo?$AAr?$AA?$AA@
CONST	SEGMENT
??_C@_1CG@LEJCKCBB@?$AAi?$AAn?$AAv?$AAa?$AAl?$AAi?$AAd?$AA?5?$AAc?$AAo?$AAm?$AAp?$AAa?$AAr?$AAa?$AAt?$AAo?$AAr?$AA?$AA@ DB 'i'
	DB	00H, 'n', 00H, 'v', 00H, 'a', 00H, 'l', 00H, 'i', 00H, 'd', 00H
	DB	' ', 00H, 'c', 00H, 'o', 00H, 'm', 00H, 'p', 00H, 'a', 00H, 'r'
	DB	00H, 'a', 00H, 't', 00H, 'o', 00H, 'r', 00H, 00H, 00H ; `string'
CONST	ENDS
;	COMDAT ??_C@_1JC@ELNBGKIG@?$AAc?$AA?3?$AA?2?$AAp?$AAr?$AAo?$AAg?$AAr?$AAa?$AAm?$AA?5?$AAf?$AAi?$AAl?$AAe?$AAs?$AA?5?$AA?$CI?$AAx?$AA8?$AA6?$AA?$CJ?$AA?2?$AAm?$AAi?$AAc?$AAr?$AAo?$AAs?$AAo?$AAf?$AAt@
CONST	SEGMENT
??_C@_1JC@ELNBGKIG@?$AAc?$AA?3?$AA?2?$AAp?$AAr?$AAo?$AAg?$AAr?$AAa?$AAm?$AA?5?$AAf?$AAi?$AAl?$AAe?$AAs?$AA?5?$AA?$CI?$AAx?$AA8?$AA6?$AA?$CJ?$AA?2?$AAm?$AAi?$AAc?$AAr?$AAo?$AAs?$AAo?$AAf?$AAt@ DB 'c'
	DB	00H, ':', 00H, '\', 00H, 'p', 00H, 'r', 00H, 'o', 00H, 'g', 00H
	DB	'r', 00H, 'a', 00H, 'm', 00H, ' ', 00H, 'f', 00H, 'i', 00H, 'l'
	DB	00H, 'e', 00H, 's', 00H, ' ', 00H, '(', 00H, 'x', 00H, '8', 00H
	DB	'6', 00H, ')', 00H, '\', 00H, 'm', 00H, 'i', 00H, 'c', 00H, 'r'
	DB	00H, 'o', 00H, 's', 00H, 'o', 00H, 'f', 00H, 't', 00H, ' ', 00H
	DB	'v', 00H, 'i', 00H, 's', 00H, 'u', 00H, 'a', 00H, 'l', 00H, ' '
	DB	00H, 's', 00H, 't', 00H, 'u', 00H, 'd', 00H, 'i', 00H, 'o', 00H
	DB	' ', 00H, '1', 00H, '4', 00H, '.', 00H, '0', 00H, '\', 00H, 'v'
	DB	00H, 'c', 00H, '\', 00H, 'i', 00H, 'n', 00H, 'c', 00H, 'l', 00H
	DB	'u', 00H, 'd', 00H, 'e', 00H, '\', 00H, 'a', 00H, 'l', 00H, 'g'
	DB	00H, 'o', 00H, 'r', 00H, 'i', 00H, 't', 00H, 'h', 00H, 'm', 00H
	DB	00H, 00H					; `string'
CONST	ENDS
;	COMDAT ??_C@_1CO@DGLIKNHI@?$AAi?$AAn?$AAv?$AAa?$AAl?$AAi?$AAd?$AA?5?$AAi?$AAt?$AAe?$AAr?$AAa?$AAt?$AAo?$AAr?$AA?5?$AAr?$AAa?$AAn?$AAg?$AAe?$AA?$AA@
CONST	SEGMENT
??_C@_1CO@DGLIKNHI@?$AAi?$AAn?$AAv?$AAa?$AAl?$AAi?$AAd?$AA?5?$AAi?$AAt?$AAe?$AAr?$AAa?$AAt?$AAo?$AAr?$AA?5?$AAr?$AAa?$AAn?$AAg?$AAe?$AA?$AA@ DB 'i'
	DB	00H, 'n', 00H, 'v', 00H, 'a', 00H, 'l', 00H, 'i', 00H, 'd', 00H
	DB	' ', 00H, 'i', 00H, 't', 00H, 'e', 00H, 'r', 00H, 'a', 00H, 't'
	DB	00H, 'o', 00H, 'r', 00H, ' ', 00H, 'r', 00H, 'a', 00H, 'n', 00H
	DB	'g', 00H, 'e', 00H, 00H, 00H			; `string'
CONST	ENDS
;	COMDAT ??_C@_1CK@EOPGIILJ@?$AAi?$AAn?$AAv?$AAa?$AAl?$AAi?$AAd?$AA?5?$AAn?$AAu?$AAl?$AAl?$AA?5?$AAp?$AAo?$AAi?$AAn?$AAt?$AAe?$AAr?$AA?$AA@
CONST	SEGMENT
??_C@_1CK@EOPGIILJ@?$AAi?$AAn?$AAv?$AAa?$AAl?$AAi?$AAd?$AA?5?$AAn?$AAu?$AAl?$AAl?$AA?5?$AAp?$AAo?$AAi?$AAn?$AAt?$AAe?$AAr?$AA?$AA@ DB 'i'
	DB	00H, 'n', 00H, 'v', 00H, 'a', 00H, 'l', 00H, 'i', 00H, 'd', 00H
	DB	' ', 00H, 'n', 00H, 'u', 00H, 'l', 00H, 'l', 00H, ' ', 00H, 'p'
	DB	00H, 'o', 00H, 'i', 00H, 'n', 00H, 't', 00H, 'e', 00H, 'r', 00H
	DB	00H, 00H					; `string'
CONST	ENDS
;	COMDAT ??_C@_0BI@CFPLBAOH@invalid?5string?5position?$AA@
CONST	SEGMENT
??_C@_0BI@CFPLBAOH@invalid?5string?5position?$AA@ DB 'invalid string posi'
	DB	'tion', 00H					; `string'
CONST	ENDS
;	COMDAT ??_C@_0BA@JFNIOLAK@string?5too?5long?$AA@
CONST	SEGMENT
??_C@_0BA@JFNIOLAK@string?5too?5long?$AA@ DB 'string too long', 00H ; `string'
CONST	ENDS
;	COMDAT ??_C@_0BD@OLBABOEK@vector?$DMT?$DO?5too?5long?$AA@
CONST	SEGMENT
??_C@_0BD@OLBABOEK@vector?$DMT?$DO?5too?5long?$AA@ DB 'vector<T> too long'
	DB	00H						; `string'
CONST	ENDS
;	COMDAT ??_C@_1OM@HACCCHHK@?$AAs?$AAt?$AAd?$AA?3?$AA?3?$AA_?$AAV?$AAe?$AAc?$AAt?$AAo?$AAr?$AA_?$AAc?$AAo?$AAn?$AAs?$AAt?$AA_?$AAi?$AAt?$AAe?$AAr?$AAa?$AAt?$AAo?$AAr?$AA?$DM?$AAc?$AAl?$AAa?$AAs@
CONST	SEGMENT
??_C@_1OM@HACCCHHK@?$AAs?$AAt?$AAd?$AA?3?$AA?3?$AA_?$AAV?$AAe?$AAc?$AAt?$AAo?$AAr?$AA_?$AAc?$AAo?$AAn?$AAs?$AAt?$AA_?$AAi?$AAt?$AAe?$AAr?$AAa?$AAt?$AAo?$AAr?$AA?$DM?$AAc?$AAl?$AAa?$AAs@ DB 's'
	DB	00H, 't', 00H, 'd', 00H, ':', 00H, ':', 00H, '_', 00H, 'V', 00H
	DB	'e', 00H, 'c', 00H, 't', 00H, 'o', 00H, 'r', 00H, '_', 00H, 'c'
	DB	00H, 'o', 00H, 'n', 00H, 's', 00H, 't', 00H, '_', 00H, 'i', 00H
	DB	't', 00H, 'e', 00H, 'r', 00H, 'a', 00H, 't', 00H, 'o', 00H, 'r'
	DB	00H, '<', 00H, 'c', 00H, 'l', 00H, 'a', 00H, 's', 00H, 's', 00H
	DB	' ', 00H, 's', 00H, 't', 00H, 'd', 00H, ':', 00H, ':', 00H, '_'
	DB	00H, 'V', 00H, 'e', 00H, 'c', 00H, 't', 00H, 'o', 00H, 'r', 00H
	DB	'_', 00H, 'v', 00H, 'a', 00H, 'l', 00H, '<', 00H, 's', 00H, 't'
	DB	00H, 'r', 00H, 'u', 00H, 'c', 00H, 't', 00H, ' ', 00H, 's', 00H
	DB	't', 00H, 'd', 00H, ':', 00H, ':', 00H, '_', 00H, 'S', 00H, 'i'
	DB	00H, 'm', 00H, 'p', 00H, 'l', 00H, 'e', 00H, '_', 00H, 't', 00H
	DB	'y', 00H, 'p', 00H, 'e', 00H, 's', 00H, '<', 00H, 's', 00H, 't'
	DB	00H, 'r', 00H, 'u', 00H, 'c', 00H, 't', 00H, ' ', 00H, 'C', 00H
	DB	'C', 00H, 'u', 00H, 's', 00H, 't', 00H, 'o', 00H, 'm', 00H, 'M'
	DB	00H, 'e', 00H, 'n', 00H, 'u', 00H, ':', 00H, ':', 00H, 'O', 00H
	DB	'p', 00H, 't', 00H, 'i', 00H, 'o', 00H, 'n', 00H, '>', 00H, ' '
	DB	00H, '>', 00H, ' ', 00H, '>', 00H, ':', 00H, ':', 00H, '_', 00H
	DB	'C', 00H, 'o', 00H, 'm', 00H, 'p', 00H, 'a', 00H, 't', 00H, 00H
	DB	00H						; `string'
CONST	ENDS
;	COMDAT ??_C@_1FO@GJIHNDLM@?$AA?$CC?$AAS?$AAt?$AAa?$AAn?$AAd?$AAa?$AAr?$AAd?$AA?5?$AAC?$AA?$CL?$AA?$CL?$AA?5?$AAL?$AAi?$AAb?$AAr?$AAa?$AAr?$AAi?$AAe?$AAs?$AA?5?$AAI?$AAn?$AAv?$AAa?$AAl?$AAi?$AAd?$AA?5@
CONST	SEGMENT
??_C@_1FO@GJIHNDLM@?$AA?$CC?$AAS?$AAt?$AAa?$AAn?$AAd?$AAa?$AAr?$AAd?$AA?5?$AAC?$AA?$CL?$AA?$CL?$AA?5?$AAL?$AAi?$AAb?$AAr?$AAa?$AAr?$AAi?$AAe?$AAs?$AA?5?$AAI?$AAn?$AAv?$AAa?$AAl?$AAi?$AAd?$AA?5@ DB '"'
	DB	00H, 'S', 00H, 't', 00H, 'a', 00H, 'n', 00H, 'd', 00H, 'a', 00H
	DB	'r', 00H, 'd', 00H, ' ', 00H, 'C', 00H, '+', 00H, '+', 00H, ' '
	DB	00H, 'L', 00H, 'i', 00H, 'b', 00H, 'r', 00H, 'a', 00H, 'r', 00H
	DB	'i', 00H, 'e', 00H, 's', 00H, ' ', 00H, 'I', 00H, 'n', 00H, 'v'
	DB	00H, 'a', 00H, 'l', 00H, 'i', 00H, 'd', 00H, ' ', 00H, 'A', 00H
	DB	'r', 00H, 'g', 00H, 'u', 00H, 'm', 00H, 'e', 00H, 'n', 00H, 't'
	DB	00H, '"', 00H, ' ', 00H, '&', 00H, '&', 00H, ' ', 00H, '0', 00H
	DB	00H, 00H					; `string'
CONST	ENDS
;	COMDAT ??_C@_0CI@FNPHFCCM@Standard?5C?$CL?$CL?5Libraries?5Invalid?5A@
CONST	SEGMENT
??_C@_0CI@FNPHFCCM@Standard?5C?$CL?$CL?5Libraries?5Invalid?5A@ DB 'Standa'
	DB	'rd C++ Libraries Invalid Argument', 00H	; `string'
CONST	ENDS
;	COMDAT ??_C@_1DM@HINDPMBP@?$AAv?$AAe?$AAc?$AAt?$AAo?$AAr?$AA?5?$AAi?$AAt?$AAe?$AAr?$AAa?$AAt?$AAo?$AAr?$AAs?$AA?5?$AAi?$AAn?$AAc?$AAo?$AAm?$AAp?$AAa?$AAt?$AAi?$AAb?$AAl?$AAe?$AA?$AA@
CONST	SEGMENT
??_C@_1DM@HINDPMBP@?$AAv?$AAe?$AAc?$AAt?$AAo?$AAr?$AA?5?$AAi?$AAt?$AAe?$AAr?$AAa?$AAt?$AAo?$AAr?$AAs?$AA?5?$AAi?$AAn?$AAc?$AAo?$AAm?$AAp?$AAa?$AAt?$AAi?$AAb?$AAl?$AAe?$AA?$AA@ DB 'v'
	DB	00H, 'e', 00H, 'c', 00H, 't', 00H, 'o', 00H, 'r', 00H, ' ', 00H
	DB	'i', 00H, 't', 00H, 'e', 00H, 'r', 00H, 'a', 00H, 't', 00H, 'o'
	DB	00H, 'r', 00H, 's', 00H, ' ', 00H, 'i', 00H, 'n', 00H, 'c', 00H
	DB	'o', 00H, 'm', 00H, 'p', 00H, 'a', 00H, 't', 00H, 'i', 00H, 'b'
	DB	00H, 'l', 00H, 'e', 00H, 00H, 00H		; `string'
CONST	ENDS
;	COMDAT ??_C@_1PC@BPDPMBHD@?$AAs?$AAt?$AAd?$AA?3?$AA?3?$AA_?$AAV?$AAe?$AAc?$AAt?$AAo?$AAr?$AA_?$AAc?$AAo?$AAn?$AAs?$AAt?$AA_?$AAi?$AAt?$AAe?$AAr?$AAa?$AAt?$AAo?$AAr?$AA?$DM?$AAc?$AAl?$AAa?$AAs@
CONST	SEGMENT
??_C@_1PC@BPDPMBHD@?$AAs?$AAt?$AAd?$AA?3?$AA?3?$AA_?$AAV?$AAe?$AAc?$AAt?$AAo?$AAr?$AA_?$AAc?$AAo?$AAn?$AAs?$AAt?$AA_?$AAi?$AAt?$AAe?$AAr?$AAa?$AAt?$AAo?$AAr?$AA?$DM?$AAc?$AAl?$AAa?$AAs@ DB 's'
	DB	00H, 't', 00H, 'd', 00H, ':', 00H, ':', 00H, '_', 00H, 'V', 00H
	DB	'e', 00H, 'c', 00H, 't', 00H, 'o', 00H, 'r', 00H, '_', 00H, 'c'
	DB	00H, 'o', 00H, 'n', 00H, 's', 00H, 't', 00H, '_', 00H, 'i', 00H
	DB	't', 00H, 'e', 00H, 'r', 00H, 'a', 00H, 't', 00H, 'o', 00H, 'r'
	DB	00H, '<', 00H, 'c', 00H, 'l', 00H, 'a', 00H, 's', 00H, 's', 00H
	DB	' ', 00H, 's', 00H, 't', 00H, 'd', 00H, ':', 00H, ':', 00H, '_'
	DB	00H, 'V', 00H, 'e', 00H, 'c', 00H, 't', 00H, 'o', 00H, 'r', 00H
	DB	'_', 00H, 'v', 00H, 'a', 00H, 'l', 00H, '<', 00H, 's', 00H, 't'
	DB	00H, 'r', 00H, 'u', 00H, 'c', 00H, 't', 00H, ' ', 00H, 's', 00H
	DB	't', 00H, 'd', 00H, ':', 00H, ':', 00H, '_', 00H, 'S', 00H, 'i'
	DB	00H, 'm', 00H, 'p', 00H, 'l', 00H, 'e', 00H, '_', 00H, 't', 00H
	DB	'y', 00H, 'p', 00H, 'e', 00H, 's', 00H, '<', 00H, 's', 00H, 't'
	DB	00H, 'r', 00H, 'u', 00H, 'c', 00H, 't', 00H, ' ', 00H, 'C', 00H
	DB	'C', 00H, 'u', 00H, 's', 00H, 't', 00H, 'o', 00H, 'm', 00H, 'M'
	DB	00H, 'e', 00H, 'n', 00H, 'u', 00H, ':', 00H, ':', 00H, 'O', 00H
	DB	'p', 00H, 't', 00H, 'i', 00H, 'o', 00H, 'n', 00H, '>', 00H, ' '
	DB	00H, '>', 00H, ' ', 00H, '>', 00H, ':', 00H, ':', 00H, 'o', 00H
	DB	'p', 00H, 'e', 00H, 'r', 00H, 'a', 00H, 't', 00H, 'o', 00H, 'r'
	DB	00H, ' ', 00H, '*', 00H, 00H, 00H		; `string'
CONST	ENDS
;	COMDAT ??_C@_1EG@FOHJJHAC@?$AAv?$AAe?$AAc?$AAt?$AAo?$AAr?$AA?5?$AAi?$AAt?$AAe?$AAr?$AAa?$AAt?$AAo?$AAr?$AA?5?$AAn?$AAo?$AAt?$AA?5?$AAd?$AAe?$AAr?$AAe?$AAf?$AAe?$AAr?$AAe?$AAn?$AAc?$AAa?$AAb@
CONST	SEGMENT
??_C@_1EG@FOHJJHAC@?$AAv?$AAe?$AAc?$AAt?$AAo?$AAr?$AA?5?$AAi?$AAt?$AAe?$AAr?$AAa?$AAt?$AAo?$AAr?$AA?5?$AAn?$AAo?$AAt?$AA?5?$AAd?$AAe?$AAr?$AAe?$AAf?$AAe?$AAr?$AAe?$AAn?$AAc?$AAa?$AAb@ DB 'v'
	DB	00H, 'e', 00H, 'c', 00H, 't', 00H, 'o', 00H, 'r', 00H, ' ', 00H
	DB	'i', 00H, 't', 00H, 'e', 00H, 'r', 00H, 'a', 00H, 't', 00H, 'o'
	DB	00H, 'r', 00H, ' ', 00H, 'n', 00H, 'o', 00H, 't', 00H, ' ', 00H
	DB	'd', 00H, 'e', 00H, 'r', 00H, 'e', 00H, 'f', 00H, 'e', 00H, 'r'
	DB	00H, 'e', 00H, 'n', 00H, 'c', 00H, 'a', 00H, 'b', 00H, 'l', 00H
	DB	'e', 00H, 00H, 00H				; `string'
CONST	ENDS
;	COMDAT ??_C@_1IO@EADHKMNI@?$AAc?$AA?3?$AA?2?$AAp?$AAr?$AAo?$AAg?$AAr?$AAa?$AAm?$AA?5?$AAf?$AAi?$AAl?$AAe?$AAs?$AA?5?$AA?$CI?$AAx?$AA8?$AA6?$AA?$CJ?$AA?2?$AAm?$AAi?$AAc?$AAr?$AAo?$AAs?$AAo?$AAf?$AAt@
CONST	SEGMENT
??_C@_1IO@EADHKMNI@?$AAc?$AA?3?$AA?2?$AAp?$AAr?$AAo?$AAg?$AAr?$AAa?$AAm?$AA?5?$AAf?$AAi?$AAl?$AAe?$AAs?$AA?5?$AA?$CI?$AAx?$AA8?$AA6?$AA?$CJ?$AA?2?$AAm?$AAi?$AAc?$AAr?$AAo?$AAs?$AAo?$AAf?$AAt@ DB 'c'
	DB	00H, ':', 00H, '\', 00H, 'p', 00H, 'r', 00H, 'o', 00H, 'g', 00H
	DB	'r', 00H, 'a', 00H, 'm', 00H, ' ', 00H, 'f', 00H, 'i', 00H, 'l'
	DB	00H, 'e', 00H, 's', 00H, ' ', 00H, '(', 00H, 'x', 00H, '8', 00H
	DB	'6', 00H, ')', 00H, '\', 00H, 'm', 00H, 'i', 00H, 'c', 00H, 'r'
	DB	00H, 'o', 00H, 's', 00H, 'o', 00H, 'f', 00H, 't', 00H, ' ', 00H
	DB	'v', 00H, 'i', 00H, 's', 00H, 'u', 00H, 'a', 00H, 'l', 00H, ' '
	DB	00H, 's', 00H, 't', 00H, 'u', 00H, 'd', 00H, 'i', 00H, 'o', 00H
	DB	' ', 00H, '1', 00H, '4', 00H, '.', 00H, '0', 00H, '\', 00H, 'v'
	DB	00H, 'c', 00H, '\', 00H, 'i', 00H, 'n', 00H, 'c', 00H, 'l', 00H
	DB	'u', 00H, 'd', 00H, 'e', 00H, '\', 00H, 'x', 00H, 's', 00H, 't'
	DB	00H, 'r', 00H, 'i', 00H, 'n', 00H, 'g', 00H, 00H, 00H ; `string'
CONST	ENDS
;	COMDAT ??_C@_1BO@MEPPHOO@?$AA?$CC?$AAo?$AAu?$AAt?$AA?5?$AAo?$AAf?$AA?5?$AAr?$AAa?$AAn?$AAg?$AAe?$AA?$CC?$AA?$AA@
CONST	SEGMENT
??_C@_1BO@MEPPHOO@?$AA?$CC?$AAo?$AAu?$AAt?$AA?5?$AAo?$AAf?$AA?5?$AAr?$AAa?$AAn?$AAg?$AAe?$AA?$CC?$AA?$AA@ DB '"'
	DB	00H, 'o', 00H, 'u', 00H, 't', 00H, ' ', 00H, 'o', 00H, 'f', 00H
	DB	' ', 00H, 'r', 00H, 'a', 00H, 'n', 00H, 'g', 00H, 'e', 00H, '"'
	DB	00H, 00H, 00H				; `string'
CONST	ENDS
;	COMDAT ??_C@_1PE@FEBODMLG@?$AAs?$AAt?$AAd?$AA?3?$AA?3?$AA_?$AAV?$AAe?$AAc?$AAt?$AAo?$AAr?$AA_?$AAc?$AAo?$AAn?$AAs?$AAt?$AA_?$AAi?$AAt?$AAe?$AAr?$AAa?$AAt?$AAo?$AAr?$AA?$DM?$AAc?$AAl?$AAa?$AAs@
CONST	SEGMENT
??_C@_1PE@FEBODMLG@?$AAs?$AAt?$AAd?$AA?3?$AA?3?$AA_?$AAV?$AAe?$AAc?$AAt?$AAo?$AAr?$AA_?$AAc?$AAo?$AAn?$AAs?$AAt?$AA_?$AAi?$AAt?$AAe?$AAr?$AAa?$AAt?$AAo?$AAr?$AA?$DM?$AAc?$AAl?$AAa?$AAs@ DB 's'
	DB	00H, 't', 00H, 'd', 00H, ':', 00H, ':', 00H, '_', 00H, 'V', 00H
	DB	'e', 00H, 'c', 00H, 't', 00H, 'o', 00H, 'r', 00H, '_', 00H, 'c'
	DB	00H, 'o', 00H, 'n', 00H, 's', 00H, 't', 00H, '_', 00H, 'i', 00H
	DB	't', 00H, 'e', 00H, 'r', 00H, 'a', 00H, 't', 00H, 'o', 00H, 'r'
	DB	00H, '<', 00H, 'c', 00H, 'l', 00H, 'a', 00H, 's', 00H, 's', 00H
	DB	' ', 00H, 's', 00H, 't', 00H, 'd', 00H, ':', 00H, ':', 00H, '_'
	DB	00H, 'V', 00H, 'e', 00H, 'c', 00H, 't', 00H, 'o', 00H, 'r', 00H
	DB	'_', 00H, 'v', 00H, 'a', 00H, 'l', 00H, '<', 00H, 's', 00H, 't'
	DB	00H, 'r', 00H, 'u', 00H, 'c', 00H, 't', 00H, ' ', 00H, 's', 00H
	DB	't', 00H, 'd', 00H, ':', 00H, ':', 00H, '_', 00H, 'S', 00H, 'i'
	DB	00H, 'm', 00H, 'p', 00H, 'l', 00H, 'e', 00H, '_', 00H, 't', 00H
	DB	'y', 00H, 'p', 00H, 'e', 00H, 's', 00H, '<', 00H, 's', 00H, 't'
	DB	00H, 'r', 00H, 'u', 00H, 'c', 00H, 't', 00H, ' ', 00H, 'C', 00H
	DB	'C', 00H, 'u', 00H, 's', 00H, 't', 00H, 'o', 00H, 'm', 00H, 'M'
	DB	00H, 'e', 00H, 'n', 00H, 'u', 00H, ':', 00H, ':', 00H, 'O', 00H
	DB	'p', 00H, 't', 00H, 'i', 00H, 'o', 00H, 'n', 00H, '>', 00H, ' '
	DB	00H, '>', 00H, ' ', 00H, '>', 00H, ':', 00H, ':', 00H, 'o', 00H
	DB	'p', 00H, 'e', 00H, 'r', 00H, 'a', 00H, 't', 00H, 'o', 00H, 'r'
	DB	00H, ' ', 00H, '+', 00H, '+', 00H, 00H, 00H	; `string'
CONST	ENDS
;	COMDAT ??_C@_1FG@IBPIFFN@?$AA?$CC?$AAS?$AAt?$AAa?$AAn?$AAd?$AAa?$AAr?$AAd?$AA?5?$AAC?$AA?$CL?$AA?$CL?$AA?5?$AAL?$AAi?$AAb?$AAr?$AAa?$AAr?$AAi?$AAe?$AAs?$AA?5?$AAO?$AAu?$AAt?$AA?5?$AAo?$AAf?$AA?5?$AAR@
CONST	SEGMENT
??_C@_1FG@IBPIFFN@?$AA?$CC?$AAS?$AAt?$AAa?$AAn?$AAd?$AAa?$AAr?$AAd?$AA?5?$AAC?$AA?$CL?$AA?$CL?$AA?5?$AAL?$AAi?$AAb?$AAr?$AAa?$AAr?$AAi?$AAe?$AAs?$AA?5?$AAO?$AAu?$AAt?$AA?5?$AAo?$AAf?$AA?5?$AAR@ DB '"'
	DB	00H, 'S', 00H, 't', 00H, 'a', 00H, 'n', 00H, 'd', 00H, 'a', 00H
	DB	'r', 00H, 'd', 00H, ' ', 00H, 'C', 00H, '+', 00H, '+', 00H, ' '
	DB	00H, 'L', 00H, 'i', 00H, 'b', 00H, 'r', 00H, 'a', 00H, 'r', 00H
	DB	'i', 00H, 'e', 00H, 's', 00H, ' ', 00H, 'O', 00H, 'u', 00H, 't'
	DB	00H, ' ', 00H, 'o', 00H, 'f', 00H, ' ', 00H, 'R', 00H, 'a', 00H
	DB	'n', 00H, 'g', 00H, 'e', 00H, '"', 00H, ' ', 00H, '&', 00H, '&'
	DB	00H, ' ', 00H, '0', 00H, 00H, 00H		; `string'
CONST	ENDS
;	COMDAT ??_C@_0CE@OFMIGAMM@Standard?5C?$CL?$CL?5Libraries?5Out?5of?5Ra@
CONST	SEGMENT
??_C@_0CE@OFMIGAMM@Standard?5C?$CL?$CL?5Libraries?5Out?5of?5Ra@ DB 'Stand'
	DB	'ard C++ Libraries Out of Range', 00H	; `string'
CONST	ENDS
;	COMDAT ??_C@_1EE@EJDKCLKB@?$AAv?$AAe?$AAc?$AAt?$AAo?$AAr?$AA?5?$AAi?$AAt?$AAe?$AAr?$AAa?$AAt?$AAo?$AAr?$AA?5?$AAn?$AAo?$AAt?$AA?5?$AAi?$AAn?$AAc?$AAr?$AAe?$AAm?$AAe?$AAn?$AAt?$AAa?$AAb?$AAl@
CONST	SEGMENT
??_C@_1EE@EJDKCLKB@?$AAv?$AAe?$AAc?$AAt?$AAo?$AAr?$AA?5?$AAi?$AAt?$AAe?$AAr?$AAa?$AAt?$AAo?$AAr?$AA?5?$AAn?$AAo?$AAt?$AA?5?$AAi?$AAn?$AAc?$AAr?$AAe?$AAm?$AAe?$AAn?$AAt?$AAa?$AAb?$AAl@ DB 'v'
	DB	00H, 'e', 00H, 'c', 00H, 't', 00H, 'o', 00H, 'r', 00H, ' ', 00H
	DB	'i', 00H, 't', 00H, 'e', 00H, 'r', 00H, 'a', 00H, 't', 00H, 'o'
	DB	00H, 'r', 00H, ' ', 00H, 'n', 00H, 'o', 00H, 't', 00H, ' ', 00H
	DB	'i', 00H, 'n', 00H, 'c', 00H, 'r', 00H, 'e', 00H, 'm', 00H, 'e'
	DB	00H, 'n', 00H, 't', 00H, 'a', 00H, 'b', 00H, 'l', 00H, 'e', 00H
	DB	00H, 00H					; `string'
CONST	ENDS
;	COMDAT ??_C@_1IM@NCODKBJH@?$AAc?$AA?3?$AA?2?$AAp?$AAr?$AAo?$AAg?$AAr?$AAa?$AAm?$AA?5?$AAf?$AAi?$AAl?$AAe?$AAs?$AA?5?$AA?$CI?$AAx?$AA8?$AA6?$AA?$CJ?$AA?2?$AAm?$AAi?$AAc?$AAr?$AAo?$AAs?$AAo?$AAf?$AAt@
CONST	SEGMENT
??_C@_1IM@NCODKBJH@?$AAc?$AA?3?$AA?2?$AAp?$AAr?$AAo?$AAg?$AAr?$AAa?$AAm?$AA?5?$AAf?$AAi?$AAl?$AAe?$AAs?$AA?5?$AA?$CI?$AAx?$AA8?$AA6?$AA?$CJ?$AA?2?$AAm?$AAi?$AAc?$AAr?$AAo?$AAs?$AAo?$AAf?$AAt@ DB 'c'
	DB	00H, ':', 00H, '\', 00H, 'p', 00H, 'r', 00H, 'o', 00H, 'g', 00H
	DB	'r', 00H, 'a', 00H, 'm', 00H, ' ', 00H, 'f', 00H, 'i', 00H, 'l'
	DB	00H, 'e', 00H, 's', 00H, ' ', 00H, '(', 00H, 'x', 00H, '8', 00H
	DB	'6', 00H, ')', 00H, '\', 00H, 'm', 00H, 'i', 00H, 'c', 00H, 'r'
	DB	00H, 'o', 00H, 's', 00H, 'o', 00H, 'f', 00H, 't', 00H, ' ', 00H
	DB	'v', 00H, 'i', 00H, 's', 00H, 'u', 00H, 'a', 00H, 'l', 00H, ' '
	DB	00H, 's', 00H, 't', 00H, 'u', 00H, 'd', 00H, 'i', 00H, 'o', 00H
	DB	' ', 00H, '1', 00H, '4', 00H, '.', 00H, '0', 00H, '\', 00H, 'v'
	DB	00H, 'c', 00H, '\', 00H, 'i', 00H, 'n', 00H, 'c', 00H, 'l', 00H
	DB	'u', 00H, 'd', 00H, 'e', 00H, '\', 00H, 'v', 00H, 'e', 00H, 'c'
	DB	00H, 't', 00H, 'o', 00H, 'r', 00H, 00H, 00H	; `string'
CONST	ENDS
;	COMDAT ??_C@_01GPOEFGEJ@?7?$AA@
CONST	SEGMENT
??_C@_01GPOEFGEJ@?7?$AA@ DB 09H, 00H			; `string'
CONST	ENDS
;	COMDAT ??_C@_03KOEIKCBF@?$CJ?5?5?$AA@
CONST	SEGMENT
??_C@_03KOEIKCBF@?$CJ?5?5?$AA@ DB ')  ', 00H		; `string'
CONST	ENDS
;	COMDAT ?npos@?$basic_string@DU?$char_traits@D@std@@V?$allocator@D@2@@std@@2IB
CONST	SEGMENT
?npos@?$basic_string@DU?$char_traits@D@std@@V?$allocator@D@2@@std@@2IB DD 0ffffffffH ; std::basic_string<char,std::char_traits<char>,std::allocator<char> >::npos
CONST	ENDS
;	COMDAT ??_C@_1GI@DHJGPFNI@?$AA?$CC?$AA_?$AAP?$AAt?$AAr?$AA_?$AAu?$AAs?$AAe?$AAr?$AA?5?$AA?9?$AA?5?$AA_?$AAP?$AAt?$AAr?$AA_?$AAc?$AAo?$AAn?$AAt?$AAa?$AAi?$AAn?$AAe?$AAr?$AA?5?$AA?$DM?$AA?$DN?$AA?5?$AA_@
CONST	SEGMENT
??_C@_1GI@DHJGPFNI@?$AA?$CC?$AA_?$AAP?$AAt?$AAr?$AA_?$AAu?$AAs?$AAe?$AAr?$AA?5?$AA?9?$AA?5?$AA_?$AAP?$AAt?$AAr?$AA_?$AAc?$AAo?$AAn?$AAt?$AAa?$AAi?$AAn?$AAe?$AAr?$AA?5?$AA?$DM?$AA?$DN?$AA?5?$AA_@ DB '"'
	DB	00H, '_', 00H, 'P', 00H, 't', 00H, 'r', 00H, '_', 00H, 'u', 00H
	DB	's', 00H, 'e', 00H, 'r', 00H, ' ', 00H, '-', 00H, ' ', 00H, '_'
	DB	00H, 'P', 00H, 't', 00H, 'r', 00H, '_', 00H, 'c', 00H, 'o', 00H
	DB	'n', 00H, 't', 00H, 'a', 00H, 'i', 00H, 'n', 00H, 'e', 00H, 'r'
	DB	00H, ' ', 00H, '<', 00H, '=', 00H, ' ', 00H, '_', 00H, 'N', 00H
	DB	'O', 00H, 'N', 00H, '_', 00H, 'U', 00H, 'S', 00H, 'E', 00H, 'R'
	DB	00H, '_', 00H, 'S', 00H, 'I', 00H, 'Z', 00H, 'E', 00H, '"', 00H
	DB	' ', 00H, '&', 00H, '&', 00H, ' ', 00H, '0', 00H, 00H, 00H ; `string'
CONST	ENDS
;	COMDAT ??_C@_0CN@BLHJCAL@_Ptr_user?5?9?5_Ptr_container?5?$DM?$DN?5_N@
CONST	SEGMENT
??_C@_0CN@BLHJCAL@_Ptr_user?5?9?5_Ptr_container?5?$DM?$DN?5_N@ DB '_Ptr_u'
	DB	'ser - _Ptr_container <= _NON_USER_SIZE', 00H ; `string'
CONST	ENDS
;	COMDAT ??_C@_1HA@NAPGMHAO@?$AA?$CC?$AA2?$AA?5?$AA?$CK?$AA?5?$AAs?$AAi?$AAz?$AAe?$AAo?$AAf?$AA?$CI?$AAv?$AAo?$AAi?$AAd?$AA?5?$AA?$CK?$AA?$CJ?$AA?5?$AA?$DM?$AA?$DN?$AA?5?$AA_?$AAP?$AAt?$AAr?$AA_?$AAu?$AAs?$AAe?$AAr@
CONST	SEGMENT
??_C@_1HA@NAPGMHAO@?$AA?$CC?$AA2?$AA?5?$AA?$CK?$AA?5?$AAs?$AAi?$AAz?$AAe?$AAo?$AAf?$AA?$CI?$AAv?$AAo?$AAi?$AAd?$AA?5?$AA?$CK?$AA?$CJ?$AA?5?$AA?$DM?$AA?$DN?$AA?5?$AA_?$AAP?$AAt?$AAr?$AA_?$AAu?$AAs?$AAe?$AAr@ DB '"'
	DB	00H, '2', 00H, ' ', 00H, '*', 00H, ' ', 00H, 's', 00H, 'i', 00H
	DB	'z', 00H, 'e', 00H, 'o', 00H, 'f', 00H, '(', 00H, 'v', 00H, 'o'
	DB	00H, 'i', 00H, 'd', 00H, ' ', 00H, '*', 00H, ')', 00H, ' ', 00H
	DB	'<', 00H, '=', 00H, ' ', 00H, '_', 00H, 'P', 00H, 't', 00H, 'r'
	DB	00H, '_', 00H, 'u', 00H, 's', 00H, 'e', 00H, 'r', 00H, ' ', 00H
	DB	'-', 00H, ' ', 00H, '_', 00H, 'P', 00H, 't', 00H, 'r', 00H, '_'
	DB	00H, 'c', 00H, 'o', 00H, 'n', 00H, 't', 00H, 'a', 00H, 'i', 00H
	DB	'n', 00H, 'e', 00H, 'r', 00H, '"', 00H, ' ', 00H, '&', 00H, '&'
	DB	00H, ' ', 00H, '0', 00H, 00H, 00H		; `string'
CONST	ENDS
;	COMDAT ??_C@_0DB@GLFJLNCE@2?5?$CK?5sizeof?$CIvoid?5?$CK?$CJ?5?$DM?$DN?5_Ptr_user?5@
CONST	SEGMENT
??_C@_0DB@GLFJLNCE@2?5?$CK?5sizeof?$CIvoid?5?$CK?$CJ?5?$DM?$DN?5_Ptr_user?5@ DB '2'
	DB	' * sizeof(void *) <= _Ptr_user - _Ptr_container', 00H ; `string'
CONST	ENDS
;	COMDAT ??_C@_1EE@PDHAHDDC@?$AA?$CC?$AA_?$AAP?$AAt?$AAr?$AA_?$AAc?$AAo?$AAn?$AAt?$AAa?$AAi?$AAn?$AAe?$AAr?$AA?5?$AA?$DM?$AA?5?$AA_?$AAP?$AAt?$AAr?$AA_?$AAu?$AAs?$AAe?$AAr?$AA?$CC?$AA?5?$AA?$CG?$AA?$CG?$AA?5@
CONST	SEGMENT
??_C@_1EE@PDHAHDDC@?$AA?$CC?$AA_?$AAP?$AAt?$AAr?$AA_?$AAc?$AAo?$AAn?$AAt?$AAa?$AAi?$AAn?$AAe?$AAr?$AA?5?$AA?$DM?$AA?5?$AA_?$AAP?$AAt?$AAr?$AA_?$AAu?$AAs?$AAe?$AAr?$AA?$CC?$AA?5?$AA?$CG?$AA?$CG?$AA?5@ DB '"'
	DB	00H, '_', 00H, 'P', 00H, 't', 00H, 'r', 00H, '_', 00H, 'c', 00H
	DB	'o', 00H, 'n', 00H, 't', 00H, 'a', 00H, 'i', 00H, 'n', 00H, 'e'
	DB	00H, 'r', 00H, ' ', 00H, '<', 00H, ' ', 00H, '_', 00H, 'P', 00H
	DB	't', 00H, 'r', 00H, '_', 00H, 'u', 00H, 's', 00H, 'e', 00H, 'r'
	DB	00H, '"', 00H, ' ', 00H, '&', 00H, '&', 00H, ' ', 00H, '0', 00H
	DB	00H, 00H					; `string'
CONST	ENDS
;	COMDAT ??_C@_0BL@OCKMEJON@_Ptr_container?5?$DM?5_Ptr_user?$AA@
CONST	SEGMENT
??_C@_0BL@OCKMEJON@_Ptr_container?5?$DM?5_Ptr_user?$AA@ DB '_Ptr_containe'
	DB	'r < _Ptr_user', 00H				; `string'
CONST	ENDS
;	COMDAT ??_C@_1JO@EKLKIEHP@?$AA?$CC?$AAr?$AAe?$AAi?$AAn?$AAt?$AAe?$AAr?$AAp?$AAr?$AAe?$AAt?$AA_?$AAc?$AAa?$AAs?$AAt?$AA?$DM?$AAu?$AAi?$AAn?$AAt?$AAp?$AAt?$AAr?$AA_?$AAt?$AA?5?$AA?$CK?$AA?$DO?$AA?$CI?$AA_@
CONST	SEGMENT
??_C@_1JO@EKLKIEHP@?$AA?$CC?$AAr?$AAe?$AAi?$AAn?$AAt?$AAe?$AAr?$AAp?$AAr?$AAe?$AAt?$AA_?$AAc?$AAa?$AAs?$AAt?$AA?$DM?$AAu?$AAi?$AAn?$AAt?$AAp?$AAt?$AAr?$AA_?$AAt?$AA?5?$AA?$CK?$AA?$DO?$AA?$CI?$AA_@ DB '"'
	DB	00H, 'r', 00H, 'e', 00H, 'i', 00H, 'n', 00H, 't', 00H, 'e', 00H
	DB	'r', 00H, 'p', 00H, 'r', 00H, 'e', 00H, 't', 00H, '_', 00H, 'c'
	DB	00H, 'a', 00H, 's', 00H, 't', 00H, '<', 00H, 'u', 00H, 'i', 00H
	DB	'n', 00H, 't', 00H, 'p', 00H, 't', 00H, 'r', 00H, '_', 00H, 't'
	DB	00H, ' ', 00H, '*', 00H, '>', 00H, '(', 00H, '_', 00H, 'P', 00H
	DB	't', 00H, 'r', 00H, '_', 00H, 'p', 00H, 't', 00H, 'r', 00H, ')'
	DB	00H, '[', 00H, '-', 00H, '1', 00H, ']', 00H, ' ', 00H, '=', 00H
	DB	'=', 00H, ' ', 00H, '_', 00H, 'B', 00H, 'I', 00H, 'G', 00H, '_'
	DB	00H, 'A', 00H, 'L', 00H, 'L', 00H, 'O', 00H, 'C', 00H, 'A', 00H
	DB	'T', 00H, 'I', 00H, 'O', 00H, 'N', 00H, '_', 00H, 'S', 00H, 'E'
	DB	00H, 'N', 00H, 'T', 00H, 'I', 00H, 'N', 00H, 'E', 00H, 'L', 00H
	DB	'"', 00H, ' ', 00H, '&', 00H, '&', 00H, ' ', 00H, '0', 00H, 00H
	DB	00H						; `string'
CONST	ENDS
;	COMDAT ??_C@_0EI@NOJHEJCJ@reinterpret_cast?$DMuintptr_t?5?$CK?$DO?$CI_P@
CONST	SEGMENT
??_C@_0EI@NOJHEJCJ@reinterpret_cast?$DMuintptr_t?5?$CK?$DO?$CI_P@ DB 'rei'
	DB	'nterpret_cast<uintptr_t *>(_Ptr_ptr)[-1] == _BIG_ALLOCATION_S'
	DB	'ENTINEL', 00H				; `string'
CONST	ENDS
;	COMDAT ??_C@_1HE@CDMBFOKC@?$AA?$CC?$AA?$CI?$AA_?$AAP?$AAt?$AAr?$AA_?$AAu?$AAs?$AAe?$AAr?$AA?5?$AA?$CG?$AA?5?$AA?$CI?$AA_?$AAB?$AAI?$AAG?$AA_?$AAA?$AAL?$AAL?$AAO?$AAC?$AAA?$AAT?$AAI?$AAO?$AAN?$AA_?$AAA@
CONST	SEGMENT
??_C@_1HE@CDMBFOKC@?$AA?$CC?$AA?$CI?$AA_?$AAP?$AAt?$AAr?$AA_?$AAu?$AAs?$AAe?$AAr?$AA?5?$AA?$CG?$AA?5?$AA?$CI?$AA_?$AAB?$AAI?$AAG?$AA_?$AAA?$AAL?$AAL?$AAO?$AAC?$AAA?$AAT?$AAI?$AAO?$AAN?$AA_?$AAA@ DB '"'
	DB	00H, '(', 00H, '_', 00H, 'P', 00H, 't', 00H, 'r', 00H, '_', 00H
	DB	'u', 00H, 's', 00H, 'e', 00H, 'r', 00H, ' ', 00H, '&', 00H, ' '
	DB	00H, '(', 00H, '_', 00H, 'B', 00H, 'I', 00H, 'G', 00H, '_', 00H
	DB	'A', 00H, 'L', 00H, 'L', 00H, 'O', 00H, 'C', 00H, 'A', 00H, 'T'
	DB	00H, 'I', 00H, 'O', 00H, 'N', 00H, '_', 00H, 'A', 00H, 'L', 00H
	DB	'I', 00H, 'G', 00H, 'N', 00H, 'M', 00H, 'E', 00H, 'N', 00H, 'T'
	DB	00H, ' ', 00H, '-', 00H, ' ', 00H, '1', 00H, ')', 00H, ')', 00H
	DB	' ', 00H, '=', 00H, '=', 00H, ' ', 00H, '0', 00H, '"', 00H, ' '
	DB	00H, '&', 00H, '&', 00H, ' ', 00H, '0', 00H, 00H, 00H ; `string'
CONST	ENDS
;	COMDAT ??_C@_0DD@GBGGGKGG@?$CI_Ptr_user?5?$CG?5?$CI_BIG_ALLOCATION_AL@
CONST	SEGMENT
??_C@_0DD@GBGGGKGG@?$CI_Ptr_user?5?$CG?5?$CI_BIG_ALLOCATION_AL@ DB '(_Ptr'
	DB	'_user & (_BIG_ALLOCATION_ALIGNMENT - 1)) == 0', 00H ; `string'
CONST	ENDS
;	COMDAT ??_C@_1CC@LOFJFFDB@?$AAs?$AAt?$AAd?$AA?3?$AA?3?$AA_?$AAD?$AAe?$AAa?$AAl?$AAl?$AAo?$AAc?$AAa?$AAt?$AAe?$AA?$AA@
CONST	SEGMENT
??_C@_1CC@LOFJFFDB@?$AAs?$AAt?$AAd?$AA?3?$AA?3?$AA_?$AAD?$AAe?$AAa?$AAl?$AAl?$AAo?$AAc?$AAa?$AAt?$AAe?$AA?$AA@ DB 's'
	DB	00H, 't', 00H, 'd', 00H, ':', 00H, ':', 00H, '_', 00H, 'D', 00H
	DB	'e', 00H, 'a', 00H, 'l', 00H, 'l', 00H, 'o', 00H, 'c', 00H, 'a'
	DB	00H, 't', 00H, 'e', 00H, 00H, 00H		; `string'
CONST	ENDS
;	COMDAT ??_C@_1EI@MLOBABC@?$AA?$CC?$AA_?$AAC?$AAo?$AAu?$AAn?$AAt?$AA?5?$AA?$DM?$AA?$DN?$AA?5?$AA?$CI?$AAs?$AAi?$AAz?$AAe?$AA_?$AAt?$AA?$CJ?$AA?$CI?$AA?9?$AA1?$AA?$CJ?$AA?5?$AA?1?$AA?5?$AA_?$AAS?$AAz?$AA?$CC?$AA?5?$AA?$CG@
CONST	SEGMENT
??_C@_1EI@MLOBABC@?$AA?$CC?$AA_?$AAC?$AAo?$AAu?$AAn?$AAt?$AA?5?$AA?$DM?$AA?$DN?$AA?5?$AA?$CI?$AAs?$AAi?$AAz?$AAe?$AA_?$AAt?$AA?$CJ?$AA?$CI?$AA?9?$AA1?$AA?$CJ?$AA?5?$AA?1?$AA?5?$AA_?$AAS?$AAz?$AA?$CC?$AA?5?$AA?$CG@ DB '"'
	DB	00H, '_', 00H, 'C', 00H, 'o', 00H, 'u', 00H, 'n', 00H, 't', 00H
	DB	' ', 00H, '<', 00H, '=', 00H, ' ', 00H, '(', 00H, 's', 00H, 'i'
	DB	00H, 'z', 00H, 'e', 00H, '_', 00H, 't', 00H, ')', 00H, '(', 00H
	DB	'-', 00H, '1', 00H, ')', 00H, ' ', 00H, '/', 00H, ' ', 00H, '_'
	DB	00H, 'S', 00H, 'z', 00H, '"', 00H, ' ', 00H, '&', 00H, '&', 00H
	DB	' ', 00H, '0', 00H, 00H, 00H			; `string'
CONST	ENDS
;	COMDAT ??_C@_0BN@HMCJOMKN@_Count?5?$DM?$DN?5?$CIsize_t?$CJ?$CI?91?$CJ?5?1?5_Sz?$AA@
CONST	SEGMENT
??_C@_0BN@HMCJOMKN@_Count?5?$DM?$DN?5?$CIsize_t?$CJ?$CI?91?$CJ?5?1?5_Sz?$AA@ DB '_'
	DB	'Count <= (size_t)(-1) / _Sz', 00H		; `string'
CONST	ENDS
;	COMDAT ?__LINE__Var@?0??_Deallocate@std@@YAXPAXII@Z@4JA
_DATA	SEGMENT
?__LINE__Var@?0??_Deallocate@std@@YAXPAXII@Z@4JA DD 05cH ; `std::_Deallocate'::`1'::__LINE__Var
_DATA	ENDS
;	COMDAT ??_C@_1CC@GKJLLHIM@?$AA?$CC?$AA_?$AAP?$AAt?$AAr?$AA?5?$AA?$CB?$AA?$DN?$AA?5?$AA0?$AA?$CC?$AA?5?$AA?$CG?$AA?$CG?$AA?5?$AA0?$AA?$AA@
CONST	SEGMENT
??_C@_1CC@GKJLLHIM@?$AA?$CC?$AA_?$AAP?$AAt?$AAr?$AA?5?$AA?$CB?$AA?$DN?$AA?5?$AA0?$AA?$CC?$AA?5?$AA?$CG?$AA?$CG?$AA?5?$AA0?$AA?$AA@ DB '"'
	DB	00H, '_', 00H, 'P', 00H, 't', 00H, 'r', 00H, ' ', 00H, '!', 00H
	DB	'=', 00H, ' ', 00H, '0', 00H, '"', 00H, ' ', 00H, '&', 00H, '&'
	DB	00H, ' ', 00H, '0', 00H, 00H, 00H		; `string'
CONST	ENDS
;	COMDAT ??_C@_09GLJCAGLP@_Ptr?5?$CB?$DN?50?$AA@
CONST	SEGMENT
??_C@_09GLJCAGLP@_Ptr?5?$CB?$DN?50?$AA@ DB '_Ptr != 0', 00H ; `string'
CONST	ENDS
;	COMDAT ??_C@_1CG@JNLFBNGN@?$AA?$CC?$AAi?$AAn?$AAv?$AAa?$AAl?$AAi?$AAd?$AA?5?$AAa?$AAr?$AAg?$AAu?$AAm?$AAe?$AAn?$AAt?$AA?$CC?$AA?$AA@
CONST	SEGMENT
??_C@_1CG@JNLFBNGN@?$AA?$CC?$AAi?$AAn?$AAv?$AAa?$AAl?$AAi?$AAd?$AA?5?$AAa?$AAr?$AAg?$AAu?$AAm?$AAe?$AAn?$AAt?$AA?$CC?$AA?$AA@ DB '"'
	DB	00H, 'i', 00H, 'n', 00H, 'v', 00H, 'a', 00H, 'l', 00H, 'i', 00H
	DB	'd', 00H, ' ', 00H, 'a', 00H, 'r', 00H, 'g', 00H, 'u', 00H, 'm'
	DB	00H, 'e', 00H, 'n', 00H, 't', 00H, '"', 00H, 00H, 00H ; `string'
CONST	ENDS
;	COMDAT ??_C@_1BO@NKFMJPA@?$AAs?$AAt?$AAd?$AA?3?$AA?3?$AA_?$AAA?$AAl?$AAl?$AAo?$AAc?$AAa?$AAt?$AAe?$AA?$AA@
CONST	SEGMENT
??_C@_1BO@NKFMJPA@?$AAs?$AAt?$AAd?$AA?3?$AA?3?$AA_?$AAA?$AAl?$AAl?$AAo?$AAc?$AAa?$AAt?$AAe?$AA?$AA@ DB 's'
	DB	00H, 't', 00H, 'd', 00H, ':', 00H, ':', 00H, '_', 00H, 'A', 00H
	DB	'l', 00H, 'l', 00H, 'o', 00H, 'c', 00H, 'a', 00H, 't', 00H, 'e'
	DB	00H, 00H, 00H				; `string'
CONST	ENDS
;	COMDAT ??_C@_1JA@DKOIEICI@?$AAc?$AA?3?$AA?2?$AAp?$AAr?$AAo?$AAg?$AAr?$AAa?$AAm?$AA?5?$AAf?$AAi?$AAl?$AAe?$AAs?$AA?5?$AA?$CI?$AAx?$AA8?$AA6?$AA?$CJ?$AA?2?$AAm?$AAi?$AAc?$AAr?$AAo?$AAs?$AAo?$AAf?$AAt@
CONST	SEGMENT
??_C@_1JA@DKOIEICI@?$AAc?$AA?3?$AA?2?$AAp?$AAr?$AAo?$AAg?$AAr?$AAa?$AAm?$AA?5?$AAf?$AAi?$AAl?$AAe?$AAs?$AA?5?$AA?$CI?$AAx?$AA8?$AA6?$AA?$CJ?$AA?2?$AAm?$AAi?$AAc?$AAr?$AAo?$AAs?$AAo?$AAf?$AAt@ DB 'c'
	DB	00H, ':', 00H, '\', 00H, 'p', 00H, 'r', 00H, 'o', 00H, 'g', 00H
	DB	'r', 00H, 'a', 00H, 'm', 00H, ' ', 00H, 'f', 00H, 'i', 00H, 'l'
	DB	00H, 'e', 00H, 's', 00H, ' ', 00H, '(', 00H, 'x', 00H, '8', 00H
	DB	'6', 00H, ')', 00H, '\', 00H, 'm', 00H, 'i', 00H, 'c', 00H, 'r'
	DB	00H, 'o', 00H, 's', 00H, 'o', 00H, 'f', 00H, 't', 00H, ' ', 00H
	DB	'v', 00H, 'i', 00H, 's', 00H, 'u', 00H, 'a', 00H, 'l', 00H, ' '
	DB	00H, 's', 00H, 't', 00H, 'u', 00H, 'd', 00H, 'i', 00H, 'o', 00H
	DB	' ', 00H, '1', 00H, '4', 00H, '.', 00H, '0', 00H, '\', 00H, 'v'
	DB	00H, 'c', 00H, '\', 00H, 'i', 00H, 'n', 00H, 'c', 00H, 'l', 00H
	DB	'u', 00H, 'd', 00H, 'e', 00H, '\', 00H, 'x', 00H, 'm', 00H, 'e'
	DB	00H, 'm', 00H, 'o', 00H, 'r', 00H, 'y', 00H, '0', 00H, 00H, 00H ; `string'
CONST	ENDS
;	COMDAT ??_C@_17CNPHIMPH@?$AA?$CF?$AAl?$AAs?$AA?$AA@
CONST	SEGMENT
??_C@_17CNPHIMPH@?$AA?$CF?$AAl?$AAs?$AA?$AA@ DB '%', 00H, 'l', 00H, 's', 00H
	DB	00H, 00H					; `string'
CONST	ENDS
;	COMDAT ??_C@_1DG@HGDKEBPG@?$AA?$CC?$AA_?$AAP?$AAt?$AAr?$AA_?$AAc?$AAo?$AAn?$AAt?$AAa?$AAi?$AAn?$AAe?$AAr?$AA?5?$AA?$CB?$AA?$DN?$AA?5?$AA0?$AA?$CC?$AA?5?$AA?$CG?$AA?$CG?$AA?5?$AA0?$AA?$AA@
CONST	SEGMENT
??_C@_1DG@HGDKEBPG@?$AA?$CC?$AA_?$AAP?$AAt?$AAr?$AA_?$AAc?$AAo?$AAn?$AAt?$AAa?$AAi?$AAn?$AAe?$AAr?$AA?5?$AA?$CB?$AA?$DN?$AA?5?$AA0?$AA?$CC?$AA?5?$AA?$CG?$AA?$CG?$AA?5?$AA0?$AA?$AA@ DB '"'
	DB	00H, '_', 00H, 'P', 00H, 't', 00H, 'r', 00H, '_', 00H, 'c', 00H
	DB	'o', 00H, 'n', 00H, 't', 00H, 'a', 00H, 'i', 00H, 'n', 00H, 'e'
	DB	00H, 'r', 00H, ' ', 00H, '!', 00H, '=', 00H, ' ', 00H, '0', 00H
	DB	'"', 00H, ' ', 00H, '&', 00H, '&', 00H, ' ', 00H, '0', 00H, 00H
	DB	00H						; `string'
CONST	ENDS
;	COMDAT ??_C@_0BE@LMNLACIC@_Ptr_container?5?$CB?$DN?50?$AA@
CONST	SEGMENT
??_C@_0BE@LMNLACIC@_Ptr_container?5?$CB?$DN?50?$AA@ DB '_Ptr_container !='
	DB	' 0', 00H					; `string'
CONST	ENDS
;	COMDAT ?__LINE__Var@?0??_Allocate@std@@YAPAXII_N@Z@4JA
_DATA	SEGMENT
?__LINE__Var@?0??_Allocate@std@@YAPAXII_N@Z@4JA DD 030H	; `std::_Allocate'::`1'::__LINE__Var
_DATA	ENDS
;	COMDAT ??_C@_1DC@POOIKBAO@?$AAI?$AAT?$AAE?$AAR?$AAA?$AAT?$AAO?$AAR?$AA?5?$AAL?$AAI?$AAS?$AAT?$AA?5?$AAC?$AAO?$AAR?$AAR?$AAU?$AAP?$AAT?$AAE?$AAD?$AA?$CB?$AA?$AA@
CONST	SEGMENT
??_C@_1DC@POOIKBAO@?$AAI?$AAT?$AAE?$AAR?$AAA?$AAT?$AAO?$AAR?$AA?5?$AAL?$AAI?$AAS?$AAT?$AA?5?$AAC?$AAO?$AAR?$AAR?$AAU?$AAP?$AAT?$AAE?$AAD?$AA?$CB?$AA?$AA@ DB 'I'
	DB	00H, 'T', 00H, 'E', 00H, 'R', 00H, 'A', 00H, 'T', 00H, 'O', 00H
	DB	'R', 00H, ' ', 00H, 'L', 00H, 'I', 00H, 'S', 00H, 'T', 00H, ' '
	DB	00H, 'C', 00H, 'O', 00H, 'R', 00H, 'R', 00H, 'U', 00H, 'P', 00H
	DB	'T', 00H, 'E', 00H, 'D', 00H, '!', 00H, 00H, 00H ; `string'
CONST	ENDS
;	COMDAT ??_C@_1JA@MHADJNIL@?$AAc?$AA?3?$AA?2?$AAp?$AAr?$AAo?$AAg?$AAr?$AAa?$AAm?$AA?5?$AAf?$AAi?$AAl?$AAe?$AAs?$AA?5?$AA?$CI?$AAx?$AA8?$AA6?$AA?$CJ?$AA?2?$AAm?$AAi?$AAc?$AAr?$AAo?$AAs?$AAo?$AAf?$AAt@
CONST	SEGMENT
??_C@_1JA@MHADJNIL@?$AAc?$AA?3?$AA?2?$AAp?$AAr?$AAo?$AAg?$AAr?$AAa?$AAm?$AA?5?$AAf?$AAi?$AAl?$AAe?$AAs?$AA?5?$AA?$CI?$AAx?$AA8?$AA6?$AA?$CJ?$AA?2?$AAm?$AAi?$AAc?$AAr?$AAo?$AAs?$AAo?$AAf?$AAt@ DB 'c'
	DB	00H, ':', 00H, '\', 00H, 'p', 00H, 'r', 00H, 'o', 00H, 'g', 00H
	DB	'r', 00H, 'a', 00H, 'm', 00H, ' ', 00H, 'f', 00H, 'i', 00H, 'l'
	DB	00H, 'e', 00H, 's', 00H, ' ', 00H, '(', 00H, 'x', 00H, '8', 00H
	DB	'6', 00H, ')', 00H, '\', 00H, 'm', 00H, 'i', 00H, 'c', 00H, 'r'
	DB	00H, 'o', 00H, 's', 00H, 'o', 00H, 'f', 00H, 't', 00H, ' ', 00H
	DB	'v', 00H, 'i', 00H, 's', 00H, 'u', 00H, 'a', 00H, 'l', 00H, ' '
	DB	00H, 's', 00H, 't', 00H, 'u', 00H, 'd', 00H, 'i', 00H, 'o', 00H
	DB	' ', 00H, '1', 00H, '4', 00H, '.', 00H, '0', 00H, '\', 00H, 'v'
	DB	00H, 'c', 00H, '\', 00H, 'i', 00H, 'n', 00H, 'c', 00H, 'l', 00H
	DB	'u', 00H, 'd', 00H, 'e', 00H, '\', 00H, 'x', 00H, 'u', 00H, 't'
	DB	00H, 'i', 00H, 'l', 00H, 'i', 00H, 't', 00H, 'y', 00H, 00H, 00H ; `string'
CONST	ENDS
;	COMDAT xdata$x
xdata$x	SEGMENT
__ehfuncinfo$??$_Pocma@U?$_Wrap_alloc@V?$allocator@D@std@@@std@@@std@@YAXAAU?$_Wrap_alloc@V?$allocator@D@std@@@0@0U?$integral_constant@_N$00@0@@Z DD 019930522H
	DD	00H
	DD	00H
	DD	2 DUP(00H)
	DD	2 DUP(00H)
	DD	00H
	DD	05H
xdata$x	ENDS
;	COMDAT xdata$x
xdata$x	SEGMENT
__ehfuncinfo$??$assign@V?$_String_iterator@V?$_String_val@U?$_Simple_types@D@std@@@std@@@std@@@?$basic_string@DU?$char_traits@D@std@@V?$allocator@D@2@@std@@QAEAAV01@V?$_String_iterator@V?$_String_val@U?$_Simple_types@D@std@@@std@@@1@0@Z DD 019930522H
	DD	09H
	DD	FLAT:__unwindtable$??$assign@V?$_String_iterator@V?$_String_val@U?$_Simple_types@D@std@@@std@@@std@@@?$basic_string@DU?$char_traits@D@std@@V?$allocator@D@2@@std@@QAEAAV01@V?$_String_iterator@V?$_String_val@U?$_Simple_types@D@std@@@std@@@1@0@Z
	DD	2 DUP(00H)
	DD	2 DUP(00H)
	DD	00H
	DD	01H
__unwindtable$??$assign@V?$_String_iterator@V?$_String_val@U?$_Simple_types@D@std@@@std@@@std@@@?$basic_string@DU?$char_traits@D@std@@V?$allocator@D@2@@std@@QAEAAV01@V?$_String_iterator@V?$_String_val@U?$_Simple_types@D@std@@@std@@@1@0@Z DD 0ffffffffH
	DD	FLAT:__unwindfunclet$??$assign@V?$_String_iterator@V?$_String_val@U?$_Simple_types@D@std@@@std@@@std@@@?$basic_string@DU?$char_traits@D@std@@V?$allocator@D@2@@std@@QAEAAV01@V?$_String_iterator@V?$_String_val@U?$_Simple_types@D@std@@@std@@@1@0@Z$0
	DD	00H
	DD	FLAT:__unwindfunclet$??$assign@V?$_String_iterator@V?$_String_val@U?$_Simple_types@D@std@@@std@@@std@@@?$basic_string@DU?$char_traits@D@std@@V?$allocator@D@2@@std@@QAEAAV01@V?$_String_iterator@V?$_String_val@U?$_Simple_types@D@std@@@std@@@1@0@Z$1
	DD	01H
	DD	FLAT:__unwindfunclet$??$assign@V?$_String_iterator@V?$_String_val@U?$_Simple_types@D@std@@@std@@@std@@@?$basic_string@DU?$char_traits@D@std@@V?$allocator@D@2@@std@@QAEAAV01@V?$_String_iterator@V?$_String_val@U?$_Simple_types@D@std@@@std@@@1@0@Z$2
	DD	02H
	DD	FLAT:__unwindfunclet$??$assign@V?$_String_iterator@V?$_String_val@U?$_Simple_types@D@std@@@std@@@std@@@?$basic_string@DU?$char_traits@D@std@@V?$allocator@D@2@@std@@QAEAAV01@V?$_String_iterator@V?$_String_val@U?$_Simple_types@D@std@@@std@@@1@0@Z$3
	DD	03H
	DD	FLAT:__unwindfunclet$??$assign@V?$_String_iterator@V?$_String_val@U?$_Simple_types@D@std@@@std@@@std@@@?$basic_string@DU?$char_traits@D@std@@V?$allocator@D@2@@std@@QAEAAV01@V?$_String_iterator@V?$_String_val@U?$_Simple_types@D@std@@@std@@@1@0@Z$4
	DD	04H
	DD	FLAT:__unwindfunclet$??$assign@V?$_String_iterator@V?$_String_val@U?$_Simple_types@D@std@@@std@@@std@@@?$basic_string@DU?$char_traits@D@std@@V?$allocator@D@2@@std@@QAEAAV01@V?$_String_iterator@V?$_String_val@U?$_Simple_types@D@std@@@std@@@1@0@Z$5
	DD	05H
	DD	FLAT:__unwindfunclet$??$assign@V?$_String_iterator@V?$_String_val@U?$_Simple_types@D@std@@@std@@@std@@@?$basic_string@DU?$char_traits@D@std@@V?$allocator@D@2@@std@@QAEAAV01@V?$_String_iterator@V?$_String_val@U?$_Simple_types@D@std@@@std@@@1@0@Z$6
	DD	01H
	DD	FLAT:__unwindfunclet$??$assign@V?$_String_iterator@V?$_String_val@U?$_Simple_types@D@std@@@std@@@std@@@?$basic_string@DU?$char_traits@D@std@@V?$allocator@D@2@@std@@QAEAAV01@V?$_String_iterator@V?$_String_val@U?$_Simple_types@D@std@@@std@@@1@0@Z$4
	DD	07H
	DD	FLAT:__unwindfunclet$??$assign@V?$_String_iterator@V?$_String_val@U?$_Simple_types@D@std@@@std@@@std@@@?$basic_string@DU?$char_traits@D@std@@V?$allocator@D@2@@std@@QAEAAV01@V?$_String_iterator@V?$_String_val@U?$_Simple_types@D@std@@@std@@@1@0@Z$6
xdata$x	ENDS
;	COMDAT xdata$x
xdata$x	SEGMENT
__unwindtable$??$_Pop_heap_unchecked@PAUOption@CCustomMenu@@U?$less@X@std@@@std@@YAXPAUOption@CCustomMenu@@0AAU?$less@X@0@@Z DD 0ffffffffH
	DD	FLAT:__unwindfunclet$??$_Pop_heap_unchecked@PAUOption@CCustomMenu@@U?$less@X@std@@@std@@YAXPAUOption@CCustomMenu@@0AAU?$less@X@0@@Z$0
__ehfuncinfo$??$_Pop_heap_unchecked@PAUOption@CCustomMenu@@U?$less@X@std@@@std@@YAXPAUOption@CCustomMenu@@0AAU?$less@X@0@@Z DD 019930522H
	DD	01H
	DD	FLAT:__unwindtable$??$_Pop_heap_unchecked@PAUOption@CCustomMenu@@U?$less@X@std@@@std@@YAXPAUOption@CCustomMenu@@0AAU?$less@X@0@@Z
	DD	2 DUP(00H)
	DD	2 DUP(00H)
	DD	00H
	DD	01H
xdata$x	ENDS
;	COMDAT xdata$x
xdata$x	SEGMENT
__unwindtable$??$_Insertion_sort_unchecked@PAUOption@CCustomMenu@@U?$less@X@std@@@std@@YAXPAUOption@CCustomMenu@@0AAU?$less@X@0@@Z DD 0ffffffffH
	DD	FLAT:__unwindfunclet$??$_Insertion_sort_unchecked@PAUOption@CCustomMenu@@U?$less@X@std@@@std@@YAXPAUOption@CCustomMenu@@0AAU?$less@X@0@@Z$0
__ehfuncinfo$??$_Insertion_sort_unchecked@PAUOption@CCustomMenu@@U?$less@X@std@@@std@@YAXPAUOption@CCustomMenu@@0AAU?$less@X@0@@Z DD 019930522H
	DD	01H
	DD	FLAT:__unwindtable$??$_Insertion_sort_unchecked@PAUOption@CCustomMenu@@U?$less@X@std@@@std@@YAXPAUOption@CCustomMenu@@0AAU?$less@X@0@@Z
	DD	2 DUP(00H)
	DD	2 DUP(00H)
	DD	00H
	DD	01H
xdata$x	ENDS
;	COMDAT xdata$x
xdata$x	SEGMENT
__unwindtable$??$_Make_heap_unchecked@PAUOption@CCustomMenu@@U?$less@X@std@@@std@@YAXPAUOption@CCustomMenu@@0AAU?$less@X@0@@Z DD 0ffffffffH
	DD	FLAT:__unwindfunclet$??$_Make_heap_unchecked@PAUOption@CCustomMenu@@U?$less@X@std@@@std@@YAXPAUOption@CCustomMenu@@0AAU?$less@X@0@@Z$0
__ehfuncinfo$??$_Make_heap_unchecked@PAUOption@CCustomMenu@@U?$less@X@std@@@std@@YAXPAUOption@CCustomMenu@@0AAU?$less@X@0@@Z DD 019930522H
	DD	01H
	DD	FLAT:__unwindtable$??$_Make_heap_unchecked@PAUOption@CCustomMenu@@U?$less@X@std@@@std@@YAXPAUOption@CCustomMenu@@0AAU?$less@X@0@@Z
	DD	2 DUP(00H)
	DD	2 DUP(00H)
	DD	00H
	DD	01H
xdata$x	ENDS
;	COMDAT xdata$x
xdata$x	SEGMENT
__catchsym$??$_Uninitialized_move_al_unchecked1@PAUOption@CCustomMenu@@PAU12@V?$allocator@UOption@CCustomMenu@@@std@@@std@@YAPAUOption@CCustomMenu@@PAU12@00AAU?$_Wrap_alloc@V?$allocator@UOption@CCustomMenu@@@std@@@0@U_General_ptr_iterator_tag@0@U_Any_tag@0@@Z$2 DD 040H
	DD	00H
	DD	00H
	DD	FLAT:__catch$??$_Uninitialized_move_al_unchecked1@PAUOption@CCustomMenu@@PAU12@V?$allocator@UOption@CCustomMenu@@@std@@@std@@YAPAUOption@CCustomMenu@@PAU12@00AAU?$_Wrap_alloc@V?$allocator@UOption@CCustomMenu@@@std@@@0@U_General_ptr_iterator_tag@0@U_Any_tag@0@@Z$0
__unwindtable$??$_Uninitialized_move_al_unchecked1@PAUOption@CCustomMenu@@PAU12@V?$allocator@UOption@CCustomMenu@@@std@@@std@@YAPAUOption@CCustomMenu@@PAU12@00AAU?$_Wrap_alloc@V?$allocator@UOption@CCustomMenu@@@std@@@0@U_General_ptr_iterator_tag@0@U_Any_tag@0@@Z DD 0ffffffffH
	DD	00H
	DD	0ffffffffH
	DD	00H
__tryblocktable$??$_Uninitialized_move_al_unchecked1@PAUOption@CCustomMenu@@PAU12@V?$allocator@UOption@CCustomMenu@@@std@@@std@@YAPAUOption@CCustomMenu@@PAU12@00AAU?$_Wrap_alloc@V?$allocator@UOption@CCustomMenu@@@std@@@0@U_General_ptr_iterator_tag@0@U_Any_tag@0@@Z DD 00H
	DD	00H
	DD	01H
	DD	01H
	DD	FLAT:__catchsym$??$_Uninitialized_move_al_unchecked1@PAUOption@CCustomMenu@@PAU12@V?$allocator@UOption@CCustomMenu@@@std@@@std@@YAPAUOption@CCustomMenu@@PAU12@00AAU?$_Wrap_alloc@V?$allocator@UOption@CCustomMenu@@@std@@@0@U_General_ptr_iterator_tag@0@U_Any_tag@0@@Z$2
__ehfuncinfo$??$_Uninitialized_move_al_unchecked1@PAUOption@CCustomMenu@@PAU12@V?$allocator@UOption@CCustomMenu@@@std@@@std@@YAPAUOption@CCustomMenu@@PAU12@00AAU?$_Wrap_alloc@V?$allocator@UOption@CCustomMenu@@@std@@@0@U_General_ptr_iterator_tag@0@U_Any_tag@0@@Z DD 019930522H
	DD	02H
	DD	FLAT:__unwindtable$??$_Uninitialized_move_al_unchecked1@PAUOption@CCustomMenu@@PAU12@V?$allocator@UOption@CCustomMenu@@@std@@@std@@YAPAUOption@CCustomMenu@@PAU12@00AAU?$_Wrap_alloc@V?$allocator@UOption@CCustomMenu@@@std@@@0@U_General_ptr_iterator_tag@0@U_Any_tag@0@@Z
	DD	01H
	DD	FLAT:__tryblocktable$??$_Uninitialized_move_al_unchecked1@PAUOption@CCustomMenu@@PAU12@V?$allocator@UOption@CCustomMenu@@@std@@@std@@YAPAUOption@CCustomMenu@@PAU12@00AAU?$_Wrap_alloc@V?$allocator@UOption@CCustomMenu@@@std@@@0@U_General_ptr_iterator_tag@0@U_Any_tag@0@@Z
	DD	2 DUP(00H)
	DD	00H
	DD	01H
xdata$x	ENDS
;	COMDAT xdata$x
xdata$x	SEGMENT
__unwindtable$??$construct@UOption@CCustomMenu@@ABU12@@?$allocator@UOption@CCustomMenu@@@std@@QAEXPAUOption@CCustomMenu@@ABU23@@Z DD 0ffffffffH
	DD	FLAT:__unwindfunclet$??$construct@UOption@CCustomMenu@@ABU12@@?$allocator@UOption@CCustomMenu@@@std@@QAEXPAUOption@CCustomMenu@@ABU23@@Z$0
__ehfuncinfo$??$construct@UOption@CCustomMenu@@ABU12@@?$allocator@UOption@CCustomMenu@@@std@@QAEXPAUOption@CCustomMenu@@ABU23@@Z DD 019930522H
	DD	01H
	DD	FLAT:__unwindtable$??$construct@UOption@CCustomMenu@@ABU12@@?$allocator@UOption@CCustomMenu@@@std@@QAEXPAUOption@CCustomMenu@@ABU23@@Z
	DD	2 DUP(00H)
	DD	2 DUP(00H)
	DD	00H
	DD	01H
xdata$x	ENDS
;	COMDAT xdata$x
xdata$x	SEGMENT
__unwindtable$??$construct@UOption@CCustomMenu@@AAU12@@?$allocator@UOption@CCustomMenu@@@std@@QAEXPAUOption@CCustomMenu@@AAU23@@Z DD 0ffffffffH
	DD	FLAT:__unwindfunclet$??$construct@UOption@CCustomMenu@@AAU12@@?$allocator@UOption@CCustomMenu@@@std@@QAEXPAUOption@CCustomMenu@@AAU23@@Z$0
__ehfuncinfo$??$construct@UOption@CCustomMenu@@AAU12@@?$allocator@UOption@CCustomMenu@@@std@@QAEXPAUOption@CCustomMenu@@AAU23@@Z DD 019930522H
	DD	01H
	DD	FLAT:__unwindtable$??$construct@UOption@CCustomMenu@@AAU12@@?$allocator@UOption@CCustomMenu@@@std@@QAEXPAUOption@CCustomMenu@@AAU23@@Z
	DD	2 DUP(00H)
	DD	2 DUP(00H)
	DD	00H
	DD	01H
xdata$x	ENDS
;	COMDAT xdata$x
xdata$x	SEGMENT
__unwindtable$??$_Debug_range2@V?$_Vector_iterator@V?$_Vector_val@U?$_Simple_types@UOption@CCustomMenu@@@std@@@std@@@std@@@std@@YAXV?$_Vector_iterator@V?$_Vector_val@U?$_Simple_types@UOption@CCustomMenu@@@std@@@std@@@0@0PB_WIUrandom_access_iterator_tag@0@@Z DD 0ffffffffH
	DD	FLAT:__unwindfunclet$??$_Debug_range2@V?$_Vector_iterator@V?$_Vector_val@U?$_Simple_types@UOption@CCustomMenu@@@std@@@std@@@std@@@std@@YAXV?$_Vector_iterator@V?$_Vector_val@U?$_Simple_types@UOption@CCustomMenu@@@std@@@std@@@0@0PB_WIUrandom_access_iterator_tag@0@@Z$0
	DD	00H
	DD	FLAT:__unwindfunclet$??$_Debug_range2@V?$_Vector_iterator@V?$_Vector_val@U?$_Simple_types@UOption@CCustomMenu@@@std@@@std@@@std@@@std@@YAXV?$_Vector_iterator@V?$_Vector_val@U?$_Simple_types@UOption@CCustomMenu@@@std@@@std@@@0@0PB_WIUrandom_access_iterator_tag@0@@Z$1
__ehfuncinfo$??$_Debug_range2@V?$_Vector_iterator@V?$_Vector_val@U?$_Simple_types@UOption@CCustomMenu@@@std@@@std@@@std@@@std@@YAXV?$_Vector_iterator@V?$_Vector_val@U?$_Simple_types@UOption@CCustomMenu@@@std@@@std@@@0@0PB_WIUrandom_access_iterator_tag@0@@Z DD 019930522H
	DD	02H
	DD	FLAT:__unwindtable$??$_Debug_range2@V?$_Vector_iterator@V?$_Vector_val@U?$_Simple_types@UOption@CCustomMenu@@@std@@@std@@@std@@@std@@YAXV?$_Vector_iterator@V?$_Vector_val@U?$_Simple_types@UOption@CCustomMenu@@@std@@@std@@@0@0PB_WIUrandom_access_iterator_tag@0@@Z
	DD	2 DUP(00H)
	DD	2 DUP(00H)
	DD	00H
	DD	01H
xdata$x	ENDS
;	COMDAT xdata$x
xdata$x	SEGMENT
__ehfuncinfo$??1sentry@?$basic_ostream@DU?$char_traits@D@std@@@std@@QAE@XZ DD 019930522H
	DD	00H
	DD	00H
	DD	2 DUP(00H)
	DD	2 DUP(00H)
	DD	00H
	DD	05H
xdata$x	ENDS
;	COMDAT xdata$x
xdata$x	SEGMENT
__unwindtable$??0sentry@?$basic_ostream@DU?$char_traits@D@std@@@std@@QAE@AAV12@@Z DD 0ffffffffH
	DD	FLAT:__unwindfunclet$??0sentry@?$basic_ostream@DU?$char_traits@D@std@@@std@@QAE@AAV12@@Z$0
__ehfuncinfo$??0sentry@?$basic_ostream@DU?$char_traits@D@std@@@std@@QAE@AAV12@@Z DD 019930522H
	DD	01H
	DD	FLAT:__unwindtable$??0sentry@?$basic_ostream@DU?$char_traits@D@std@@@std@@QAE@AAV12@@Z
	DD	2 DUP(00H)
	DD	2 DUP(00H)
	DD	00H
	DD	01H
xdata$x	ENDS
;	COMDAT xdata$x
xdata$x	SEGMENT
__ehfuncinfo$??1_Sentry_base@?$basic_ostream@DU?$char_traits@D@std@@@std@@QAE@XZ DD 019930522H
	DD	00H
	DD	00H
	DD	2 DUP(00H)
	DD	2 DUP(00H)
	DD	00H
	DD	05H
xdata$x	ENDS
;	COMDAT xdata$x
xdata$x	SEGMENT
__unwindtable$??$sort@V?$_Vector_iterator@V?$_Vector_val@U?$_Simple_types@UOption@CCustomMenu@@@std@@@std@@@std@@U?$less@X@2@@std@@YAXV?$_Vector_iterator@V?$_Vector_val@U?$_Simple_types@UOption@CCustomMenu@@@std@@@std@@@0@0U?$less@X@0@@Z DD 0ffffffffH
	DD	FLAT:__unwindfunclet$??$sort@V?$_Vector_iterator@V?$_Vector_val@U?$_Simple_types@UOption@CCustomMenu@@@std@@@std@@@std@@U?$less@X@2@@std@@YAXV?$_Vector_iterator@V?$_Vector_val@U?$_Simple_types@UOption@CCustomMenu@@@std@@@std@@@0@0U?$less@X@0@@Z$0
	DD	00H
	DD	FLAT:__unwindfunclet$??$sort@V?$_Vector_iterator@V?$_Vector_val@U?$_Simple_types@UOption@CCustomMenu@@@std@@@std@@@std@@U?$less@X@2@@std@@YAXV?$_Vector_iterator@V?$_Vector_val@U?$_Simple_types@UOption@CCustomMenu@@@std@@@std@@@0@0U?$less@X@0@@Z$1
	DD	01H
	DD	FLAT:__unwindfunclet$??$sort@V?$_Vector_iterator@V?$_Vector_val@U?$_Simple_types@UOption@CCustomMenu@@@std@@@std@@@std@@U?$less@X@2@@std@@YAXV?$_Vector_iterator@V?$_Vector_val@U?$_Simple_types@UOption@CCustomMenu@@@std@@@std@@@0@0U?$less@X@0@@Z$2
__ehfuncinfo$??$sort@V?$_Vector_iterator@V?$_Vector_val@U?$_Simple_types@UOption@CCustomMenu@@@std@@@std@@@std@@U?$less@X@2@@std@@YAXV?$_Vector_iterator@V?$_Vector_val@U?$_Simple_types@UOption@CCustomMenu@@@std@@@std@@@0@0U?$less@X@0@@Z DD 019930522H
	DD	03H
	DD	FLAT:__unwindtable$??$sort@V?$_Vector_iterator@V?$_Vector_val@U?$_Simple_types@UOption@CCustomMenu@@@std@@@std@@@std@@U?$less@X@2@@std@@YAXV?$_Vector_iterator@V?$_Vector_val@U?$_Simple_types@UOption@CCustomMenu@@@std@@@std@@@0@0U?$less@X@0@@Z
	DD	2 DUP(00H)
	DD	2 DUP(00H)
	DD	00H
	DD	01H
xdata$x	ENDS
;	COMDAT xdata$x
xdata$x	SEGMENT
__unwindtable$??$_Unchecked@V?$_Vector_val@U?$_Simple_types@UOption@CCustomMenu@@@std@@@std@@@std@@YAPAUOption@CCustomMenu@@V?$_Vector_iterator@V?$_Vector_val@U?$_Simple_types@UOption@CCustomMenu@@@std@@@std@@@0@@Z DD 0ffffffffH
	DD	FLAT:__unwindfunclet$??$_Unchecked@V?$_Vector_val@U?$_Simple_types@UOption@CCustomMenu@@@std@@@std@@@std@@YAPAUOption@CCustomMenu@@V?$_Vector_iterator@V?$_Vector_val@U?$_Simple_types@UOption@CCustomMenu@@@std@@@std@@@0@@Z$0
__ehfuncinfo$??$_Unchecked@V?$_Vector_val@U?$_Simple_types@UOption@CCustomMenu@@@std@@@std@@@std@@YAPAUOption@CCustomMenu@@V?$_Vector_iterator@V?$_Vector_val@U?$_Simple_types@UOption@CCustomMenu@@@std@@@std@@@0@@Z DD 019930522H
	DD	01H
	DD	FLAT:__unwindtable$??$_Unchecked@V?$_Vector_val@U?$_Simple_types@UOption@CCustomMenu@@@std@@@std@@@std@@YAPAUOption@CCustomMenu@@V?$_Vector_iterator@V?$_Vector_val@U?$_Simple_types@UOption@CCustomMenu@@@std@@@std@@@0@@Z
	DD	2 DUP(00H)
	DD	2 DUP(00H)
	DD	00H
	DD	01H
xdata$x	ENDS
;	COMDAT xdata$x
xdata$x	SEGMENT
__unwindtable$??$_Debug_range@V?$_Vector_iterator@V?$_Vector_val@U?$_Simple_types@UOption@CCustomMenu@@@std@@@std@@@std@@@std@@YAXV?$_Vector_iterator@V?$_Vector_val@U?$_Simple_types@UOption@CCustomMenu@@@std@@@std@@@0@0PB_WI@Z DD 0ffffffffH
	DD	FLAT:__unwindfunclet$??$_Debug_range@V?$_Vector_iterator@V?$_Vector_val@U?$_Simple_types@UOption@CCustomMenu@@@std@@@std@@@std@@@std@@YAXV?$_Vector_iterator@V?$_Vector_val@U?$_Simple_types@UOption@CCustomMenu@@@std@@@std@@@0@0PB_WI@Z$0
	DD	00H
	DD	FLAT:__unwindfunclet$??$_Debug_range@V?$_Vector_iterator@V?$_Vector_val@U?$_Simple_types@UOption@CCustomMenu@@@std@@@std@@@std@@@std@@YAXV?$_Vector_iterator@V?$_Vector_val@U?$_Simple_types@UOption@CCustomMenu@@@std@@@std@@@0@0PB_WI@Z$1
	DD	01H
	DD	FLAT:__unwindfunclet$??$_Debug_range@V?$_Vector_iterator@V?$_Vector_val@U?$_Simple_types@UOption@CCustomMenu@@@std@@@std@@@std@@@std@@YAXV?$_Vector_iterator@V?$_Vector_val@U?$_Simple_types@UOption@CCustomMenu@@@std@@@std@@@0@0PB_WI@Z$2
__ehfuncinfo$??$_Debug_range@V?$_Vector_iterator@V?$_Vector_val@U?$_Simple_types@UOption@CCustomMenu@@@std@@@std@@@std@@@std@@YAXV?$_Vector_iterator@V?$_Vector_val@U?$_Simple_types@UOption@CCustomMenu@@@std@@@std@@@0@0PB_WI@Z DD 019930522H
	DD	03H
	DD	FLAT:__unwindtable$??$_Debug_range@V?$_Vector_iterator@V?$_Vector_val@U?$_Simple_types@UOption@CCustomMenu@@@std@@@std@@@std@@@std@@YAXV?$_Vector_iterator@V?$_Vector_val@U?$_Simple_types@UOption@CCustomMenu@@@std@@@std@@@0@0PB_WI@Z
	DD	2 DUP(00H)
	DD	2 DUP(00H)
	DD	00H
	DD	01H
xdata$x	ENDS
;	COMDAT xdata$x
xdata$x	SEGMENT
__unwindtable$??$?0U?$_Wrap_alloc@V?$allocator@D@std@@@std@@X@?$_String_alloc@U?$_String_base_types@DV?$allocator@D@std@@@std@@@std@@QAE@$$QAU?$_Wrap_alloc@V?$allocator@D@std@@@1@@Z DD 0ffffffffH
	DD	FLAT:__unwindfunclet$??$?0U?$_Wrap_alloc@V?$allocator@D@std@@@std@@X@?$_String_alloc@U?$_String_base_types@DV?$allocator@D@std@@@std@@@std@@QAE@$$QAU?$_Wrap_alloc@V?$allocator@D@std@@@1@@Z$0
__ehfuncinfo$??$?0U?$_Wrap_alloc@V?$allocator@D@std@@@std@@X@?$_String_alloc@U?$_String_base_types@DV?$allocator@D@std@@@std@@@std@@QAE@$$QAU?$_Wrap_alloc@V?$allocator@D@std@@@1@@Z DD 019930522H
	DD	01H
	DD	FLAT:__unwindtable$??$?0U?$_Wrap_alloc@V?$allocator@D@std@@@std@@X@?$_String_alloc@U?$_String_base_types@DV?$allocator@D@std@@@std@@@std@@QAE@$$QAU?$_Wrap_alloc@V?$allocator@D@std@@@1@@Z
	DD	2 DUP(00H)
	DD	2 DUP(00H)
	DD	00H
	DD	01H
xdata$x	ENDS
;	COMDAT xdata$x
xdata$x	SEGMENT
__unwindtable$??0?$_String_const_iterator@V?$_String_val@U?$_Simple_types@D@std@@@std@@@std@@QAE@PBDPBU_Container_base12@1@@Z DD 0ffffffffH
	DD	FLAT:__unwindfunclet$??0?$_String_const_iterator@V?$_String_val@U?$_Simple_types@D@std@@@std@@@std@@QAE@PBDPBU_Container_base12@1@@Z$0
__ehfuncinfo$??0?$_String_const_iterator@V?$_String_val@U?$_Simple_types@D@std@@@std@@@std@@QAE@PBDPBU_Container_base12@1@@Z DD 019930522H
	DD	01H
	DD	FLAT:__unwindtable$??0?$_String_const_iterator@V?$_String_val@U?$_Simple_types@D@std@@@std@@@std@@QAE@PBDPBU_Container_base12@1@@Z
	DD	2 DUP(00H)
	DD	2 DUP(00H)
	DD	00H
	DD	01H
xdata$x	ENDS
;	COMDAT xdata$x
xdata$x	SEGMENT
__catchsym$??$?6DU?$char_traits@D@std@@V?$allocator@D@1@@std@@YAAAV?$basic_ostream@DU?$char_traits@D@std@@@0@AAV10@ABV?$basic_string@DU?$char_traits@D@std@@V?$allocator@D@2@@0@@Z$3 DD 040H
	DD	00H
	DD	00H
	DD	FLAT:__catch$??$?6DU?$char_traits@D@std@@V?$allocator@D@1@@std@@YAAAV?$basic_ostream@DU?$char_traits@D@std@@@0@AAV10@ABV?$basic_string@DU?$char_traits@D@std@@V?$allocator@D@2@@0@@Z$0
__tryblocktable$??$?6DU?$char_traits@D@std@@V?$allocator@D@1@@std@@YAAAV?$basic_ostream@DU?$char_traits@D@std@@@0@AAV10@ABV?$basic_string@DU?$char_traits@D@std@@V?$allocator@D@2@@0@@Z DD 01H
	DD	01H
	DD	02H
	DD	01H
	DD	FLAT:__catchsym$??$?6DU?$char_traits@D@std@@V?$allocator@D@1@@std@@YAAAV?$basic_ostream@DU?$char_traits@D@std@@@0@AAV10@ABV?$basic_string@DU?$char_traits@D@std@@V?$allocator@D@2@@0@@Z$3
__unwindtable$??$?6DU?$char_traits@D@std@@V?$allocator@D@1@@std@@YAAAV?$basic_ostream@DU?$char_traits@D@std@@@0@AAV10@ABV?$basic_string@DU?$char_traits@D@std@@V?$allocator@D@2@@0@@Z DD 0ffffffffH
	DD	FLAT:__unwindfunclet$??$?6DU?$char_traits@D@std@@V?$allocator@D@1@@std@@YAAAV?$basic_ostream@DU?$char_traits@D@std@@@0@AAV10@ABV?$basic_string@DU?$char_traits@D@std@@V?$allocator@D@2@@0@@Z$2
	DD	00H
	DD	00H
	DD	00H
	DD	00H
__ehfuncinfo$??$?6DU?$char_traits@D@std@@V?$allocator@D@1@@std@@YAAAV?$basic_ostream@DU?$char_traits@D@std@@@0@AAV10@ABV?$basic_string@DU?$char_traits@D@std@@V?$allocator@D@2@@0@@Z DD 019930522H
	DD	03H
	DD	FLAT:__unwindtable$??$?6DU?$char_traits@D@std@@V?$allocator@D@1@@std@@YAAAV?$basic_ostream@DU?$char_traits@D@std@@@0@AAV10@ABV?$basic_string@DU?$char_traits@D@std@@V?$allocator@D@2@@0@@Z
	DD	01H
	DD	FLAT:__tryblocktable$??$?6DU?$char_traits@D@std@@V?$allocator@D@1@@std@@YAAAV?$basic_ostream@DU?$char_traits@D@std@@@0@AAV10@ABV?$basic_string@DU?$char_traits@D@std@@V?$allocator@D@2@@0@@Z
	DD	2 DUP(00H)
	DD	00H
	DD	01H
xdata$x	ENDS
;	COMDAT xdata$x
xdata$x	SEGMENT
__catchsym$??$?6U?$char_traits@D@std@@@std@@YAAAV?$basic_ostream@DU?$char_traits@D@std@@@0@AAV10@PBD@Z$3 DD 040H
	DD	00H
	DD	00H
	DD	FLAT:__catch$??$?6U?$char_traits@D@std@@@std@@YAAAV?$basic_ostream@DU?$char_traits@D@std@@@0@AAV10@PBD@Z$0
__tryblocktable$??$?6U?$char_traits@D@std@@@std@@YAAAV?$basic_ostream@DU?$char_traits@D@std@@@0@AAV10@PBD@Z DD 01H
	DD	01H
	DD	02H
	DD	01H
	DD	FLAT:__catchsym$??$?6U?$char_traits@D@std@@@std@@YAAAV?$basic_ostream@DU?$char_traits@D@std@@@0@AAV10@PBD@Z$3
__unwindtable$??$?6U?$char_traits@D@std@@@std@@YAAAV?$basic_ostream@DU?$char_traits@D@std@@@0@AAV10@PBD@Z DD 0ffffffffH
	DD	FLAT:__unwindfunclet$??$?6U?$char_traits@D@std@@@std@@YAAAV?$basic_ostream@DU?$char_traits@D@std@@@0@AAV10@PBD@Z$2
	DD	00H
	DD	00H
	DD	00H
	DD	00H
__ehfuncinfo$??$?6U?$char_traits@D@std@@@std@@YAAAV?$basic_ostream@DU?$char_traits@D@std@@@0@AAV10@PBD@Z DD 019930522H
	DD	03H
	DD	FLAT:__unwindtable$??$?6U?$char_traits@D@std@@@std@@YAAAV?$basic_ostream@DU?$char_traits@D@std@@@0@AAV10@PBD@Z
	DD	01H
	DD	FLAT:__tryblocktable$??$?6U?$char_traits@D@std@@@std@@YAAAV?$basic_ostream@DU?$char_traits@D@std@@@0@AAV10@PBD@Z
	DD	2 DUP(00H)
	DD	00H
	DD	01H
xdata$x	ENDS
;	COMDAT xdata$x
xdata$x	SEGMENT
__catchsym$??$?6U?$char_traits@D@std@@@std@@YAAAV?$basic_ostream@DU?$char_traits@D@std@@@0@AAV10@D@Z$3 DD 040H
	DD	00H
	DD	00H
	DD	FLAT:__catch$??$?6U?$char_traits@D@std@@@std@@YAAAV?$basic_ostream@DU?$char_traits@D@std@@@0@AAV10@D@Z$0
__tryblocktable$??$?6U?$char_traits@D@std@@@std@@YAAAV?$basic_ostream@DU?$char_traits@D@std@@@0@AAV10@D@Z DD 01H
	DD	01H
	DD	02H
	DD	01H
	DD	FLAT:__catchsym$??$?6U?$char_traits@D@std@@@std@@YAAAV?$basic_ostream@DU?$char_traits@D@std@@@0@AAV10@D@Z$3
__unwindtable$??$?6U?$char_traits@D@std@@@std@@YAAAV?$basic_ostream@DU?$char_traits@D@std@@@0@AAV10@D@Z DD 0ffffffffH
	DD	FLAT:__unwindfunclet$??$?6U?$char_traits@D@std@@@std@@YAAAV?$basic_ostream@DU?$char_traits@D@std@@@0@AAV10@D@Z$2
	DD	00H
	DD	00H
	DD	00H
	DD	00H
__ehfuncinfo$??$?6U?$char_traits@D@std@@@std@@YAAAV?$basic_ostream@DU?$char_traits@D@std@@@0@AAV10@D@Z DD 019930522H
	DD	03H
	DD	FLAT:__unwindtable$??$?6U?$char_traits@D@std@@@std@@YAAAV?$basic_ostream@DU?$char_traits@D@std@@@0@AAV10@D@Z
	DD	01H
	DD	FLAT:__tryblocktable$??$?6U?$char_traits@D@std@@@std@@YAAAV?$basic_ostream@DU?$char_traits@D@std@@@0@AAV10@D@Z
	DD	2 DUP(00H)
	DD	00H
	DD	01H
xdata$x	ENDS
;	COMDAT xdata$x
xdata$x	SEGMENT
__unwindtable$??$sort@V?$_Vector_iterator@V?$_Vector_val@U?$_Simple_types@UOption@CCustomMenu@@@std@@@std@@@std@@@std@@YAXV?$_Vector_iterator@V?$_Vector_val@U?$_Simple_types@UOption@CCustomMenu@@@std@@@std@@@0@0@Z DD 0ffffffffH
	DD	FLAT:__unwindfunclet$??$sort@V?$_Vector_iterator@V?$_Vector_val@U?$_Simple_types@UOption@CCustomMenu@@@std@@@std@@@std@@@std@@YAXV?$_Vector_iterator@V?$_Vector_val@U?$_Simple_types@UOption@CCustomMenu@@@std@@@std@@@0@0@Z$0
	DD	00H
	DD	FLAT:__unwindfunclet$??$sort@V?$_Vector_iterator@V?$_Vector_val@U?$_Simple_types@UOption@CCustomMenu@@@std@@@std@@@std@@@std@@YAXV?$_Vector_iterator@V?$_Vector_val@U?$_Simple_types@UOption@CCustomMenu@@@std@@@std@@@0@0@Z$1
	DD	01H
	DD	FLAT:__unwindfunclet$??$sort@V?$_Vector_iterator@V?$_Vector_val@U?$_Simple_types@UOption@CCustomMenu@@@std@@@std@@@std@@@std@@YAXV?$_Vector_iterator@V?$_Vector_val@U?$_Simple_types@UOption@CCustomMenu@@@std@@@std@@@0@0@Z$2
__ehfuncinfo$??$sort@V?$_Vector_iterator@V?$_Vector_val@U?$_Simple_types@UOption@CCustomMenu@@@std@@@std@@@std@@@std@@YAXV?$_Vector_iterator@V?$_Vector_val@U?$_Simple_types@UOption@CCustomMenu@@@std@@@std@@@0@0@Z DD 019930522H
	DD	03H
	DD	FLAT:__unwindtable$??$sort@V?$_Vector_iterator@V?$_Vector_val@U?$_Simple_types@UOption@CCustomMenu@@@std@@@std@@@std@@@std@@YAXV?$_Vector_iterator@V?$_Vector_val@U?$_Simple_types@UOption@CCustomMenu@@@std@@@std@@@0@0@Z
	DD	2 DUP(00H)
	DD	2 DUP(00H)
	DD	00H
	DD	01H
xdata$x	ENDS
;	COMDAT xdata$x
xdata$x	SEGMENT
__unwindtable$??$find@V?$_Vector_iterator@V?$_Vector_val@U?$_Simple_types@UOption@CCustomMenu@@@std@@@std@@@std@@D@std@@YA?AV?$_Vector_iterator@V?$_Vector_val@U?$_Simple_types@UOption@CCustomMenu@@@std@@@std@@@0@V10@0ABD@Z DD 0ffffffffH
	DD	FLAT:__unwindfunclet$??$find@V?$_Vector_iterator@V?$_Vector_val@U?$_Simple_types@UOption@CCustomMenu@@@std@@@std@@@std@@D@std@@YA?AV?$_Vector_iterator@V?$_Vector_val@U?$_Simple_types@UOption@CCustomMenu@@@std@@@std@@@0@V10@0ABD@Z$0
	DD	00H
	DD	FLAT:__unwindfunclet$??$find@V?$_Vector_iterator@V?$_Vector_val@U?$_Simple_types@UOption@CCustomMenu@@@std@@@std@@@std@@D@std@@YA?AV?$_Vector_iterator@V?$_Vector_val@U?$_Simple_types@UOption@CCustomMenu@@@std@@@std@@@0@V10@0ABD@Z$1
	DD	01H
	DD	FLAT:__unwindfunclet$??$find@V?$_Vector_iterator@V?$_Vector_val@U?$_Simple_types@UOption@CCustomMenu@@@std@@@std@@@std@@D@std@@YA?AV?$_Vector_iterator@V?$_Vector_val@U?$_Simple_types@UOption@CCustomMenu@@@std@@@std@@@0@V10@0ABD@Z$2
__ehfuncinfo$??$find@V?$_Vector_iterator@V?$_Vector_val@U?$_Simple_types@UOption@CCustomMenu@@@std@@@std@@@std@@D@std@@YA?AV?$_Vector_iterator@V?$_Vector_val@U?$_Simple_types@UOption@CCustomMenu@@@std@@@std@@@0@V10@0ABD@Z DD 019930522H
	DD	03H
	DD	FLAT:__unwindtable$??$find@V?$_Vector_iterator@V?$_Vector_val@U?$_Simple_types@UOption@CCustomMenu@@@std@@@std@@@std@@D@std@@YA?AV?$_Vector_iterator@V?$_Vector_val@U?$_Simple_types@UOption@CCustomMenu@@@std@@@std@@@0@V10@0ABD@Z
	DD	2 DUP(00H)
	DD	2 DUP(00H)
	DD	00H
	DD	01H
xdata$x	ENDS
;	COMDAT xdata$x
xdata$x	SEGMENT
__unwindtable$??0?$_Vector_const_iterator@V?$_Vector_val@U?$_Simple_types@UOption@CCustomMenu@@@std@@@std@@@std@@QAE@PAUOption@CCustomMenu@@PBU_Container_base12@1@@Z DD 0ffffffffH
	DD	FLAT:__unwindfunclet$??0?$_Vector_const_iterator@V?$_Vector_val@U?$_Simple_types@UOption@CCustomMenu@@@std@@@std@@@std@@QAE@PAUOption@CCustomMenu@@PBU_Container_base12@1@@Z$0
__ehfuncinfo$??0?$_Vector_const_iterator@V?$_Vector_val@U?$_Simple_types@UOption@CCustomMenu@@@std@@@std@@@std@@QAE@PAUOption@CCustomMenu@@PBU_Container_base12@1@@Z DD 019930522H
	DD	01H
	DD	FLAT:__unwindtable$??0?$_Vector_const_iterator@V?$_Vector_val@U?$_Simple_types@UOption@CCustomMenu@@@std@@@std@@@std@@QAE@PAUOption@CCustomMenu@@PBU_Container_base12@1@@Z
	DD	2 DUP(00H)
	DD	2 DUP(00H)
	DD	00H
	DD	01H
xdata$x	ENDS
;	COMDAT xdata$x
xdata$x	SEGMENT
__unwindtable$?contains@CCustomMenu@@QAE_ND@Z DD 0ffffffffH
	DD	FLAT:__unwindfunclet$?contains@CCustomMenu@@QAE_ND@Z$0
	DD	00H
	DD	FLAT:__unwindfunclet$?contains@CCustomMenu@@QAE_ND@Z$3
__ehfuncinfo$?contains@CCustomMenu@@QAE_ND@Z DD 019930522H
	DD	02H
	DD	FLAT:__unwindtable$?contains@CCustomMenu@@QAE_ND@Z
	DD	2 DUP(00H)
	DD	2 DUP(00H)
	DD	00H
	DD	01H
xdata$x	ENDS
;	COMDAT xdata$x
xdata$x	SEGMENT
__ehfuncinfo$?displayMenuOptions@CCustomMenu@@QAEXXZ DD 019930522H
	DD	05H
	DD	FLAT:__unwindtable$?displayMenuOptions@CCustomMenu@@QAEXXZ
	DD	2 DUP(00H)
	DD	2 DUP(00H)
	DD	00H
	DD	01H
__unwindtable$?displayMenuOptions@CCustomMenu@@QAEXXZ DD 0ffffffffH
	DD	FLAT:__unwindfunclet$?displayMenuOptions@CCustomMenu@@QAEXXZ$0
	DD	00H
	DD	FLAT:__unwindfunclet$?displayMenuOptions@CCustomMenu@@QAEXXZ$1
	DD	0ffffffffH
	DD	FLAT:__unwindfunclet$?displayMenuOptions@CCustomMenu@@QAEXXZ$1
	DD	02H
	DD	FLAT:__unwindfunclet$?displayMenuOptions@CCustomMenu@@QAEXXZ$2
	DD	02H
	DD	FLAT:__unwindfunclet$?displayMenuOptions@CCustomMenu@@QAEXXZ$3
xdata$x	ENDS
;	COMDAT xdata$x
xdata$x	SEGMENT
__unwindtable$?addMenuOption@CCustomMenu@@QAE_NDV?$basic_string@DU?$char_traits@D@std@@V?$allocator@D@2@@std@@@Z DD 0ffffffffH
	DD	FLAT:__unwindfunclet$?addMenuOption@CCustomMenu@@QAE_NDV?$basic_string@DU?$char_traits@D@std@@V?$allocator@D@2@@std@@@Z$0
	DD	00H
	DD	FLAT:__unwindfunclet$?addMenuOption@CCustomMenu@@QAE_NDV?$basic_string@DU?$char_traits@D@std@@V?$allocator@D@2@@std@@@Z$1
	DD	01H
	DD	FLAT:__unwindfunclet$?addMenuOption@CCustomMenu@@QAE_NDV?$basic_string@DU?$char_traits@D@std@@V?$allocator@D@2@@std@@@Z$4
	DD	00H
	DD	FLAT:__unwindfunclet$?addMenuOption@CCustomMenu@@QAE_NDV?$basic_string@DU?$char_traits@D@std@@V?$allocator@D@2@@std@@@Z$5
__ehfuncinfo$?addMenuOption@CCustomMenu@@QAE_NDV?$basic_string@DU?$char_traits@D@std@@V?$allocator@D@2@@std@@@Z DD 019930522H
	DD	04H
	DD	FLAT:__unwindtable$?addMenuOption@CCustomMenu@@QAE_NDV?$basic_string@DU?$char_traits@D@std@@V?$allocator@D@2@@std@@@Z
	DD	2 DUP(00H)
	DD	2 DUP(00H)
	DD	00H
	DD	01H
xdata$x	ENDS
;	COMDAT xdata$x
xdata$x	SEGMENT
__unwindtable$?_Orphan_range@?$vector@UOption@CCustomMenu@@V?$allocator@UOption@CCustomMenu@@@std@@@std@@IBEXPAUOption@CCustomMenu@@0@Z DD 0ffffffffH
	DD	FLAT:__unwindfunclet$?_Orphan_range@?$vector@UOption@CCustomMenu@@V?$allocator@UOption@CCustomMenu@@@std@@@std@@IBEXPAUOption@CCustomMenu@@0@Z$0
__ehfuncinfo$?_Orphan_range@?$vector@UOption@CCustomMenu@@V?$allocator@UOption@CCustomMenu@@@std@@@std@@IBEXPAUOption@CCustomMenu@@0@Z DD 019930522H
	DD	01H
	DD	FLAT:__unwindtable$?_Orphan_range@?$vector@UOption@CCustomMenu@@V?$allocator@UOption@CCustomMenu@@@std@@@std@@IBEXPAUOption@CCustomMenu@@0@Z
	DD	2 DUP(00H)
	DD	2 DUP(00H)
	DD	00H
	DD	01H
xdata$x	ENDS
;	COMDAT xdata$x
xdata$x	SEGMENT
__catchsym$?_Reallocate@?$vector@UOption@CCustomMenu@@V?$allocator@UOption@CCustomMenu@@@std@@@std@@IAEXI@Z$2 DD 040H
	DD	00H
	DD	00H
	DD	FLAT:__catch$?_Reallocate@?$vector@UOption@CCustomMenu@@V?$allocator@UOption@CCustomMenu@@@std@@@std@@IAEXI@Z$0
__unwindtable$?_Reallocate@?$vector@UOption@CCustomMenu@@V?$allocator@UOption@CCustomMenu@@@std@@@std@@IAEXI@Z DD 0ffffffffH
	DD	00H
	DD	0ffffffffH
	DD	00H
__tryblocktable$?_Reallocate@?$vector@UOption@CCustomMenu@@V?$allocator@UOption@CCustomMenu@@@std@@@std@@IAEXI@Z DD 00H
	DD	00H
	DD	01H
	DD	01H
	DD	FLAT:__catchsym$?_Reallocate@?$vector@UOption@CCustomMenu@@V?$allocator@UOption@CCustomMenu@@@std@@@std@@IAEXI@Z$2
__ehfuncinfo$?_Reallocate@?$vector@UOption@CCustomMenu@@V?$allocator@UOption@CCustomMenu@@@std@@@std@@IAEXI@Z DD 019930522H
	DD	02H
	DD	FLAT:__unwindtable$?_Reallocate@?$vector@UOption@CCustomMenu@@V?$allocator@UOption@CCustomMenu@@@std@@@std@@IAEXI@Z
	DD	01H
	DD	FLAT:__tryblocktable$?_Reallocate@?$vector@UOption@CCustomMenu@@V?$allocator@UOption@CCustomMenu@@@std@@@std@@IAEXI@Z
	DD	2 DUP(00H)
	DD	00H
	DD	01H
xdata$x	ENDS
;	COMDAT xdata$x
xdata$x	SEGMENT
__ehfuncinfo$?end@?$vector@UOption@CCustomMenu@@V?$allocator@UOption@CCustomMenu@@@std@@@std@@QAE?AV?$_Vector_iterator@V?$_Vector_val@U?$_Simple_types@UOption@CCustomMenu@@@std@@@std@@@2@XZ DD 019930522H
	DD	00H
	DD	00H
	DD	2 DUP(00H)
	DD	2 DUP(00H)
	DD	00H
	DD	05H
xdata$x	ENDS
;	COMDAT xdata$x
xdata$x	SEGMENT
__ehfuncinfo$?begin@?$vector@UOption@CCustomMenu@@V?$allocator@UOption@CCustomMenu@@@std@@@std@@QAE?AV?$_Vector_iterator@V?$_Vector_val@U?$_Simple_types@UOption@CCustomMenu@@@std@@@std@@@2@XZ DD 019930522H
	DD	00H
	DD	00H
	DD	2 DUP(00H)
	DD	2 DUP(00H)
	DD	00H
	DD	05H
xdata$x	ENDS
;	COMDAT xdata$x
xdata$x	SEGMENT
__ehfuncinfo$??1?$vector@UOption@CCustomMenu@@V?$allocator@UOption@CCustomMenu@@@std@@@std@@QAE@XZ DD 019930522H
	DD	00H
	DD	00H
	DD	2 DUP(00H)
	DD	2 DUP(00H)
	DD	00H
	DD	05H
xdata$x	ENDS
;	COMDAT xdata$x
xdata$x	SEGMENT
__ehfuncinfo$??0?$vector@UOption@CCustomMenu@@V?$allocator@UOption@CCustomMenu@@@std@@@std@@QAE@XZ DD 019930522H
	DD	00H
	DD	00H
	DD	2 DUP(00H)
	DD	2 DUP(00H)
	DD	00H
	DD	05H
xdata$x	ENDS
;	COMDAT xdata$x
xdata$x	SEGMENT
__ehfuncinfo$??1?$_Vector_alloc@U?$_Vec_base_types@UOption@CCustomMenu@@V?$allocator@UOption@CCustomMenu@@@std@@@std@@@std@@QAE@XZ DD 019930522H
	DD	00H
	DD	00H
	DD	2 DUP(00H)
	DD	2 DUP(00H)
	DD	00H
	DD	05H
xdata$x	ENDS
;	COMDAT xdata$x
xdata$x	SEGMENT
__unwindtable$??0?$_Vector_alloc@U?$_Vec_base_types@UOption@CCustomMenu@@V?$allocator@UOption@CCustomMenu@@@std@@@std@@@std@@QAE@XZ DD 0ffffffffH
	DD	FLAT:__unwindfunclet$??0?$_Vector_alloc@U?$_Vec_base_types@UOption@CCustomMenu@@V?$allocator@UOption@CCustomMenu@@@std@@@std@@@std@@QAE@XZ$0
__ehfuncinfo$??0?$_Vector_alloc@U?$_Vec_base_types@UOption@CCustomMenu@@V?$allocator@UOption@CCustomMenu@@@std@@@std@@@std@@QAE@XZ DD 019930522H
	DD	01H
	DD	FLAT:__unwindtable$??0?$_Vector_alloc@U?$_Vec_base_types@UOption@CCustomMenu@@V?$allocator@UOption@CCustomMenu@@@std@@@std@@@std@@QAE@XZ
	DD	2 DUP(00H)
	DD	2 DUP(00H)
	DD	00H
	DD	01H
xdata$x	ENDS
;	COMDAT xdata$x
xdata$x	SEGMENT
__catchsym$?_Copy@?$basic_string@DU?$char_traits@D@std@@V?$allocator@D@2@@std@@QAEXII@Z$5 DD 040H
	DD	00H
	DD	00H
	DD	FLAT:__catch$?_Copy@?$basic_string@DU?$char_traits@D@std@@V?$allocator@D@2@@std@@QAEXII@Z$0
__catchsym$?_Copy@?$basic_string@DU?$char_traits@D@std@@V?$allocator@D@2@@std@@QAEXII@Z$4 DD 040H
	DD	00H
	DD	00H
	DD	FLAT:__catch$?_Copy@?$basic_string@DU?$char_traits@D@std@@V?$allocator@D@2@@std@@QAEXII@Z$1
__unwindtable$?_Copy@?$basic_string@DU?$char_traits@D@std@@V?$allocator@D@2@@std@@QAEXII@Z DD 0ffffffffH
	DD	00H
	DD	0ffffffffH
	DD	00H
	DD	01H
	DD	00H
	DD	01H
	DD	00H
__ehfuncinfo$?_Copy@?$basic_string@DU?$char_traits@D@std@@V?$allocator@D@2@@std@@QAEXII@Z DD 019930522H
	DD	04H
	DD	FLAT:__unwindtable$?_Copy@?$basic_string@DU?$char_traits@D@std@@V?$allocator@D@2@@std@@QAEXII@Z
	DD	02H
	DD	FLAT:__tryblocktable$?_Copy@?$basic_string@DU?$char_traits@D@std@@V?$allocator@D@2@@std@@QAEXII@Z
	DD	2 DUP(00H)
	DD	00H
	DD	01H
__tryblocktable$?_Copy@?$basic_string@DU?$char_traits@D@std@@V?$allocator@D@2@@std@@QAEXII@Z DD 02H
	DD	02H
	DD	03H
	DD	01H
	DD	FLAT:__catchsym$?_Copy@?$basic_string@DU?$char_traits@D@std@@V?$allocator@D@2@@std@@QAEXII@Z$4
	DD	00H
	DD	00H
	DD	03H
	DD	01H
	DD	FLAT:__catchsym$?_Copy@?$basic_string@DU?$char_traits@D@std@@V?$allocator@D@2@@std@@QAEXII@Z$5
xdata$x	ENDS
;	COMDAT xdata$x
xdata$x	SEGMENT
__ehfuncinfo$?c_str@?$basic_string@DU?$char_traits@D@std@@V?$allocator@D@2@@std@@QBEPBDXZ DD 019930522H
	DD	00H
	DD	00H
	DD	2 DUP(00H)
	DD	2 DUP(00H)
	DD	00H
	DD	05H
xdata$x	ENDS
;	COMDAT xdata$x
xdata$x	SEGMENT
__ehfuncinfo$?end@?$basic_string@DU?$char_traits@D@std@@V?$allocator@D@2@@std@@QAE?AV?$_String_iterator@V?$_String_val@U?$_Simple_types@D@std@@@std@@@2@XZ DD 019930522H
	DD	00H
	DD	00H
	DD	2 DUP(00H)
	DD	2 DUP(00H)
	DD	00H
	DD	05H
xdata$x	ENDS
;	COMDAT xdata$x
xdata$x	SEGMENT
__ehfuncinfo$?begin@?$basic_string@DU?$char_traits@D@std@@V?$allocator@D@2@@std@@QAE?AV?$_String_iterator@V?$_String_val@U?$_Simple_types@D@std@@@std@@@2@XZ DD 019930522H
	DD	00H
	DD	00H
	DD	2 DUP(00H)
	DD	2 DUP(00H)
	DD	00H
	DD	05H
xdata$x	ENDS
;	COMDAT xdata$x
xdata$x	SEGMENT
__ehfuncinfo$?replace@?$basic_string@DU?$char_traits@D@std@@V?$allocator@D@2@@std@@QAEAAV12@V?$_String_const_iterator@V?$_String_val@U?$_Simple_types@D@std@@@std@@@2@0V?$_String_iterator@V?$_String_val@U?$_Simple_types@D@std@@@std@@@2@1@Z DD 019930522H
	DD	06H
	DD	FLAT:__unwindtable$?replace@?$basic_string@DU?$char_traits@D@std@@V?$allocator@D@2@@std@@QAEAAV12@V?$_String_const_iterator@V?$_String_val@U?$_Simple_types@D@std@@@std@@@2@0V?$_String_iterator@V?$_String_val@U?$_Simple_types@D@std@@@std@@@2@1@Z
	DD	2 DUP(00H)
	DD	2 DUP(00H)
	DD	00H
	DD	01H
__unwindtable$?replace@?$basic_string@DU?$char_traits@D@std@@V?$allocator@D@2@@std@@QAEAAV12@V?$_String_const_iterator@V?$_String_val@U?$_Simple_types@D@std@@@std@@@2@0V?$_String_iterator@V?$_String_val@U?$_Simple_types@D@std@@@std@@@2@1@Z DD 0ffffffffH
	DD	FLAT:__unwindfunclet$?replace@?$basic_string@DU?$char_traits@D@std@@V?$allocator@D@2@@std@@QAEAAV12@V?$_String_const_iterator@V?$_String_val@U?$_Simple_types@D@std@@@std@@@2@0V?$_String_iterator@V?$_String_val@U?$_Simple_types@D@std@@@std@@@2@1@Z$0
	DD	00H
	DD	FLAT:__unwindfunclet$?replace@?$basic_string@DU?$char_traits@D@std@@V?$allocator@D@2@@std@@QAEAAV12@V?$_String_const_iterator@V?$_String_val@U?$_Simple_types@D@std@@@std@@@2@0V?$_String_iterator@V?$_String_val@U?$_Simple_types@D@std@@@std@@@2@1@Z$1
	DD	01H
	DD	FLAT:__unwindfunclet$?replace@?$basic_string@DU?$char_traits@D@std@@V?$allocator@D@2@@std@@QAEAAV12@V?$_String_const_iterator@V?$_String_val@U?$_Simple_types@D@std@@@std@@@2@0V?$_String_iterator@V?$_String_val@U?$_Simple_types@D@std@@@std@@@2@1@Z$2
	DD	02H
	DD	FLAT:__unwindfunclet$?replace@?$basic_string@DU?$char_traits@D@std@@V?$allocator@D@2@@std@@QAEAAV12@V?$_String_const_iterator@V?$_String_val@U?$_Simple_types@D@std@@@std@@@2@0V?$_String_iterator@V?$_String_val@U?$_Simple_types@D@std@@@std@@@2@1@Z$3
	DD	03H
	DD	FLAT:__unwindfunclet$?replace@?$basic_string@DU?$char_traits@D@std@@V?$allocator@D@2@@std@@QAEAAV12@V?$_String_const_iterator@V?$_String_val@U?$_Simple_types@D@std@@@std@@@2@0V?$_String_iterator@V?$_String_val@U?$_Simple_types@D@std@@@std@@@2@1@Z$4
	DD	03H
	DD	FLAT:__unwindfunclet$?replace@?$basic_string@DU?$char_traits@D@std@@V?$allocator@D@2@@std@@QAEAAV12@V?$_String_const_iterator@V?$_String_val@U?$_Simple_types@D@std@@@std@@@2@0V?$_String_iterator@V?$_String_val@U?$_Simple_types@D@std@@@std@@@2@1@Z$5
xdata$x	ENDS
;	COMDAT xdata$x
xdata$x	SEGMENT
__ehfuncinfo$??1?$basic_string@DU?$char_traits@D@std@@V?$allocator@D@2@@std@@QAE@XZ DD 019930522H
	DD	00H
	DD	00H
	DD	2 DUP(00H)
	DD	2 DUP(00H)
	DD	00H
	DD	05H
xdata$x	ENDS
;	COMDAT xdata$x
xdata$x	SEGMENT
__ehfuncinfo$??4?$basic_string@DU?$char_traits@D@std@@V?$allocator@D@2@@std@@QAEAAV01@$$QAV01@@Z DD 019930522H
	DD	00H
	DD	00H
	DD	2 DUP(00H)
	DD	2 DUP(00H)
	DD	00H
	DD	05H
xdata$x	ENDS
;	COMDAT xdata$x
xdata$x	SEGMENT
__ehfuncinfo$??0?$basic_string@DU?$char_traits@D@std@@V?$allocator@D@2@@std@@QAE@$$QAV01@@Z DD 019930522H
	DD	00H
	DD	00H
	DD	2 DUP(00H)
	DD	2 DUP(00H)
	DD	00H
	DD	05H
xdata$x	ENDS
;	COMDAT xdata$x
xdata$x	SEGMENT
__ehfuncinfo$??0?$basic_string@DU?$char_traits@D@std@@V?$allocator@D@2@@std@@QAE@XZ DD 019930522H
	DD	00H
	DD	00H
	DD	2 DUP(00H)
	DD	2 DUP(00H)
	DD	00H
	DD	05H
xdata$x	ENDS
;	COMDAT xdata$x
xdata$x	SEGMENT
__unwindtable$??0?$basic_string@DU?$char_traits@D@std@@V?$allocator@D@2@@std@@QAE@ABV01@@Z DD 0ffffffffH
	DD	FLAT:__unwindfunclet$??0?$basic_string@DU?$char_traits@D@std@@V?$allocator@D@2@@std@@QAE@ABV01@@Z$0
__ehfuncinfo$??0?$basic_string@DU?$char_traits@D@std@@V?$allocator@D@2@@std@@QAE@ABV01@@Z DD 019930522H
	DD	01H
	DD	FLAT:__unwindtable$??0?$basic_string@DU?$char_traits@D@std@@V?$allocator@D@2@@std@@QAE@ABV01@@Z
	DD	2 DUP(00H)
	DD	2 DUP(00H)
	DD	00H
	DD	01H
xdata$x	ENDS
;	COMDAT xdata$x
xdata$x	SEGMENT
__ehfuncinfo$??1?$_String_alloc@U?$_String_base_types@DV?$allocator@D@std@@@std@@@std@@QAE@XZ DD 019930522H
	DD	00H
	DD	00H
	DD	2 DUP(00H)
	DD	2 DUP(00H)
	DD	00H
	DD	05H
xdata$x	ENDS
;	COMDAT xdata$x
xdata$x	SEGMENT
__unwindtable$??0?$_String_alloc@U?$_String_base_types@DV?$allocator@D@std@@@std@@@std@@QAE@XZ DD 0ffffffffH
	DD	FLAT:__unwindfunclet$??0?$_String_alloc@U?$_String_base_types@DV?$allocator@D@std@@@std@@@std@@QAE@XZ$0
__ehfuncinfo$??0?$_String_alloc@U?$_String_base_types@DV?$allocator@D@std@@@std@@@std@@QAE@XZ DD 019930522H
	DD	01H
	DD	FLAT:__unwindtable$??0?$_String_alloc@U?$_String_base_types@DV?$allocator@D@std@@@std@@@std@@QAE@XZ
	DD	2 DUP(00H)
	DD	2 DUP(00H)
	DD	00H
	DD	01H
xdata$x	ENDS
;	COMDAT xdata$x
xdata$x	SEGMENT
__unwindtable$??0?$_String_val@U?$_Simple_types@D@std@@@std@@QAE@XZ DD 0ffffffffH
	DD	FLAT:__unwindfunclet$??0?$_String_val@U?$_Simple_types@D@std@@@std@@QAE@XZ$0
__ehfuncinfo$??0?$_String_val@U?$_Simple_types@D@std@@@std@@QAE@XZ DD 019930522H
	DD	01H
	DD	FLAT:__unwindtable$??0?$_String_val@U?$_Simple_types@D@std@@@std@@QAE@XZ
	DD	2 DUP(00H)
	DD	2 DUP(00H)
	DD	00H
	DD	01H
xdata$x	ENDS
;	COMDAT xdata$x
xdata$x	SEGMENT
__unwindtable$?_Adopt@_Iterator_base12@std@@QAEXPBU_Container_base12@2@@Z DD 0ffffffffH
	DD	FLAT:__unwindfunclet$?_Adopt@_Iterator_base12@std@@QAEXPBU_Container_base12@2@@Z$0
	DD	0ffffffffH
	DD	FLAT:__unwindfunclet$?_Adopt@_Iterator_base12@std@@QAEXPBU_Container_base12@2@@Z$1
__ehfuncinfo$?_Adopt@_Iterator_base12@std@@QAEXPBU_Container_base12@2@@Z DD 019930522H
	DD	02H
	DD	FLAT:__unwindtable$?_Adopt@_Iterator_base12@std@@QAEXPBU_Container_base12@2@@Z
	DD	2 DUP(00H)
	DD	2 DUP(00H)
	DD	00H
	DD	01H
xdata$x	ENDS
;	COMDAT xdata$x
xdata$x	SEGMENT
__ehfuncinfo$??1_Iterator_base12@std@@QAE@XZ DD 019930522H
	DD	00H
	DD	00H
	DD	2 DUP(00H)
	DD	2 DUP(00H)
	DD	00H
	DD	05H
xdata$x	ENDS
;	COMDAT xdata$x
xdata$x	SEGMENT
__unwindtable$??4_Iterator_base12@std@@QAEAAU01@ABU01@@Z DD 0ffffffffH
	DD	FLAT:__unwindfunclet$??4_Iterator_base12@std@@QAEAAU01@ABU01@@Z$0
__ehfuncinfo$??4_Iterator_base12@std@@QAEAAU01@ABU01@@Z DD 019930522H
	DD	01H
	DD	FLAT:__unwindtable$??4_Iterator_base12@std@@QAEAAU01@ABU01@@Z
	DD	2 DUP(00H)
	DD	2 DUP(00H)
	DD	00H
	DD	01H
xdata$x	ENDS
;	COMDAT xdata$x
xdata$x	SEGMENT
__ehfuncinfo$??1_Container_base12@std@@QAE@XZ DD 019930522H
	DD	00H
	DD	00H
	DD	2 DUP(00H)
	DD	2 DUP(00H)
	DD	00H
	DD	05H
xdata$x	ENDS
; Function compile flags: /Odtp /RTCsu /ZI
; File c:\program files (x86)\microsoft visual studio 14.0\vc\include\xstddef
;	COMDAT ??$_Unfancy@$$CBD@std@@YAPBDPBD@Z
_TEXT	SEGMENT
__Ptr$ = 8						; size = 4
??$_Unfancy@$$CBD@std@@YAPBDPBD@Z PROC			; std::_Unfancy<char const >, COMDAT

; 739  : 	{	// do nothing for plain pointers

	push	ebp
	mov	ebp, esp
	sub	esp, 192				; 000000c0H
	push	ebx
	push	esi
	push	edi
	lea	edi, DWORD PTR [ebp-192]
	mov	ecx, 48					; 00000030H
	mov	eax, -858993460				; ccccccccH
	rep stosd

; 740  : 	return (_Ptr);

	mov	eax, DWORD PTR __Ptr$[ebp]

; 741  : 	}

	pop	edi
	pop	esi
	pop	ebx
	mov	esp, ebp
	pop	ebp
	ret	0
??$_Unfancy@$$CBD@std@@YAPBDPBD@Z ENDP			; std::_Unfancy<char const >
_TEXT	ENDS
; Function compile flags: /Odtp /RTCsu /ZI
; File c:\program files (x86)\microsoft visual studio 14.0\vc\include\xmemory0
;	COMDAT ??$_Pocma@U?$_Wrap_alloc@V?$allocator@D@std@@@std@@@std@@YAXAAU?$_Wrap_alloc@V?$allocator@D@std@@@0@0U?$integral_constant@_N$00@0@@Z
_TEXT	SEGMENT
__$EHRec$ = -12						; size = 12
__Left$ = 8						; size = 4
__Right$ = 12						; size = 4
___formal$ = 16						; size = 1
??$_Pocma@U?$_Wrap_alloc@V?$allocator@D@std@@@std@@@std@@YAXAAU?$_Wrap_alloc@V?$allocator@D@std@@@0@0U?$integral_constant@_N$00@0@@Z PROC ; std::_Pocma<std::_Wrap_alloc<std::allocator<char> > >, COMDAT

; 1051 : 	{	// propagate on container move assignment

	push	ebp
	mov	ebp, esp
	push	-1
	push	__ehhandler$??$_Pocma@U?$_Wrap_alloc@V?$allocator@D@std@@@std@@@std@@YAXAAU?$_Wrap_alloc@V?$allocator@D@std@@@0@0U?$integral_constant@_N$00@0@@Z
	mov	eax, DWORD PTR fs:0
	push	eax
	sub	esp, 192				; 000000c0H
	push	ebx
	push	esi
	push	edi
	lea	edi, DWORD PTR [ebp-204]
	mov	ecx, 48					; 00000030H
	mov	eax, -858993460				; ccccccccH
	rep stosd
	mov	eax, DWORD PTR ___security_cookie
	xor	eax, ebp
	push	eax
	lea	eax, DWORD PTR __$EHRec$[ebp]
	mov	DWORD PTR fs:0, eax

; 1052 : 	_Left = _STD move(_Right);

	mov	eax, DWORD PTR __Right$[ebp]
	push	eax
	call	??$move@AAU?$_Wrap_alloc@V?$allocator@D@std@@@std@@@std@@YA$$QAU?$_Wrap_alloc@V?$allocator@D@std@@@0@AAU10@@Z ; std::move<std::_Wrap_alloc<std::allocator<char> > &>
	add	esp, 4
	push	eax
	mov	ecx, DWORD PTR __Left$[ebp]
	call	??4?$_Wrap_alloc@V?$allocator@D@std@@@std@@QAEAAU01@$$QAU01@@Z ; std::_Wrap_alloc<std::allocator<char> >::operator=

; 1053 : 	}

	mov	ecx, DWORD PTR __$EHRec$[ebp]
	mov	DWORD PTR fs:0, ecx
	pop	ecx
	pop	edi
	pop	esi
	pop	ebx
	add	esp, 204				; 000000ccH
	cmp	ebp, esp
	call	__RTC_CheckEsp
	mov	esp, ebp
	pop	ebp
	ret	0
_TEXT	ENDS
;	COMDAT text$x
text$x	SEGMENT
__ehhandler$??$_Pocma@U?$_Wrap_alloc@V?$allocator@D@std@@@std@@@std@@YAXAAU?$_Wrap_alloc@V?$allocator@D@std@@@0@0U?$integral_constant@_N$00@0@@Z:
	mov	edx, DWORD PTR [esp+8]
	lea	eax, DWORD PTR [edx+12]
	mov	ecx, DWORD PTR [edx-208]
	xor	ecx, eax
	call	@__security_check_cookie@4
	mov	eax, OFFSET __ehfuncinfo$??$_Pocma@U?$_Wrap_alloc@V?$allocator@D@std@@@std@@@std@@YAXAAU?$_Wrap_alloc@V?$allocator@D@std@@@0@0U?$integral_constant@_N$00@0@@Z
	jmp	___CxxFrameHandler3
text$x	ENDS
??$_Pocma@U?$_Wrap_alloc@V?$allocator@D@std@@@std@@@std@@YAXAAU?$_Wrap_alloc@V?$allocator@D@std@@@0@0U?$integral_constant@_N$00@0@@Z ENDP ; std::_Pocma<std::_Wrap_alloc<std::allocator<char> > >
; Function compile flags: /Odtp /RTCsu /ZI
; File c:\program files (x86)\microsoft visual studio 14.0\vc\include\xmemory0
;	COMDAT ??$construct@UOption@CCustomMenu@@U12@@?$allocator@UOption@CCustomMenu@@@std@@QAEXPAUOption@CCustomMenu@@$$QAU23@@Z
_TEXT	SEGMENT
tv76 = -220						; size = 4
$T1 = -212						; size = 4
_this$ = -8						; size = 4
__Ptr$ = 8						; size = 4
_<_Args_0>$ = 12					; size = 4
??$construct@UOption@CCustomMenu@@U12@@?$allocator@UOption@CCustomMenu@@@std@@QAEXPAUOption@CCustomMenu@@$$QAU23@@Z PROC ; std::allocator<CCustomMenu::Option>::construct<CCustomMenu::Option,CCustomMenu::Option>, COMDAT
; _this$ = ecx

; 736  : 		{	// construct _Objty(_Types...) at _Ptr

	push	ebp
	mov	ebp, esp
	sub	esp, 220				; 000000dcH
	push	ebx
	push	esi
	push	edi
	push	ecx
	lea	edi, DWORD PTR [ebp-220]
	mov	ecx, 55					; 00000037H
	mov	eax, -858993460				; ccccccccH
	rep stosd
	pop	ecx
	mov	DWORD PTR _this$[ebp], ecx

; 737  : 		::new ((void *)_Ptr) _Objty(_STD forward<_Types>(_Args)...);

	mov	eax, DWORD PTR __Ptr$[ebp]
	push	eax
	push	32					; 00000020H
	call	??2@YAPAXIPAX@Z				; operator new
	add	esp, 8
	mov	DWORD PTR $T1[ebp], eax
	cmp	DWORD PTR $T1[ebp], 0
	je	SHORT $LN3@construct
	mov	ecx, DWORD PTR _<_Args_0>$[ebp]
	push	ecx
	call	??$forward@UOption@CCustomMenu@@@std@@YA$$QAUOption@CCustomMenu@@AAU12@@Z ; std::forward<CCustomMenu::Option>
	add	esp, 4
	push	eax
	mov	ecx, DWORD PTR $T1[ebp]
	call	??0Option@CCustomMenu@@QAE@$$QAU01@@Z
	mov	DWORD PTR tv76[ebp], eax
	jmp	SHORT $LN1@construct
$LN3@construct:
	mov	DWORD PTR tv76[ebp], 0
$LN1@construct:

; 738  : 		}

	pop	edi
	pop	esi
	pop	ebx
	add	esp, 220				; 000000dcH
	cmp	ebp, esp
	call	__RTC_CheckEsp
	mov	esp, ebp
	pop	ebp
	ret	8
??$construct@UOption@CCustomMenu@@U12@@?$allocator@UOption@CCustomMenu@@@std@@QAEXPAUOption@CCustomMenu@@$$QAU23@@Z ENDP ; std::allocator<CCustomMenu::Option>::construct<CCustomMenu::Option,CCustomMenu::Option>
_TEXT	ENDS
; Function compile flags: /Odtp /RTCsu /ZI
; File c:\program files (x86)\microsoft visual studio 14.0\vc\include\xutility
;	COMDAT ??$_Move_backward_unchecked1@PAUOption@CCustomMenu@@PAU12@@std@@YAPAUOption@CCustomMenu@@PAU12@00U_General_ptr_iterator_tag@0@@Z
_TEXT	SEGMENT
__First$ = 8						; size = 4
__Last$ = 12						; size = 4
__Dest$ = 16						; size = 4
___formal$ = 20						; size = 1
??$_Move_backward_unchecked1@PAUOption@CCustomMenu@@PAU12@@std@@YAPAUOption@CCustomMenu@@PAU12@00U_General_ptr_iterator_tag@0@@Z PROC ; std::_Move_backward_unchecked1<CCustomMenu::Option *,CCustomMenu::Option *>, COMDAT

; 2658 : 	{	// move [_First, _Last) backwards to [..., _Dest), no special optimization

	push	ebp
	mov	ebp, esp
	sub	esp, 192				; 000000c0H
	push	ebx
	push	esi
	push	edi
	lea	edi, DWORD PTR [ebp-192]
	mov	ecx, 48					; 00000030H
	mov	eax, -858993460				; ccccccccH
	rep stosd
$LN2@Move_backw:

; 2659 : 	while (_First != _Last)

	mov	eax, DWORD PTR __First$[ebp]
	cmp	eax, DWORD PTR __Last$[ebp]
	je	SHORT $LN3@Move_backw

; 2660 : 		*--_Dest = _STD move(*--_Last);

	mov	eax, DWORD PTR __Last$[ebp]
	sub	eax, 32					; 00000020H
	mov	DWORD PTR __Last$[ebp], eax
	mov	ecx, DWORD PTR __Dest$[ebp]
	sub	ecx, 32					; 00000020H
	mov	DWORD PTR __Dest$[ebp], ecx
	mov	edx, DWORD PTR __Last$[ebp]
	push	edx
	call	??$move@AAUOption@CCustomMenu@@@std@@YA$$QAUOption@CCustomMenu@@AAU12@@Z ; std::move<CCustomMenu::Option &>
	add	esp, 4
	push	eax
	mov	ecx, DWORD PTR __Dest$[ebp]
	call	??4Option@CCustomMenu@@QAEAAU01@$$QAU01@@Z
	jmp	SHORT $LN2@Move_backw
$LN3@Move_backw:

; 2661 : 	return (_Dest);

	mov	eax, DWORD PTR __Dest$[ebp]

; 2662 : 	}

	pop	edi
	pop	esi
	pop	ebx
	add	esp, 192				; 000000c0H
	cmp	ebp, esp
	call	__RTC_CheckEsp
	mov	esp, ebp
	pop	ebp
	ret	0
??$_Move_backward_unchecked1@PAUOption@CCustomMenu@@PAU12@@std@@YAPAUOption@CCustomMenu@@PAU12@00U_General_ptr_iterator_tag@0@@Z ENDP ; std::_Move_backward_unchecked1<CCustomMenu::Option *,CCustomMenu::Option *>
_TEXT	ENDS
; Function compile flags: /Odtp /RTCsu /ZI
; File c:\program files (x86)\microsoft visual studio 14.0\vc\include\algorithm
;	COMDAT ??$_Pop_heap_hole_unchecked@PAUOption@CCustomMenu@@U12@U?$less@X@std@@@std@@YAXPAUOption@CCustomMenu@@00$$QAU12@AAU?$less@X@0@@Z
_TEXT	SEGMENT
__First$ = 8						; size = 4
__Last$ = 12						; size = 4
__Dest$ = 16						; size = 4
__Val$ = 20						; size = 4
__Pred$ = 24						; size = 4
??$_Pop_heap_hole_unchecked@PAUOption@CCustomMenu@@U12@U?$less@X@std@@@std@@YAXPAUOption@CCustomMenu@@00$$QAU12@AAU?$less@X@0@@Z PROC ; std::_Pop_heap_hole_unchecked<CCustomMenu::Option *,CCustomMenu::Option,std::less<void> >, COMDAT

; 2067 : 	{	// pop *_First to *_Dest and reheap, using _Pred

	push	ebp
	mov	ebp, esp
	sub	esp, 192				; 000000c0H
	push	ebx
	push	esi
	push	edi
	lea	edi, DWORD PTR [ebp-192]
	mov	ecx, 48					; 00000030H
	mov	eax, -858993460				; ccccccccH
	rep stosd

; 2068 : 		// precondition: _First != _Last
; 2069 : 		// precondition: _First != _Dest
; 2070 : 	*_Dest = _STD move(*_First);

	mov	eax, DWORD PTR __First$[ebp]
	push	eax
	call	??$move@AAUOption@CCustomMenu@@@std@@YA$$QAUOption@CCustomMenu@@AAU12@@Z ; std::move<CCustomMenu::Option &>
	add	esp, 4
	push	eax
	mov	ecx, DWORD PTR __Dest$[ebp]
	call	??4Option@CCustomMenu@@QAEAAU01@$$QAU01@@Z

; 2071 : 	_Pop_heap_hole_by_index(_First, _Iter_diff_t<_RanIt>(0), _Iter_diff_t<_RanIt>(_Last - _First),

	mov	eax, DWORD PTR __Pred$[ebp]
	push	eax
	mov	ecx, DWORD PTR __Val$[ebp]
	push	ecx
	call	??$move@AAUOption@CCustomMenu@@@std@@YA$$QAUOption@CCustomMenu@@AAU12@@Z ; std::move<CCustomMenu::Option &>
	add	esp, 4
	push	eax
	mov	edx, DWORD PTR __Last$[ebp]
	sub	edx, DWORD PTR __First$[ebp]
	sar	edx, 5
	push	edx
	push	0
	mov	eax, DWORD PTR __First$[ebp]
	push	eax
	call	??$_Pop_heap_hole_by_index@PAUOption@CCustomMenu@@HU12@U?$less@X@std@@@std@@YAXPAUOption@CCustomMenu@@HH$$QAU12@AAU?$less@X@0@@Z ; std::_Pop_heap_hole_by_index<CCustomMenu::Option *,int,CCustomMenu::Option,std::less<void> >
	add	esp, 20					; 00000014H

; 2072 : 		_STD move(_Val), _Pred);
; 2073 : 	}

	pop	edi
	pop	esi
	pop	ebx
	add	esp, 192				; 000000c0H
	cmp	ebp, esp
	call	__RTC_CheckEsp
	mov	esp, ebp
	pop	ebp
	ret	0
??$_Pop_heap_hole_unchecked@PAUOption@CCustomMenu@@U12@U?$less@X@std@@@std@@YAXPAUOption@CCustomMenu@@00$$QAU12@AAU?$less@X@0@@Z ENDP ; std::_Pop_heap_hole_unchecked<CCustomMenu::Option *,CCustomMenu::Option,std::less<void> >
_TEXT	ENDS
; Function compile flags: /Odtp /RTCsu /ZI
; File c:\program files (x86)\microsoft visual studio 14.0\vc\include\algorithm
;	COMDAT ??$_Push_heap_by_index@PAUOption@CCustomMenu@@HU12@U?$less@X@std@@@std@@YAXPAUOption@CCustomMenu@@HH$$QAU12@AAU?$less@X@0@@Z
_TEXT	SEGMENT
__Idx$1 = -8						; size = 4
__First$ = 8						; size = 4
__Hole$ = 12						; size = 4
__Top$ = 16						; size = 4
__Val$ = 20						; size = 4
__Pred$ = 24						; size = 4
??$_Push_heap_by_index@PAUOption@CCustomMenu@@HU12@U?$less@X@std@@@std@@YAXPAUOption@CCustomMenu@@HH$$QAU12@AAU?$less@X@0@@Z PROC ; std::_Push_heap_by_index<CCustomMenu::Option *,int,CCustomMenu::Option,std::less<void> >, COMDAT

; 1989 : 	{	// percolate _Hole to _Top or where _Val belongs, using _Pred

	push	ebp
	mov	ebp, esp
	sub	esp, 204				; 000000ccH
	push	ebx
	push	esi
	push	edi
	lea	edi, DWORD PTR [ebp-204]
	mov	ecx, 51					; 00000033H
	mov	eax, -858993460				; ccccccccH
	rep stosd

; 1990 : 	for (_Diff _Idx = (_Hole - 1) / 2;

	mov	eax, DWORD PTR __Hole$[ebp]
	sub	eax, 1
	cdq
	sub	eax, edx
	sar	eax, 1
	mov	DWORD PTR __Idx$1[ebp], eax
	jmp	SHORT $LN4@Push_heap_
$LN2@Push_heap_:

; 1992 : 		_Idx = (_Hole - 1) / 2)

	mov	eax, DWORD PTR __Hole$[ebp]
	sub	eax, 1
	cdq
	sub	eax, edx
	sar	eax, 1
	mov	DWORD PTR __Idx$1[ebp], eax
$LN4@Push_heap_:

; 1991 : 		_Top < _Hole && _DEBUG_LT_PRED(_Pred, *(_First + _Idx), _Val);

	mov	eax, DWORD PTR __Top$[ebp]
	cmp	eax, DWORD PTR __Hole$[ebp]
	jge	SHORT $LN3@Push_heap_
	push	1991					; 000007c7H
	push	OFFSET ??_C@_1JC@ELNBGKIG@?$AAc?$AA?3?$AA?2?$AAp?$AAr?$AAo?$AAg?$AAr?$AAa?$AAm?$AA?5?$AAf?$AAi?$AAl?$AAe?$AAs?$AA?5?$AA?$CI?$AAx?$AA8?$AA6?$AA?$CJ?$AA?2?$AAm?$AAi?$AAc?$AAr?$AAo?$AAs?$AAo?$AAf?$AAt@
	mov	eax, DWORD PTR __Val$[ebp]
	push	eax
	mov	ecx, DWORD PTR __Idx$1[ebp]
	shl	ecx, 5
	add	ecx, DWORD PTR __First$[ebp]
	push	ecx
	mov	edx, DWORD PTR __Pred$[ebp]
	push	edx
	call	??$_Debug_lt_pred@AAU?$less@X@std@@AAUOption@CCustomMenu@@AAU34@@std@@YA_NAAU?$less@X@0@AAUOption@CCustomMenu@@1PB_WI@Z ; std::_Debug_lt_pred<std::less<void> &,CCustomMenu::Option &,CCustomMenu::Option &>
	add	esp, 20					; 00000014H
	movzx	eax, al
	test	eax, eax
	je	SHORT $LN3@Push_heap_

; 1993 : 		{	// move _Hole up to parent
; 1994 : 		*(_First + _Hole) = _STD move(*(_First + _Idx));

	mov	eax, DWORD PTR __Idx$1[ebp]
	shl	eax, 5
	add	eax, DWORD PTR __First$[ebp]
	push	eax
	call	??$move@AAUOption@CCustomMenu@@@std@@YA$$QAUOption@CCustomMenu@@AAU12@@Z ; std::move<CCustomMenu::Option &>
	add	esp, 4
	push	eax
	mov	ecx, DWORD PTR __Hole$[ebp]
	shl	ecx, 5
	add	ecx, DWORD PTR __First$[ebp]
	call	??4Option@CCustomMenu@@QAEAAU01@$$QAU01@@Z

; 1995 : 		_Hole = _Idx;

	mov	eax, DWORD PTR __Idx$1[ebp]
	mov	DWORD PTR __Hole$[ebp], eax

; 1996 : 		}

	jmp	SHORT $LN2@Push_heap_
$LN3@Push_heap_:

; 1997 : 
; 1998 : 	*(_First + _Hole) = _STD move(_Val);	// drop _Val into final hole

	mov	eax, DWORD PTR __Val$[ebp]
	push	eax
	call	??$move@AAUOption@CCustomMenu@@@std@@YA$$QAUOption@CCustomMenu@@AAU12@@Z ; std::move<CCustomMenu::Option &>
	add	esp, 4
	push	eax
	mov	ecx, DWORD PTR __Hole$[ebp]
	shl	ecx, 5
	add	ecx, DWORD PTR __First$[ebp]
	call	??4Option@CCustomMenu@@QAEAAU01@$$QAU01@@Z

; 1999 : 	}

	pop	edi
	pop	esi
	pop	ebx
	add	esp, 204				; 000000ccH
	cmp	ebp, esp
	call	__RTC_CheckEsp
	mov	esp, ebp
	pop	ebp
	ret	0
??$_Push_heap_by_index@PAUOption@CCustomMenu@@HU12@U?$less@X@std@@@std@@YAXPAUOption@CCustomMenu@@HH$$QAU12@AAU?$less@X@0@@Z ENDP ; std::_Push_heap_by_index<CCustomMenu::Option *,int,CCustomMenu::Option,std::less<void> >
_TEXT	ENDS
; Function compile flags: /Odtp /RTCsu /ZI
; File c:\program files (x86)\microsoft visual studio 14.0\vc\include\type_traits
;	COMDAT ??$forward@AAPAUOption@CCustomMenu@@@std@@YAAAPAUOption@CCustomMenu@@AAPAU12@@Z
_TEXT	SEGMENT
__Arg$ = 8						; size = 4
??$forward@AAPAUOption@CCustomMenu@@@std@@YAAAPAUOption@CCustomMenu@@AAPAU12@@Z PROC ; std::forward<CCustomMenu::Option * &>, COMDAT

; 1275 : 	{	// forward an lvalue as either an lvalue or an rvalue

	push	ebp
	mov	ebp, esp
	sub	esp, 192				; 000000c0H
	push	ebx
	push	esi
	push	edi
	lea	edi, DWORD PTR [ebp-192]
	mov	ecx, 48					; 00000030H
	mov	eax, -858993460				; ccccccccH
	rep stosd

; 1276 : 	return (static_cast<_Ty&&>(_Arg));

	mov	eax, DWORD PTR __Arg$[ebp]

; 1277 : 	}

	pop	edi
	pop	esi
	pop	ebx
	mov	esp, ebp
	pop	ebp
	ret	0
??$forward@AAPAUOption@CCustomMenu@@@std@@YAAAPAUOption@CCustomMenu@@AAPAU12@@Z ENDP ; std::forward<CCustomMenu::Option * &>
_TEXT	ENDS
; Function compile flags: /Odtp /RTCsu /ZI
; File c:\program files (x86)\microsoft visual studio 14.0\vc\include\utility
;	COMDAT ??$swap@UOption@CCustomMenu@@X@std@@YAXAAUOption@CCustomMenu@@0@Z
_TEXT	SEGMENT
__Tmp$ = -40						; size = 32
__$ArrayPad$ = -4					; size = 4
__Left$ = 8						; size = 4
__Right$ = 12						; size = 4
??$swap@UOption@CCustomMenu@@X@std@@YAXAAUOption@CCustomMenu@@0@Z PROC ; std::swap<CCustomMenu::Option,void>, COMDAT

; 48   : 	{	// exchange values stored at _Left and _Right

	push	ebp
	mov	ebp, esp
	sub	esp, 236				; 000000ecH
	push	ebx
	push	esi
	push	edi
	lea	edi, DWORD PTR [ebp-236]
	mov	ecx, 59					; 0000003bH
	mov	eax, -858993460				; ccccccccH
	rep stosd
	mov	eax, DWORD PTR ___security_cookie
	xor	eax, ebp
	mov	DWORD PTR __$ArrayPad$[ebp], eax

; 49   : 	_Ty _Tmp = _STD move(_Left);

	mov	eax, DWORD PTR __Left$[ebp]
	push	eax
	call	??$move@AAUOption@CCustomMenu@@@std@@YA$$QAUOption@CCustomMenu@@AAU12@@Z ; std::move<CCustomMenu::Option &>
	add	esp, 4
	push	eax
	lea	ecx, DWORD PTR __Tmp$[ebp]
	call	??0Option@CCustomMenu@@QAE@$$QAU01@@Z

; 50   : 	_Left = _STD move(_Right);

	mov	eax, DWORD PTR __Right$[ebp]
	push	eax
	call	??$move@AAUOption@CCustomMenu@@@std@@YA$$QAUOption@CCustomMenu@@AAU12@@Z ; std::move<CCustomMenu::Option &>
	add	esp, 4
	push	eax
	mov	ecx, DWORD PTR __Left$[ebp]
	call	??4Option@CCustomMenu@@QAEAAU01@$$QAU01@@Z

; 51   : 	_Right = _STD move(_Tmp);

	lea	eax, DWORD PTR __Tmp$[ebp]
	push	eax
	call	??$move@AAUOption@CCustomMenu@@@std@@YA$$QAUOption@CCustomMenu@@AAU12@@Z ; std::move<CCustomMenu::Option &>
	add	esp, 4
	push	eax
	mov	ecx, DWORD PTR __Right$[ebp]
	call	??4Option@CCustomMenu@@QAEAAU01@$$QAU01@@Z

; 52   : 	}

	lea	ecx, DWORD PTR __Tmp$[ebp]
	call	??1Option@CCustomMenu@@QAE@XZ
	push	edx
	mov	ecx, ebp
	push	eax
	lea	edx, DWORD PTR $LN5@swap
	call	@_RTC_CheckStackVars@8
	pop	eax
	pop	edx
	pop	edi
	pop	esi
	pop	ebx
	mov	ecx, DWORD PTR __$ArrayPad$[ebp]
	xor	ecx, ebp
	call	@__security_check_cookie@4
	add	esp, 236				; 000000ecH
	cmp	ebp, esp
	call	__RTC_CheckEsp
	mov	esp, ebp
	pop	ebp
	ret	0
	npad	2
$LN5@swap:
	DD	1
	DD	$LN4@swap
$LN4@swap:
	DD	-40					; ffffffd8H
	DD	32					; 00000020H
	DD	$LN3@swap
$LN3@swap:
	DB	95					; 0000005fH
	DB	84					; 00000054H
	DB	109					; 0000006dH
	DB	112					; 00000070H
	DB	0
??$swap@UOption@CCustomMenu@@X@std@@YAXAAUOption@CCustomMenu@@0@Z ENDP ; std::swap<CCustomMenu::Option,void>
_TEXT	ENDS
; Function compile flags: /Odtp /RTCsu /ZI
; File c:\program files (x86)\microsoft visual studio 14.0\vc\include\algorithm
;	COMDAT ??$_Med3_unchecked@PAUOption@CCustomMenu@@U?$less@X@std@@@std@@YAXPAUOption@CCustomMenu@@00AAU?$less@X@0@@Z
_TEXT	SEGMENT
__First$ = 8						; size = 4
__Mid$ = 12						; size = 4
__Last$ = 16						; size = 4
__Pred$ = 20						; size = 4
??$_Med3_unchecked@PAUOption@CCustomMenu@@U?$less@X@std@@@std@@YAXPAUOption@CCustomMenu@@00AAU?$less@X@0@@Z PROC ; std::_Med3_unchecked<CCustomMenu::Option *,std::less<void> >, COMDAT

; 2653 : 	{	// sort median of three elements to middle

	push	ebp
	mov	ebp, esp
	sub	esp, 192				; 000000c0H
	push	ebx
	push	esi
	push	edi
	lea	edi, DWORD PTR [ebp-192]
	mov	ecx, 48					; 00000030H
	mov	eax, -858993460				; ccccccccH
	rep stosd

; 2654 : 	if (_DEBUG_LT_PRED(_Pred, *_Mid, *_First))

	push	2654					; 00000a5eH
	push	OFFSET ??_C@_1JC@ELNBGKIG@?$AAc?$AA?3?$AA?2?$AAp?$AAr?$AAo?$AAg?$AAr?$AAa?$AAm?$AA?5?$AAf?$AAi?$AAl?$AAe?$AAs?$AA?5?$AA?$CI?$AAx?$AA8?$AA6?$AA?$CJ?$AA?2?$AAm?$AAi?$AAc?$AAr?$AAo?$AAs?$AAo?$AAf?$AAt@
	mov	eax, DWORD PTR __First$[ebp]
	push	eax
	mov	ecx, DWORD PTR __Mid$[ebp]
	push	ecx
	mov	edx, DWORD PTR __Pred$[ebp]
	push	edx
	call	??$_Debug_lt_pred@AAU?$less@X@std@@AAUOption@CCustomMenu@@AAU34@@std@@YA_NAAU?$less@X@0@AAUOption@CCustomMenu@@1PB_WI@Z ; std::_Debug_lt_pred<std::less<void> &,CCustomMenu::Option &,CCustomMenu::Option &>
	add	esp, 20					; 00000014H
	movzx	eax, al
	test	eax, eax
	je	SHORT $LN2@Med3_unche

; 2655 : 		_STD iter_swap(_Mid, _First);

	mov	eax, DWORD PTR __First$[ebp]
	push	eax
	mov	ecx, DWORD PTR __Mid$[ebp]
	push	ecx
	call	??$iter_swap@PAUOption@CCustomMenu@@PAU12@@std@@YAXPAUOption@CCustomMenu@@0@Z ; std::iter_swap<CCustomMenu::Option *,CCustomMenu::Option *>
	add	esp, 8
$LN2@Med3_unche:

; 2656 : 	if (_DEBUG_LT_PRED(_Pred, *_Last, *_Mid))

	push	2656					; 00000a60H
	push	OFFSET ??_C@_1JC@ELNBGKIG@?$AAc?$AA?3?$AA?2?$AAp?$AAr?$AAo?$AAg?$AAr?$AAa?$AAm?$AA?5?$AAf?$AAi?$AAl?$AAe?$AAs?$AA?5?$AA?$CI?$AAx?$AA8?$AA6?$AA?$CJ?$AA?2?$AAm?$AAi?$AAc?$AAr?$AAo?$AAs?$AAo?$AAf?$AAt@
	mov	eax, DWORD PTR __Mid$[ebp]
	push	eax
	mov	ecx, DWORD PTR __Last$[ebp]
	push	ecx
	mov	edx, DWORD PTR __Pred$[ebp]
	push	edx
	call	??$_Debug_lt_pred@AAU?$less@X@std@@AAUOption@CCustomMenu@@AAU34@@std@@YA_NAAU?$less@X@0@AAUOption@CCustomMenu@@1PB_WI@Z ; std::_Debug_lt_pred<std::less<void> &,CCustomMenu::Option &,CCustomMenu::Option &>
	add	esp, 20					; 00000014H
	movzx	eax, al
	test	eax, eax
	je	SHORT $LN1@Med3_unche

; 2657 : 		{	// swap middle and last, then test first again
; 2658 : 		_STD iter_swap(_Last, _Mid);

	mov	eax, DWORD PTR __Mid$[ebp]
	push	eax
	mov	ecx, DWORD PTR __Last$[ebp]
	push	ecx
	call	??$iter_swap@PAUOption@CCustomMenu@@PAU12@@std@@YAXPAUOption@CCustomMenu@@0@Z ; std::iter_swap<CCustomMenu::Option *,CCustomMenu::Option *>
	add	esp, 8

; 2659 : 		if (_DEBUG_LT_PRED(_Pred, *_Mid, *_First))

	push	2659					; 00000a63H
	push	OFFSET ??_C@_1JC@ELNBGKIG@?$AAc?$AA?3?$AA?2?$AAp?$AAr?$AAo?$AAg?$AAr?$AAa?$AAm?$AA?5?$AAf?$AAi?$AAl?$AAe?$AAs?$AA?5?$AA?$CI?$AAx?$AA8?$AA6?$AA?$CJ?$AA?2?$AAm?$AAi?$AAc?$AAr?$AAo?$AAs?$AAo?$AAf?$AAt@
	mov	eax, DWORD PTR __First$[ebp]
	push	eax
	mov	ecx, DWORD PTR __Mid$[ebp]
	push	ecx
	mov	edx, DWORD PTR __Pred$[ebp]
	push	edx
	call	??$_Debug_lt_pred@AAU?$less@X@std@@AAUOption@CCustomMenu@@AAU34@@std@@YA_NAAU?$less@X@0@AAUOption@CCustomMenu@@1PB_WI@Z ; std::_Debug_lt_pred<std::less<void> &,CCustomMenu::Option &,CCustomMenu::Option &>
	add	esp, 20					; 00000014H
	movzx	eax, al
	test	eax, eax
	je	SHORT $LN1@Med3_unche

; 2660 : 			_STD iter_swap(_Mid, _First);

	mov	eax, DWORD PTR __First$[ebp]
	push	eax
	mov	ecx, DWORD PTR __Mid$[ebp]
	push	ecx
	call	??$iter_swap@PAUOption@CCustomMenu@@PAU12@@std@@YAXPAUOption@CCustomMenu@@0@Z ; std::iter_swap<CCustomMenu::Option *,CCustomMenu::Option *>
	add	esp, 8
$LN1@Med3_unche:

; 2661 : 		}
; 2662 : 	}

	pop	edi
	pop	esi
	pop	ebx
	add	esp, 192				; 000000c0H
	cmp	ebp, esp
	call	__RTC_CheckEsp
	mov	esp, ebp
	pop	ebp
	ret	0
??$_Med3_unchecked@PAUOption@CCustomMenu@@U?$less@X@std@@@std@@YAXPAUOption@CCustomMenu@@00AAU?$less@X@0@@Z ENDP ; std::_Med3_unchecked<CCustomMenu::Option *,std::less<void> >
_TEXT	ENDS
; Function compile flags: /Odtp /RTCsu /ZI
; File c:\program files (x86)\microsoft visual studio 14.0\vc\include\xstddef
;	COMDAT ??$addressof@D@std@@YAPADAAD@Z
_TEXT	SEGMENT
__Val$ = 8						; size = 4
??$addressof@D@std@@YAPADAAD@Z PROC			; std::addressof<char>, COMDAT

; 724  : 	{	// return address of _Val

	push	ebp
	mov	ebp, esp
	sub	esp, 192				; 000000c0H
	push	ebx
	push	esi
	push	edi
	lea	edi, DWORD PTR [ebp-192]
	mov	ecx, 48					; 00000030H
	mov	eax, -858993460				; ccccccccH
	rep stosd

; 725  : 	return (__builtin_addressof(_Val));

	mov	eax, DWORD PTR __Val$[ebp]

; 726  : 	}

	pop	edi
	pop	esi
	pop	ebx
	mov	esp, ebp
	pop	ebp
	ret	0
??$addressof@D@std@@YAPADAAD@Z ENDP			; std::addressof<char>
_TEXT	ENDS
; Function compile flags: /Odtp /RTCsu /ZI
; File c:\program files (x86)\microsoft visual studio 14.0\vc\include\xmemory0
;	COMDAT ?pointer_to@?$pointer_traits@PAD@std@@SAPADAAD@Z
_TEXT	SEGMENT
__Val$ = 8						; size = 4
?pointer_to@?$pointer_traits@PAD@std@@SAPADAAD@Z PROC	; std::pointer_traits<char *>::pointer_to, COMDAT

; 279  : 		{	// convert raw reference to pointer

	push	ebp
	mov	ebp, esp
	sub	esp, 192				; 000000c0H
	push	ebx
	push	esi
	push	edi
	lea	edi, DWORD PTR [ebp-192]
	mov	ecx, 48					; 00000030H
	mov	eax, -858993460				; ccccccccH
	rep stosd

; 280  : 		return (_STD addressof(_Val));

	mov	eax, DWORD PTR __Val$[ebp]
	push	eax
	call	??$addressof@D@std@@YAPADAAD@Z		; std::addressof<char>
	add	esp, 4

; 281  : 		}

	pop	edi
	pop	esi
	pop	ebx
	add	esp, 192				; 000000c0H
	cmp	ebp, esp
	call	__RTC_CheckEsp
	mov	esp, ebp
	pop	ebp
	ret	0
?pointer_to@?$pointer_traits@PAD@std@@SAPADAAD@Z ENDP	; std::pointer_traits<char *>::pointer_to
_TEXT	ENDS
; Function compile flags: /Odtp /RTCsu /ZI
; File c:\program files (x86)\microsoft visual studio 14.0\vc\include\xmemory0
;	COMDAT ??$_Pocma@U?$_Wrap_alloc@V?$allocator@D@std@@@std@@@std@@YAXAAU?$_Wrap_alloc@V?$allocator@D@std@@@0@0@Z
_TEXT	SEGMENT
__Tag$ = -5						; size = 1
__Left$ = 8						; size = 4
__Right$ = 12						; size = 4
??$_Pocma@U?$_Wrap_alloc@V?$allocator@D@std@@@std@@@std@@YAXAAU?$_Wrap_alloc@V?$allocator@D@std@@@0@0@Z PROC ; std::_Pocma<std::_Wrap_alloc<std::allocator<char> > >, COMDAT

; 1062 : 	{	// (maybe) propagate on container move assignment

	push	ebp
	mov	ebp, esp
	sub	esp, 204				; 000000ccH
	push	ebx
	push	esi
	push	edi
	lea	edi, DWORD PTR [ebp-204]
	mov	ecx, 51					; 00000033H
	mov	eax, -858993460				; ccccccccH
	rep stosd

; 1063 : 	typename _Alty::propagate_on_container_move_assignment _Tag;
; 1064 : 	_Pocma(_Left, _Right, _Tag);

	movzx	eax, BYTE PTR __Tag$[ebp]
	push	eax
	mov	ecx, DWORD PTR __Right$[ebp]
	push	ecx
	mov	edx, DWORD PTR __Left$[ebp]
	push	edx
	call	??$_Pocma@U?$_Wrap_alloc@V?$allocator@D@std@@@std@@@std@@YAXAAU?$_Wrap_alloc@V?$allocator@D@std@@@0@0U?$integral_constant@_N$00@0@@Z ; std::_Pocma<std::_Wrap_alloc<std::allocator<char> > >
	add	esp, 12					; 0000000cH

; 1065 : 	}

	push	edx
	mov	ecx, ebp
	push	eax
	lea	edx, DWORD PTR $LN5@Pocma
	call	@_RTC_CheckStackVars@8
	pop	eax
	pop	edx
	pop	edi
	pop	esi
	pop	ebx
	add	esp, 204				; 000000ccH
	cmp	ebp, esp
	call	__RTC_CheckEsp
	mov	esp, ebp
	pop	ebp
	ret	0
$LN5@Pocma:
	DD	1
	DD	$LN4@Pocma
$LN4@Pocma:
	DD	-5					; fffffffbH
	DD	1
	DD	$LN3@Pocma
$LN3@Pocma:
	DB	95					; 0000005fH
	DB	84					; 00000054H
	DB	97					; 00000061H
	DB	103					; 00000067H
	DB	0
??$_Pocma@U?$_Wrap_alloc@V?$allocator@D@std@@@std@@@std@@YAXAAU?$_Wrap_alloc@V?$allocator@D@std@@@0@0@Z ENDP ; std::_Pocma<std::_Wrap_alloc<std::allocator<char> > >
_TEXT	ENDS
; Function compile flags: /Odtp /RTCsu /ZI
; File c:\program files (x86)\microsoft visual studio 14.0\vc\include\xstring
;	COMDAT ??$assign@V?$_String_iterator@V?$_String_val@U?$_Simple_types@D@std@@@std@@@std@@@?$basic_string@DU?$char_traits@D@std@@V?$allocator@D@2@@std@@QAEAAV01@V?$_String_iterator@V?$_String_val@U?$_Simple_types@D@std@@@std@@@1@0@Z
_TEXT	SEGMENT
tv175 = -364						; size = 4
tv188 = -360						; size = 4
tv185 = -356						; size = 4
tv195 = -352						; size = 4
tv183 = -348						; size = 4
tv194 = -344						; size = 4
tv180 = -340						; size = 4
tv193 = -336						; size = 4
tv178 = -332						; size = 4
tv192 = -328						; size = 4
tv174 = -324						; size = 4
tv191 = -320						; size = 4
$T2 = -312						; size = 12
$T3 = -292						; size = 4
$T4 = -280						; size = 12
$T5 = -260						; size = 4
$T6 = -248						; size = 4
$T7 = -236						; size = 4
$T8 = -224						; size = 4
_this$ = -20						; size = 4
__$EHRec$ = -12						; size = 12
__First$ = 8						; size = 12
__Last$ = 20						; size = 12
??$assign@V?$_String_iterator@V?$_String_val@U?$_Simple_types@D@std@@@std@@@std@@@?$basic_string@DU?$char_traits@D@std@@V?$allocator@D@2@@std@@QAEAAV01@V?$_String_iterator@V?$_String_val@U?$_Simple_types@D@std@@@std@@@1@0@Z PROC ; std::basic_string<char,std::char_traits<char>,std::allocator<char> >::assign<std::_String_iterator<std::_String_val<std::_Simple_types<char> > > >, COMDAT
; _this$ = ecx

; 1202 : 		{	// assign [_First, _Last), input iterators

	push	ebp
	mov	ebp, esp
	push	-1
	push	__ehhandler$??$assign@V?$_String_iterator@V?$_String_val@U?$_Simple_types@D@std@@@std@@@std@@@?$basic_string@DU?$char_traits@D@std@@V?$allocator@D@2@@std@@QAEAAV01@V?$_String_iterator@V?$_String_val@U?$_Simple_types@D@std@@@std@@@1@0@Z
	mov	eax, DWORD PTR fs:0
	push	eax
	sub	esp, 352				; 00000160H
	push	ebx
	push	esi
	push	edi
	push	ecx
	lea	edi, DWORD PTR [ebp-364]
	mov	ecx, 88					; 00000058H
	mov	eax, -858993460				; ccccccccH
	rep stosd
	pop	ecx
	mov	eax, DWORD PTR ___security_cookie
	xor	eax, ebp
	push	eax
	lea	eax, DWORD PTR __$EHRec$[ebp]
	mov	DWORD PTR fs:0, eax
	mov	DWORD PTR _this$[ebp], ecx
	mov	DWORD PTR __$EHRec$[ebp+8], 1

; 1203 : 		return (replace(begin(), end(), _First, _Last));

	sub	esp, 12					; 0000000cH
	mov	ecx, esp
	mov	DWORD PTR $T7[ebp], esp
	lea	eax, DWORD PTR __Last$[ebp]
	push	eax
	call	??0?$_String_iterator@V?$_String_val@U?$_Simple_types@D@std@@@std@@@std@@QAE@ABV01@@Z
	mov	DWORD PTR tv191[ebp], eax
	mov	ecx, DWORD PTR tv191[ebp]
	mov	DWORD PTR tv174[ebp], ecx
	mov	BYTE PTR __$EHRec$[ebp+8], 2
	sub	esp, 12					; 0000000cH
	mov	ecx, esp
	mov	DWORD PTR $T6[ebp], esp
	lea	edx, DWORD PTR __First$[ebp]
	push	edx
	call	??0?$_String_iterator@V?$_String_val@U?$_Simple_types@D@std@@@std@@@std@@QAE@ABV01@@Z
	mov	DWORD PTR tv192[ebp], eax
	mov	eax, DWORD PTR tv192[ebp]
	mov	DWORD PTR tv178[ebp], eax
	mov	BYTE PTR __$EHRec$[ebp+8], 3
	lea	ecx, DWORD PTR $T4[ebp]
	push	ecx
	mov	ecx, DWORD PTR _this$[ebp]
	call	?end@?$basic_string@DU?$char_traits@D@std@@V?$allocator@D@2@@std@@QAE?AV?$_String_iterator@V?$_String_val@U?$_Simple_types@D@std@@@std@@@2@XZ ; std::basic_string<char,std::char_traits<char>,std::allocator<char> >::end
	mov	DWORD PTR tv193[ebp], eax
	mov	edx, DWORD PTR tv193[ebp]
	mov	DWORD PTR tv180[ebp], edx
	mov	BYTE PTR __$EHRec$[ebp+8], 4
	sub	esp, 12					; 0000000cH
	mov	ecx, esp
	mov	DWORD PTR $T5[ebp], esp
	mov	eax, DWORD PTR tv180[ebp]
	push	eax
	call	??0?$_String_const_iterator@V?$_String_val@U?$_Simple_types@D@std@@@std@@@std@@QAE@$$QAV01@@Z
	mov	DWORD PTR tv194[ebp], eax
	mov	ecx, DWORD PTR tv194[ebp]
	mov	DWORD PTR tv183[ebp], ecx
	mov	BYTE PTR __$EHRec$[ebp+8], 5
	lea	edx, DWORD PTR $T2[ebp]
	push	edx
	mov	ecx, DWORD PTR _this$[ebp]
	call	?begin@?$basic_string@DU?$char_traits@D@std@@V?$allocator@D@2@@std@@QAE?AV?$_String_iterator@V?$_String_val@U?$_Simple_types@D@std@@@std@@@2@XZ ; std::basic_string<char,std::char_traits<char>,std::allocator<char> >::begin
	mov	DWORD PTR tv195[ebp], eax
	mov	eax, DWORD PTR tv195[ebp]
	mov	DWORD PTR tv185[ebp], eax
	mov	BYTE PTR __$EHRec$[ebp+8], 6
	sub	esp, 12					; 0000000cH
	mov	ecx, esp
	mov	DWORD PTR $T3[ebp], esp
	mov	edx, DWORD PTR tv185[ebp]
	push	edx
	call	??0?$_String_const_iterator@V?$_String_val@U?$_Simple_types@D@std@@@std@@@std@@QAE@$$QAV01@@Z
	mov	DWORD PTR tv188[ebp], eax
	mov	BYTE PTR __$EHRec$[ebp+8], 8
	mov	ecx, DWORD PTR _this$[ebp]
	call	?replace@?$basic_string@DU?$char_traits@D@std@@V?$allocator@D@2@@std@@QAEAAV12@V?$_String_const_iterator@V?$_String_val@U?$_Simple_types@D@std@@@std@@@2@0V?$_String_iterator@V?$_String_val@U?$_Simple_types@D@std@@@std@@@2@1@Z ; std::basic_string<char,std::char_traits<char>,std::allocator<char> >::replace
	mov	DWORD PTR tv175[ebp], eax
	mov	eax, DWORD PTR tv175[ebp]
	mov	DWORD PTR $T8[ebp], eax
	mov	BYTE PTR __$EHRec$[ebp+8], 7
	lea	ecx, DWORD PTR $T2[ebp]
	call	??1?$_String_iterator@V?$_String_val@U?$_Simple_types@D@std@@@std@@@std@@QAE@XZ
	mov	BYTE PTR __$EHRec$[ebp+8], 1
	lea	ecx, DWORD PTR $T4[ebp]
	call	??1?$_String_iterator@V?$_String_val@U?$_Simple_types@D@std@@@std@@@std@@QAE@XZ
	mov	BYTE PTR __$EHRec$[ebp+8], 0
	lea	ecx, DWORD PTR __First$[ebp]
	call	??1?$_String_iterator@V?$_String_val@U?$_Simple_types@D@std@@@std@@@std@@QAE@XZ
	mov	DWORD PTR __$EHRec$[ebp+8], -1
	lea	ecx, DWORD PTR __Last$[ebp]
	call	??1?$_String_iterator@V?$_String_val@U?$_Simple_types@D@std@@@std@@@std@@QAE@XZ
	mov	eax, DWORD PTR $T8[ebp]

; 1204 : 		}

	mov	ecx, DWORD PTR __$EHRec$[ebp]
	mov	DWORD PTR fs:0, ecx
	pop	ecx
	pop	edi
	pop	esi
	pop	ebx
	add	esp, 364				; 0000016cH
	cmp	ebp, esp
	call	__RTC_CheckEsp
	mov	esp, ebp
	pop	ebp
	ret	24					; 00000018H
_TEXT	ENDS
;	COMDAT text$x
text$x	SEGMENT
__unwindfunclet$??$assign@V?$_String_iterator@V?$_String_val@U?$_Simple_types@D@std@@@std@@@std@@@?$basic_string@DU?$char_traits@D@std@@V?$allocator@D@2@@std@@QAEAAV01@V?$_String_iterator@V?$_String_val@U?$_Simple_types@D@std@@@std@@@1@0@Z$0:
	lea	ecx, DWORD PTR __Last$[ebp]
	jmp	??1?$_String_iterator@V?$_String_val@U?$_Simple_types@D@std@@@std@@@std@@QAE@XZ
__unwindfunclet$??$assign@V?$_String_iterator@V?$_String_val@U?$_Simple_types@D@std@@@std@@@std@@@?$basic_string@DU?$char_traits@D@std@@V?$allocator@D@2@@std@@QAEAAV01@V?$_String_iterator@V?$_String_val@U?$_Simple_types@D@std@@@std@@@1@0@Z$1:
	lea	ecx, DWORD PTR __First$[ebp]
	jmp	??1?$_String_iterator@V?$_String_val@U?$_Simple_types@D@std@@@std@@@std@@QAE@XZ
__unwindfunclet$??$assign@V?$_String_iterator@V?$_String_val@U?$_Simple_types@D@std@@@std@@@std@@@?$basic_string@DU?$char_traits@D@std@@V?$allocator@D@2@@std@@QAEAAV01@V?$_String_iterator@V?$_String_val@U?$_Simple_types@D@std@@@std@@@1@0@Z$2:
	mov	ecx, DWORD PTR $T7[ebp]
	jmp	??1?$_String_iterator@V?$_String_val@U?$_Simple_types@D@std@@@std@@@std@@QAE@XZ
__unwindfunclet$??$assign@V?$_String_iterator@V?$_String_val@U?$_Simple_types@D@std@@@std@@@std@@@?$basic_string@DU?$char_traits@D@std@@V?$allocator@D@2@@std@@QAEAAV01@V?$_String_iterator@V?$_String_val@U?$_Simple_types@D@std@@@std@@@1@0@Z$3:
	mov	ecx, DWORD PTR $T6[ebp]
	jmp	??1?$_String_iterator@V?$_String_val@U?$_Simple_types@D@std@@@std@@@std@@QAE@XZ
__unwindfunclet$??$assign@V?$_String_iterator@V?$_String_val@U?$_Simple_types@D@std@@@std@@@std@@@?$basic_string@DU?$char_traits@D@std@@V?$allocator@D@2@@std@@QAEAAV01@V?$_String_iterator@V?$_String_val@U?$_Simple_types@D@std@@@std@@@1@0@Z$4:
	lea	ecx, DWORD PTR $T4[ebp]
	jmp	??1?$_String_iterator@V?$_String_val@U?$_Simple_types@D@std@@@std@@@std@@QAE@XZ
__unwindfunclet$??$assign@V?$_String_iterator@V?$_String_val@U?$_Simple_types@D@std@@@std@@@std@@@?$basic_string@DU?$char_traits@D@std@@V?$allocator@D@2@@std@@QAEAAV01@V?$_String_iterator@V?$_String_val@U?$_Simple_types@D@std@@@std@@@1@0@Z$5:
	mov	ecx, DWORD PTR $T5[ebp]
	jmp	??1?$_String_const_iterator@V?$_String_val@U?$_Simple_types@D@std@@@std@@@std@@QAE@XZ
__unwindfunclet$??$assign@V?$_String_iterator@V?$_String_val@U?$_Simple_types@D@std@@@std@@@std@@@?$basic_string@DU?$char_traits@D@std@@V?$allocator@D@2@@std@@QAEAAV01@V?$_String_iterator@V?$_String_val@U?$_Simple_types@D@std@@@std@@@1@0@Z$6:
	lea	ecx, DWORD PTR $T2[ebp]
	jmp	??1?$_String_iterator@V?$_String_val@U?$_Simple_types@D@std@@@std@@@std@@QAE@XZ
__ehhandler$??$assign@V?$_String_iterator@V?$_String_val@U?$_Simple_types@D@std@@@std@@@std@@@?$basic_string@DU?$char_traits@D@std@@V?$allocator@D@2@@std@@QAEAAV01@V?$_String_iterator@V?$_String_val@U?$_Simple_types@D@std@@@std@@@1@0@Z:
	mov	edx, DWORD PTR [esp+8]
	lea	eax, DWORD PTR [edx+12]
	mov	ecx, DWORD PTR [edx-368]
	xor	ecx, eax
	call	@__security_check_cookie@4
	mov	eax, OFFSET __ehfuncinfo$??$assign@V?$_String_iterator@V?$_String_val@U?$_Simple_types@D@std@@@std@@@std@@@?$basic_string@DU?$char_traits@D@std@@V?$allocator@D@2@@std@@QAEAAV01@V?$_String_iterator@V?$_String_val@U?$_Simple_types@D@std@@@std@@@1@0@Z
	jmp	___CxxFrameHandler3
text$x	ENDS
??$assign@V?$_String_iterator@V?$_String_val@U?$_Simple_types@D@std@@@std@@@std@@@?$basic_string@DU?$char_traits@D@std@@V?$allocator@D@2@@std@@QAEAAV01@V?$_String_iterator@V?$_String_val@U?$_Simple_types@D@std@@@std@@@1@0@Z ENDP ; std::basic_string<char,std::char_traits<char>,std::allocator<char> >::assign<std::_String_iterator<std::_String_val<std::_Simple_types<char> > > >
; Function compile flags: /Odtp /RTCsu /ZI
;	COMDAT ??0?$_String_iterator@V?$_String_val@U?$_Simple_types@D@std@@@std@@@std@@QAE@ABV01@@Z
_TEXT	SEGMENT
_this$ = -8						; size = 4
___that$ = 8						; size = 4
??0?$_String_iterator@V?$_String_val@U?$_Simple_types@D@std@@@std@@@std@@QAE@ABV01@@Z PROC ; std::_String_iterator<std::_String_val<std::_Simple_types<char> > >::_String_iterator<std::_String_val<std::_Simple_types<char> > >, COMDAT
; _this$ = ecx
	push	ebp
	mov	ebp, esp
	sub	esp, 204				; 000000ccH
	push	ebx
	push	esi
	push	edi
	push	ecx
	lea	edi, DWORD PTR [ebp-204]
	mov	ecx, 51					; 00000033H
	mov	eax, -858993460				; ccccccccH
	rep stosd
	pop	ecx
	mov	DWORD PTR _this$[ebp], ecx
	mov	eax, DWORD PTR ___that$[ebp]
	push	eax
	mov	ecx, DWORD PTR _this$[ebp]
	call	??0?$_String_const_iterator@V?$_String_val@U?$_Simple_types@D@std@@@std@@@std@@QAE@ABV01@@Z
	mov	eax, DWORD PTR _this$[ebp]
	pop	edi
	pop	esi
	pop	ebx
	add	esp, 204				; 000000ccH
	cmp	ebp, esp
	call	__RTC_CheckEsp
	mov	esp, ebp
	pop	ebp
	ret	4
??0?$_String_iterator@V?$_String_val@U?$_Simple_types@D@std@@@std@@@std@@QAE@ABV01@@Z ENDP ; std::_String_iterator<std::_String_val<std::_Simple_types<char> > >::_String_iterator<std::_String_val<std::_Simple_types<char> > >
_TEXT	ENDS
; Function compile flags: /Odtp /RTCsu /ZI
;	COMDAT ??1?$_String_iterator@V?$_String_val@U?$_Simple_types@D@std@@@std@@@std@@QAE@XZ
_TEXT	SEGMENT
_this$ = -8						; size = 4
??1?$_String_iterator@V?$_String_val@U?$_Simple_types@D@std@@@std@@@std@@QAE@XZ PROC ; std::_String_iterator<std::_String_val<std::_Simple_types<char> > >::~_String_iterator<std::_String_val<std::_Simple_types<char> > >, COMDAT
; _this$ = ecx
	push	ebp
	mov	ebp, esp
	sub	esp, 204				; 000000ccH
	push	ebx
	push	esi
	push	edi
	push	ecx
	lea	edi, DWORD PTR [ebp-204]
	mov	ecx, 51					; 00000033H
	mov	eax, -858993460				; ccccccccH
	rep stosd
	pop	ecx
	mov	DWORD PTR _this$[ebp], ecx
	mov	ecx, DWORD PTR _this$[ebp]
	call	??1?$_String_const_iterator@V?$_String_val@U?$_Simple_types@D@std@@@std@@@std@@QAE@XZ
	pop	edi
	pop	esi
	pop	ebx
	add	esp, 204				; 000000ccH
	cmp	ebp, esp
	call	__RTC_CheckEsp
	mov	esp, ebp
	pop	ebp
	ret	0
??1?$_String_iterator@V?$_String_val@U?$_Simple_types@D@std@@@std@@@std@@QAE@XZ ENDP ; std::_String_iterator<std::_String_val<std::_Simple_types<char> > >::~_String_iterator<std::_String_val<std::_Simple_types<char> > >
_TEXT	ENDS
; Function compile flags: /Odtp /RTCsu /ZI
; File c:\program files (x86)\microsoft visual studio 14.0\vc\include\xstring
;	COMDAT ??G?$_String_iterator@V?$_String_val@U?$_Simple_types@D@std@@@std@@@std@@QBEHABV?$_String_const_iterator@V?$_String_val@U?$_Simple_types@D@std@@@std@@@1@@Z
_TEXT	SEGMENT
_this$ = -8						; size = 4
__Right$ = 8						; size = 4
??G?$_String_iterator@V?$_String_val@U?$_Simple_types@D@std@@@std@@@std@@QBEHABV?$_String_const_iterator@V?$_String_val@U?$_Simple_types@D@std@@@std@@@1@@Z PROC ; std::_String_iterator<std::_String_val<std::_Simple_types<char> > >::operator-, COMDAT
; _this$ = ecx

; 398  : 		{	// return difference of iterators

	push	ebp
	mov	ebp, esp
	sub	esp, 204				; 000000ccH
	push	ebx
	push	esi
	push	edi
	push	ecx
	lea	edi, DWORD PTR [ebp-204]
	mov	ecx, 51					; 00000033H
	mov	eax, -858993460				; ccccccccH
	rep stosd
	pop	ecx
	mov	DWORD PTR _this$[ebp], ecx

; 399  : 		return (*(_Mybase *)this - _Right);

	mov	eax, DWORD PTR __Right$[ebp]
	push	eax
	mov	ecx, DWORD PTR _this$[ebp]
	call	??G?$_String_const_iterator@V?$_String_val@U?$_Simple_types@D@std@@@std@@@std@@QBEHABV01@@Z ; std::_String_const_iterator<std::_String_val<std::_Simple_types<char> > >::operator-

; 400  : 		}

	pop	edi
	pop	esi
	pop	ebx
	add	esp, 204				; 000000ccH
	cmp	ebp, esp
	call	__RTC_CheckEsp
	mov	esp, ebp
	pop	ebp
	ret	4
??G?$_String_iterator@V?$_String_val@U?$_Simple_types@D@std@@@std@@@std@@QBEHABV?$_String_const_iterator@V?$_String_val@U?$_Simple_types@D@std@@@std@@@1@@Z ENDP ; std::_String_iterator<std::_String_val<std::_Simple_types<char> > >::operator-
_TEXT	ENDS
; Function compile flags: /Odtp /RTCsu /ZI
; File c:\program files (x86)\microsoft visual studio 14.0\vc\include\xstring
;	COMDAT ??D?$_String_iterator@V?$_String_val@U?$_Simple_types@D@std@@@std@@@std@@QBEAADXZ
_TEXT	SEGMENT
_this$ = -8						; size = 4
??D?$_String_iterator@V?$_String_val@U?$_Simple_types@D@std@@@std@@@std@@QBEAADXZ PROC ; std::_String_iterator<std::_String_val<std::_Simple_types<char> > >::operator*, COMDAT
; _this$ = ecx

; 339  : 		{	// return designated object

	push	ebp
	mov	ebp, esp
	sub	esp, 204				; 000000ccH
	push	ebx
	push	esi
	push	edi
	push	ecx
	lea	edi, DWORD PTR [ebp-204]
	mov	ecx, 51					; 00000033H
	mov	eax, -858993460				; ccccccccH
	rep stosd
	pop	ecx
	mov	DWORD PTR _this$[ebp], ecx

; 340  : 		return ((reference)**(_Mybase *)this);

	mov	ecx, DWORD PTR _this$[ebp]
	call	??D?$_String_const_iterator@V?$_String_val@U?$_Simple_types@D@std@@@std@@@std@@QBEABDXZ ; std::_String_const_iterator<std::_String_val<std::_Simple_types<char> > >::operator*

; 341  : 		}

	pop	edi
	pop	esi
	pop	ebx
	add	esp, 204				; 000000ccH
	cmp	ebp, esp
	call	__RTC_CheckEsp
	mov	esp, ebp
	pop	ebp
	ret	0
??D?$_String_iterator@V?$_String_val@U?$_Simple_types@D@std@@@std@@@std@@QBEAADXZ ENDP ; std::_String_iterator<std::_String_val<std::_Simple_types<char> > >::operator*
_TEXT	ENDS
; Function compile flags: /Odtp /RTCsu /ZI
; File c:\program files (x86)\microsoft visual studio 14.0\vc\include\xstring
;	COMDAT ??0?$_String_iterator@V?$_String_val@U?$_Simple_types@D@std@@@std@@@std@@QAE@PADPBU_Container_base12@1@@Z
_TEXT	SEGMENT
_this$ = -8						; size = 4
__Parg$ = 8						; size = 4
__Pstring$ = 12						; size = 4
??0?$_String_iterator@V?$_String_val@U?$_Simple_types@D@std@@@std@@@std@@QAE@PADPBU_Container_base12@1@@Z PROC ; std::_String_iterator<std::_String_val<std::_Simple_types<char> > >::_String_iterator<std::_String_val<std::_Simple_types<char> > >, COMDAT
; _this$ = ecx

; 322  : 		{	// construct with pointer _Parg

	push	ebp
	mov	ebp, esp
	sub	esp, 204				; 000000ccH
	push	ebx
	push	esi
	push	edi
	push	ecx
	lea	edi, DWORD PTR [ebp-204]
	mov	ecx, 51					; 00000033H
	mov	eax, -858993460				; ccccccccH
	rep stosd
	pop	ecx
	mov	DWORD PTR _this$[ebp], ecx

; 321  : 		: _Mybase(_Parg, _Pstring)

	mov	eax, DWORD PTR __Pstring$[ebp]
	push	eax
	mov	ecx, DWORD PTR __Parg$[ebp]
	push	ecx
	mov	ecx, DWORD PTR _this$[ebp]
	call	??0?$_String_const_iterator@V?$_String_val@U?$_Simple_types@D@std@@@std@@@std@@QAE@PBDPBU_Container_base12@1@@Z ; std::_String_const_iterator<std::_String_val<std::_Simple_types<char> > >::_String_const_iterator<std::_String_val<std::_Simple_types<char> > >

; 323  : 		}

	mov	eax, DWORD PTR _this$[ebp]
	pop	edi
	pop	esi
	pop	ebx
	add	esp, 204				; 000000ccH
	cmp	ebp, esp
	call	__RTC_CheckEsp
	mov	esp, ebp
	pop	ebp
	ret	8
??0?$_String_iterator@V?$_String_val@U?$_Simple_types@D@std@@@std@@@std@@QAE@PADPBU_Container_base12@1@@Z ENDP ; std::_String_iterator<std::_String_val<std::_Simple_types<char> > >::_String_iterator<std::_String_val<std::_Simple_types<char> > >
_TEXT	ENDS
; Function compile flags: /Odtp /RTCsu /ZI
; File c:\program files (x86)\microsoft visual studio 14.0\vc\include\xmemory0
;	COMDAT ??$construct@UOption@CCustomMenu@@U12@@?$allocator_traits@V?$allocator@UOption@CCustomMenu@@@std@@@std@@SAXAAV?$allocator@UOption@CCustomMenu@@@1@PAUOption@CCustomMenu@@$$QAU34@@Z
_TEXT	SEGMENT
__Al$ = 8						; size = 4
__Ptr$ = 12						; size = 4
_<_Args_0>$ = 16					; size = 4
??$construct@UOption@CCustomMenu@@U12@@?$allocator_traits@V?$allocator@UOption@CCustomMenu@@@std@@@std@@SAXAAV?$allocator@UOption@CCustomMenu@@@1@PAUOption@CCustomMenu@@$$QAU34@@Z PROC ; std::allocator_traits<std::allocator<CCustomMenu::Option> >::construct<CCustomMenu::Option,CCustomMenu::Option>, COMDAT

; 856  : 		{	// construct _Objty(_Types...) at _Ptr

	push	ebp
	mov	ebp, esp
	sub	esp, 192				; 000000c0H
	push	ebx
	push	esi
	push	edi
	lea	edi, DWORD PTR [ebp-192]
	mov	ecx, 48					; 00000030H
	mov	eax, -858993460				; ccccccccH
	rep stosd

; 857  : 		_Al.construct(_Ptr, _STD forward<_Types>(_Args)...);

	mov	eax, DWORD PTR _<_Args_0>$[ebp]
	push	eax
	call	??$forward@UOption@CCustomMenu@@@std@@YA$$QAUOption@CCustomMenu@@AAU12@@Z ; std::forward<CCustomMenu::Option>
	add	esp, 4
	push	eax
	mov	ecx, DWORD PTR __Ptr$[ebp]
	push	ecx
	mov	ecx, DWORD PTR __Al$[ebp]
	call	??$construct@UOption@CCustomMenu@@U12@@?$allocator@UOption@CCustomMenu@@@std@@QAEXPAUOption@CCustomMenu@@$$QAU23@@Z ; std::allocator<CCustomMenu::Option>::construct<CCustomMenu::Option,CCustomMenu::Option>

; 858  : 		}

	pop	edi
	pop	esi
	pop	ebx
	add	esp, 192				; 000000c0H
	cmp	ebp, esp
	call	__RTC_CheckEsp
	mov	esp, ebp
	pop	ebp
	ret	0
??$construct@UOption@CCustomMenu@@U12@@?$allocator_traits@V?$allocator@UOption@CCustomMenu@@@std@@@std@@SAXAAV?$allocator@UOption@CCustomMenu@@@1@PAUOption@CCustomMenu@@$$QAU34@@Z ENDP ; std::allocator_traits<std::allocator<CCustomMenu::Option> >::construct<CCustomMenu::Option,CCustomMenu::Option>
_TEXT	ENDS
; Function compile flags: /Odtp /RTCsu /ZI
; File c:\program files (x86)\microsoft visual studio 14.0\vc\include\type_traits
;	COMDAT ??$forward@UOption@CCustomMenu@@@std@@YA$$QAUOption@CCustomMenu@@AAU12@@Z
_TEXT	SEGMENT
__Arg$ = 8						; size = 4
??$forward@UOption@CCustomMenu@@@std@@YA$$QAUOption@CCustomMenu@@AAU12@@Z PROC ; std::forward<CCustomMenu::Option>, COMDAT

; 1275 : 	{	// forward an lvalue as either an lvalue or an rvalue

	push	ebp
	mov	ebp, esp
	sub	esp, 192				; 000000c0H
	push	ebx
	push	esi
	push	edi
	lea	edi, DWORD PTR [ebp-192]
	mov	ecx, 48					; 00000030H
	mov	eax, -858993460				; ccccccccH
	rep stosd

; 1276 : 	return (static_cast<_Ty&&>(_Arg));

	mov	eax, DWORD PTR __Arg$[ebp]

; 1277 : 	}

	pop	edi
	pop	esi
	pop	ebx
	mov	esp, ebp
	pop	ebp
	ret	0
??$forward@UOption@CCustomMenu@@@std@@YA$$QAUOption@CCustomMenu@@AAU12@@Z ENDP ; std::forward<CCustomMenu::Option>
_TEXT	ENDS
; Function compile flags: /Odtp /RTCsu /ZI
; File c:\program files (x86)\microsoft visual studio 14.0\vc\include\xutility
;	COMDAT ??$_Move_backward_unchecked@PAUOption@CCustomMenu@@PAU12@@std@@YAPAUOption@CCustomMenu@@PAU12@00@Z
_TEXT	SEGMENT
$T1 = -197						; size = 1
__First$ = 8						; size = 4
__Last$ = 12						; size = 4
__Dest$ = 16						; size = 4
??$_Move_backward_unchecked@PAUOption@CCustomMenu@@PAU12@@std@@YAPAUOption@CCustomMenu@@PAU12@00@Z PROC ; std::_Move_backward_unchecked<CCustomMenu::Option *,CCustomMenu::Option *>, COMDAT

; 2676 : 	{	// move [_First, _Last) backwards to [..., _Dest), choose optimization

	push	ebp
	mov	ebp, esp
	sub	esp, 204				; 000000ccH
	push	ebx
	push	esi
	push	edi
	lea	edi, DWORD PTR [ebp-204]
	mov	ecx, 51					; 00000033H
	mov	eax, -858993460				; ccccccccH
	rep stosd

; 2677 : 	return (_Move_backward_unchecked1(_First, _Last,

	lea	eax, DWORD PTR __Dest$[ebp]
	push	eax
	lea	ecx, DWORD PTR __First$[ebp]
	push	ecx
	call	??$_Ptr_move_cat@UOption@CCustomMenu@@U12@@std@@YA?AU_General_ptr_iterator_tag@0@ABQAUOption@CCustomMenu@@0@Z ; std::_Ptr_move_cat<CCustomMenu::Option,CCustomMenu::Option>
	add	esp, 8
	mov	BYTE PTR $T1[ebp], al
	movzx	edx, BYTE PTR $T1[ebp]
	push	edx
	mov	eax, DWORD PTR __Dest$[ebp]
	push	eax
	mov	ecx, DWORD PTR __Last$[ebp]
	push	ecx
	mov	edx, DWORD PTR __First$[ebp]
	push	edx
	call	??$_Move_backward_unchecked1@PAUOption@CCustomMenu@@PAU12@@std@@YAPAUOption@CCustomMenu@@PAU12@00U_General_ptr_iterator_tag@0@@Z ; std::_Move_backward_unchecked1<CCustomMenu::Option *,CCustomMenu::Option *>
	add	esp, 16					; 00000010H

; 2678 : 		_Dest, _Ptr_move_cat(_First, _Dest)));
; 2679 : 	}

	pop	edi
	pop	esi
	pop	ebx
	add	esp, 204				; 000000ccH
	cmp	ebp, esp
	call	__RTC_CheckEsp
	mov	esp, ebp
	pop	ebp
	ret	0
??$_Move_backward_unchecked@PAUOption@CCustomMenu@@PAU12@@std@@YAPAUOption@CCustomMenu@@PAU12@00@Z ENDP ; std::_Move_backward_unchecked<CCustomMenu::Option *,CCustomMenu::Option *>
_TEXT	ENDS
; Function compile flags: /Odtp /RTCsu /ZI
; File c:\program files (x86)\microsoft visual studio 14.0\vc\include\algorithm
;	COMDAT ??$_Pop_heap_unchecked@PAUOption@CCustomMenu@@U?$less@X@std@@@std@@YAXPAUOption@CCustomMenu@@0AAU?$less@X@0@@Z
_TEXT	SEGMENT
__Val$2 = -52						; size = 32
__$ArrayPad$ = -16					; size = 4
__$EHRec$ = -12						; size = 12
__First$ = 8						; size = 4
__Last$ = 12						; size = 4
__Pred$ = 16						; size = 4
??$_Pop_heap_unchecked@PAUOption@CCustomMenu@@U?$less@X@std@@@std@@YAXPAUOption@CCustomMenu@@0AAU?$less@X@0@@Z PROC ; std::_Pop_heap_unchecked<CCustomMenu::Option *,std::less<void> >, COMDAT

; 2078 : 	{	// pop *_First to *(_Last - 1) and reheap, using _Pred

	push	ebp
	mov	ebp, esp
	push	-1
	push	__ehhandler$??$_Pop_heap_unchecked@PAUOption@CCustomMenu@@U?$less@X@std@@@std@@YAXPAUOption@CCustomMenu@@0AAU?$less@X@0@@Z
	mov	eax, DWORD PTR fs:0
	push	eax
	sub	esp, 236				; 000000ecH
	push	ebx
	push	esi
	push	edi
	lea	edi, DWORD PTR [ebp-248]
	mov	ecx, 59					; 0000003bH
	mov	eax, -858993460				; ccccccccH
	rep stosd
	mov	eax, DWORD PTR ___security_cookie
	xor	eax, ebp
	mov	DWORD PTR __$ArrayPad$[ebp], eax
	push	eax
	lea	eax, DWORD PTR __$EHRec$[ebp]
	mov	DWORD PTR fs:0, eax

; 2079 : 	if (2 <= _Last - _First)

	mov	eax, DWORD PTR __Last$[ebp]
	sub	eax, DWORD PTR __First$[ebp]
	sar	eax, 5
	cmp	eax, 2
	jl	SHORT $LN1@Pop_heap_u

; 2080 : 		{
; 2081 : 		--_Last;

	mov	eax, DWORD PTR __Last$[ebp]
	sub	eax, 32					; 00000020H
	mov	DWORD PTR __Last$[ebp], eax

; 2082 : 		_Iter_value_t<_RanIt> _Val = _STD move(*_Last);

	mov	eax, DWORD PTR __Last$[ebp]
	push	eax
	call	??$move@AAUOption@CCustomMenu@@@std@@YA$$QAUOption@CCustomMenu@@AAU12@@Z ; std::move<CCustomMenu::Option &>
	add	esp, 4
	push	eax
	lea	ecx, DWORD PTR __Val$2[ebp]
	call	??0Option@CCustomMenu@@QAE@$$QAU01@@Z
	mov	DWORD PTR __$EHRec$[ebp+8], 0

; 2083 : 		_Pop_heap_hole_unchecked(_First, _Last, _Last,

	mov	eax, DWORD PTR __Pred$[ebp]
	push	eax
	lea	ecx, DWORD PTR __Val$2[ebp]
	push	ecx
	call	??$move@AAUOption@CCustomMenu@@@std@@YA$$QAUOption@CCustomMenu@@AAU12@@Z ; std::move<CCustomMenu::Option &>
	add	esp, 4
	push	eax
	mov	edx, DWORD PTR __Last$[ebp]
	push	edx
	mov	eax, DWORD PTR __Last$[ebp]
	push	eax
	mov	ecx, DWORD PTR __First$[ebp]
	push	ecx
	call	??$_Pop_heap_hole_unchecked@PAUOption@CCustomMenu@@U12@U?$less@X@std@@@std@@YAXPAUOption@CCustomMenu@@00$$QAU12@AAU?$less@X@0@@Z ; std::_Pop_heap_hole_unchecked<CCustomMenu::Option *,CCustomMenu::Option,std::less<void> >
	add	esp, 20					; 00000014H

; 2084 : 			_STD move(_Val), _Pred);
; 2085 : 		}

	mov	DWORD PTR __$EHRec$[ebp+8], -1
	lea	ecx, DWORD PTR __Val$2[ebp]
	call	??1Option@CCustomMenu@@QAE@XZ
$LN1@Pop_heap_u:

; 2086 : 	}

	push	edx
	mov	ecx, ebp
	push	eax
	lea	edx, DWORD PTR $LN8@Pop_heap_u
	call	@_RTC_CheckStackVars@8
	pop	eax
	pop	edx
	mov	ecx, DWORD PTR __$EHRec$[ebp]
	mov	DWORD PTR fs:0, ecx
	pop	ecx
	pop	edi
	pop	esi
	pop	ebx
	mov	ecx, DWORD PTR __$ArrayPad$[ebp]
	xor	ecx, ebp
	call	@__security_check_cookie@4
	add	esp, 248				; 000000f8H
	cmp	ebp, esp
	call	__RTC_CheckEsp
	mov	esp, ebp
	pop	ebp
	ret	0
	npad	3
$LN8@Pop_heap_u:
	DD	1
	DD	$LN7@Pop_heap_u
$LN7@Pop_heap_u:
	DD	-52					; ffffffccH
	DD	32					; 00000020H
	DD	$LN5@Pop_heap_u
$LN5@Pop_heap_u:
	DB	95					; 0000005fH
	DB	86					; 00000056H
	DB	97					; 00000061H
	DB	108					; 0000006cH
	DB	0
_TEXT	ENDS
;	COMDAT text$x
text$x	SEGMENT
__unwindfunclet$??$_Pop_heap_unchecked@PAUOption@CCustomMenu@@U?$less@X@std@@@std@@YAXPAUOption@CCustomMenu@@0AAU?$less@X@0@@Z$0:
	lea	ecx, DWORD PTR __Val$2[ebp]
	jmp	??1Option@CCustomMenu@@QAE@XZ
__ehhandler$??$_Pop_heap_unchecked@PAUOption@CCustomMenu@@U?$less@X@std@@@std@@YAXPAUOption@CCustomMenu@@0AAU?$less@X@0@@Z:
	mov	edx, DWORD PTR [esp+8]
	lea	eax, DWORD PTR [edx+12]
	mov	ecx, DWORD PTR [edx-252]
	xor	ecx, eax
	call	@__security_check_cookie@4
	mov	ecx, DWORD PTR [edx-4]
	xor	ecx, eax
	call	@__security_check_cookie@4
	mov	eax, OFFSET __ehfuncinfo$??$_Pop_heap_unchecked@PAUOption@CCustomMenu@@U?$less@X@std@@@std@@YAXPAUOption@CCustomMenu@@0AAU?$less@X@0@@Z
	jmp	___CxxFrameHandler3
text$x	ENDS
??$_Pop_heap_unchecked@PAUOption@CCustomMenu@@U?$less@X@std@@@std@@YAXPAUOption@CCustomMenu@@0AAU?$less@X@0@@Z ENDP ; std::_Pop_heap_unchecked<CCustomMenu::Option *,std::less<void> >
; Function compile flags: /Odtp /RTCsu /ZI
; File c:\program files (x86)\microsoft visual studio 14.0\vc\include\algorithm
;	COMDAT ??$_Pop_heap_hole_by_index@PAUOption@CCustomMenu@@HU12@U?$less@X@std@@@std@@YAXPAUOption@CCustomMenu@@HH$$QAU12@AAU?$less@X@0@@Z
_TEXT	SEGMENT
__Max_sequence_non_leaf$ = -32				; size = 4
__Idx$ = -20						; size = 4
__Top$ = -8						; size = 4
__First$ = 8						; size = 4
__Hole$ = 12						; size = 4
__Bottom$ = 16						; size = 4
__Val$ = 20						; size = 4
__Pred$ = 24						; size = 4
??$_Pop_heap_hole_by_index@PAUOption@CCustomMenu@@HU12@U?$less@X@std@@@std@@YAXPAUOption@CCustomMenu@@HH$$QAU12@AAU?$less@X@0@@Z PROC ; std::_Pop_heap_hole_by_index<CCustomMenu::Option *,int,CCustomMenu::Option,std::less<void> >, COMDAT

; 2036 : 	{	// percolate _Hole to _Bottom, then push _Val, using _Pred

	push	ebp
	mov	ebp, esp
	sub	esp, 228				; 000000e4H
	push	ebx
	push	esi
	push	edi
	lea	edi, DWORD PTR [ebp-228]
	mov	ecx, 57					; 00000039H
	mov	eax, -858993460				; ccccccccH
	rep stosd

; 2037 : 		// precondition: _Bottom != 0
; 2038 : 	const _Diff _Top = _Hole;

	mov	eax, DWORD PTR __Hole$[ebp]
	mov	DWORD PTR __Top$[ebp], eax

; 2039 : 	_Diff _Idx = _Hole;

	mov	eax, DWORD PTR __Hole$[ebp]
	mov	DWORD PTR __Idx$[ebp], eax

; 2040 : 
; 2041 : 	// Check whether _Idx can have a child before calculating that child's index, since
; 2042 : 	// calculating the child's index can trigger integer overflows
; 2043 : 	const _Diff _Max_sequence_non_leaf = (_Bottom - 1) / 2;

	mov	eax, DWORD PTR __Bottom$[ebp]
	sub	eax, 1
	cdq
	sub	eax, edx
	sar	eax, 1
	mov	DWORD PTR __Max_sequence_non_leaf$[ebp], eax
$LN2@Pop_heap_h:

; 2044 : 	while (_Idx < _Max_sequence_non_leaf)

	mov	eax, DWORD PTR __Idx$[ebp]
	cmp	eax, DWORD PTR __Max_sequence_non_leaf$[ebp]
	jge	SHORT $LN3@Pop_heap_h

; 2045 : 		{	// move _Hole down to larger child
; 2046 : 		_Idx = 2 * _Idx + 2;

	mov	eax, DWORD PTR __Idx$[ebp]
	lea	ecx, DWORD PTR [eax+eax+2]
	mov	DWORD PTR __Idx$[ebp], ecx

; 2047 : 		if (_DEBUG_LT_PRED(_Pred, *(_First + _Idx), *(_First + (_Idx - 1))))

	push	2047					; 000007ffH
	push	OFFSET ??_C@_1JC@ELNBGKIG@?$AAc?$AA?3?$AA?2?$AAp?$AAr?$AAo?$AAg?$AAr?$AAa?$AAm?$AA?5?$AAf?$AAi?$AAl?$AAe?$AAs?$AA?5?$AA?$CI?$AAx?$AA8?$AA6?$AA?$CJ?$AA?2?$AAm?$AAi?$AAc?$AAr?$AAo?$AAs?$AAo?$AAf?$AAt@
	mov	eax, DWORD PTR __Idx$[ebp]
	sub	eax, 1
	shl	eax, 5
	add	eax, DWORD PTR __First$[ebp]
	push	eax
	mov	ecx, DWORD PTR __Idx$[ebp]
	shl	ecx, 5
	add	ecx, DWORD PTR __First$[ebp]
	push	ecx
	mov	edx, DWORD PTR __Pred$[ebp]
	push	edx
	call	??$_Debug_lt_pred@AAU?$less@X@std@@AAUOption@CCustomMenu@@AAU34@@std@@YA_NAAU?$less@X@0@AAUOption@CCustomMenu@@1PB_WI@Z ; std::_Debug_lt_pred<std::less<void> &,CCustomMenu::Option &,CCustomMenu::Option &>
	add	esp, 20					; 00000014H
	movzx	eax, al
	test	eax, eax
	je	SHORT $LN4@Pop_heap_h

; 2048 : 			--_Idx;

	mov	eax, DWORD PTR __Idx$[ebp]
	sub	eax, 1
	mov	DWORD PTR __Idx$[ebp], eax
$LN4@Pop_heap_h:

; 2049 : 		*(_First + _Hole) = _STD move(*(_First + _Idx));

	mov	eax, DWORD PTR __Idx$[ebp]
	shl	eax, 5
	add	eax, DWORD PTR __First$[ebp]
	push	eax
	call	??$move@AAUOption@CCustomMenu@@@std@@YA$$QAUOption@CCustomMenu@@AAU12@@Z ; std::move<CCustomMenu::Option &>
	add	esp, 4
	push	eax
	mov	ecx, DWORD PTR __Hole$[ebp]
	shl	ecx, 5
	add	ecx, DWORD PTR __First$[ebp]
	call	??4Option@CCustomMenu@@QAEAAU01@$$QAU01@@Z

; 2050 : 		_Hole = _Idx;

	mov	eax, DWORD PTR __Idx$[ebp]
	mov	DWORD PTR __Hole$[ebp], eax

; 2051 : 		}

	jmp	SHORT $LN2@Pop_heap_h
$LN3@Pop_heap_h:

; 2052 : 
; 2053 : 	if (_Idx == _Max_sequence_non_leaf && _Bottom % 2 == 0)

	mov	eax, DWORD PTR __Idx$[ebp]
	cmp	eax, DWORD PTR __Max_sequence_non_leaf$[ebp]
	jne	SHORT $LN5@Pop_heap_h
	mov	eax, DWORD PTR __Bottom$[ebp]
	and	eax, -2147483647			; 80000001H
	jns	SHORT $LN7@Pop_heap_h
	dec	eax
	or	eax, -2					; fffffffeH
	inc	eax
$LN7@Pop_heap_h:
	test	eax, eax
	jne	SHORT $LN5@Pop_heap_h

; 2054 : 		{	// only child at bottom, move _Hole down to it
; 2055 : 		*(_First + _Hole) = _STD move(*(_First + (_Bottom - 1)));

	mov	eax, DWORD PTR __Bottom$[ebp]
	sub	eax, 1
	shl	eax, 5
	add	eax, DWORD PTR __First$[ebp]
	push	eax
	call	??$move@AAUOption@CCustomMenu@@@std@@YA$$QAUOption@CCustomMenu@@AAU12@@Z ; std::move<CCustomMenu::Option &>
	add	esp, 4
	push	eax
	mov	ecx, DWORD PTR __Hole$[ebp]
	shl	ecx, 5
	add	ecx, DWORD PTR __First$[ebp]
	call	??4Option@CCustomMenu@@QAEAAU01@$$QAU01@@Z

; 2056 : 		_Hole = _Bottom - 1;

	mov	eax, DWORD PTR __Bottom$[ebp]
	sub	eax, 1
	mov	DWORD PTR __Hole$[ebp], eax
$LN5@Pop_heap_h:

; 2057 : 		}
; 2058 : 
; 2059 : 	_Push_heap_by_index(_First, _Hole, _Top, _STD move(_Val), _Pred);

	mov	eax, DWORD PTR __Pred$[ebp]
	push	eax
	mov	ecx, DWORD PTR __Val$[ebp]
	push	ecx
	call	??$move@AAUOption@CCustomMenu@@@std@@YA$$QAUOption@CCustomMenu@@AAU12@@Z ; std::move<CCustomMenu::Option &>
	add	esp, 4
	push	eax
	mov	edx, DWORD PTR __Top$[ebp]
	push	edx
	mov	eax, DWORD PTR __Hole$[ebp]
	push	eax
	mov	ecx, DWORD PTR __First$[ebp]
	push	ecx
	call	??$_Push_heap_by_index@PAUOption@CCustomMenu@@HU12@U?$less@X@std@@@std@@YAXPAUOption@CCustomMenu@@HH$$QAU12@AAU?$less@X@0@@Z ; std::_Push_heap_by_index<CCustomMenu::Option *,int,CCustomMenu::Option,std::less<void> >
	add	esp, 20					; 00000014H

; 2060 : 	}

	pop	edi
	pop	esi
	pop	ebx
	add	esp, 228				; 000000e4H
	cmp	ebp, esp
	call	__RTC_CheckEsp
	mov	esp, ebp
	pop	ebp
	ret	0
??$_Pop_heap_hole_by_index@PAUOption@CCustomMenu@@HU12@U?$less@X@std@@@std@@YAXPAUOption@CCustomMenu@@HH$$QAU12@AAU?$less@X@0@@Z ENDP ; std::_Pop_heap_hole_by_index<CCustomMenu::Option *,int,CCustomMenu::Option,std::less<void> >
_TEXT	ENDS
; Function compile flags: /Odtp /RTCsu /ZI
; File c:\program files (x86)\microsoft visual studio 14.0\vc\include\utility
;	COMDAT ??$?0AAPAUOption@CCustomMenu@@AAPAU01@X$0A@@?$pair@PAUOption@CCustomMenu@@PAU12@@std@@QAE@AAPAUOption@CCustomMenu@@0@Z
_TEXT	SEGMENT
_this$ = -8						; size = 4
__Val1$ = 8						; size = 4
__Val2$ = 12						; size = 4
??$?0AAPAUOption@CCustomMenu@@AAPAU01@X$0A@@?$pair@PAUOption@CCustomMenu@@PAU12@@std@@QAE@AAPAUOption@CCustomMenu@@0@Z PROC ; std::pair<CCustomMenu::Option *,CCustomMenu::Option *>::pair<CCustomMenu::Option *,CCustomMenu::Option *><CCustomMenu::Option * &,CCustomMenu::Option * &,void,0>, COMDAT
; _this$ = ecx

; 172  : 		{	// construct from moved values

	push	ebp
	mov	ebp, esp
	sub	esp, 204				; 000000ccH
	push	ebx
	push	esi
	push	edi
	push	ecx
	lea	edi, DWORD PTR [ebp-204]
	mov	ecx, 51					; 00000033H
	mov	eax, -858993460				; ccccccccH
	rep stosd
	pop	ecx
	mov	DWORD PTR _this$[ebp], ecx

; 170  : 		: first(_STD forward<_Other1>(_Val1)),

	mov	eax, DWORD PTR __Val1$[ebp]
	push	eax
	call	??$forward@AAPAUOption@CCustomMenu@@@std@@YAAAPAUOption@CCustomMenu@@AAPAU12@@Z ; std::forward<CCustomMenu::Option * &>
	add	esp, 4
	mov	ecx, DWORD PTR _this$[ebp]
	mov	edx, DWORD PTR [eax]
	mov	DWORD PTR [ecx], edx

; 171  : 				second(_STD forward<_Other2>(_Val2))

	mov	eax, DWORD PTR __Val2$[ebp]
	push	eax
	call	??$forward@AAPAUOption@CCustomMenu@@@std@@YAAAPAUOption@CCustomMenu@@AAPAU12@@Z ; std::forward<CCustomMenu::Option * &>
	add	esp, 4
	mov	ecx, DWORD PTR _this$[ebp]
	mov	edx, DWORD PTR [eax]
	mov	DWORD PTR [ecx+4], edx

; 173  : 		}

	mov	eax, DWORD PTR _this$[ebp]
	pop	edi
	pop	esi
	pop	ebx
	add	esp, 204				; 000000ccH
	cmp	ebp, esp
	call	__RTC_CheckEsp
	mov	esp, ebp
	pop	ebp
	ret	8
??$?0AAPAUOption@CCustomMenu@@AAPAU01@X$0A@@?$pair@PAUOption@CCustomMenu@@PAU12@@std@@QAE@AAPAUOption@CCustomMenu@@0@Z ENDP ; std::pair<CCustomMenu::Option *,CCustomMenu::Option *>::pair<CCustomMenu::Option *,CCustomMenu::Option *><CCustomMenu::Option * &,CCustomMenu::Option * &,void,0>
_TEXT	ENDS
; Function compile flags: /Odtp /RTCsu /ZI
; File c:\program files (x86)\microsoft visual studio 14.0\vc\include\utility
;	COMDAT ??$iter_swap@PAUOption@CCustomMenu@@PAU12@@std@@YAXPAUOption@CCustomMenu@@0@Z
_TEXT	SEGMENT
__Left$ = 8						; size = 4
__Right$ = 12						; size = 4
??$iter_swap@PAUOption@CCustomMenu@@PAU12@@std@@YAXPAUOption@CCustomMenu@@0@Z PROC ; std::iter_swap<CCustomMenu::Option *,CCustomMenu::Option *>, COMDAT

; 22   : 	{	// swap *_Left and *_Right

	push	ebp
	mov	ebp, esp
	sub	esp, 192				; 000000c0H
	push	ebx
	push	esi
	push	edi
	lea	edi, DWORD PTR [ebp-192]
	mov	ecx, 48					; 00000030H
	mov	eax, -858993460				; ccccccccH
	rep stosd

; 23   : 	swap(*_Left, *_Right);

	mov	eax, DWORD PTR __Right$[ebp]
	push	eax
	mov	ecx, DWORD PTR __Left$[ebp]
	push	ecx
	call	??$swap@UOption@CCustomMenu@@X@std@@YAXAAUOption@CCustomMenu@@0@Z ; std::swap<CCustomMenu::Option,void>
	add	esp, 8

; 24   : 	}

	pop	edi
	pop	esi
	pop	ebx
	add	esp, 192				; 000000c0H
	cmp	ebp, esp
	call	__RTC_CheckEsp
	mov	esp, ebp
	pop	ebp
	ret	0
??$iter_swap@PAUOption@CCustomMenu@@PAU12@@std@@YAXPAUOption@CCustomMenu@@0@Z ENDP ; std::iter_swap<CCustomMenu::Option *,CCustomMenu::Option *>
_TEXT	ENDS
; Function compile flags: /Odtp /RTCsu /ZI
; File c:\program files (x86)\microsoft visual studio 14.0\vc\include\xstddef
;	COMDAT ??$?RAAUOption@CCustomMenu@@AAU01@@?$less@X@std@@QBE_NAAUOption@CCustomMenu@@0@Z
_TEXT	SEGMENT
_this$ = -8						; size = 4
__Left$ = 8						; size = 4
__Right$ = 12						; size = 4
??$?RAAUOption@CCustomMenu@@AAU01@@?$less@X@std@@QBE_NAAUOption@CCustomMenu@@0@Z PROC ; std::less<void>::operator()<CCustomMenu::Option &,CCustomMenu::Option &>, COMDAT
; _this$ = ecx

; 322  : 		{	// transparently apply operator< to operands

	push	ebp
	mov	ebp, esp
	sub	esp, 204				; 000000ccH
	push	ebx
	push	esi
	push	edi
	push	ecx
	lea	edi, DWORD PTR [ebp-204]
	mov	ecx, 51					; 00000033H
	mov	eax, -858993460				; ccccccccH
	rep stosd
	pop	ecx
	mov	DWORD PTR _this$[ebp], ecx

; 323  : 		return (static_cast<_Ty1&&>(_Left)

	mov	eax, DWORD PTR __Right$[ebp]
	push	eax
	mov	ecx, DWORD PTR __Left$[ebp]
	call	??MOption@CCustomMenu@@QBE_NABU01@@Z	; CCustomMenu::Option::operator<

; 324  : 			< static_cast<_Ty2&&>(_Right));
; 325  : 		}

	pop	edi
	pop	esi
	pop	ebx
	add	esp, 204				; 000000ccH
	cmp	ebp, esp
	call	__RTC_CheckEsp
	mov	esp, ebp
	pop	ebp
	ret	8
??$?RAAUOption@CCustomMenu@@AAU01@@?$less@X@std@@QBE_NAAUOption@CCustomMenu@@0@Z ENDP ; std::less<void>::operator()<CCustomMenu::Option &,CCustomMenu::Option &>
_TEXT	ENDS
; Function compile flags: /Odtp /RTCsu /ZI
; File c:\program files (x86)\microsoft visual studio 14.0\vc\include\xutility
;	COMDAT ??$_Debug_lt_pred@AAU?$less@X@std@@AAUOption@CCustomMenu@@AAU34@@std@@YA_NAAU?$less@X@0@AAUOption@CCustomMenu@@1PB_WI@Z
_TEXT	SEGMENT
tv79 = -194						; size = 1
tv80 = -193						; size = 1
__Pred$ = 8						; size = 4
__Left$ = 12						; size = 4
__Right$ = 16						; size = 4
__File$ = 20						; size = 4
__Line$ = 24						; size = 4
??$_Debug_lt_pred@AAU?$less@X@std@@AAUOption@CCustomMenu@@AAU34@@std@@YA_NAAU?$less@X@0@AAUOption@CCustomMenu@@1PB_WI@Z PROC ; std::_Debug_lt_pred<std::less<void> &,CCustomMenu::Option &,CCustomMenu::Option &>, COMDAT

; 895  : 	{	// test if _Pred(_Left, _Right) and _Pred is strict weak ordering

	push	ebp
	mov	ebp, esp
	sub	esp, 196				; 000000c4H
	push	ebx
	push	esi
	push	edi
	lea	edi, DWORD PTR [ebp-196]
	mov	ecx, 49					; 00000031H
	mov	eax, -858993460				; ccccccccH
	rep stosd

; 896  : 	return (!_Pred(_Left, _Right)

	mov	eax, DWORD PTR __Right$[ebp]
	push	eax
	mov	ecx, DWORD PTR __Left$[ebp]
	push	ecx
	mov	ecx, DWORD PTR __Pred$[ebp]
	call	??$?RAAUOption@CCustomMenu@@AAU01@@?$less@X@std@@QBE_NAAUOption@CCustomMenu@@0@Z ; std::less<void>::operator()<CCustomMenu::Option &,CCustomMenu::Option &>
	movzx	edx, al
	test	edx, edx
	jne	SHORT $LN5@Debug_lt_p
	mov	BYTE PTR tv80[ebp], 0
	jmp	SHORT $LN6@Debug_lt_p
$LN5@Debug_lt_p:
	mov	eax, DWORD PTR __Left$[ebp]
	push	eax
	mov	ecx, DWORD PTR __Right$[ebp]
	push	ecx
	mov	ecx, DWORD PTR __Pred$[ebp]
	call	??$?RAAUOption@CCustomMenu@@AAU01@@?$less@X@std@@QBE_NAAUOption@CCustomMenu@@0@Z ; std::less<void>::operator()<CCustomMenu::Option &,CCustomMenu::Option &>
	movzx	edx, al
	test	edx, edx
	je	SHORT $LN3@Debug_lt_p
	mov	esi, esp
	mov	eax, DWORD PTR __Line$[ebp]
	push	eax
	mov	ecx, DWORD PTR __File$[ebp]
	push	ecx
	push	OFFSET ??_C@_1CG@LEJCKCBB@?$AAi?$AAn?$AAv?$AAa?$AAl?$AAi?$AAd?$AA?5?$AAc?$AAo?$AAm?$AAp?$AAa?$AAr?$AAa?$AAt?$AAo?$AAr?$AA?$AA@
	call	DWORD PTR __imp_?_Debug_message@std@@YAXPB_W0I@Z
	add	esp, 12					; 0000000cH
	cmp	esi, esp
	call	__RTC_CheckEsp
	mov	BYTE PTR tv79[ebp], 1
	jmp	SHORT $LN4@Debug_lt_p
$LN3@Debug_lt_p:
	mov	BYTE PTR tv79[ebp], 1
$LN4@Debug_lt_p:
	mov	dl, BYTE PTR tv79[ebp]
	mov	BYTE PTR tv80[ebp], dl
$LN6@Debug_lt_p:
	mov	al, BYTE PTR tv80[ebp]

; 897  : 		? false
; 898  : 		: _Pred(_Right, _Left)
; 899  : 			? (_DEBUG_ERROR2("invalid comparator", _File, _Line), true)
; 900  : 			: true);
; 901  : 	}

	pop	edi
	pop	esi
	pop	ebx
	add	esp, 196				; 000000c4H
	cmp	ebp, esp
	call	__RTC_CheckEsp
	mov	esp, ebp
	pop	ebp
	ret	0
??$_Debug_lt_pred@AAU?$less@X@std@@AAUOption@CCustomMenu@@AAU34@@std@@YA_NAAU?$less@X@0@AAUOption@CCustomMenu@@1PB_WI@Z ENDP ; std::_Debug_lt_pred<std::less<void> &,CCustomMenu::Option &,CCustomMenu::Option &>
_TEXT	ENDS
; Function compile flags: /Odtp /RTCsu /ZI
; File c:\program files (x86)\microsoft visual studio 14.0\vc\include\algorithm
;	COMDAT ??$_Guess_median_unchecked@PAUOption@CCustomMenu@@U?$less@X@std@@@std@@YAXPAUOption@CCustomMenu@@00AAU?$less@X@0@@Z
_TEXT	SEGMENT
__Step$1 = -8						; size = 4
__First$ = 8						; size = 4
__Mid$ = 12						; size = 4
__Last$ = 16						; size = 4
__Pred$ = 20						; size = 4
??$_Guess_median_unchecked@PAUOption@CCustomMenu@@U?$less@X@std@@@std@@YAXPAUOption@CCustomMenu@@00AAU?$less@X@0@@Z PROC ; std::_Guess_median_unchecked<CCustomMenu::Option *,std::less<void> >, COMDAT

; 2667 : 	{	// sort median element to middle

	push	ebp
	mov	ebp, esp
	sub	esp, 204				; 000000ccH
	push	ebx
	push	esi
	push	edi
	lea	edi, DWORD PTR [ebp-204]
	mov	ecx, 51					; 00000033H
	mov	eax, -858993460				; ccccccccH
	rep stosd

; 2668 : 	if (40 < _Last - _First)

	mov	eax, DWORD PTR __Last$[ebp]
	sub	eax, DWORD PTR __First$[ebp]
	sar	eax, 5
	cmp	eax, 40					; 00000028H
	jle	$LN2@Guess_medi

; 2669 : 		{	// median of nine
; 2670 : 		size_t _Step = (_Last - _First + 1) / 8;

	mov	eax, DWORD PTR __Last$[ebp]
	sub	eax, DWORD PTR __First$[ebp]
	sar	eax, 5
	add	eax, 1
	cdq
	and	edx, 7
	add	eax, edx
	sar	eax, 3
	mov	DWORD PTR __Step$1[ebp], eax

; 2671 : 		_Med3_unchecked(_First, _First + _Step, _First + 2 * _Step, _Pred);

	mov	eax, DWORD PTR __Pred$[ebp]
	push	eax
	mov	ecx, DWORD PTR __Step$1[ebp]
	shl	ecx, 1
	shl	ecx, 5
	add	ecx, DWORD PTR __First$[ebp]
	push	ecx
	mov	edx, DWORD PTR __Step$1[ebp]
	shl	edx, 5
	add	edx, DWORD PTR __First$[ebp]
	push	edx
	mov	eax, DWORD PTR __First$[ebp]
	push	eax
	call	??$_Med3_unchecked@PAUOption@CCustomMenu@@U?$less@X@std@@@std@@YAXPAUOption@CCustomMenu@@00AAU?$less@X@0@@Z ; std::_Med3_unchecked<CCustomMenu::Option *,std::less<void> >
	add	esp, 16					; 00000010H

; 2672 : 		_Med3_unchecked(_Mid - _Step, _Mid, _Mid + _Step, _Pred);

	mov	eax, DWORD PTR __Pred$[ebp]
	push	eax
	mov	ecx, DWORD PTR __Step$1[ebp]
	shl	ecx, 5
	add	ecx, DWORD PTR __Mid$[ebp]
	push	ecx
	mov	edx, DWORD PTR __Mid$[ebp]
	push	edx
	mov	eax, DWORD PTR __Step$1[ebp]
	shl	eax, 5
	mov	ecx, DWORD PTR __Mid$[ebp]
	sub	ecx, eax
	push	ecx
	call	??$_Med3_unchecked@PAUOption@CCustomMenu@@U?$less@X@std@@@std@@YAXPAUOption@CCustomMenu@@00AAU?$less@X@0@@Z ; std::_Med3_unchecked<CCustomMenu::Option *,std::less<void> >
	add	esp, 16					; 00000010H

; 2673 : 		_Med3_unchecked(_Last - 2 * _Step, _Last - _Step, _Last, _Pred);

	mov	eax, DWORD PTR __Pred$[ebp]
	push	eax
	mov	ecx, DWORD PTR __Last$[ebp]
	push	ecx
	mov	edx, DWORD PTR __Step$1[ebp]
	shl	edx, 5
	mov	eax, DWORD PTR __Last$[ebp]
	sub	eax, edx
	push	eax
	mov	ecx, DWORD PTR __Step$1[ebp]
	shl	ecx, 1
	shl	ecx, 5
	mov	edx, DWORD PTR __Last$[ebp]
	sub	edx, ecx
	push	edx
	call	??$_Med3_unchecked@PAUOption@CCustomMenu@@U?$less@X@std@@@std@@YAXPAUOption@CCustomMenu@@00AAU?$less@X@0@@Z ; std::_Med3_unchecked<CCustomMenu::Option *,std::less<void> >
	add	esp, 16					; 00000010H

; 2674 : 		_Med3_unchecked(_First + _Step, _Mid, _Last - _Step, _Pred);

	mov	eax, DWORD PTR __Pred$[ebp]
	push	eax
	mov	ecx, DWORD PTR __Step$1[ebp]
	shl	ecx, 5
	mov	edx, DWORD PTR __Last$[ebp]
	sub	edx, ecx
	push	edx
	mov	eax, DWORD PTR __Mid$[ebp]
	push	eax
	mov	ecx, DWORD PTR __Step$1[ebp]
	shl	ecx, 5
	add	ecx, DWORD PTR __First$[ebp]
	push	ecx
	call	??$_Med3_unchecked@PAUOption@CCustomMenu@@U?$less@X@std@@@std@@YAXPAUOption@CCustomMenu@@00AAU?$less@X@0@@Z ; std::_Med3_unchecked<CCustomMenu::Option *,std::less<void> >
	add	esp, 16					; 00000010H

; 2675 : 		}
; 2676 : 	else

	jmp	SHORT $LN1@Guess_medi
$LN2@Guess_medi:

; 2677 : 		_Med3_unchecked(_First, _Mid, _Last, _Pred);

	mov	eax, DWORD PTR __Pred$[ebp]
	push	eax
	mov	ecx, DWORD PTR __Last$[ebp]
	push	ecx
	mov	edx, DWORD PTR __Mid$[ebp]
	push	edx
	mov	eax, DWORD PTR __First$[ebp]
	push	eax
	call	??$_Med3_unchecked@PAUOption@CCustomMenu@@U?$less@X@std@@@std@@YAXPAUOption@CCustomMenu@@00AAU?$less@X@0@@Z ; std::_Med3_unchecked<CCustomMenu::Option *,std::less<void> >
	add	esp, 16					; 00000010H
$LN1@Guess_medi:

; 2678 : 	}

	pop	edi
	pop	esi
	pop	ebx
	add	esp, 204				; 000000ccH
	cmp	ebp, esp
	call	__RTC_CheckEsp
	mov	esp, ebp
	pop	ebp
	ret	0
??$_Guess_median_unchecked@PAUOption@CCustomMenu@@U?$less@X@std@@@std@@YAXPAUOption@CCustomMenu@@00AAU?$less@X@0@@Z ENDP ; std::_Guess_median_unchecked<CCustomMenu::Option *,std::less<void> >
_TEXT	ENDS
; Function compile flags: /Odtp /RTCsu /ZI
; File c:\program files (x86)\microsoft visual studio 14.0\vc\include\xmemory0
;	COMDAT ??$destroy@UOption@CCustomMenu@@@?$allocator@UOption@CCustomMenu@@@std@@QAEXPAUOption@CCustomMenu@@@Z
_TEXT	SEGMENT
_this$ = -8						; size = 4
__Ptr$ = 8						; size = 4
??$destroy@UOption@CCustomMenu@@@?$allocator@UOption@CCustomMenu@@@std@@QAEXPAUOption@CCustomMenu@@@Z PROC ; std::allocator<CCustomMenu::Option>::destroy<CCustomMenu::Option>, COMDAT
; _this$ = ecx

; 743  : 		{	// destroy object at _Ptr

	push	ebp
	mov	ebp, esp
	sub	esp, 204				; 000000ccH
	push	ebx
	push	esi
	push	edi
	push	ecx
	lea	edi, DWORD PTR [ebp-204]
	mov	ecx, 51					; 00000033H
	mov	eax, -858993460				; ccccccccH
	rep stosd
	pop	ecx
	mov	DWORD PTR _this$[ebp], ecx

; 744  : 		_Ptr->~_Uty();

	push	0
	mov	ecx, DWORD PTR __Ptr$[ebp]
	call	??_GOption@CCustomMenu@@QAEPAXI@Z

; 745  : 		}

	pop	edi
	pop	esi
	pop	ebx
	add	esp, 204				; 000000ccH
	cmp	ebp, esp
	call	__RTC_CheckEsp
	mov	esp, ebp
	pop	ebp
	ret	4
??$destroy@UOption@CCustomMenu@@@?$allocator@UOption@CCustomMenu@@@std@@QAEXPAUOption@CCustomMenu@@@Z ENDP ; std::allocator<CCustomMenu::Option>::destroy<CCustomMenu::Option>
_TEXT	ENDS
; Function compile flags: /Odtp /RTCsu /ZI
; File c:\program files (x86)\microsoft visual studio 14.0\vc\include\xmemory0
;	COMDAT ??$construct@UOption@CCustomMenu@@U12@@?$_Wrap_alloc@V?$allocator@UOption@CCustomMenu@@@std@@@std@@QAEXPAUOption@CCustomMenu@@$$QAU23@@Z
_TEXT	SEGMENT
_this$ = -8						; size = 4
__Ptr$ = 8						; size = 4
_<_Args_0>$ = 12					; size = 4
??$construct@UOption@CCustomMenu@@U12@@?$_Wrap_alloc@V?$allocator@UOption@CCustomMenu@@@std@@@std@@QAEXPAUOption@CCustomMenu@@$$QAU23@@Z PROC ; std::_Wrap_alloc<std::allocator<CCustomMenu::Option> >::construct<CCustomMenu::Option,CCustomMenu::Option>, COMDAT
; _this$ = ecx

; 994  : 		{	// construct _Ty(_Types...) at _Ptr

	push	ebp
	mov	ebp, esp
	sub	esp, 204				; 000000ccH
	push	ebx
	push	esi
	push	edi
	push	ecx
	lea	edi, DWORD PTR [ebp-204]
	mov	ecx, 51					; 00000033H
	mov	eax, -858993460				; ccccccccH
	rep stosd
	pop	ecx
	mov	DWORD PTR _this$[ebp], ecx

; 995  : 		_Mytraits::construct(*this, _Ptr,

	mov	eax, DWORD PTR _<_Args_0>$[ebp]
	push	eax
	call	??$forward@UOption@CCustomMenu@@@std@@YA$$QAUOption@CCustomMenu@@AAU12@@Z ; std::forward<CCustomMenu::Option>
	add	esp, 4
	push	eax
	mov	ecx, DWORD PTR __Ptr$[ebp]
	push	ecx
	mov	edx, DWORD PTR _this$[ebp]
	push	edx
	call	??$construct@UOption@CCustomMenu@@U12@@?$allocator_traits@V?$allocator@UOption@CCustomMenu@@@std@@@std@@SAXAAV?$allocator@UOption@CCustomMenu@@@1@PAUOption@CCustomMenu@@$$QAU34@@Z ; std::allocator_traits<std::allocator<CCustomMenu::Option> >::construct<CCustomMenu::Option,CCustomMenu::Option>
	add	esp, 12					; 0000000cH

; 996  : 			_STD forward<_Types>(_Args)...);
; 997  : 		}

	pop	edi
	pop	esi
	pop	ebx
	add	esp, 204				; 000000ccH
	cmp	ebp, esp
	call	__RTC_CheckEsp
	mov	esp, ebp
	pop	ebp
	ret	8
??$construct@UOption@CCustomMenu@@U12@@?$_Wrap_alloc@V?$allocator@UOption@CCustomMenu@@@std@@@std@@QAEXPAUOption@CCustomMenu@@$$QAU23@@Z ENDP ; std::_Wrap_alloc<std::allocator<CCustomMenu::Option> >::construct<CCustomMenu::Option,CCustomMenu::Option>
_TEXT	ENDS
; Function compile flags: /Odtp /RTCsu /ZI
; File c:\program files (x86)\microsoft visual studio 14.0\vc\include\algorithm
;	COMDAT ??$_Insertion_sort_unchecked@PAUOption@CCustomMenu@@U?$less@X@std@@@std@@YAXPAUOption@CCustomMenu@@0AAU?$less@X@0@@Z
_TEXT	SEGMENT
__First1$2 = -88					; size = 4
__Val$3 = -76						; size = 32
__Next1$4 = -36						; size = 4
__Next$5 = -24						; size = 4
__$ArrayPad$ = -16					; size = 4
__$EHRec$ = -12						; size = 12
__First$ = 8						; size = 4
__Last$ = 12						; size = 4
__Pred$ = 16						; size = 4
??$_Insertion_sort_unchecked@PAUOption@CCustomMenu@@U?$less@X@std@@@std@@YAXPAUOption@CCustomMenu@@0AAU?$less@X@0@@Z PROC ; std::_Insertion_sort_unchecked<CCustomMenu::Option *,std::less<void> >, COMDAT

; 2627 : 	{	// insertion sort [_First, _Last), using _Pred

	push	ebp
	mov	ebp, esp
	push	-1
	push	__ehhandler$??$_Insertion_sort_unchecked@PAUOption@CCustomMenu@@U?$less@X@std@@@std@@YAXPAUOption@CCustomMenu@@0AAU?$less@X@0@@Z
	mov	eax, DWORD PTR fs:0
	push	eax
	sub	esp, 272				; 00000110H
	push	ebx
	push	esi
	push	edi
	lea	edi, DWORD PTR [ebp-284]
	mov	ecx, 68					; 00000044H
	mov	eax, -858993460				; ccccccccH
	rep stosd
	mov	eax, DWORD PTR ___security_cookie
	xor	eax, ebp
	mov	DWORD PTR __$ArrayPad$[ebp], eax
	push	eax
	lea	eax, DWORD PTR __$EHRec$[ebp]
	mov	DWORD PTR fs:0, eax

; 2628 : 	if (_First != _Last)

	mov	eax, DWORD PTR __First$[ebp]
	cmp	eax, DWORD PTR __Last$[ebp]
	je	$LN1@Insertion_

; 2629 : 		for (_BidIt _Next = _First; ++_Next != _Last; )

	mov	eax, DWORD PTR __First$[ebp]
	mov	DWORD PTR __Next$5[ebp], eax
$LN4@Insertion_:
	mov	eax, DWORD PTR __Next$5[ebp]
	add	eax, 32					; 00000020H
	mov	DWORD PTR __Next$5[ebp], eax
	mov	ecx, DWORD PTR __Next$5[ebp]
	cmp	ecx, DWORD PTR __Last$[ebp]
	je	$LN1@Insertion_

; 2630 : 			{	// order next element
; 2631 : 			_BidIt _Next1 = _Next;

	mov	eax, DWORD PTR __Next$5[ebp]
	mov	DWORD PTR __Next1$4[ebp], eax

; 2632 : 			_Iter_value_t<_BidIt> _Val = _STD move(*_Next);

	mov	eax, DWORD PTR __Next$5[ebp]
	push	eax
	call	??$move@AAUOption@CCustomMenu@@@std@@YA$$QAUOption@CCustomMenu@@AAU12@@Z ; std::move<CCustomMenu::Option &>
	add	esp, 4
	push	eax
	lea	ecx, DWORD PTR __Val$3[ebp]
	call	??0Option@CCustomMenu@@QAE@$$QAU01@@Z
	mov	DWORD PTR __$EHRec$[ebp+8], 0

; 2633 : 
; 2634 : 			if (_DEBUG_LT_PRED(_Pred, _Val, *_First))

	push	2634					; 00000a4aH
	push	OFFSET ??_C@_1JC@ELNBGKIG@?$AAc?$AA?3?$AA?2?$AAp?$AAr?$AAo?$AAg?$AAr?$AAa?$AAm?$AA?5?$AAf?$AAi?$AAl?$AAe?$AAs?$AA?5?$AA?$CI?$AAx?$AA8?$AA6?$AA?$CJ?$AA?2?$AAm?$AAi?$AAc?$AAr?$AAo?$AAs?$AAo?$AAf?$AAt@
	mov	eax, DWORD PTR __First$[ebp]
	push	eax
	lea	ecx, DWORD PTR __Val$3[ebp]
	push	ecx
	mov	edx, DWORD PTR __Pred$[ebp]
	push	edx
	call	??$_Debug_lt_pred@AAU?$less@X@std@@AAUOption@CCustomMenu@@AAU34@@std@@YA_NAAU?$less@X@0@AAUOption@CCustomMenu@@1PB_WI@Z ; std::_Debug_lt_pred<std::less<void> &,CCustomMenu::Option &,CCustomMenu::Option &>
	add	esp, 20					; 00000014H
	movzx	eax, al
	test	eax, eax
	je	SHORT $LN9@Insertion_

; 2635 : 				{	// found new earliest element, move to front
; 2636 : 				_Move_backward_unchecked(_First, _Next, ++_Next1);

	mov	eax, DWORD PTR __Next1$4[ebp]
	add	eax, 32					; 00000020H
	mov	DWORD PTR __Next1$4[ebp], eax
	mov	ecx, DWORD PTR __Next1$4[ebp]
	push	ecx
	mov	edx, DWORD PTR __Next$5[ebp]
	push	edx
	mov	eax, DWORD PTR __First$[ebp]
	push	eax
	call	??$_Move_backward_unchecked@PAUOption@CCustomMenu@@PAU12@@std@@YAPAUOption@CCustomMenu@@PAU12@00@Z ; std::_Move_backward_unchecked<CCustomMenu::Option *,CCustomMenu::Option *>
	add	esp, 12					; 0000000cH

; 2637 : 				*_First = _STD move(_Val);

	lea	eax, DWORD PTR __Val$3[ebp]
	push	eax
	call	??$move@AAUOption@CCustomMenu@@@std@@YA$$QAUOption@CCustomMenu@@AAU12@@Z ; std::move<CCustomMenu::Option &>
	add	esp, 4
	push	eax
	mov	ecx, DWORD PTR __First$[ebp]
	call	??4Option@CCustomMenu@@QAEAAU01@$$QAU01@@Z

; 2638 : 				}
; 2639 : 			else

	jmp	SHORT $LN10@Insertion_
$LN9@Insertion_:

; 2640 : 				{	// look for insertion point after first
; 2641 : 				for (_BidIt _First1 = _Next1;

	mov	eax, DWORD PTR __Next1$4[ebp]
	mov	DWORD PTR __First1$2[ebp], eax
	jmp	SHORT $LN7@Insertion_
$LN5@Insertion_:

; 2643 : 					_Next1 = _First1)

	mov	eax, DWORD PTR __First1$2[ebp]
	mov	DWORD PTR __Next1$4[ebp], eax
$LN7@Insertion_:

; 2642 : 					_DEBUG_LT_PRED(_Pred, _Val, *--_First1);

	mov	eax, DWORD PTR __First1$2[ebp]
	sub	eax, 32					; 00000020H
	mov	DWORD PTR __First1$2[ebp], eax
	push	2642					; 00000a52H
	push	OFFSET ??_C@_1JC@ELNBGKIG@?$AAc?$AA?3?$AA?2?$AAp?$AAr?$AAo?$AAg?$AAr?$AAa?$AAm?$AA?5?$AAf?$AAi?$AAl?$AAe?$AAs?$AA?5?$AA?$CI?$AAx?$AA8?$AA6?$AA?$CJ?$AA?2?$AAm?$AAi?$AAc?$AAr?$AAo?$AAs?$AAo?$AAf?$AAt@
	mov	ecx, DWORD PTR __First1$2[ebp]
	push	ecx
	lea	edx, DWORD PTR __Val$3[ebp]
	push	edx
	mov	eax, DWORD PTR __Pred$[ebp]
	push	eax
	call	??$_Debug_lt_pred@AAU?$less@X@std@@AAUOption@CCustomMenu@@AAU34@@std@@YA_NAAU?$less@X@0@AAUOption@CCustomMenu@@1PB_WI@Z ; std::_Debug_lt_pred<std::less<void> &,CCustomMenu::Option &,CCustomMenu::Option &>
	add	esp, 20					; 00000014H
	movzx	ecx, al
	test	ecx, ecx
	je	SHORT $LN6@Insertion_

; 2644 : 					*_Next1 = _STD move(*_First1);	// move hole down

	mov	eax, DWORD PTR __First1$2[ebp]
	push	eax
	call	??$move@AAUOption@CCustomMenu@@@std@@YA$$QAUOption@CCustomMenu@@AAU12@@Z ; std::move<CCustomMenu::Option &>
	add	esp, 4
	push	eax
	mov	ecx, DWORD PTR __Next1$4[ebp]
	call	??4Option@CCustomMenu@@QAEAAU01@$$QAU01@@Z
	jmp	SHORT $LN5@Insertion_
$LN6@Insertion_:

; 2645 : 				*_Next1 = _STD move(_Val);	// insert element in hole

	lea	eax, DWORD PTR __Val$3[ebp]
	push	eax
	call	??$move@AAUOption@CCustomMenu@@@std@@YA$$QAUOption@CCustomMenu@@AAU12@@Z ; std::move<CCustomMenu::Option &>
	add	esp, 4
	push	eax
	mov	ecx, DWORD PTR __Next1$4[ebp]
	call	??4Option@CCustomMenu@@QAEAAU01@$$QAU01@@Z
$LN10@Insertion_:

; 2646 : 				}
; 2647 : 			}

	mov	DWORD PTR __$EHRec$[ebp+8], -1
	lea	ecx, DWORD PTR __Val$3[ebp]
	call	??1Option@CCustomMenu@@QAE@XZ
	jmp	$LN4@Insertion_
$LN1@Insertion_:

; 2648 : 	}

	push	edx
	mov	ecx, ebp
	push	eax
	lea	edx, DWORD PTR $LN16@Insertion_
	call	@_RTC_CheckStackVars@8
	pop	eax
	pop	edx
	mov	ecx, DWORD PTR __$EHRec$[ebp]
	mov	DWORD PTR fs:0, ecx
	pop	ecx
	pop	edi
	pop	esi
	pop	ebx
	mov	ecx, DWORD PTR __$ArrayPad$[ebp]
	xor	ecx, ebp
	call	@__security_check_cookie@4
	add	esp, 284				; 0000011cH
	cmp	ebp, esp
	call	__RTC_CheckEsp
	mov	esp, ebp
	pop	ebp
	ret	0
$LN16@Insertion_:
	DD	1
	DD	$LN15@Insertion_
$LN15@Insertion_:
	DD	-76					; ffffffb4H
	DD	32					; 00000020H
	DD	$LN13@Insertion_
$LN13@Insertion_:
	DB	95					; 0000005fH
	DB	86					; 00000056H
	DB	97					; 00000061H
	DB	108					; 0000006cH
	DB	0
_TEXT	ENDS
;	COMDAT text$x
text$x	SEGMENT
__unwindfunclet$??$_Insertion_sort_unchecked@PAUOption@CCustomMenu@@U?$less@X@std@@@std@@YAXPAUOption@CCustomMenu@@0AAU?$less@X@0@@Z$0:
	lea	ecx, DWORD PTR __Val$3[ebp]
	jmp	??1Option@CCustomMenu@@QAE@XZ
__ehhandler$??$_Insertion_sort_unchecked@PAUOption@CCustomMenu@@U?$less@X@std@@@std@@YAXPAUOption@CCustomMenu@@0AAU?$less@X@0@@Z:
	mov	edx, DWORD PTR [esp+8]
	lea	eax, DWORD PTR [edx+12]
	mov	ecx, DWORD PTR [edx-288]
	xor	ecx, eax
	call	@__security_check_cookie@4
	mov	ecx, DWORD PTR [edx-4]
	xor	ecx, eax
	call	@__security_check_cookie@4
	mov	eax, OFFSET __ehfuncinfo$??$_Insertion_sort_unchecked@PAUOption@CCustomMenu@@U?$less@X@std@@@std@@YAXPAUOption@CCustomMenu@@0AAU?$less@X@0@@Z
	jmp	___CxxFrameHandler3
text$x	ENDS
??$_Insertion_sort_unchecked@PAUOption@CCustomMenu@@U?$less@X@std@@@std@@YAXPAUOption@CCustomMenu@@0AAU?$less@X@0@@Z ENDP ; std::_Insertion_sort_unchecked<CCustomMenu::Option *,std::less<void> >
; Function compile flags: /Odtp /RTCsu /ZI
; File c:\program files (x86)\microsoft visual studio 14.0\vc\include\algorithm
;	COMDAT ??$_Sort_heap_unchecked@PAUOption@CCustomMenu@@U?$less@X@std@@@std@@YAXPAUOption@CCustomMenu@@0AAU?$less@X@0@@Z
_TEXT	SEGMENT
__First$ = 8						; size = 4
__Last$ = 12						; size = 4
__Pred$ = 16						; size = 4
??$_Sort_heap_unchecked@PAUOption@CCustomMenu@@U?$less@X@std@@@std@@YAXPAUOption@CCustomMenu@@0AAU?$less@X@0@@Z PROC ; std::_Sort_heap_unchecked<CCustomMenu::Option *,std::less<void> >, COMDAT

; 2141 : 	{	// order heap by repeatedly popping, using _Pred

	push	ebp
	mov	ebp, esp
	sub	esp, 192				; 000000c0H
	push	ebx
	push	esi
	push	edi
	lea	edi, DWORD PTR [ebp-192]
	mov	ecx, 48					; 00000030H
	mov	eax, -858993460				; ccccccccH
	rep stosd

; 2142 : 	for (; 2 <= _Last - _First; --_Last)

	jmp	SHORT $LN4@Sort_heap_
$LN2@Sort_heap_:
	mov	eax, DWORD PTR __Last$[ebp]
	sub	eax, 32					; 00000020H
	mov	DWORD PTR __Last$[ebp], eax
$LN4@Sort_heap_:
	mov	eax, DWORD PTR __Last$[ebp]
	sub	eax, DWORD PTR __First$[ebp]
	sar	eax, 5
	cmp	eax, 2
	jl	SHORT $LN1@Sort_heap_

; 2143 : 		_Pop_heap_unchecked(_First, _Last, _Pred);

	mov	eax, DWORD PTR __Pred$[ebp]
	push	eax
	mov	ecx, DWORD PTR __Last$[ebp]
	push	ecx
	mov	edx, DWORD PTR __First$[ebp]
	push	edx
	call	??$_Pop_heap_unchecked@PAUOption@CCustomMenu@@U?$less@X@std@@@std@@YAXPAUOption@CCustomMenu@@0AAU?$less@X@0@@Z ; std::_Pop_heap_unchecked<CCustomMenu::Option *,std::less<void> >
	add	esp, 12					; 0000000cH
	jmp	SHORT $LN2@Sort_heap_
$LN1@Sort_heap_:

; 2144 : 	}

	pop	edi
	pop	esi
	pop	ebx
	add	esp, 192				; 000000c0H
	cmp	ebp, esp
	call	__RTC_CheckEsp
	mov	esp, ebp
	pop	ebp
	ret	0
??$_Sort_heap_unchecked@PAUOption@CCustomMenu@@U?$less@X@std@@@std@@YAXPAUOption@CCustomMenu@@0AAU?$less@X@0@@Z ENDP ; std::_Sort_heap_unchecked<CCustomMenu::Option *,std::less<void> >
_TEXT	ENDS
; Function compile flags: /Odtp /RTCsu /ZI
; File c:\program files (x86)\microsoft visual studio 14.0\vc\include\algorithm
;	COMDAT ??$_Make_heap_unchecked@PAUOption@CCustomMenu@@U?$less@X@std@@@std@@YAXPAUOption@CCustomMenu@@0AAU?$less@X@0@@Z
_TEXT	SEGMENT
__Val$2 = -76						; size = 32
__Hole$3 = -36						; size = 4
__Bottom$ = -24						; size = 4
__$ArrayPad$ = -16					; size = 4
__$EHRec$ = -12						; size = 12
__First$ = 8						; size = 4
__Last$ = 12						; size = 4
__Pred$ = 16						; size = 4
??$_Make_heap_unchecked@PAUOption@CCustomMenu@@U?$less@X@std@@@std@@YAXPAUOption@CCustomMenu@@0AAU?$less@X@0@@Z PROC ; std::_Make_heap_unchecked<CCustomMenu::Option *,std::less<void> >, COMDAT

; 2108 : 	{	// make nontrivial [_First, _Last) into a heap, using _Pred

	push	ebp
	mov	ebp, esp
	push	-1
	push	__ehhandler$??$_Make_heap_unchecked@PAUOption@CCustomMenu@@U?$less@X@std@@@std@@YAXPAUOption@CCustomMenu@@0AAU?$less@X@0@@Z
	mov	eax, DWORD PTR fs:0
	push	eax
	sub	esp, 260				; 00000104H
	push	ebx
	push	esi
	push	edi
	lea	edi, DWORD PTR [ebp-272]
	mov	ecx, 65					; 00000041H
	mov	eax, -858993460				; ccccccccH
	rep stosd
	mov	eax, DWORD PTR ___security_cookie
	xor	eax, ebp
	mov	DWORD PTR __$ArrayPad$[ebp], eax
	push	eax
	lea	eax, DWORD PTR __$EHRec$[ebp]
	mov	DWORD PTR fs:0, eax

; 2109 : 	_Iter_diff_t<_RanIt> _Bottom = _Last - _First;

	mov	eax, DWORD PTR __Last$[ebp]
	sub	eax, DWORD PTR __First$[ebp]
	sar	eax, 5
	mov	DWORD PTR __Bottom$[ebp], eax

; 2110 : 	if (2 <= _Bottom)

	cmp	DWORD PTR __Bottom$[ebp], 2
	jl	SHORT $LN1@Make_heap_

; 2111 : 		{
; 2112 : 		for (_Iter_diff_t<_RanIt> _Hole = _Bottom / 2; 0 < _Hole; )

	mov	eax, DWORD PTR __Bottom$[ebp]
	cdq
	sub	eax, edx
	sar	eax, 1
	mov	DWORD PTR __Hole$3[ebp], eax
$LN4@Make_heap_:
	cmp	DWORD PTR __Hole$3[ebp], 0
	jle	SHORT $LN1@Make_heap_

; 2113 : 			{	// reheap top half, bottom to top
; 2114 : 			--_Hole;

	mov	eax, DWORD PTR __Hole$3[ebp]
	sub	eax, 1
	mov	DWORD PTR __Hole$3[ebp], eax

; 2115 : 			_Iter_value_t<_RanIt> _Val = _STD move(*(_First + _Hole));

	mov	eax, DWORD PTR __Hole$3[ebp]
	shl	eax, 5
	add	eax, DWORD PTR __First$[ebp]
	push	eax
	call	??$move@AAUOption@CCustomMenu@@@std@@YA$$QAUOption@CCustomMenu@@AAU12@@Z ; std::move<CCustomMenu::Option &>
	add	esp, 4
	push	eax
	lea	ecx, DWORD PTR __Val$2[ebp]
	call	??0Option@CCustomMenu@@QAE@$$QAU01@@Z
	mov	DWORD PTR __$EHRec$[ebp+8], 0

; 2116 : 			_Pop_heap_hole_by_index(_First, _Hole, _Bottom,

	mov	eax, DWORD PTR __Pred$[ebp]
	push	eax
	lea	ecx, DWORD PTR __Val$2[ebp]
	push	ecx
	call	??$move@AAUOption@CCustomMenu@@@std@@YA$$QAUOption@CCustomMenu@@AAU12@@Z ; std::move<CCustomMenu::Option &>
	add	esp, 4
	push	eax
	mov	edx, DWORD PTR __Bottom$[ebp]
	push	edx
	mov	eax, DWORD PTR __Hole$3[ebp]
	push	eax
	mov	ecx, DWORD PTR __First$[ebp]
	push	ecx
	call	??$_Pop_heap_hole_by_index@PAUOption@CCustomMenu@@HU12@U?$less@X@std@@@std@@YAXPAUOption@CCustomMenu@@HH$$QAU12@AAU?$less@X@0@@Z ; std::_Pop_heap_hole_by_index<CCustomMenu::Option *,int,CCustomMenu::Option,std::less<void> >
	add	esp, 20					; 00000014H

; 2117 : 				_STD move(_Val), _Pred);
; 2118 : 			}

	mov	DWORD PTR __$EHRec$[ebp+8], -1
	lea	ecx, DWORD PTR __Val$2[ebp]
	call	??1Option@CCustomMenu@@QAE@XZ
	jmp	SHORT $LN4@Make_heap_
$LN1@Make_heap_:

; 2119 : 		}
; 2120 : 	}

	push	edx
	mov	ecx, ebp
	push	eax
	lea	edx, DWORD PTR $LN11@Make_heap_
	call	@_RTC_CheckStackVars@8
	pop	eax
	pop	edx
	mov	ecx, DWORD PTR __$EHRec$[ebp]
	mov	DWORD PTR fs:0, ecx
	pop	ecx
	pop	edi
	pop	esi
	pop	ebx
	mov	ecx, DWORD PTR __$ArrayPad$[ebp]
	xor	ecx, ebp
	call	@__security_check_cookie@4
	add	esp, 272				; 00000110H
	cmp	ebp, esp
	call	__RTC_CheckEsp
	mov	esp, ebp
	pop	ebp
	ret	0
	npad	2
$LN11@Make_heap_:
	DD	1
	DD	$LN10@Make_heap_
$LN10@Make_heap_:
	DD	-76					; ffffffb4H
	DD	32					; 00000020H
	DD	$LN8@Make_heap_
$LN8@Make_heap_:
	DB	95					; 0000005fH
	DB	86					; 00000056H
	DB	97					; 00000061H
	DB	108					; 0000006cH
	DB	0
_TEXT	ENDS
;	COMDAT text$x
text$x	SEGMENT
__unwindfunclet$??$_Make_heap_unchecked@PAUOption@CCustomMenu@@U?$less@X@std@@@std@@YAXPAUOption@CCustomMenu@@0AAU?$less@X@0@@Z$0:
	lea	ecx, DWORD PTR __Val$2[ebp]
	jmp	??1Option@CCustomMenu@@QAE@XZ
__ehhandler$??$_Make_heap_unchecked@PAUOption@CCustomMenu@@U?$less@X@std@@@std@@YAXPAUOption@CCustomMenu@@0AAU?$less@X@0@@Z:
	mov	edx, DWORD PTR [esp+8]
	lea	eax, DWORD PTR [edx+12]
	mov	ecx, DWORD PTR [edx-276]
	xor	ecx, eax
	call	@__security_check_cookie@4
	mov	ecx, DWORD PTR [edx-4]
	xor	ecx, eax
	call	@__security_check_cookie@4
	mov	eax, OFFSET __ehfuncinfo$??$_Make_heap_unchecked@PAUOption@CCustomMenu@@U?$less@X@std@@@std@@YAXPAUOption@CCustomMenu@@0AAU?$less@X@0@@Z
	jmp	___CxxFrameHandler3
text$x	ENDS
??$_Make_heap_unchecked@PAUOption@CCustomMenu@@U?$less@X@std@@@std@@YAXPAUOption@CCustomMenu@@0AAU?$less@X@0@@Z ENDP ; std::_Make_heap_unchecked<CCustomMenu::Option *,std::less<void> >
; Function compile flags: /Odtp /RTCsu /ZI
; File c:\program files (x86)\microsoft visual studio 14.0\vc\include\algorithm
;	COMDAT ??$_Partition_by_median_guess_unchecked@PAUOption@CCustomMenu@@U?$less@X@std@@@std@@YA?AU?$pair@PAUOption@CCustomMenu@@PAU12@@0@PAUOption@CCustomMenu@@0AAU?$less@X@0@@Z
_TEXT	SEGMENT
tv161 = -264						; size = 4
tv204 = -260						; size = 4
tv160 = -260						; size = 4
tv218 = -256						; size = 4
tv201 = -256						; size = 4
tv159 = -256						; size = 4
__Glast$ = -56						; size = 4
__Gfirst$ = -44						; size = 4
__Plast$ = -32						; size = 4
__Pfirst$ = -20						; size = 4
__Mid$ = -8						; size = 4
___$ReturnUdt$ = 8					; size = 4
__First$ = 12						; size = 4
__Last$ = 16						; size = 4
__Pred$ = 20						; size = 4
??$_Partition_by_median_guess_unchecked@PAUOption@CCustomMenu@@U?$less@X@std@@@std@@YA?AU?$pair@PAUOption@CCustomMenu@@PAU12@@0@PAUOption@CCustomMenu@@0AAU?$less@X@0@@Z PROC ; std::_Partition_by_median_guess_unchecked<CCustomMenu::Option *,std::less<void> >, COMDAT

; 2684 : 	{	// partition [_First, _Last), using _Pred

	push	ebp
	mov	ebp, esp
	sub	esp, 264				; 00000108H
	push	ebx
	push	esi
	push	edi
	lea	edi, DWORD PTR [ebp-264]
	mov	ecx, 66					; 00000042H
	mov	eax, -858993460				; ccccccccH
	rep stosd

; 2685 : 	_RanIt _Mid = _First + (_Last - _First) / 2;

	mov	eax, DWORD PTR __Last$[ebp]
	sub	eax, DWORD PTR __First$[ebp]
	sar	eax, 5
	cdq
	sub	eax, edx
	sar	eax, 1
	shl	eax, 5
	add	eax, DWORD PTR __First$[ebp]
	mov	DWORD PTR __Mid$[ebp], eax

; 2686 : 	_Guess_median_unchecked(_First, _Mid, _Last - 1, _Pred);

	mov	eax, DWORD PTR __Pred$[ebp]
	push	eax
	mov	ecx, DWORD PTR __Last$[ebp]
	sub	ecx, 32					; 00000020H
	push	ecx
	mov	edx, DWORD PTR __Mid$[ebp]
	push	edx
	mov	eax, DWORD PTR __First$[ebp]
	push	eax
	call	??$_Guess_median_unchecked@PAUOption@CCustomMenu@@U?$less@X@std@@@std@@YAXPAUOption@CCustomMenu@@00AAU?$less@X@0@@Z ; std::_Guess_median_unchecked<CCustomMenu::Option *,std::less<void> >
	add	esp, 16					; 00000010H

; 2687 : 	_RanIt _Pfirst = _Mid;

	mov	eax, DWORD PTR __Mid$[ebp]
	mov	DWORD PTR __Pfirst$[ebp], eax

; 2688 : 	_RanIt _Plast = _Pfirst + 1;

	mov	eax, DWORD PTR __Pfirst$[ebp]
	add	eax, 32					; 00000020H
	mov	DWORD PTR __Plast$[ebp], eax
$LN2@Partition_:

; 2689 : 
; 2690 : 	while (_First < _Pfirst
; 2691 : 		&& !_DEBUG_LT_PRED(_Pred, *(_Pfirst - 1), *_Pfirst)
; 2692 : 		&& !_Pred(*_Pfirst, *(_Pfirst - 1)))

	mov	eax, DWORD PTR __First$[ebp]
	cmp	eax, DWORD PTR __Pfirst$[ebp]
	jae	SHORT $LN4@Partition_
	push	2691					; 00000a83H
	push	OFFSET ??_C@_1JC@ELNBGKIG@?$AAc?$AA?3?$AA?2?$AAp?$AAr?$AAo?$AAg?$AAr?$AAa?$AAm?$AA?5?$AAf?$AAi?$AAl?$AAe?$AAs?$AA?5?$AA?$CI?$AAx?$AA8?$AA6?$AA?$CJ?$AA?2?$AAm?$AAi?$AAc?$AAr?$AAo?$AAs?$AAo?$AAf?$AAt@
	mov	eax, DWORD PTR __Pfirst$[ebp]
	push	eax
	mov	ecx, DWORD PTR __Pfirst$[ebp]
	sub	ecx, 32					; 00000020H
	push	ecx
	mov	edx, DWORD PTR __Pred$[ebp]
	push	edx
	call	??$_Debug_lt_pred@AAU?$less@X@std@@AAUOption@CCustomMenu@@AAU34@@std@@YA_NAAU?$less@X@0@AAUOption@CCustomMenu@@1PB_WI@Z ; std::_Debug_lt_pred<std::less<void> &,CCustomMenu::Option &,CCustomMenu::Option &>
	add	esp, 20					; 00000014H
	movzx	eax, al
	test	eax, eax
	jne	SHORT $LN4@Partition_
	mov	eax, DWORD PTR __Pfirst$[ebp]
	sub	eax, 32					; 00000020H
	push	eax
	mov	ecx, DWORD PTR __Pfirst$[ebp]
	push	ecx
	mov	ecx, DWORD PTR __Pred$[ebp]
	call	??$?RAAUOption@CCustomMenu@@AAU01@@?$less@X@std@@QBE_NAAUOption@CCustomMenu@@0@Z ; std::less<void>::operator()<CCustomMenu::Option &,CCustomMenu::Option &>
	movzx	edx, al
	test	edx, edx
	jne	SHORT $LN4@Partition_

; 2693 : 		--_Pfirst;

	mov	eax, DWORD PTR __Pfirst$[ebp]
	sub	eax, 32					; 00000020H
	mov	DWORD PTR __Pfirst$[ebp], eax
	jmp	SHORT $LN2@Partition_
$LN4@Partition_:

; 2694 : 	while (_Plast < _Last
; 2695 : 		&& !_DEBUG_LT_PRED(_Pred, *_Plast, *_Pfirst)
; 2696 : 		&& !_Pred(*_Pfirst, *_Plast))

	mov	eax, DWORD PTR __Plast$[ebp]
	cmp	eax, DWORD PTR __Last$[ebp]
	jae	SHORT $LN5@Partition_
	push	2695					; 00000a87H
	push	OFFSET ??_C@_1JC@ELNBGKIG@?$AAc?$AA?3?$AA?2?$AAp?$AAr?$AAo?$AAg?$AAr?$AAa?$AAm?$AA?5?$AAf?$AAi?$AAl?$AAe?$AAs?$AA?5?$AA?$CI?$AAx?$AA8?$AA6?$AA?$CJ?$AA?2?$AAm?$AAi?$AAc?$AAr?$AAo?$AAs?$AAo?$AAf?$AAt@
	mov	eax, DWORD PTR __Pfirst$[ebp]
	push	eax
	mov	ecx, DWORD PTR __Plast$[ebp]
	push	ecx
	mov	edx, DWORD PTR __Pred$[ebp]
	push	edx
	call	??$_Debug_lt_pred@AAU?$less@X@std@@AAUOption@CCustomMenu@@AAU34@@std@@YA_NAAU?$less@X@0@AAUOption@CCustomMenu@@1PB_WI@Z ; std::_Debug_lt_pred<std::less<void> &,CCustomMenu::Option &,CCustomMenu::Option &>
	add	esp, 20					; 00000014H
	movzx	eax, al
	test	eax, eax
	jne	SHORT $LN5@Partition_
	mov	eax, DWORD PTR __Plast$[ebp]
	push	eax
	mov	ecx, DWORD PTR __Pfirst$[ebp]
	push	ecx
	mov	ecx, DWORD PTR __Pred$[ebp]
	call	??$?RAAUOption@CCustomMenu@@AAU01@@?$less@X@std@@QBE_NAAUOption@CCustomMenu@@0@Z ; std::less<void>::operator()<CCustomMenu::Option &,CCustomMenu::Option &>
	movzx	edx, al
	test	edx, edx
	jne	SHORT $LN5@Partition_

; 2697 : 		++_Plast;

	mov	eax, DWORD PTR __Plast$[ebp]
	add	eax, 32					; 00000020H
	mov	DWORD PTR __Plast$[ebp], eax
	jmp	SHORT $LN4@Partition_
$LN5@Partition_:

; 2698 : 
; 2699 : 	_RanIt _Gfirst = _Plast;

	mov	eax, DWORD PTR __Plast$[ebp]
	mov	DWORD PTR __Gfirst$[ebp], eax

; 2700 : 	_RanIt _Glast = _Pfirst;

	mov	eax, DWORD PTR __Pfirst$[ebp]
	mov	DWORD PTR __Glast$[ebp], eax
$LN8@Partition_:

; 2701 : 
; 2702 : 	for (; ; )
; 2703 : 		{	// partition
; 2704 : 		for (; _Gfirst < _Last; ++_Gfirst)

	jmp	SHORT $LN11@Partition_
$LN9@Partition_:
	mov	eax, DWORD PTR __Gfirst$[ebp]
	add	eax, 32					; 00000020H
	mov	DWORD PTR __Gfirst$[ebp], eax
$LN11@Partition_:
	mov	eax, DWORD PTR __Gfirst$[ebp]
	cmp	eax, DWORD PTR __Last$[ebp]
	jae	$LN10@Partition_

; 2705 : 			if (_DEBUG_LT_PRED(_Pred, *_Pfirst, *_Gfirst))

	push	2705					; 00000a91H
	push	OFFSET ??_C@_1JC@ELNBGKIG@?$AAc?$AA?3?$AA?2?$AAp?$AAr?$AAo?$AAg?$AAr?$AAa?$AAm?$AA?5?$AAf?$AAi?$AAl?$AAe?$AAs?$AA?5?$AA?$CI?$AAx?$AA8?$AA6?$AA?$CJ?$AA?2?$AAm?$AAi?$AAc?$AAr?$AAo?$AAs?$AAo?$AAf?$AAt@
	mov	eax, DWORD PTR __Gfirst$[ebp]
	push	eax
	mov	ecx, DWORD PTR __Pfirst$[ebp]
	push	ecx
	mov	edx, DWORD PTR __Pred$[ebp]
	push	edx
	call	??$_Debug_lt_pred@AAU?$less@X@std@@AAUOption@CCustomMenu@@AAU34@@std@@YA_NAAU?$less@X@0@AAUOption@CCustomMenu@@1PB_WI@Z ; std::_Debug_lt_pred<std::less<void> &,CCustomMenu::Option &,CCustomMenu::Option &>
	add	esp, 20					; 00000014H
	movzx	eax, al
	test	eax, eax
	je	SHORT $LN15@Partition_
	jmp	SHORT $LN16@Partition_
$LN15@Partition_:

; 2706 : 				;
; 2707 : 			else if (_Pred(*_Gfirst, *_Pfirst))

	mov	eax, DWORD PTR __Pfirst$[ebp]
	push	eax
	mov	ecx, DWORD PTR __Gfirst$[ebp]
	push	ecx
	mov	ecx, DWORD PTR __Pred$[ebp]
	call	??$?RAAUOption@CCustomMenu@@AAU01@@?$less@X@std@@QBE_NAAUOption@CCustomMenu@@0@Z ; std::less<void>::operator()<CCustomMenu::Option &,CCustomMenu::Option &>
	movzx	edx, al
	test	edx, edx
	je	SHORT $LN17@Partition_

; 2708 : 				break;

	jmp	SHORT $LN10@Partition_
	jmp	SHORT $LN16@Partition_
$LN17@Partition_:

; 2709 : 			else if (_Plast++ != _Gfirst)

	mov	eax, DWORD PTR __Plast$[ebp]
	mov	DWORD PTR tv159[ebp], eax
	mov	ecx, DWORD PTR __Gfirst$[ebp]
	mov	DWORD PTR tv160[ebp], ecx
	mov	edx, DWORD PTR __Plast$[ebp]
	add	edx, 32					; 00000020H
	mov	DWORD PTR __Plast$[ebp], edx
	mov	eax, DWORD PTR tv159[ebp]
	cmp	eax, DWORD PTR tv160[ebp]
	je	SHORT $LN33@Partition_
	mov	DWORD PTR tv161[ebp], 1
	jmp	SHORT $LN34@Partition_
$LN33@Partition_:
	mov	DWORD PTR tv161[ebp], 0
$LN34@Partition_:
	cmp	DWORD PTR tv161[ebp], 0
	je	SHORT $LN16@Partition_

; 2710 : 				_STD iter_swap(_Plast - 1, _Gfirst);

	mov	eax, DWORD PTR __Gfirst$[ebp]
	push	eax
	mov	ecx, DWORD PTR __Plast$[ebp]
	sub	ecx, 32					; 00000020H
	push	ecx
	call	??$iter_swap@PAUOption@CCustomMenu@@PAU12@@std@@YAXPAUOption@CCustomMenu@@0@Z ; std::iter_swap<CCustomMenu::Option *,CCustomMenu::Option *>
	add	esp, 8
$LN16@Partition_:

; 2711 : 		for (; _First < _Glast; --_Glast)

	jmp	$LN9@Partition_
$LN10@Partition_:
	jmp	SHORT $LN14@Partition_
$LN12@Partition_:
	mov	eax, DWORD PTR __Glast$[ebp]
	sub	eax, 32					; 00000020H
	mov	DWORD PTR __Glast$[ebp], eax
$LN14@Partition_:
	mov	eax, DWORD PTR __First$[ebp]
	cmp	eax, DWORD PTR __Glast$[ebp]
	jae	SHORT $LN13@Partition_

; 2712 : 			if (_DEBUG_LT_PRED(_Pred, *(_Glast - 1), *_Pfirst))

	push	2712					; 00000a98H
	push	OFFSET ??_C@_1JC@ELNBGKIG@?$AAc?$AA?3?$AA?2?$AAp?$AAr?$AAo?$AAg?$AAr?$AAa?$AAm?$AA?5?$AAf?$AAi?$AAl?$AAe?$AAs?$AA?5?$AA?$CI?$AAx?$AA8?$AA6?$AA?$CJ?$AA?2?$AAm?$AAi?$AAc?$AAr?$AAo?$AAs?$AAo?$AAf?$AAt@
	mov	eax, DWORD PTR __Pfirst$[ebp]
	push	eax
	mov	ecx, DWORD PTR __Glast$[ebp]
	sub	ecx, 32					; 00000020H
	push	ecx
	mov	edx, DWORD PTR __Pred$[ebp]
	push	edx
	call	??$_Debug_lt_pred@AAU?$less@X@std@@AAUOption@CCustomMenu@@AAU34@@std@@YA_NAAU?$less@X@0@AAUOption@CCustomMenu@@1PB_WI@Z ; std::_Debug_lt_pred<std::less<void> &,CCustomMenu::Option &,CCustomMenu::Option &>
	add	esp, 20					; 00000014H
	movzx	eax, al
	test	eax, eax
	je	SHORT $LN20@Partition_
	jmp	SHORT $LN21@Partition_
$LN20@Partition_:

; 2713 : 				;
; 2714 : 			else if (_Pred(*_Pfirst, *(_Glast - 1)))

	mov	eax, DWORD PTR __Glast$[ebp]
	sub	eax, 32					; 00000020H
	push	eax
	mov	ecx, DWORD PTR __Pfirst$[ebp]
	push	ecx
	mov	ecx, DWORD PTR __Pred$[ebp]
	call	??$?RAAUOption@CCustomMenu@@AAU01@@?$less@X@std@@QBE_NAAUOption@CCustomMenu@@0@Z ; std::less<void>::operator()<CCustomMenu::Option &,CCustomMenu::Option &>
	movzx	edx, al
	test	edx, edx
	je	SHORT $LN22@Partition_

; 2715 : 				break;

	jmp	SHORT $LN13@Partition_
	jmp	SHORT $LN21@Partition_
$LN22@Partition_:

; 2716 : 			else if (--_Pfirst != _Glast - 1)

	mov	eax, DWORD PTR __Pfirst$[ebp]
	sub	eax, 32					; 00000020H
	mov	DWORD PTR __Pfirst$[ebp], eax
	mov	ecx, DWORD PTR __Glast$[ebp]
	sub	ecx, 32					; 00000020H
	cmp	DWORD PTR __Pfirst$[ebp], ecx
	je	SHORT $LN21@Partition_

; 2717 : 				_STD iter_swap(_Pfirst, _Glast - 1);

	mov	eax, DWORD PTR __Glast$[ebp]
	sub	eax, 32					; 00000020H
	push	eax
	mov	ecx, DWORD PTR __Pfirst$[ebp]
	push	ecx
	call	??$iter_swap@PAUOption@CCustomMenu@@PAU12@@std@@YAXPAUOption@CCustomMenu@@0@Z ; std::iter_swap<CCustomMenu::Option *,CCustomMenu::Option *>
	add	esp, 8
$LN21@Partition_:

; 2718 : 		if (_Glast == _First && _Gfirst == _Last)

	jmp	$LN12@Partition_
$LN13@Partition_:
	mov	eax, DWORD PTR __Glast$[ebp]
	cmp	eax, DWORD PTR __First$[ebp]
	jne	SHORT $LN25@Partition_
	mov	eax, DWORD PTR __Gfirst$[ebp]
	cmp	eax, DWORD PTR __Last$[ebp]
	jne	SHORT $LN25@Partition_

; 2719 : 			return (pair<_RanIt, _RanIt>(_Pfirst, _Plast));

	lea	eax, DWORD PTR __Plast$[ebp]
	push	eax
	lea	ecx, DWORD PTR __Pfirst$[ebp]
	push	ecx
	mov	ecx, DWORD PTR ___$ReturnUdt$[ebp]
	call	??$?0AAPAUOption@CCustomMenu@@AAPAU01@X$0A@@?$pair@PAUOption@CCustomMenu@@PAU12@@std@@QAE@AAPAUOption@CCustomMenu@@0@Z ; std::pair<CCustomMenu::Option *,CCustomMenu::Option *>::pair<CCustomMenu::Option *,CCustomMenu::Option *><CCustomMenu::Option * &,CCustomMenu::Option * &,void,0>
	mov	eax, DWORD PTR ___$ReturnUdt$[ebp]
	jmp	$LN1@Partition_
$LN25@Partition_:

; 2720 : 
; 2721 : 		if (_Glast == _First)

	mov	eax, DWORD PTR __Glast$[ebp]
	cmp	eax, DWORD PTR __First$[ebp]
	jne	SHORT $LN26@Partition_

; 2722 : 			{	// no room at bottom, rotate pivot upward
; 2723 : 			if (_Plast != _Gfirst)

	mov	eax, DWORD PTR __Plast$[ebp]
	cmp	eax, DWORD PTR __Gfirst$[ebp]
	je	SHORT $LN28@Partition_

; 2724 : 				_STD iter_swap(_Pfirst, _Plast);

	mov	eax, DWORD PTR __Plast$[ebp]
	push	eax
	mov	ecx, DWORD PTR __Pfirst$[ebp]
	push	ecx
	call	??$iter_swap@PAUOption@CCustomMenu@@PAU12@@std@@YAXPAUOption@CCustomMenu@@0@Z ; std::iter_swap<CCustomMenu::Option *,CCustomMenu::Option *>
	add	esp, 8
$LN28@Partition_:

; 2725 : 			++_Plast;

	mov	eax, DWORD PTR __Plast$[ebp]
	add	eax, 32					; 00000020H
	mov	DWORD PTR __Plast$[ebp], eax

; 2726 : 			_STD iter_swap(_Pfirst++, _Gfirst++);

	mov	eax, DWORD PTR __Gfirst$[ebp]
	mov	DWORD PTR tv201[ebp], eax
	mov	ecx, DWORD PTR __Gfirst$[ebp]
	add	ecx, 32					; 00000020H
	mov	DWORD PTR __Gfirst$[ebp], ecx
	mov	edx, DWORD PTR __Pfirst$[ebp]
	mov	DWORD PTR tv204[ebp], edx
	mov	eax, DWORD PTR __Pfirst$[ebp]
	add	eax, 32					; 00000020H
	mov	DWORD PTR __Pfirst$[ebp], eax
	mov	ecx, DWORD PTR tv201[ebp]
	push	ecx
	mov	edx, DWORD PTR tv204[ebp]
	push	edx
	call	??$iter_swap@PAUOption@CCustomMenu@@PAU12@@std@@YAXPAUOption@CCustomMenu@@0@Z ; std::iter_swap<CCustomMenu::Option *,CCustomMenu::Option *>
	add	esp, 8
	jmp	SHORT $LN27@Partition_
$LN26@Partition_:

; 2727 : 			}
; 2728 : 		else if (_Gfirst == _Last)

	mov	eax, DWORD PTR __Gfirst$[ebp]
	cmp	eax, DWORD PTR __Last$[ebp]
	jne	SHORT $LN29@Partition_

; 2729 : 			{	// no room at top, rotate pivot downward
; 2730 : 			if (--_Glast != --_Pfirst)

	mov	eax, DWORD PTR __Glast$[ebp]
	sub	eax, 32					; 00000020H
	mov	DWORD PTR __Glast$[ebp], eax
	mov	ecx, DWORD PTR __Pfirst$[ebp]
	sub	ecx, 32					; 00000020H
	mov	DWORD PTR __Pfirst$[ebp], ecx
	mov	edx, DWORD PTR __Glast$[ebp]
	cmp	edx, DWORD PTR __Pfirst$[ebp]
	je	SHORT $LN31@Partition_

; 2731 : 				_STD iter_swap(_Glast, _Pfirst);

	mov	eax, DWORD PTR __Pfirst$[ebp]
	push	eax
	mov	ecx, DWORD PTR __Glast$[ebp]
	push	ecx
	call	??$iter_swap@PAUOption@CCustomMenu@@PAU12@@std@@YAXPAUOption@CCustomMenu@@0@Z ; std::iter_swap<CCustomMenu::Option *,CCustomMenu::Option *>
	add	esp, 8
$LN31@Partition_:

; 2732 : 			_STD iter_swap(_Pfirst, --_Plast);

	mov	eax, DWORD PTR __Plast$[ebp]
	sub	eax, 32					; 00000020H
	mov	DWORD PTR __Plast$[ebp], eax
	mov	ecx, DWORD PTR __Plast$[ebp]
	push	ecx
	mov	edx, DWORD PTR __Pfirst$[ebp]
	push	edx
	call	??$iter_swap@PAUOption@CCustomMenu@@PAU12@@std@@YAXPAUOption@CCustomMenu@@0@Z ; std::iter_swap<CCustomMenu::Option *,CCustomMenu::Option *>
	add	esp, 8

; 2733 : 			}
; 2734 : 		else

	jmp	SHORT $LN27@Partition_
$LN29@Partition_:

; 2735 : 			_STD iter_swap(_Gfirst++, --_Glast);

	mov	eax, DWORD PTR __Glast$[ebp]
	sub	eax, 32					; 00000020H
	mov	DWORD PTR __Glast$[ebp], eax
	mov	ecx, DWORD PTR __Gfirst$[ebp]
	mov	DWORD PTR tv218[ebp], ecx
	mov	edx, DWORD PTR __Gfirst$[ebp]
	add	edx, 32					; 00000020H
	mov	DWORD PTR __Gfirst$[ebp], edx
	mov	eax, DWORD PTR __Glast$[ebp]
	push	eax
	mov	ecx, DWORD PTR tv218[ebp]
	push	ecx
	call	??$iter_swap@PAUOption@CCustomMenu@@PAU12@@std@@YAXPAUOption@CCustomMenu@@0@Z ; std::iter_swap<CCustomMenu::Option *,CCustomMenu::Option *>
	add	esp, 8
$LN27@Partition_:

; 2736 : 		}

	jmp	$LN8@Partition_
$LN1@Partition_:

; 2737 : 	}

	push	edx
	mov	ecx, ebp
	push	eax
	lea	edx, DWORD PTR $LN38@Partition_
	call	@_RTC_CheckStackVars@8
	pop	eax
	pop	edx
	pop	edi
	pop	esi
	pop	ebx
	add	esp, 264				; 00000108H
	cmp	ebp, esp
	call	__RTC_CheckEsp
	mov	esp, ebp
	pop	ebp
	ret	0
	npad	3
$LN38@Partition_:
	DD	2
	DD	$LN37@Partition_
$LN37@Partition_:
	DD	-20					; ffffffecH
	DD	4
	DD	$LN35@Partition_
	DD	-32					; ffffffe0H
	DD	4
	DD	$LN36@Partition_
$LN36@Partition_:
	DB	95					; 0000005fH
	DB	80					; 00000050H
	DB	108					; 0000006cH
	DB	97					; 00000061H
	DB	115					; 00000073H
	DB	116					; 00000074H
	DB	0
$LN35@Partition_:
	DB	95					; 0000005fH
	DB	80					; 00000050H
	DB	102					; 00000066H
	DB	105					; 00000069H
	DB	114					; 00000072H
	DB	115					; 00000073H
	DB	116					; 00000074H
	DB	0
??$_Partition_by_median_guess_unchecked@PAUOption@CCustomMenu@@U?$less@X@std@@@std@@YA?AU?$pair@PAUOption@CCustomMenu@@PAU12@@0@PAUOption@CCustomMenu@@0AAU?$less@X@0@@Z ENDP ; std::_Partition_by_median_guess_unchecked<CCustomMenu::Option *,std::less<void> >
_TEXT	ENDS
; Function compile flags: /Odtp /RTCsu /ZI
; File c:\program files (x86)\microsoft visual studio 14.0\vc\include\xmemory0
;	COMDAT ??$destroy@UOption@CCustomMenu@@@?$allocator_traits@V?$allocator@UOption@CCustomMenu@@@std@@@std@@SAXAAV?$allocator@UOption@CCustomMenu@@@1@PAUOption@CCustomMenu@@@Z
_TEXT	SEGMENT
__Al$ = 8						; size = 4
__Ptr$ = 12						; size = 4
??$destroy@UOption@CCustomMenu@@@?$allocator_traits@V?$allocator@UOption@CCustomMenu@@@std@@@std@@SAXAAV?$allocator@UOption@CCustomMenu@@@1@PAUOption@CCustomMenu@@@Z PROC ; std::allocator_traits<std::allocator<CCustomMenu::Option> >::destroy<CCustomMenu::Option>, COMDAT

; 863  : 		{	// destroy object at _Ptr

	push	ebp
	mov	ebp, esp
	sub	esp, 192				; 000000c0H
	push	ebx
	push	esi
	push	edi
	lea	edi, DWORD PTR [ebp-192]
	mov	ecx, 48					; 00000030H
	mov	eax, -858993460				; ccccccccH
	rep stosd

; 864  : 		_Al.destroy(_Ptr);

	mov	eax, DWORD PTR __Ptr$[ebp]
	push	eax
	mov	ecx, DWORD PTR __Al$[ebp]
	call	??$destroy@UOption@CCustomMenu@@@?$allocator@UOption@CCustomMenu@@@std@@QAEXPAUOption@CCustomMenu@@@Z ; std::allocator<CCustomMenu::Option>::destroy<CCustomMenu::Option>

; 865  : 		}

	pop	edi
	pop	esi
	pop	ebx
	add	esp, 192				; 000000c0H
	cmp	ebp, esp
	call	__RTC_CheckEsp
	mov	esp, ebp
	pop	ebp
	ret	0
??$destroy@UOption@CCustomMenu@@@?$allocator_traits@V?$allocator@UOption@CCustomMenu@@@std@@@std@@SAXAAV?$allocator@UOption@CCustomMenu@@@1@PAUOption@CCustomMenu@@@Z ENDP ; std::allocator_traits<std::allocator<CCustomMenu::Option> >::destroy<CCustomMenu::Option>
_TEXT	ENDS
; Function compile flags: /Odtp /RTCsu /ZI
; File c:\program files (x86)\microsoft visual studio 14.0\vc\include\xutility
;	COMDAT ??$?0U?$integral_constant@_N$00@std@@@_Any_tag@std@@QAE@$$QAU?$integral_constant@_N$00@1@@Z
_TEXT	SEGMENT
_this$ = -8						; size = 4
___formal$ = 8						; size = 4
??$?0U?$integral_constant@_N$00@std@@@_Any_tag@std@@QAE@$$QAU?$integral_constant@_N$00@1@@Z PROC ; std::_Any_tag::_Any_tag<std::integral_constant<bool,1> >, COMDAT
; _this$ = ecx

; 554  : 		constexpr _Any_tag(_Ty&&) _NOEXCEPT {}

	push	ebp
	mov	ebp, esp
	sub	esp, 204				; 000000ccH
	push	ebx
	push	esi
	push	edi
	push	ecx
	lea	edi, DWORD PTR [ebp-204]
	mov	ecx, 51					; 00000033H
	mov	eax, -858993460				; ccccccccH
	rep stosd
	pop	ecx
	mov	DWORD PTR _this$[ebp], ecx
	mov	eax, DWORD PTR _this$[ebp]
	pop	edi
	pop	esi
	pop	ebx
	mov	esp, ebp
	pop	ebp
	ret	4
??$?0U?$integral_constant@_N$00@std@@@_Any_tag@std@@QAE@$$QAU?$integral_constant@_N$00@1@@Z ENDP ; std::_Any_tag::_Any_tag<std::integral_constant<bool,1> >
_TEXT	ENDS
; Function compile flags: /Odtp /RTCsu /ZI
; File c:\program files (x86)\microsoft visual studio 14.0\vc\include\xmemory
;	COMDAT ??$_Uninitialized_move_al_unchecked1@PAUOption@CCustomMenu@@PAU12@V?$allocator@UOption@CCustomMenu@@@std@@@std@@YAPAUOption@CCustomMenu@@PAU12@00AAU?$_Wrap_alloc@V?$allocator@UOption@CCustomMenu@@@std@@@0@U_General_ptr_iterator_tag@0@U_Any_tag@0@@Z
_TEXT	SEGMENT
tv80 = -224						; size = 4
__Next$ = -24						; size = 4
__$EHRec$ = -16						; size = 16
__First$ = 8						; size = 4
__Last$ = 12						; size = 4
__Dest$ = 16						; size = 4
__Al$ = 20						; size = 4
___formal$ = 24						; size = 1
___formal$ = 28						; size = 1
??$_Uninitialized_move_al_unchecked1@PAUOption@CCustomMenu@@PAU12@V?$allocator@UOption@CCustomMenu@@@std@@@std@@YAPAUOption@CCustomMenu@@PAU12@00AAU?$_Wrap_alloc@V?$allocator@UOption@CCustomMenu@@@std@@@0@U_General_ptr_iterator_tag@0@U_Any_tag@0@@Z PROC ; std::_Uninitialized_move_al_unchecked1<CCustomMenu::Option *,CCustomMenu::Option *,std::allocator<CCustomMenu::Option> >, COMDAT

; 273  : 	{	// move [_First, _Last) to raw _Dest, using _Al, no special optimization

	push	ebp
	mov	ebp, esp
	push	-1
	push	__ehhandler$??$_Uninitialized_move_al_unchecked1@PAUOption@CCustomMenu@@PAU12@V?$allocator@UOption@CCustomMenu@@@std@@@std@@YAPAUOption@CCustomMenu@@PAU12@00AAU?$_Wrap_alloc@V?$allocator@UOption@CCustomMenu@@@std@@@0@U_General_ptr_iterator_tag@0@U_Any_tag@0@@Z
	mov	eax, DWORD PTR fs:0
	push	eax
	push	ecx
	sub	esp, 208				; 000000d0H
	push	ebx
	push	esi
	push	edi
	lea	edi, DWORD PTR [ebp-224]
	mov	ecx, 52					; 00000034H
	mov	eax, -858993460				; ccccccccH
	rep stosd
	mov	eax, DWORD PTR ___security_cookie
	xor	eax, ebp
	push	eax
	lea	eax, DWORD PTR __$EHRec$[ebp+4]
	mov	DWORD PTR fs:0, eax
	mov	DWORD PTR __$EHRec$[ebp], esp

; 274  : 	_FwdIt _Next = _Dest;

	mov	eax, DWORD PTR __Dest$[ebp]
	mov	DWORD PTR __Next$[ebp], eax

; 275  : 
; 276  : 	_TRY_BEGIN

	mov	DWORD PTR __$EHRec$[ebp+12], 0

; 277  : 	for (; _First != _Last; ++_Dest, (void)++_First)

	jmp	SHORT $LN4@Uninitiali
$LN2@Uninitiali:
	mov	eax, DWORD PTR __Dest$[ebp]
	add	eax, 32					; 00000020H
	mov	DWORD PTR __Dest$[ebp], eax
	mov	ecx, DWORD PTR __First$[ebp]
	add	ecx, 32					; 00000020H
	mov	DWORD PTR __First$[ebp], ecx
$LN4@Uninitiali:
	mov	eax, DWORD PTR __First$[ebp]
	cmp	eax, DWORD PTR __Last$[ebp]
	je	SHORT $LN3@Uninitiali

; 278  : 		_Al.construct(_Unfancy(_Dest), _STD move(*_First));

	mov	eax, DWORD PTR __Dest$[ebp]
	push	eax
	call	??$_Unfancy@UOption@CCustomMenu@@@std@@YAPAUOption@CCustomMenu@@PAU12@@Z ; std::_Unfancy<CCustomMenu::Option>
	add	esp, 4
	mov	DWORD PTR tv80[ebp], eax
	mov	ecx, DWORD PTR __First$[ebp]
	push	ecx
	call	??$move@AAUOption@CCustomMenu@@@std@@YA$$QAUOption@CCustomMenu@@AAU12@@Z ; std::move<CCustomMenu::Option &>
	add	esp, 4
	push	eax
	mov	edx, DWORD PTR tv80[ebp]
	push	edx
	mov	ecx, DWORD PTR __Al$[ebp]
	call	??$construct@UOption@CCustomMenu@@U12@@?$_Wrap_alloc@V?$allocator@UOption@CCustomMenu@@@std@@@std@@QAEXPAUOption@CCustomMenu@@$$QAU23@@Z ; std::_Wrap_alloc<std::allocator<CCustomMenu::Option> >::construct<CCustomMenu::Option,CCustomMenu::Option>
	jmp	SHORT $LN2@Uninitiali
$LN3@Uninitiali:
	jmp	SHORT $LN7@Uninitiali
__catch$??$_Uninitialized_move_al_unchecked1@PAUOption@CCustomMenu@@PAU12@V?$allocator@UOption@CCustomMenu@@@std@@@std@@YAPAUOption@CCustomMenu@@PAU12@00AAU?$_Wrap_alloc@V?$allocator@UOption@CCustomMenu@@@std@@@0@U_General_ptr_iterator_tag@0@U_Any_tag@0@@Z$0:

; 279  : 	_CATCH_ALL
; 280  : 	_Destroy_range(_Next, _Dest, _Al);

	mov	eax, DWORD PTR __Al$[ebp]
	push	eax
	mov	ecx, DWORD PTR __Dest$[ebp]
	push	ecx
	mov	edx, DWORD PTR __Next$[ebp]
	push	edx
	call	??$_Destroy_range@V?$allocator@UOption@CCustomMenu@@@std@@PAUOption@CCustomMenu@@@std@@YAXPAUOption@CCustomMenu@@0AAU?$_Wrap_alloc@V?$allocator@UOption@CCustomMenu@@@std@@@0@@Z ; std::_Destroy_range<std::allocator<CCustomMenu::Option>,CCustomMenu::Option *>
	add	esp, 12					; 0000000cH

; 281  : 	_RERAISE;

	push	0
	push	0
	call	__CxxThrowException@8

; 282  : 	_CATCH_END

	mov	eax, $LN10@Uninitiali
	ret	0
$LN7@Uninitiali:
	mov	DWORD PTR __$EHRec$[ebp+12], -1
	jmp	SHORT __tryend$??$_Uninitialized_move_al_unchecked1@PAUOption@CCustomMenu@@PAU12@V?$allocator@UOption@CCustomMenu@@@std@@@std@@YAPAUOption@CCustomMenu@@PAU12@00AAU?$_Wrap_alloc@V?$allocator@UOption@CCustomMenu@@@std@@@0@U_General_ptr_iterator_tag@0@U_Any_tag@0@@Z$1
$LN10@Uninitiali:
	mov	DWORD PTR __$EHRec$[ebp+12], -1
__tryend$??$_Uninitialized_move_al_unchecked1@PAUOption@CCustomMenu@@PAU12@V?$allocator@UOption@CCustomMenu@@@std@@@std@@YAPAUOption@CCustomMenu@@PAU12@00AAU?$_Wrap_alloc@V?$allocator@UOption@CCustomMenu@@@std@@@0@U_General_ptr_iterator_tag@0@U_Any_tag@0@@Z$1:

; 283  : 
; 284  : 	return (_Dest);

	mov	eax, DWORD PTR __Dest$[ebp]
$LN6@Uninitiali:

; 285  : 	}

	mov	ecx, DWORD PTR __$EHRec$[ebp+4]
	mov	DWORD PTR fs:0, ecx
	pop	ecx
	pop	edi
	pop	esi
	pop	ebx
	add	esp, 224				; 000000e0H
	cmp	ebp, esp
	call	__RTC_CheckEsp
	mov	esp, ebp
	pop	ebp
	ret	0
_TEXT	ENDS
;	COMDAT text$x
text$x	SEGMENT
__ehhandler$??$_Uninitialized_move_al_unchecked1@PAUOption@CCustomMenu@@PAU12@V?$allocator@UOption@CCustomMenu@@@std@@@std@@YAPAUOption@CCustomMenu@@PAU12@00AAU?$_Wrap_alloc@V?$allocator@UOption@CCustomMenu@@@std@@@0@U_General_ptr_iterator_tag@0@U_Any_tag@0@@Z:
	mov	edx, DWORD PTR [esp+8]
	lea	eax, DWORD PTR [edx+12]
	mov	ecx, DWORD PTR [edx-228]
	xor	ecx, eax
	call	@__security_check_cookie@4
	mov	eax, OFFSET __ehfuncinfo$??$_Uninitialized_move_al_unchecked1@PAUOption@CCustomMenu@@PAU12@V?$allocator@UOption@CCustomMenu@@@std@@@std@@YAPAUOption@CCustomMenu@@PAU12@00AAU?$_Wrap_alloc@V?$allocator@UOption@CCustomMenu@@@std@@@0@U_General_ptr_iterator_tag@0@U_Any_tag@0@@Z
	jmp	___CxxFrameHandler3
text$x	ENDS
??$_Uninitialized_move_al_unchecked1@PAUOption@CCustomMenu@@PAU12@V?$allocator@UOption@CCustomMenu@@@std@@@std@@YAPAUOption@CCustomMenu@@PAU12@00AAU?$_Wrap_alloc@V?$allocator@UOption@CCustomMenu@@@std@@@0@U_General_ptr_iterator_tag@0@U_Any_tag@0@@Z ENDP ; std::_Uninitialized_move_al_unchecked1<CCustomMenu::Option *,CCustomMenu::Option *,std::allocator<CCustomMenu::Option> >
; Function compile flags: /Odtp /RTCsu /ZI
; File c:\program files (x86)\microsoft visual studio 14.0\vc\include\xutility
;	COMDAT ??$_Ptr_move_cat@UOption@CCustomMenu@@U12@@std@@YA?AU_General_ptr_iterator_tag@0@ABQAUOption@CCustomMenu@@0@Z
_TEXT	SEGMENT
$T1 = -197						; size = 1
___formal$ = 8						; size = 4
___formal$ = 12						; size = 4
??$_Ptr_move_cat@UOption@CCustomMenu@@U12@@std@@YA?AU_General_ptr_iterator_tag@0@ABQAUOption@CCustomMenu@@0@Z PROC ; std::_Ptr_move_cat<CCustomMenu::Option,CCustomMenu::Option>, COMDAT

; 809  : 	{	// return pointer move optimization category for pointers

	push	ebp
	mov	ebp, esp
	sub	esp, 204				; 000000ccH
	push	ebx
	push	esi
	push	edi
	lea	edi, DWORD PTR [ebp-204]
	mov	ecx, 51					; 00000033H
	mov	eax, -858993460				; ccccccccH
	rep stosd

; 810  : 	return {};

	xor	eax, eax
	mov	BYTE PTR $T1[ebp], al
	mov	al, BYTE PTR $T1[ebp]

; 811  : 	}

	pop	edi
	pop	esi
	pop	ebx
	mov	esp, ebp
	pop	ebp
	ret	0
??$_Ptr_move_cat@UOption@CCustomMenu@@U12@@std@@YA?AU_General_ptr_iterator_tag@0@ABQAUOption@CCustomMenu@@0@Z ENDP ; std::_Ptr_move_cat<CCustomMenu::Option,CCustomMenu::Option>
_TEXT	ENDS
; Function compile flags: /Odtp /RTCsu /ZI
; File c:\program files (x86)\microsoft visual studio 14.0\vc\include\type_traits
;	COMDAT ??$move@AAUOption@CCustomMenu@@@std@@YA$$QAUOption@CCustomMenu@@AAU12@@Z
_TEXT	SEGMENT
__Arg$ = 8						; size = 4
??$move@AAUOption@CCustomMenu@@@std@@YA$$QAUOption@CCustomMenu@@AAU12@@Z PROC ; std::move<CCustomMenu::Option &>, COMDAT

; 1291 : 	{	// forward _Arg as movable

	push	ebp
	mov	ebp, esp
	sub	esp, 192				; 000000c0H
	push	ebx
	push	esi
	push	edi
	lea	edi, DWORD PTR [ebp-192]
	mov	ecx, 48					; 00000030H
	mov	eax, -858993460				; ccccccccH
	rep stosd

; 1292 : 	return (static_cast<typename remove_reference<_Ty>::type&&>(_Arg));

	mov	eax, DWORD PTR __Arg$[ebp]

; 1293 : 	}

	pop	edi
	pop	esi
	pop	ebx
	mov	esp, ebp
	pop	ebp
	ret	0
??$move@AAUOption@CCustomMenu@@@std@@YA$$QAUOption@CCustomMenu@@AAU12@@Z ENDP ; std::move<CCustomMenu::Option &>
_TEXT	ENDS
; Function compile flags: /Odtp /RTCsu /ZI
; File c:\program files (x86)\microsoft visual studio 14.0\vc\include\algorithm
;	COMDAT ??$_Sort_unchecked1@PAUOption@CCustomMenu@@HU?$less@X@std@@@std@@YAXPAUOption@CCustomMenu@@0HAAU?$less@X@0@@Z
_TEXT	SEGMENT
__Mid$1 = -24						; size = 8
__Count$ = -8						; size = 4
__First$ = 8						; size = 4
__Last$ = 12						; size = 4
__Ideal$ = 16						; size = 4
__Pred$ = 20						; size = 4
??$_Sort_unchecked1@PAUOption@CCustomMenu@@HU?$less@X@std@@@std@@YAXPAUOption@CCustomMenu@@0HAAU?$less@X@0@@Z PROC ; std::_Sort_unchecked1<CCustomMenu::Option *,int,std::less<void> >, COMDAT

; 2743 : 	{	// order [_First, _Last), using _Pred

	push	ebp
	mov	ebp, esp
	sub	esp, 220				; 000000dcH
	push	ebx
	push	esi
	push	edi
	lea	edi, DWORD PTR [ebp-220]
	mov	ecx, 55					; 00000037H
	mov	eax, -858993460				; ccccccccH
	rep stosd
$LN2@Sort_unche:

; 2744 : 	_Diff _Count;
; 2745 : 	while (_ISORT_MAX < (_Count = _Last - _First) && 0 < _Ideal)

	mov	eax, DWORD PTR __Last$[ebp]
	sub	eax, DWORD PTR __First$[ebp]
	sar	eax, 5
	mov	DWORD PTR __Count$[ebp], eax
	cmp	DWORD PTR __Count$[ebp], 32		; 00000020H
	jle	$LN3@Sort_unche
	cmp	DWORD PTR __Ideal$[ebp], 0
	jle	$LN3@Sort_unche

; 2746 : 		{	// divide and conquer by quicksort
; 2747 : 		pair<_RanIt, _RanIt> _Mid =
; 2748 : 			_Partition_by_median_guess_unchecked(_First, _Last, _Pred);

	mov	eax, DWORD PTR __Pred$[ebp]
	push	eax
	mov	ecx, DWORD PTR __Last$[ebp]
	push	ecx
	mov	edx, DWORD PTR __First$[ebp]
	push	edx
	lea	eax, DWORD PTR __Mid$1[ebp]
	push	eax
	call	??$_Partition_by_median_guess_unchecked@PAUOption@CCustomMenu@@U?$less@X@std@@@std@@YA?AU?$pair@PAUOption@CCustomMenu@@PAU12@@0@PAUOption@CCustomMenu@@0AAU?$less@X@0@@Z ; std::_Partition_by_median_guess_unchecked<CCustomMenu::Option *,std::less<void> >
	add	esp, 16					; 00000010H

; 2749 : 		_Ideal /= 2, _Ideal += _Ideal / 2;	// allow 1.5 log2(N) divisions

	mov	eax, DWORD PTR __Ideal$[ebp]
	cdq
	sub	eax, edx
	sar	eax, 1
	mov	DWORD PTR __Ideal$[ebp], eax
	mov	eax, DWORD PTR __Ideal$[ebp]
	cdq
	sub	eax, edx
	sar	eax, 1
	add	eax, DWORD PTR __Ideal$[ebp]
	mov	DWORD PTR __Ideal$[ebp], eax

; 2750 : 
; 2751 : 		if (_Mid.first - _First < _Last - _Mid.second)

	mov	eax, DWORD PTR __Mid$1[ebp]
	sub	eax, DWORD PTR __First$[ebp]
	sar	eax, 5
	mov	ecx, DWORD PTR __Last$[ebp]
	sub	ecx, DWORD PTR __Mid$1[ebp+4]
	sar	ecx, 5
	cmp	eax, ecx
	jge	SHORT $LN4@Sort_unche

; 2752 : 			{	// loop on second half
; 2753 : 			_Sort_unchecked1(_First, _Mid.first, _Ideal, _Pred);

	mov	eax, DWORD PTR __Pred$[ebp]
	push	eax
	mov	ecx, DWORD PTR __Ideal$[ebp]
	push	ecx
	mov	edx, DWORD PTR __Mid$1[ebp]
	push	edx
	mov	eax, DWORD PTR __First$[ebp]
	push	eax
	call	??$_Sort_unchecked1@PAUOption@CCustomMenu@@HU?$less@X@std@@@std@@YAXPAUOption@CCustomMenu@@0HAAU?$less@X@0@@Z ; std::_Sort_unchecked1<CCustomMenu::Option *,int,std::less<void> >
	add	esp, 16					; 00000010H

; 2754 : 			_First = _Mid.second;

	mov	eax, DWORD PTR __Mid$1[ebp+4]
	mov	DWORD PTR __First$[ebp], eax

; 2755 : 			}
; 2756 : 		else

	jmp	SHORT $LN5@Sort_unche
$LN4@Sort_unche:

; 2757 : 			{	// loop on first half
; 2758 : 			_Sort_unchecked1(_Mid.second, _Last, _Ideal, _Pred);

	mov	eax, DWORD PTR __Pred$[ebp]
	push	eax
	mov	ecx, DWORD PTR __Ideal$[ebp]
	push	ecx
	mov	edx, DWORD PTR __Last$[ebp]
	push	edx
	mov	eax, DWORD PTR __Mid$1[ebp+4]
	push	eax
	call	??$_Sort_unchecked1@PAUOption@CCustomMenu@@HU?$less@X@std@@@std@@YAXPAUOption@CCustomMenu@@0HAAU?$less@X@0@@Z ; std::_Sort_unchecked1<CCustomMenu::Option *,int,std::less<void> >
	add	esp, 16					; 00000010H

; 2759 : 			_Last = _Mid.first;

	mov	eax, DWORD PTR __Mid$1[ebp]
	mov	DWORD PTR __Last$[ebp], eax
$LN5@Sort_unche:

; 2760 : 			}
; 2761 : 		}

	jmp	$LN2@Sort_unche
$LN3@Sort_unche:

; 2762 : 
; 2763 : 	if (_ISORT_MAX < _Count)

	cmp	DWORD PTR __Count$[ebp], 32		; 00000020H
	jle	SHORT $LN6@Sort_unche

; 2764 : 		{	// heap sort if too many divisions
; 2765 : 		_Make_heap_unchecked(_First, _Last, _Pred);

	mov	eax, DWORD PTR __Pred$[ebp]
	push	eax
	mov	ecx, DWORD PTR __Last$[ebp]
	push	ecx
	mov	edx, DWORD PTR __First$[ebp]
	push	edx
	call	??$_Make_heap_unchecked@PAUOption@CCustomMenu@@U?$less@X@std@@@std@@YAXPAUOption@CCustomMenu@@0AAU?$less@X@0@@Z ; std::_Make_heap_unchecked<CCustomMenu::Option *,std::less<void> >
	add	esp, 12					; 0000000cH

; 2766 : 		_Sort_heap_unchecked(_First, _Last, _Pred);

	mov	eax, DWORD PTR __Pred$[ebp]
	push	eax
	mov	ecx, DWORD PTR __Last$[ebp]
	push	ecx
	mov	edx, DWORD PTR __First$[ebp]
	push	edx
	call	??$_Sort_heap_unchecked@PAUOption@CCustomMenu@@U?$less@X@std@@@std@@YAXPAUOption@CCustomMenu@@0AAU?$less@X@0@@Z ; std::_Sort_heap_unchecked<CCustomMenu::Option *,std::less<void> >
	add	esp, 12					; 0000000cH
	jmp	SHORT $LN1@Sort_unche
$LN6@Sort_unche:

; 2767 : 		}
; 2768 : 	else if (2 <= _Count)

	cmp	DWORD PTR __Count$[ebp], 2
	jl	SHORT $LN1@Sort_unche

; 2769 : 		_Insertion_sort_unchecked(_First, _Last, _Pred);	// small

	mov	eax, DWORD PTR __Pred$[ebp]
	push	eax
	mov	ecx, DWORD PTR __Last$[ebp]
	push	ecx
	mov	edx, DWORD PTR __First$[ebp]
	push	edx
	call	??$_Insertion_sort_unchecked@PAUOption@CCustomMenu@@U?$less@X@std@@@std@@YAXPAUOption@CCustomMenu@@0AAU?$less@X@0@@Z ; std::_Insertion_sort_unchecked<CCustomMenu::Option *,std::less<void> >
	add	esp, 12					; 0000000cH
$LN1@Sort_unche:

; 2770 : 	}

	push	edx
	mov	ecx, ebp
	push	eax
	lea	edx, DWORD PTR $LN12@Sort_unche
	call	@_RTC_CheckStackVars@8
	pop	eax
	pop	edx
	pop	edi
	pop	esi
	pop	ebx
	add	esp, 220				; 000000dcH
	cmp	ebp, esp
	call	__RTC_CheckEsp
	mov	esp, ebp
	pop	ebp
	ret	0
	npad	1
$LN12@Sort_unche:
	DD	1
	DD	$LN11@Sort_unche
$LN11@Sort_unche:
	DD	-24					; ffffffe8H
	DD	8
	DD	$LN10@Sort_unche
$LN10@Sort_unche:
	DB	95					; 0000005fH
	DB	77					; 0000004dH
	DB	105					; 00000069H
	DB	100					; 00000064H
	DB	0
??$_Sort_unchecked1@PAUOption@CCustomMenu@@HU?$less@X@std@@@std@@YAXPAUOption@CCustomMenu@@0HAAU?$less@X@0@@Z ENDP ; std::_Sort_unchecked1<CCustomMenu::Option *,int,std::less<void> >
_TEXT	ENDS
; Function compile flags: /Odtp /RTCsu /ZI
; File c:\program files (x86)\microsoft visual studio 14.0\vc\include\xutility
;	COMDAT ??$_Debug_pointer@V?$_Vector_iterator@V?$_Vector_val@U?$_Simple_types@UOption@CCustomMenu@@@std@@@std@@@std@@@std@@YAXAAV?$_Vector_iterator@V?$_Vector_val@U?$_Simple_types@UOption@CCustomMenu@@@std@@@std@@@0@PB_WI@Z
_TEXT	SEGMENT
___formal$ = 8						; size = 4
___formal$ = 12						; size = 4
___formal$ = 16						; size = 4
??$_Debug_pointer@V?$_Vector_iterator@V?$_Vector_val@U?$_Simple_types@UOption@CCustomMenu@@@std@@@std@@@std@@@std@@YAXAAV?$_Vector_iterator@V?$_Vector_val@U?$_Simple_types@UOption@CCustomMenu@@@std@@@std@@@0@PB_WI@Z PROC ; std::_Debug_pointer<std::_Vector_iterator<std::_Vector_val<std::_Simple_types<CCustomMenu::Option> > > >, COMDAT

; 918  : 	{	// (don't) test non-pointer for non-singularity, arbitrary type

	push	ebp
	mov	ebp, esp
	sub	esp, 192				; 000000c0H
	push	ebx
	push	esi
	push	edi
	lea	edi, DWORD PTR [ebp-192]
	mov	ecx, 48					; 00000030H
	mov	eax, -858993460				; ccccccccH
	rep stosd

; 919  : 	}

	pop	edi
	pop	esi
	pop	ebx
	mov	esp, ebp
	pop	ebp
	ret	0
??$_Debug_pointer@V?$_Vector_iterator@V?$_Vector_val@U?$_Simple_types@UOption@CCustomMenu@@@std@@@std@@@std@@@std@@YAXAAV?$_Vector_iterator@V?$_Vector_val@U?$_Simple_types@UOption@CCustomMenu@@@std@@@std@@@0@PB_WI@Z ENDP ; std::_Debug_pointer<std::_Vector_iterator<std::_Vector_val<std::_Simple_types<CCustomMenu::Option> > > >
_TEXT	ENDS
; Function compile flags: /Odtp /RTCsu /ZI
; File c:\program files (x86)\microsoft visual studio 14.0\vc\include\xmemory0
;	COMDAT ??$destroy@UOption@CCustomMenu@@@?$_Wrap_alloc@V?$allocator@UOption@CCustomMenu@@@std@@@std@@QAEXPAUOption@CCustomMenu@@@Z
_TEXT	SEGMENT
_this$ = -8						; size = 4
__Ptr$ = 8						; size = 4
??$destroy@UOption@CCustomMenu@@@?$_Wrap_alloc@V?$allocator@UOption@CCustomMenu@@@std@@@std@@QAEXPAUOption@CCustomMenu@@@Z PROC ; std::_Wrap_alloc<std::allocator<CCustomMenu::Option> >::destroy<CCustomMenu::Option>, COMDAT
; _this$ = ecx

; 1002 : 		{	// destroy object at _Ptr

	push	ebp
	mov	ebp, esp
	sub	esp, 204				; 000000ccH
	push	ebx
	push	esi
	push	edi
	push	ecx
	lea	edi, DWORD PTR [ebp-204]
	mov	ecx, 51					; 00000033H
	mov	eax, -858993460				; ccccccccH
	rep stosd
	pop	ecx
	mov	DWORD PTR _this$[ebp], ecx

; 1003 : 		_Mytraits::destroy(*this, _Ptr);

	mov	eax, DWORD PTR __Ptr$[ebp]
	push	eax
	mov	ecx, DWORD PTR _this$[ebp]
	push	ecx
	call	??$destroy@UOption@CCustomMenu@@@?$allocator_traits@V?$allocator@UOption@CCustomMenu@@@std@@@std@@SAXAAV?$allocator@UOption@CCustomMenu@@@1@PAUOption@CCustomMenu@@@Z ; std::allocator_traits<std::allocator<CCustomMenu::Option> >::destroy<CCustomMenu::Option>
	add	esp, 8

; 1004 : 		}

	pop	edi
	pop	esi
	pop	ebx
	add	esp, 204				; 000000ccH
	cmp	ebp, esp
	call	__RTC_CheckEsp
	mov	esp, ebp
	pop	ebp
	ret	4
??$destroy@UOption@CCustomMenu@@@?$_Wrap_alloc@V?$allocator@UOption@CCustomMenu@@@std@@@std@@QAEXPAUOption@CCustomMenu@@@Z ENDP ; std::_Wrap_alloc<std::allocator<CCustomMenu::Option> >::destroy<CCustomMenu::Option>
_TEXT	ENDS
; Function compile flags: /Odtp /RTCsu /ZI
; File c:\program files (x86)\microsoft visual studio 14.0\vc\include\xutility
;	COMDAT ??$_Rechecked@PAUOption@CCustomMenu@@PAU12@@std@@YAAAPAUOption@CCustomMenu@@AAPAU12@PAU12@@Z
_TEXT	SEGMENT
__Dest$ = 8						; size = 4
__Src$ = 12						; size = 4
??$_Rechecked@PAUOption@CCustomMenu@@PAU12@@std@@YAAAPAUOption@CCustomMenu@@AAPAU12@PAU12@@Z PROC ; std::_Rechecked<CCustomMenu::Option *,CCustomMenu::Option *>, COMDAT

; 457  : 	{	// reset checked from unchecked, generic

	push	ebp
	mov	ebp, esp
	sub	esp, 192				; 000000c0H
	push	ebx
	push	esi
	push	edi
	lea	edi, DWORD PTR [ebp-192]
	mov	ecx, 48					; 00000030H
	mov	eax, -858993460				; ccccccccH
	rep stosd

; 458  : 	_Dest = _Src;

	mov	eax, DWORD PTR __Dest$[ebp]
	mov	ecx, DWORD PTR __Src$[ebp]
	mov	DWORD PTR [eax], ecx

; 459  : 	return (_Dest);

	mov	eax, DWORD PTR __Dest$[ebp]

; 460  : 	}

	pop	edi
	pop	esi
	pop	ebx
	mov	esp, ebp
	pop	ebp
	ret	0
??$_Rechecked@PAUOption@CCustomMenu@@PAU12@@std@@YAAAPAUOption@CCustomMenu@@AAPAU12@PAU12@@Z ENDP ; std::_Rechecked<CCustomMenu::Option *,CCustomMenu::Option *>
_TEXT	ENDS
; Function compile flags: /Odtp /RTCsu /ZI
; File c:\program files (x86)\microsoft visual studio 14.0\vc\include\xmemory
;	COMDAT ??$_Uninitialized_move_al_unchecked@PAUOption@CCustomMenu@@PAU12@V?$allocator@UOption@CCustomMenu@@@std@@@std@@YAPAUOption@CCustomMenu@@PAU12@00AAU?$_Wrap_alloc@V?$allocator@UOption@CCustomMenu@@@std@@@0@@Z
_TEXT	SEGMENT
$T1 = -221						; size = 1
$T2 = -209						; size = 1
__First$ = 8						; size = 4
__Last$ = 12						; size = 4
__Dest$ = 16						; size = 4
__Al$ = 20						; size = 4
??$_Uninitialized_move_al_unchecked@PAUOption@CCustomMenu@@PAU12@V?$allocator@UOption@CCustomMenu@@@std@@@std@@YAPAUOption@CCustomMenu@@PAU12@00AAU?$_Wrap_alloc@V?$allocator@UOption@CCustomMenu@@@std@@@0@@Z PROC ; std::_Uninitialized_move_al_unchecked<CCustomMenu::Option *,CCustomMenu::Option *,std::allocator<CCustomMenu::Option> >, COMDAT

; 301  : 	{	// move [_First, _Last) to raw _Dest, using _Al, choose optimization

	push	ebp
	mov	ebp, esp
	sub	esp, 228				; 000000e4H
	push	ebx
	push	esi
	push	edi
	lea	edi, DWORD PTR [ebp-228]
	mov	ecx, 57					; 00000039H
	mov	eax, -858993460				; ccccccccH
	rep stosd

; 302  : 	typedef decltype(_STD move(*_First)) _Src_type; // TRANSITION MODULES VSO#222794
; 303  : 	return (_Uninitialized_move_al_unchecked1(_First, _Last, _Dest, _Al,

	lea	eax, DWORD PTR __Dest$[ebp]
	push	eax
	lea	ecx, DWORD PTR __First$[ebp]
	push	ecx
	call	??$_Ptr_move_cat@UOption@CCustomMenu@@U12@@std@@YA?AU_General_ptr_iterator_tag@0@ABQAUOption@CCustomMenu@@0@Z ; std::_Ptr_move_cat<CCustomMenu::Option,CCustomMenu::Option>
	add	esp, 8
	mov	BYTE PTR $T1[ebp], al
	push	ecx
	mov	ecx, esp
	lea	edx, DWORD PTR $T2[ebp]
	push	edx
	call	??$?0U?$integral_constant@_N$00@std@@@_Any_tag@std@@QAE@$$QAU?$integral_constant@_N$00@1@@Z ; std::_Any_tag::_Any_tag<std::integral_constant<bool,1> >
	movzx	eax, BYTE PTR $T1[ebp]
	push	eax
	mov	ecx, DWORD PTR __Al$[ebp]
	push	ecx
	mov	edx, DWORD PTR __Dest$[ebp]
	push	edx
	mov	eax, DWORD PTR __Last$[ebp]
	push	eax
	mov	ecx, DWORD PTR __First$[ebp]
	push	ecx
	call	??$_Uninitialized_move_al_unchecked1@PAUOption@CCustomMenu@@PAU12@V?$allocator@UOption@CCustomMenu@@@std@@@std@@YAPAUOption@CCustomMenu@@PAU12@00AAU?$_Wrap_alloc@V?$allocator@UOption@CCustomMenu@@@std@@@0@U_General_ptr_iterator_tag@0@U_Any_tag@0@@Z ; std::_Uninitialized_move_al_unchecked1<CCustomMenu::Option *,CCustomMenu::Option *,std::allocator<CCustomMenu::Option> >
	add	esp, 24					; 00000018H

; 304  : 		_Ptr_move_cat(_First, _Dest),
; 305  : 		_Uses_default_construct_t<_Alloc, decltype(_Unfancy(_Dest)), _Src_type>()));
; 306  : 	}

	pop	edi
	pop	esi
	pop	ebx
	add	esp, 228				; 000000e4H
	cmp	ebp, esp
	call	__RTC_CheckEsp
	mov	esp, ebp
	pop	ebp
	ret	0
??$_Uninitialized_move_al_unchecked@PAUOption@CCustomMenu@@PAU12@V?$allocator@UOption@CCustomMenu@@@std@@@std@@YAPAUOption@CCustomMenu@@PAU12@00AAU?$_Wrap_alloc@V?$allocator@UOption@CCustomMenu@@@std@@@0@@Z ENDP ; std::_Uninitialized_move_al_unchecked<CCustomMenu::Option *,CCustomMenu::Option *,std::allocator<CCustomMenu::Option> >
_TEXT	ENDS
; Function compile flags: /Odtp /RTCsu /ZI
; File c:\program files (x86)\microsoft visual studio 14.0\vc\include\xutility
;	COMDAT ??$_Unchecked@PAUOption@CCustomMenu@@@std@@YAPAUOption@CCustomMenu@@PAU12@@Z
_TEXT	SEGMENT
__Src$ = 8						; size = 4
??$_Unchecked@PAUOption@CCustomMenu@@@std@@YAPAUOption@CCustomMenu@@PAU12@@Z PROC ; std::_Unchecked<CCustomMenu::Option *>, COMDAT

; 427  : 	{	// construct unchecked from checked, generic

	push	ebp
	mov	ebp, esp
	sub	esp, 192				; 000000c0H
	push	ebx
	push	esi
	push	edi
	lea	edi, DWORD PTR [ebp-192]
	mov	ecx, 48					; 00000030H
	mov	eax, -858993460				; ccccccccH
	rep stosd

; 428  : 	return (_Src);

	mov	eax, DWORD PTR __Src$[ebp]

; 429  : 	}

	pop	edi
	pop	esi
	pop	ebx
	mov	esp, ebp
	pop	ebp
	ret	0
??$_Unchecked@PAUOption@CCustomMenu@@@std@@YAPAUOption@CCustomMenu@@PAU12@@Z ENDP ; std::_Unchecked<CCustomMenu::Option *>
_TEXT	ENDS
; Function compile flags: /Odtp /RTCsu /ZI
; File c:\program files (x86)\microsoft visual studio 14.0\vc\include\xmemory0
;	COMDAT ??$construct@U_Container_proxy@std@@U12@@?$allocator@U_Container_proxy@std@@@std@@QAEXPAU_Container_proxy@1@$$QAU21@@Z
_TEXT	SEGMENT
tv74 = -220						; size = 4
$T1 = -212						; size = 4
_this$ = -8						; size = 4
__Ptr$ = 8						; size = 4
_<_Args_0>$ = 12					; size = 4
??$construct@U_Container_proxy@std@@U12@@?$allocator@U_Container_proxy@std@@@std@@QAEXPAU_Container_proxy@1@$$QAU21@@Z PROC ; std::allocator<std::_Container_proxy>::construct<std::_Container_proxy,std::_Container_proxy>, COMDAT
; _this$ = ecx

; 736  : 		{	// construct _Objty(_Types...) at _Ptr

	push	ebp
	mov	ebp, esp
	sub	esp, 220				; 000000dcH
	push	ebx
	push	esi
	push	edi
	push	ecx
	lea	edi, DWORD PTR [ebp-220]
	mov	ecx, 55					; 00000037H
	mov	eax, -858993460				; ccccccccH
	rep stosd
	pop	ecx
	mov	DWORD PTR _this$[ebp], ecx

; 737  : 		::new ((void *)_Ptr) _Objty(_STD forward<_Types>(_Args)...);

	mov	eax, DWORD PTR __Ptr$[ebp]
	push	eax
	push	8
	call	??2@YAPAXIPAX@Z				; operator new
	add	esp, 8
	mov	DWORD PTR $T1[ebp], eax
	cmp	DWORD PTR $T1[ebp], 0
	je	SHORT $LN3@construct
	mov	ecx, DWORD PTR _<_Args_0>$[ebp]
	push	ecx
	call	??$forward@U_Container_proxy@std@@@std@@YA$$QAU_Container_proxy@0@AAU10@@Z ; std::forward<std::_Container_proxy>
	add	esp, 4
	mov	edx, DWORD PTR [eax]
	mov	eax, DWORD PTR [eax+4]
	mov	ecx, DWORD PTR $T1[ebp]
	mov	DWORD PTR [ecx], edx
	mov	DWORD PTR [ecx+4], eax
	mov	edx, DWORD PTR $T1[ebp]
	mov	DWORD PTR tv74[ebp], edx
	jmp	SHORT $LN1@construct
$LN3@construct:
	mov	DWORD PTR tv74[ebp], 0
$LN1@construct:

; 738  : 		}

	pop	edi
	pop	esi
	pop	ebx
	add	esp, 220				; 000000dcH
	cmp	ebp, esp
	call	__RTC_CheckEsp
	mov	esp, ebp
	pop	ebp
	ret	8
??$construct@U_Container_proxy@std@@U12@@?$allocator@U_Container_proxy@std@@@std@@QAEXPAU_Container_proxy@1@$$QAU21@@Z ENDP ; std::allocator<std::_Container_proxy>::construct<std::_Container_proxy,std::_Container_proxy>
_TEXT	ENDS
; Function compile flags: /Odtp /RTCsu /ZI
; File c:\program files (x86)\microsoft visual studio 14.0\vc\include\xmemory0
;	COMDAT ??$destroy@U_Container_proxy@std@@@?$allocator@U_Container_proxy@std@@@std@@QAEXPAU_Container_proxy@1@@Z
_TEXT	SEGMENT
_this$ = -8						; size = 4
__Ptr$ = 8						; size = 4
??$destroy@U_Container_proxy@std@@@?$allocator@U_Container_proxy@std@@@std@@QAEXPAU_Container_proxy@1@@Z PROC ; std::allocator<std::_Container_proxy>::destroy<std::_Container_proxy>, COMDAT
; _this$ = ecx

; 743  : 		{	// destroy object at _Ptr

	push	ebp
	mov	ebp, esp
	sub	esp, 204				; 000000ccH
	push	ebx
	push	esi
	push	edi
	push	ecx
	lea	edi, DWORD PTR [ebp-204]
	mov	ecx, 51					; 00000033H
	mov	eax, -858993460				; ccccccccH
	rep stosd
	pop	ecx
	mov	DWORD PTR _this$[ebp], ecx

; 744  : 		_Ptr->~_Uty();
; 745  : 		}

	pop	edi
	pop	esi
	pop	ebx
	mov	esp, ebp
	pop	ebp
	ret	4
??$destroy@U_Container_proxy@std@@@?$allocator@U_Container_proxy@std@@@std@@QAEXPAU_Container_proxy@1@@Z ENDP ; std::allocator<std::_Container_proxy>::destroy<std::_Container_proxy>
_TEXT	ENDS
; Function compile flags: /Odtp /RTCsu /ZI
; File c:\program files (x86)\microsoft visual studio 14.0\vc\include\xmemory0
;	COMDAT ??$construct@PADAAPAD@?$allocator@D@std@@QAEXPAPADAAPAD@Z
_TEXT	SEGMENT
tv73 = -220						; size = 4
$T1 = -212						; size = 4
_this$ = -8						; size = 4
__Ptr$ = 8						; size = 4
_<_Args_0>$ = 12					; size = 4
??$construct@PADAAPAD@?$allocator@D@std@@QAEXPAPADAAPAD@Z PROC ; std::allocator<char>::construct<char *,char * &>, COMDAT
; _this$ = ecx

; 736  : 		{	// construct _Objty(_Types...) at _Ptr

	push	ebp
	mov	ebp, esp
	sub	esp, 220				; 000000dcH
	push	ebx
	push	esi
	push	edi
	push	ecx
	lea	edi, DWORD PTR [ebp-220]
	mov	ecx, 55					; 00000037H
	mov	eax, -858993460				; ccccccccH
	rep stosd
	pop	ecx
	mov	DWORD PTR _this$[ebp], ecx

; 737  : 		::new ((void *)_Ptr) _Objty(_STD forward<_Types>(_Args)...);

	mov	eax, DWORD PTR __Ptr$[ebp]
	push	eax
	push	4
	call	??2@YAPAXIPAX@Z				; operator new
	add	esp, 8
	mov	DWORD PTR $T1[ebp], eax
	cmp	DWORD PTR $T1[ebp], 0
	je	SHORT $LN3@construct
	mov	ecx, DWORD PTR _<_Args_0>$[ebp]
	push	ecx
	call	??$forward@AAPAD@std@@YAAAPADAAPAD@Z	; std::forward<char * &>
	add	esp, 4
	mov	edx, DWORD PTR $T1[ebp]
	mov	eax, DWORD PTR [eax]
	mov	DWORD PTR [edx], eax
	mov	ecx, DWORD PTR $T1[ebp]
	mov	DWORD PTR tv73[ebp], ecx
	jmp	SHORT $LN1@construct
$LN3@construct:
	mov	DWORD PTR tv73[ebp], 0
$LN1@construct:

; 738  : 		}

	pop	edi
	pop	esi
	pop	ebx
	add	esp, 220				; 000000dcH
	cmp	ebp, esp
	call	__RTC_CheckEsp
	mov	esp, ebp
	pop	ebp
	ret	8
??$construct@PADAAPAD@?$allocator@D@std@@QAEXPAPADAAPAD@Z ENDP ; std::allocator<char>::construct<char *,char * &>
_TEXT	ENDS
; Function compile flags: /Odtp /RTCsu /ZI
; File c:\program files (x86)\microsoft visual studio 14.0\vc\include\xmemory0
;	COMDAT ??$destroy@PAD@?$allocator@D@std@@QAEXPAPAD@Z
_TEXT	SEGMENT
_this$ = -8						; size = 4
__Ptr$ = 8						; size = 4
??$destroy@PAD@?$allocator@D@std@@QAEXPAPAD@Z PROC	; std::allocator<char>::destroy<char *>, COMDAT
; _this$ = ecx

; 743  : 		{	// destroy object at _Ptr

	push	ebp
	mov	ebp, esp
	sub	esp, 204				; 000000ccH
	push	ebx
	push	esi
	push	edi
	push	ecx
	lea	edi, DWORD PTR [ebp-204]
	mov	ecx, 51					; 00000033H
	mov	eax, -858993460				; ccccccccH
	rep stosd
	pop	ecx
	mov	DWORD PTR _this$[ebp], ecx

; 744  : 		_Ptr->~_Uty();
; 745  : 		}

	pop	edi
	pop	esi
	pop	ebx
	mov	esp, ebp
	pop	ebp
	ret	4
??$destroy@PAD@?$allocator@D@std@@QAEXPAPAD@Z ENDP	; std::allocator<char>::destroy<char *>
_TEXT	ENDS
; Function compile flags: /Odtp /RTCsu /ZI
; File c:\program files (x86)\microsoft visual studio 14.0\vc\include\xmemory0
;	COMDAT ??$construct@UOption@CCustomMenu@@ABU12@@?$allocator@UOption@CCustomMenu@@@std@@QAEXPAUOption@CCustomMenu@@ABU23@@Z
_TEXT	SEGMENT
tv79 = -244						; size = 4
$T2 = -236						; size = 4
$T3 = -224						; size = 4
_this$ = -20						; size = 4
__$EHRec$ = -12						; size = 12
__Ptr$ = 8						; size = 4
_<_Args_0>$ = 12					; size = 4
??$construct@UOption@CCustomMenu@@ABU12@@?$allocator@UOption@CCustomMenu@@@std@@QAEXPAUOption@CCustomMenu@@ABU23@@Z PROC ; std::allocator<CCustomMenu::Option>::construct<CCustomMenu::Option,CCustomMenu::Option const &>, COMDAT
; _this$ = ecx

; 736  : 		{	// construct _Objty(_Types...) at _Ptr

	push	ebp
	mov	ebp, esp
	push	-1
	push	__ehhandler$??$construct@UOption@CCustomMenu@@ABU12@@?$allocator@UOption@CCustomMenu@@@std@@QAEXPAUOption@CCustomMenu@@ABU23@@Z
	mov	eax, DWORD PTR fs:0
	push	eax
	sub	esp, 232				; 000000e8H
	push	ebx
	push	esi
	push	edi
	push	ecx
	lea	edi, DWORD PTR [ebp-244]
	mov	ecx, 58					; 0000003aH
	mov	eax, -858993460				; ccccccccH
	rep stosd
	pop	ecx
	mov	eax, DWORD PTR ___security_cookie
	xor	eax, ebp
	push	eax
	lea	eax, DWORD PTR __$EHRec$[ebp]
	mov	DWORD PTR fs:0, eax
	mov	DWORD PTR _this$[ebp], ecx

; 737  : 		::new ((void *)_Ptr) _Objty(_STD forward<_Types>(_Args)...);

	mov	eax, DWORD PTR __Ptr$[ebp]
	push	eax
	push	32					; 00000020H
	call	??2@YAPAXIPAX@Z				; operator new
	add	esp, 8
	mov	DWORD PTR $T2[ebp], eax
	mov	DWORD PTR __$EHRec$[ebp+8], 0
	cmp	DWORD PTR $T2[ebp], 0
	je	SHORT $LN3@construct
	mov	ecx, DWORD PTR _<_Args_0>$[ebp]
	push	ecx
	call	??$forward@ABUOption@CCustomMenu@@@std@@YAABUOption@CCustomMenu@@ABU12@@Z ; std::forward<CCustomMenu::Option const &>
	add	esp, 4
	push	eax
	mov	ecx, DWORD PTR $T2[ebp]
	call	??0Option@CCustomMenu@@QAE@ABU01@@Z
	mov	DWORD PTR tv79[ebp], eax
	jmp	SHORT $LN4@construct
$LN3@construct:
	mov	DWORD PTR tv79[ebp], 0
$LN4@construct:
	mov	edx, DWORD PTR tv79[ebp]
	mov	DWORD PTR $T3[ebp], edx
	mov	DWORD PTR __$EHRec$[ebp+8], -1

; 738  : 		}

	mov	ecx, DWORD PTR __$EHRec$[ebp]
	mov	DWORD PTR fs:0, ecx
	pop	ecx
	pop	edi
	pop	esi
	pop	ebx
	add	esp, 244				; 000000f4H
	cmp	ebp, esp
	call	__RTC_CheckEsp
	mov	esp, ebp
	pop	ebp
	ret	8
_TEXT	ENDS
;	COMDAT text$x
text$x	SEGMENT
__unwindfunclet$??$construct@UOption@CCustomMenu@@ABU12@@?$allocator@UOption@CCustomMenu@@@std@@QAEXPAUOption@CCustomMenu@@ABU23@@Z$0:
	mov	eax, DWORD PTR __Ptr$[ebp]
	push	eax
	mov	eax, DWORD PTR $T2[ebp]
	push	eax
	call	??3@YAXPAX0@Z				; operator delete
	add	esp, 8
	ret	0
__ehhandler$??$construct@UOption@CCustomMenu@@ABU12@@?$allocator@UOption@CCustomMenu@@@std@@QAEXPAUOption@CCustomMenu@@ABU23@@Z:
	mov	edx, DWORD PTR [esp+8]
	lea	eax, DWORD PTR [edx+12]
	mov	ecx, DWORD PTR [edx-248]
	xor	ecx, eax
	call	@__security_check_cookie@4
	mov	eax, OFFSET __ehfuncinfo$??$construct@UOption@CCustomMenu@@ABU12@@?$allocator@UOption@CCustomMenu@@@std@@QAEXPAUOption@CCustomMenu@@ABU23@@Z
	jmp	___CxxFrameHandler3
text$x	ENDS
??$construct@UOption@CCustomMenu@@ABU12@@?$allocator@UOption@CCustomMenu@@@std@@QAEXPAUOption@CCustomMenu@@ABU23@@Z ENDP ; std::allocator<CCustomMenu::Option>::construct<CCustomMenu::Option,CCustomMenu::Option const &>
; Function compile flags: /Odtp /RTCsu /ZI
; File c:\program files (x86)\microsoft visual studio 14.0\vc\include\xmemory0
;	COMDAT ??$construct@UOption@CCustomMenu@@AAU12@@?$allocator@UOption@CCustomMenu@@@std@@QAEXPAUOption@CCustomMenu@@AAU23@@Z
_TEXT	SEGMENT
tv79 = -244						; size = 4
$T2 = -236						; size = 4
$T3 = -224						; size = 4
_this$ = -20						; size = 4
__$EHRec$ = -12						; size = 12
__Ptr$ = 8						; size = 4
_<_Args_0>$ = 12					; size = 4
??$construct@UOption@CCustomMenu@@AAU12@@?$allocator@UOption@CCustomMenu@@@std@@QAEXPAUOption@CCustomMenu@@AAU23@@Z PROC ; std::allocator<CCustomMenu::Option>::construct<CCustomMenu::Option,CCustomMenu::Option &>, COMDAT
; _this$ = ecx

; 736  : 		{	// construct _Objty(_Types...) at _Ptr

	push	ebp
	mov	ebp, esp
	push	-1
	push	__ehhandler$??$construct@UOption@CCustomMenu@@AAU12@@?$allocator@UOption@CCustomMenu@@@std@@QAEXPAUOption@CCustomMenu@@AAU23@@Z
	mov	eax, DWORD PTR fs:0
	push	eax
	sub	esp, 232				; 000000e8H
	push	ebx
	push	esi
	push	edi
	push	ecx
	lea	edi, DWORD PTR [ebp-244]
	mov	ecx, 58					; 0000003aH
	mov	eax, -858993460				; ccccccccH
	rep stosd
	pop	ecx
	mov	eax, DWORD PTR ___security_cookie
	xor	eax, ebp
	push	eax
	lea	eax, DWORD PTR __$EHRec$[ebp]
	mov	DWORD PTR fs:0, eax
	mov	DWORD PTR _this$[ebp], ecx

; 737  : 		::new ((void *)_Ptr) _Objty(_STD forward<_Types>(_Args)...);

	mov	eax, DWORD PTR __Ptr$[ebp]
	push	eax
	push	32					; 00000020H
	call	??2@YAPAXIPAX@Z				; operator new
	add	esp, 8
	mov	DWORD PTR $T2[ebp], eax
	mov	DWORD PTR __$EHRec$[ebp+8], 0
	cmp	DWORD PTR $T2[ebp], 0
	je	SHORT $LN3@construct
	mov	ecx, DWORD PTR _<_Args_0>$[ebp]
	push	ecx
	call	??$forward@AAUOption@CCustomMenu@@@std@@YAAAUOption@CCustomMenu@@AAU12@@Z ; std::forward<CCustomMenu::Option &>
	add	esp, 4
	push	eax
	mov	ecx, DWORD PTR $T2[ebp]
	call	??0Option@CCustomMenu@@QAE@ABU01@@Z
	mov	DWORD PTR tv79[ebp], eax
	jmp	SHORT $LN4@construct
$LN3@construct:
	mov	DWORD PTR tv79[ebp], 0
$LN4@construct:
	mov	edx, DWORD PTR tv79[ebp]
	mov	DWORD PTR $T3[ebp], edx
	mov	DWORD PTR __$EHRec$[ebp+8], -1

; 738  : 		}

	mov	ecx, DWORD PTR __$EHRec$[ebp]
	mov	DWORD PTR fs:0, ecx
	pop	ecx
	pop	edi
	pop	esi
	pop	ebx
	add	esp, 244				; 000000f4H
	cmp	ebp, esp
	call	__RTC_CheckEsp
	mov	esp, ebp
	pop	ebp
	ret	8
_TEXT	ENDS
;	COMDAT text$x
text$x	SEGMENT
__unwindfunclet$??$construct@UOption@CCustomMenu@@AAU12@@?$allocator@UOption@CCustomMenu@@@std@@QAEXPAUOption@CCustomMenu@@AAU23@@Z$0:
	mov	eax, DWORD PTR __Ptr$[ebp]
	push	eax
	mov	eax, DWORD PTR $T2[ebp]
	push	eax
	call	??3@YAXPAX0@Z				; operator delete
	add	esp, 8
	ret	0
__ehhandler$??$construct@UOption@CCustomMenu@@AAU12@@?$allocator@UOption@CCustomMenu@@@std@@QAEXPAUOption@CCustomMenu@@AAU23@@Z:
	mov	edx, DWORD PTR [esp+8]
	lea	eax, DWORD PTR [edx+12]
	mov	ecx, DWORD PTR [edx-248]
	xor	ecx, eax
	call	@__security_check_cookie@4
	mov	eax, OFFSET __ehfuncinfo$??$construct@UOption@CCustomMenu@@AAU12@@?$allocator@UOption@CCustomMenu@@@std@@QAEXPAUOption@CCustomMenu@@AAU23@@Z
	jmp	___CxxFrameHandler3
text$x	ENDS
??$construct@UOption@CCustomMenu@@AAU12@@?$allocator@UOption@CCustomMenu@@@std@@QAEXPAUOption@CCustomMenu@@AAU23@@Z ENDP ; std::allocator<CCustomMenu::Option>::construct<CCustomMenu::Option,CCustomMenu::Option &>
; Function compile flags: /Odtp /RTCsu /ZI
; File c:\program files (x86)\microsoft visual studio 14.0\vc\include\algorithm
;	COMDAT ??$_Sort_unchecked@PAUOption@CCustomMenu@@U?$less@X@std@@@std@@YAXPAUOption@CCustomMenu@@0AAU?$less@X@0@@Z
_TEXT	SEGMENT
__First$ = 8						; size = 4
__Last$ = 12						; size = 4
__Pred$ = 16						; size = 4
??$_Sort_unchecked@PAUOption@CCustomMenu@@U?$less@X@std@@@std@@YAXPAUOption@CCustomMenu@@0AAU?$less@X@0@@Z PROC ; std::_Sort_unchecked<CCustomMenu::Option *,std::less<void> >, COMDAT

; 2775 : 	{	// order [_First, _Last), using _Pred

	push	ebp
	mov	ebp, esp
	sub	esp, 192				; 000000c0H
	push	ebx
	push	esi
	push	edi
	lea	edi, DWORD PTR [ebp-192]
	mov	ecx, 48					; 00000030H
	mov	eax, -858993460				; ccccccccH
	rep stosd

; 2776 : 	_Sort_unchecked1(_First, _Last, _Last - _First, _Pred);

	mov	eax, DWORD PTR __Pred$[ebp]
	push	eax
	mov	ecx, DWORD PTR __Last$[ebp]
	sub	ecx, DWORD PTR __First$[ebp]
	sar	ecx, 5
	push	ecx
	mov	edx, DWORD PTR __Last$[ebp]
	push	edx
	mov	eax, DWORD PTR __First$[ebp]
	push	eax
	call	??$_Sort_unchecked1@PAUOption@CCustomMenu@@HU?$less@X@std@@@std@@YAXPAUOption@CCustomMenu@@0HAAU?$less@X@0@@Z ; std::_Sort_unchecked1<CCustomMenu::Option *,int,std::less<void> >
	add	esp, 16					; 00000010H

; 2777 : 	}

	pop	edi
	pop	esi
	pop	ebx
	add	esp, 192				; 000000c0H
	cmp	ebp, esp
	call	__RTC_CheckEsp
	mov	esp, ebp
	pop	ebp
	ret	0
??$_Sort_unchecked@PAUOption@CCustomMenu@@U?$less@X@std@@@std@@YAXPAUOption@CCustomMenu@@0AAU?$less@X@0@@Z ENDP ; std::_Sort_unchecked<CCustomMenu::Option *,std::less<void> >
_TEXT	ENDS
; Function compile flags: /Odtp /RTCsu /ZI
; File c:\program files (x86)\microsoft visual studio 14.0\vc\include\xutility
;	COMDAT ??$_Find_unchecked1@PAUOption@CCustomMenu@@D@std@@YAPAUOption@CCustomMenu@@PAU12@0ABDU?$integral_constant@_N$0A@@0@@Z
_TEXT	SEGMENT
__First$ = 8						; size = 4
__Last$ = 12						; size = 4
__Val$ = 16						; size = 4
___formal$ = 20						; size = 1
??$_Find_unchecked1@PAUOption@CCustomMenu@@D@std@@YAPAUOption@CCustomMenu@@PAU12@0ABDU?$integral_constant@_N$0A@@0@@Z PROC ; std::_Find_unchecked1<CCustomMenu::Option *,char>, COMDAT

; 3256 : 	{	// find first matching _Val

	push	ebp
	mov	ebp, esp
	sub	esp, 192				; 000000c0H
	push	ebx
	push	esi
	push	edi
	lea	edi, DWORD PTR [ebp-192]
	mov	ecx, 48					; 00000030H
	mov	eax, -858993460				; ccccccccH
	rep stosd

; 3257 : 	for (; _First != _Last; ++_First)

	jmp	SHORT $LN4@Find_unche
$LN2@Find_unche:
	mov	eax, DWORD PTR __First$[ebp]
	add	eax, 32					; 00000020H
	mov	DWORD PTR __First$[ebp], eax
$LN4@Find_unche:
	mov	eax, DWORD PTR __First$[ebp]
	cmp	eax, DWORD PTR __Last$[ebp]
	je	SHORT $LN3@Find_unche

; 3258 : 		if (*_First == _Val)

	mov	eax, DWORD PTR __Val$[ebp]
	push	eax
	mov	ecx, DWORD PTR __First$[ebp]
	call	??8Option@CCustomMenu@@QBE_NABD@Z	; CCustomMenu::Option::operator==
	movzx	ecx, al
	test	ecx, ecx
	je	SHORT $LN5@Find_unche

; 3259 : 			break;

	jmp	SHORT $LN3@Find_unche
$LN5@Find_unche:

; 3260 : 	return (_First);

	jmp	SHORT $LN2@Find_unche
$LN3@Find_unche:
	mov	eax, DWORD PTR __First$[ebp]

; 3261 : 	}

	pop	edi
	pop	esi
	pop	ebx
	add	esp, 192				; 000000c0H
	cmp	ebp, esp
	call	__RTC_CheckEsp
	mov	esp, ebp
	pop	ebp
	ret	0
??$_Find_unchecked1@PAUOption@CCustomMenu@@D@std@@YAPAUOption@CCustomMenu@@PAU12@0ABDU?$integral_constant@_N$0A@@0@@Z ENDP ; std::_Find_unchecked1<CCustomMenu::Option *,char>
_TEXT	ENDS
; Function compile flags: /Odtp /RTCsu /ZI
; File c:\program files (x86)\microsoft visual studio 14.0\vc\include\xutility
;	COMDAT ??$_Debug_range2@V?$_Vector_iterator@V?$_Vector_val@U?$_Simple_types@UOption@CCustomMenu@@@std@@@std@@@std@@@std@@YAXV?$_Vector_iterator@V?$_Vector_val@U?$_Simple_types@UOption@CCustomMenu@@@std@@@std@@@0@0PB_WIUrandom_access_iterator_tag@0@@Z
_TEXT	SEGMENT
__$EHRec$ = -12						; size = 12
__First$ = 8						; size = 12
__Last$ = 20						; size = 12
__File$ = 32						; size = 4
__Line$ = 36						; size = 4
___formal$ = 40						; size = 1
??$_Debug_range2@V?$_Vector_iterator@V?$_Vector_val@U?$_Simple_types@UOption@CCustomMenu@@@std@@@std@@@std@@@std@@YAXV?$_Vector_iterator@V?$_Vector_val@U?$_Simple_types@UOption@CCustomMenu@@@std@@@std@@@0@0PB_WIUrandom_access_iterator_tag@0@@Z PROC ; std::_Debug_range2<std::_Vector_iterator<std::_Vector_val<std::_Simple_types<CCustomMenu::Option> > > >, COMDAT

; 953  : 	{	// test iterator pair for valid range, random-access iterators

	push	ebp
	mov	ebp, esp
	push	-1
	push	__ehhandler$??$_Debug_range2@V?$_Vector_iterator@V?$_Vector_val@U?$_Simple_types@UOption@CCustomMenu@@@std@@@std@@@std@@@std@@YAXV?$_Vector_iterator@V?$_Vector_val@U?$_Simple_types@UOption@CCustomMenu@@@std@@@std@@@0@0PB_WIUrandom_access_iterator_tag@0@@Z
	mov	eax, DWORD PTR fs:0
	push	eax
	sub	esp, 192				; 000000c0H
	push	ebx
	push	esi
	push	edi
	lea	edi, DWORD PTR [ebp-204]
	mov	ecx, 48					; 00000030H
	mov	eax, -858993460				; ccccccccH
	rep stosd
	mov	eax, DWORD PTR ___security_cookie
	xor	eax, ebp
	push	eax
	lea	eax, DWORD PTR __$EHRec$[ebp]
	mov	DWORD PTR fs:0, eax
	mov	DWORD PTR __$EHRec$[ebp+8], 1

; 954  : 	if (_First != _Last)

	lea	eax, DWORD PTR __Last$[ebp]
	push	eax
	lea	ecx, DWORD PTR __First$[ebp]
	call	??9?$_Vector_const_iterator@V?$_Vector_val@U?$_Simple_types@UOption@CCustomMenu@@@std@@@std@@@std@@QBE_NABV01@@Z ; std::_Vector_const_iterator<std::_Vector_val<std::_Simple_types<CCustomMenu::Option> > >::operator!=
	movzx	ecx, al
	test	ecx, ecx
	je	SHORT $LN2@Debug_rang

; 955  : 		{	// check for non-null pointers, valid range
; 956  : 		_DEBUG_POINTER2(_First, _File, _Line);

	mov	eax, DWORD PTR __Line$[ebp]
	push	eax
	mov	ecx, DWORD PTR __File$[ebp]
	push	ecx
	lea	edx, DWORD PTR __First$[ebp]
	push	edx
	call	??$_Debug_pointer@V?$_Vector_iterator@V?$_Vector_val@U?$_Simple_types@UOption@CCustomMenu@@@std@@@std@@@std@@@std@@YAXAAV?$_Vector_iterator@V?$_Vector_val@U?$_Simple_types@UOption@CCustomMenu@@@std@@@std@@@0@PB_WI@Z ; std::_Debug_pointer<std::_Vector_iterator<std::_Vector_val<std::_Simple_types<CCustomMenu::Option> > > >
	add	esp, 12					; 0000000cH

; 957  : 		_DEBUG_POINTER2(_Last, _File, _Line);

	mov	eax, DWORD PTR __Line$[ebp]
	push	eax
	mov	ecx, DWORD PTR __File$[ebp]
	push	ecx
	lea	edx, DWORD PTR __Last$[ebp]
	push	edx
	call	??$_Debug_pointer@V?$_Vector_iterator@V?$_Vector_val@U?$_Simple_types@UOption@CCustomMenu@@@std@@@std@@@std@@@std@@YAXAAV?$_Vector_iterator@V?$_Vector_val@U?$_Simple_types@UOption@CCustomMenu@@@std@@@std@@@0@PB_WI@Z ; std::_Debug_pointer<std::_Vector_iterator<std::_Vector_val<std::_Simple_types<CCustomMenu::Option> > > >
	add	esp, 12					; 0000000cH

; 958  : 		if (_Last < _First)

	lea	eax, DWORD PTR __First$[ebp]
	push	eax
	lea	ecx, DWORD PTR __Last$[ebp]
	call	??M?$_Vector_const_iterator@V?$_Vector_val@U?$_Simple_types@UOption@CCustomMenu@@@std@@@std@@@std@@QBE_NABV01@@Z ; std::_Vector_const_iterator<std::_Vector_val<std::_Simple_types<CCustomMenu::Option> > >::operator<
	movzx	ecx, al
	test	ecx, ecx
	je	SHORT $LN2@Debug_rang

; 959  : 			_DEBUG_ERROR2("invalid iterator range", _File, _Line);

	mov	esi, esp
	mov	eax, DWORD PTR __Line$[ebp]
	push	eax
	mov	ecx, DWORD PTR __File$[ebp]
	push	ecx
	push	OFFSET ??_C@_1CO@DGLIKNHI@?$AAi?$AAn?$AAv?$AAa?$AAl?$AAi?$AAd?$AA?5?$AAi?$AAt?$AAe?$AAr?$AAa?$AAt?$AAo?$AAr?$AA?5?$AAr?$AAa?$AAn?$AAg?$AAe?$AA?$AA@
	call	DWORD PTR __imp_?_Debug_message@std@@YAXPB_W0I@Z
	add	esp, 12					; 0000000cH
	cmp	esi, esp
	call	__RTC_CheckEsp
$LN2@Debug_rang:

; 960  : 		}
; 961  : 	}

	mov	BYTE PTR __$EHRec$[ebp+8], 0
	lea	ecx, DWORD PTR __First$[ebp]
	call	??1?$_Vector_iterator@V?$_Vector_val@U?$_Simple_types@UOption@CCustomMenu@@@std@@@std@@@std@@QAE@XZ
	mov	DWORD PTR __$EHRec$[ebp+8], -1
	lea	ecx, DWORD PTR __Last$[ebp]
	call	??1?$_Vector_iterator@V?$_Vector_val@U?$_Simple_types@UOption@CCustomMenu@@@std@@@std@@@std@@QAE@XZ
	mov	ecx, DWORD PTR __$EHRec$[ebp]
	mov	DWORD PTR fs:0, ecx
	pop	ecx
	pop	edi
	pop	esi
	pop	ebx
	add	esp, 204				; 000000ccH
	cmp	ebp, esp
	call	__RTC_CheckEsp
	mov	esp, ebp
	pop	ebp
	ret	0
_TEXT	ENDS
;	COMDAT text$x
text$x	SEGMENT
__unwindfunclet$??$_Debug_range2@V?$_Vector_iterator@V?$_Vector_val@U?$_Simple_types@UOption@CCustomMenu@@@std@@@std@@@std@@@std@@YAXV?$_Vector_iterator@V?$_Vector_val@U?$_Simple_types@UOption@CCustomMenu@@@std@@@std@@@0@0PB_WIUrandom_access_iterator_tag@0@@Z$0:
	lea	ecx, DWORD PTR __Last$[ebp]
	jmp	??1?$_Vector_iterator@V?$_Vector_val@U?$_Simple_types@UOption@CCustomMenu@@@std@@@std@@@std@@QAE@XZ
__unwindfunclet$??$_Debug_range2@V?$_Vector_iterator@V?$_Vector_val@U?$_Simple_types@UOption@CCustomMenu@@@std@@@std@@@std@@@std@@YAXV?$_Vector_iterator@V?$_Vector_val@U?$_Simple_types@UOption@CCustomMenu@@@std@@@std@@@0@0PB_WIUrandom_access_iterator_tag@0@@Z$1:
	lea	ecx, DWORD PTR __First$[ebp]
	jmp	??1?$_Vector_iterator@V?$_Vector_val@U?$_Simple_types@UOption@CCustomMenu@@@std@@@std@@@std@@QAE@XZ
__ehhandler$??$_Debug_range2@V?$_Vector_iterator@V?$_Vector_val@U?$_Simple_types@UOption@CCustomMenu@@@std@@@std@@@std@@@std@@YAXV?$_Vector_iterator@V?$_Vector_val@U?$_Simple_types@UOption@CCustomMenu@@@std@@@std@@@0@0PB_WIUrandom_access_iterator_tag@0@@Z:
	mov	edx, DWORD PTR [esp+8]
	lea	eax, DWORD PTR [edx+12]
	mov	ecx, DWORD PTR [edx-208]
	xor	ecx, eax
	call	@__security_check_cookie@4
	mov	eax, OFFSET __ehfuncinfo$??$_Debug_range2@V?$_Vector_iterator@V?$_Vector_val@U?$_Simple_types@UOption@CCustomMenu@@@std@@@std@@@std@@@std@@YAXV?$_Vector_iterator@V?$_Vector_val@U?$_Simple_types@UOption@CCustomMenu@@@std@@@std@@@0@0PB_WIUrandom_access_iterator_tag@0@@Z
	jmp	___CxxFrameHandler3
text$x	ENDS
??$_Debug_range2@V?$_Vector_iterator@V?$_Vector_val@U?$_Simple_types@UOption@CCustomMenu@@@std@@@std@@@std@@@std@@YAXV?$_Vector_iterator@V?$_Vector_val@U?$_Simple_types@UOption@CCustomMenu@@@std@@@std@@@0@0PB_WIUrandom_access_iterator_tag@0@@Z ENDP ; std::_Debug_range2<std::_Vector_iterator<std::_Vector_val<std::_Simple_types<CCustomMenu::Option> > > >
; Function compile flags: /Odtp /RTCsu /ZI
; File c:\program files (x86)\microsoft visual studio 14.0\vc\include\xmemory0
;	COMDAT ??$?0D@?$allocator@U_Container_proxy@std@@@std@@QAE@ABV?$allocator@D@1@@Z
_TEXT	SEGMENT
_this$ = -8						; size = 4
___formal$ = 8						; size = 4
??$?0D@?$allocator@U_Container_proxy@std@@@std@@QAE@ABV?$allocator@D@1@@Z PROC ; std::allocator<std::_Container_proxy>::allocator<std::_Container_proxy><char>, COMDAT
; _this$ = ecx

; 709  : 		{	// construct from a related allocator (do nothing)

	push	ebp
	mov	ebp, esp
	sub	esp, 204				; 000000ccH
	push	ebx
	push	esi
	push	edi
	push	ecx
	lea	edi, DWORD PTR [ebp-204]
	mov	ecx, 51					; 00000033H
	mov	eax, -858993460				; ccccccccH
	rep stosd
	pop	ecx
	mov	DWORD PTR _this$[ebp], ecx

; 710  : 		}

	mov	eax, DWORD PTR _this$[ebp]
	pop	edi
	pop	esi
	pop	ebx
	mov	esp, ebp
	pop	ebp
	ret	4
??$?0D@?$allocator@U_Container_proxy@std@@@std@@QAE@ABV?$allocator@D@1@@Z ENDP ; std::allocator<std::_Container_proxy>::allocator<std::_Container_proxy><char>
_TEXT	ENDS
; Function compile flags: /Odtp /RTCsu /ZI
; File c:\program files (x86)\microsoft visual studio 14.0\vc\include\type_traits
;	COMDAT ??$forward@AAU?$_Wrap_alloc@V?$allocator@D@std@@@std@@@std@@YAAAU?$_Wrap_alloc@V?$allocator@D@std@@@0@AAU10@@Z
_TEXT	SEGMENT
__Arg$ = 8						; size = 4
??$forward@AAU?$_Wrap_alloc@V?$allocator@D@std@@@std@@@std@@YAAAU?$_Wrap_alloc@V?$allocator@D@std@@@0@AAU10@@Z PROC ; std::forward<std::_Wrap_alloc<std::allocator<char> > &>, COMDAT

; 1275 : 	{	// forward an lvalue as either an lvalue or an rvalue

	push	ebp
	mov	ebp, esp
	sub	esp, 192				; 000000c0H
	push	ebx
	push	esi
	push	edi
	lea	edi, DWORD PTR [ebp-192]
	mov	ecx, 48					; 00000030H
	mov	eax, -858993460				; ccccccccH
	rep stosd

; 1276 : 	return (static_cast<_Ty&&>(_Arg));

	mov	eax, DWORD PTR __Arg$[ebp]

; 1277 : 	}

	pop	edi
	pop	esi
	pop	ebx
	mov	esp, ebp
	pop	ebp
	ret	0
??$forward@AAU?$_Wrap_alloc@V?$allocator@D@std@@@std@@@std@@YAAAU?$_Wrap_alloc@V?$allocator@D@std@@@0@AAU10@@Z ENDP ; std::forward<std::_Wrap_alloc<std::allocator<char> > &>
_TEXT	ENDS
; Function compile flags: /Odtp /RTCsu /ZI
; File c:\program files (x86)\microsoft visual studio 14.0\vc\include\xmemory0
;	COMDAT ??$_Destroy_range1@V?$allocator@UOption@CCustomMenu@@@std@@PAUOption@CCustomMenu@@@std@@YAXPAUOption@CCustomMenu@@0AAU?$_Wrap_alloc@V?$allocator@UOption@CCustomMenu@@@std@@@0@U?$integral_constant@_N$0A@@0@@Z
_TEXT	SEGMENT
__First$ = 8						; size = 4
__Last$ = 12						; size = 4
__Al$ = 16						; size = 4
___formal$ = 20						; size = 1
??$_Destroy_range1@V?$allocator@UOption@CCustomMenu@@@std@@PAUOption@CCustomMenu@@@std@@YAXPAUOption@CCustomMenu@@0AAU?$_Wrap_alloc@V?$allocator@UOption@CCustomMenu@@@std@@@0@U?$integral_constant@_N$0A@@0@@Z PROC ; std::_Destroy_range1<std::allocator<CCustomMenu::Option>,CCustomMenu::Option *>, COMDAT

; 1099 : 	{	// destroy [_First, _Last), no special optimization

	push	ebp
	mov	ebp, esp
	sub	esp, 192				; 000000c0H
	push	ebx
	push	esi
	push	edi
	lea	edi, DWORD PTR [ebp-192]
	mov	ecx, 48					; 00000030H
	mov	eax, -858993460				; ccccccccH
	rep stosd

; 1100 : 	for (; _First != _Last; ++_First)

	jmp	SHORT $LN4@Destroy_ra
$LN2@Destroy_ra:
	mov	eax, DWORD PTR __First$[ebp]
	add	eax, 32					; 00000020H
	mov	DWORD PTR __First$[ebp], eax
$LN4@Destroy_ra:
	mov	eax, DWORD PTR __First$[ebp]
	cmp	eax, DWORD PTR __Last$[ebp]
	je	SHORT $LN1@Destroy_ra

; 1101 : 		_Al.destroy(_Unfancy(_First));

	mov	eax, DWORD PTR __First$[ebp]
	push	eax
	call	??$_Unfancy@UOption@CCustomMenu@@@std@@YAPAUOption@CCustomMenu@@PAU12@@Z ; std::_Unfancy<CCustomMenu::Option>
	add	esp, 4
	push	eax
	mov	ecx, DWORD PTR __Al$[ebp]
	call	??$destroy@UOption@CCustomMenu@@@?$_Wrap_alloc@V?$allocator@UOption@CCustomMenu@@@std@@@std@@QAEXPAUOption@CCustomMenu@@@Z ; std::_Wrap_alloc<std::allocator<CCustomMenu::Option> >::destroy<CCustomMenu::Option>
	jmp	SHORT $LN2@Destroy_ra
$LN1@Destroy_ra:

; 1102 : 	}

	pop	edi
	pop	esi
	pop	ebx
	add	esp, 192				; 000000c0H
	cmp	ebp, esp
	call	__RTC_CheckEsp
	mov	esp, ebp
	pop	ebp
	ret	0
??$_Destroy_range1@V?$allocator@UOption@CCustomMenu@@@std@@PAUOption@CCustomMenu@@@std@@YAXPAUOption@CCustomMenu@@0AAU?$_Wrap_alloc@V?$allocator@UOption@CCustomMenu@@@std@@@0@U?$integral_constant@_N$0A@@0@@Z ENDP ; std::_Destroy_range1<std::allocator<CCustomMenu::Option>,CCustomMenu::Option *>
_TEXT	ENDS
; Function compile flags: /Odtp /RTCsu /ZI
; File c:\program files (x86)\microsoft visual studio 14.0\vc\include\xmemory
;	COMDAT ??$_Uninitialized_move@PAUOption@CCustomMenu@@PAU12@V?$allocator@UOption@CCustomMenu@@@std@@@std@@YAPAUOption@CCustomMenu@@PAU12@00AAU?$_Wrap_alloc@V?$allocator@UOption@CCustomMenu@@@std@@@0@@Z
_TEXT	SEGMENT
__First$ = 8						; size = 4
__Last$ = 12						; size = 4
__Dest$ = 16						; size = 4
__Al$ = 20						; size = 4
??$_Uninitialized_move@PAUOption@CCustomMenu@@PAU12@V?$allocator@UOption@CCustomMenu@@@std@@@std@@YAPAUOption@CCustomMenu@@PAU12@00AAU?$_Wrap_alloc@V?$allocator@UOption@CCustomMenu@@@std@@@0@@Z PROC ; std::_Uninitialized_move<CCustomMenu::Option *,CCustomMenu::Option *,std::allocator<CCustomMenu::Option> >, COMDAT

; 313  : 	{	// move [_First, _Last) to raw _Dest, using _Al

	push	ebp
	mov	ebp, esp
	sub	esp, 192				; 000000c0H
	push	ebx
	push	esi
	push	edi
	lea	edi, DWORD PTR [ebp-192]
	mov	ecx, 48					; 00000030H
	mov	eax, -858993460				; ccccccccH
	rep stosd

; 314  : 		// note: only called internally from elsewhere in the STL, debug checks
; 315  : 		// and deprecation warnings omitted
; 316  : 	return (_Rechecked(_Dest,

	mov	eax, DWORD PTR __Al$[ebp]
	push	eax
	mov	ecx, DWORD PTR __Dest$[ebp]
	push	ecx
	call	??$_Unchecked@PAUOption@CCustomMenu@@@std@@YAPAUOption@CCustomMenu@@PAU12@@Z ; std::_Unchecked<CCustomMenu::Option *>
	add	esp, 4
	push	eax
	mov	edx, DWORD PTR __Last$[ebp]
	push	edx
	call	??$_Unchecked@PAUOption@CCustomMenu@@@std@@YAPAUOption@CCustomMenu@@PAU12@@Z ; std::_Unchecked<CCustomMenu::Option *>
	add	esp, 4
	push	eax
	mov	eax, DWORD PTR __First$[ebp]
	push	eax
	call	??$_Unchecked@PAUOption@CCustomMenu@@@std@@YAPAUOption@CCustomMenu@@PAU12@@Z ; std::_Unchecked<CCustomMenu::Option *>
	add	esp, 4
	push	eax
	call	??$_Uninitialized_move_al_unchecked@PAUOption@CCustomMenu@@PAU12@V?$allocator@UOption@CCustomMenu@@@std@@@std@@YAPAUOption@CCustomMenu@@PAU12@00AAU?$_Wrap_alloc@V?$allocator@UOption@CCustomMenu@@@std@@@0@@Z ; std::_Uninitialized_move_al_unchecked<CCustomMenu::Option *,CCustomMenu::Option *,std::allocator<CCustomMenu::Option> >
	add	esp, 16					; 00000010H
	push	eax
	lea	ecx, DWORD PTR __Dest$[ebp]
	push	ecx
	call	??$_Rechecked@PAUOption@CCustomMenu@@PAU12@@std@@YAAAPAUOption@CCustomMenu@@AAPAU12@PAU12@@Z ; std::_Rechecked<CCustomMenu::Option *,CCustomMenu::Option *>
	add	esp, 8
	mov	eax, DWORD PTR [eax]

; 317  : 		_Uninitialized_move_al_unchecked(_Unchecked(_First), _Unchecked(_Last),
; 318  : 			_Unchecked(_Dest), _Al)));
; 319  : 	}

	pop	edi
	pop	esi
	pop	ebx
	add	esp, 192				; 000000c0H
	cmp	ebp, esp
	call	__RTC_CheckEsp
	mov	esp, ebp
	pop	ebp
	ret	0
??$_Uninitialized_move@PAUOption@CCustomMenu@@PAU12@V?$allocator@UOption@CCustomMenu@@@std@@@std@@YAPAUOption@CCustomMenu@@PAU12@00AAU?$_Wrap_alloc@V?$allocator@UOption@CCustomMenu@@@std@@@0@@Z ENDP ; std::_Uninitialized_move<CCustomMenu::Option *,CCustomMenu::Option *,std::allocator<CCustomMenu::Option> >
_TEXT	ENDS
; Function compile flags: /Odtp /RTCsu /ZI
; File c:\program files (x86)\microsoft visual studio 14.0\vc\include\xmemory0
;	COMDAT ??$construct@U_Container_proxy@std@@U12@@?$allocator_traits@V?$allocator@U_Container_proxy@std@@@std@@@std@@SAXAAV?$allocator@U_Container_proxy@std@@@1@PAU_Container_proxy@1@$$QAU31@@Z
_TEXT	SEGMENT
__Al$ = 8						; size = 4
__Ptr$ = 12						; size = 4
_<_Args_0>$ = 16					; size = 4
??$construct@U_Container_proxy@std@@U12@@?$allocator_traits@V?$allocator@U_Container_proxy@std@@@std@@@std@@SAXAAV?$allocator@U_Container_proxy@std@@@1@PAU_Container_proxy@1@$$QAU31@@Z PROC ; std::allocator_traits<std::allocator<std::_Container_proxy> >::construct<std::_Container_proxy,std::_Container_proxy>, COMDAT

; 856  : 		{	// construct _Objty(_Types...) at _Ptr

	push	ebp
	mov	ebp, esp
	sub	esp, 192				; 000000c0H
	push	ebx
	push	esi
	push	edi
	lea	edi, DWORD PTR [ebp-192]
	mov	ecx, 48					; 00000030H
	mov	eax, -858993460				; ccccccccH
	rep stosd

; 857  : 		_Al.construct(_Ptr, _STD forward<_Types>(_Args)...);

	mov	eax, DWORD PTR _<_Args_0>$[ebp]
	push	eax
	call	??$forward@U_Container_proxy@std@@@std@@YA$$QAU_Container_proxy@0@AAU10@@Z ; std::forward<std::_Container_proxy>
	add	esp, 4
	push	eax
	mov	ecx, DWORD PTR __Ptr$[ebp]
	push	ecx
	mov	ecx, DWORD PTR __Al$[ebp]
	call	??$construct@U_Container_proxy@std@@U12@@?$allocator@U_Container_proxy@std@@@std@@QAEXPAU_Container_proxy@1@$$QAU21@@Z ; std::allocator<std::_Container_proxy>::construct<std::_Container_proxy,std::_Container_proxy>

; 858  : 		}

	pop	edi
	pop	esi
	pop	ebx
	add	esp, 192				; 000000c0H
	cmp	ebp, esp
	call	__RTC_CheckEsp
	mov	esp, ebp
	pop	ebp
	ret	0
??$construct@U_Container_proxy@std@@U12@@?$allocator_traits@V?$allocator@U_Container_proxy@std@@@std@@@std@@SAXAAV?$allocator@U_Container_proxy@std@@@1@PAU_Container_proxy@1@$$QAU31@@Z ENDP ; std::allocator_traits<std::allocator<std::_Container_proxy> >::construct<std::_Container_proxy,std::_Container_proxy>
_TEXT	ENDS
; Function compile flags: /Odtp /RTCsu /ZI
; File c:\program files (x86)\microsoft visual studio 14.0\vc\include\type_traits
;	COMDAT ??$forward@U_Container_proxy@std@@@std@@YA$$QAU_Container_proxy@0@AAU10@@Z
_TEXT	SEGMENT
__Arg$ = 8						; size = 4
??$forward@U_Container_proxy@std@@@std@@YA$$QAU_Container_proxy@0@AAU10@@Z PROC ; std::forward<std::_Container_proxy>, COMDAT

; 1275 : 	{	// forward an lvalue as either an lvalue or an rvalue

	push	ebp
	mov	ebp, esp
	sub	esp, 192				; 000000c0H
	push	ebx
	push	esi
	push	edi
	lea	edi, DWORD PTR [ebp-192]
	mov	ecx, 48					; 00000030H
	mov	eax, -858993460				; ccccccccH
	rep stosd

; 1276 : 	return (static_cast<_Ty&&>(_Arg));

	mov	eax, DWORD PTR __Arg$[ebp]

; 1277 : 	}

	pop	edi
	pop	esi
	pop	ebx
	mov	esp, ebp
	pop	ebp
	ret	0
??$forward@U_Container_proxy@std@@@std@@YA$$QAU_Container_proxy@0@AAU10@@Z ENDP ; std::forward<std::_Container_proxy>
_TEXT	ENDS
; Function compile flags: /Odtp /RTCsu /ZI
; File c:\program files (x86)\microsoft visual studio 14.0\vc\include\xmemory0
;	COMDAT ??$destroy@U_Container_proxy@std@@@?$allocator_traits@V?$allocator@U_Container_proxy@std@@@std@@@std@@SAXAAV?$allocator@U_Container_proxy@std@@@1@PAU_Container_proxy@1@@Z
_TEXT	SEGMENT
__Al$ = 8						; size = 4
__Ptr$ = 12						; size = 4
??$destroy@U_Container_proxy@std@@@?$allocator_traits@V?$allocator@U_Container_proxy@std@@@std@@@std@@SAXAAV?$allocator@U_Container_proxy@std@@@1@PAU_Container_proxy@1@@Z PROC ; std::allocator_traits<std::allocator<std::_Container_proxy> >::destroy<std::_Container_proxy>, COMDAT

; 863  : 		{	// destroy object at _Ptr

	push	ebp
	mov	ebp, esp
	sub	esp, 192				; 000000c0H
	push	ebx
	push	esi
	push	edi
	lea	edi, DWORD PTR [ebp-192]
	mov	ecx, 48					; 00000030H
	mov	eax, -858993460				; ccccccccH
	rep stosd

; 864  : 		_Al.destroy(_Ptr);

	mov	eax, DWORD PTR __Ptr$[ebp]
	push	eax
	mov	ecx, DWORD PTR __Al$[ebp]
	call	??$destroy@U_Container_proxy@std@@@?$allocator@U_Container_proxy@std@@@std@@QAEXPAU_Container_proxy@1@@Z ; std::allocator<std::_Container_proxy>::destroy<std::_Container_proxy>

; 865  : 		}

	pop	edi
	pop	esi
	pop	ebx
	add	esp, 192				; 000000c0H
	cmp	ebp, esp
	call	__RTC_CheckEsp
	mov	esp, ebp
	pop	ebp
	ret	0
??$destroy@U_Container_proxy@std@@@?$allocator_traits@V?$allocator@U_Container_proxy@std@@@std@@@std@@SAXAAV?$allocator@U_Container_proxy@std@@@1@PAU_Container_proxy@1@@Z ENDP ; std::allocator_traits<std::allocator<std::_Container_proxy> >::destroy<std::_Container_proxy>
_TEXT	ENDS
; Function compile flags: /Odtp /RTCsu /ZI
; File c:\program files (x86)\microsoft visual studio 14.0\vc\include\xmemory0
;	COMDAT ??$?0UOption@CCustomMenu@@@?$allocator@U_Container_proxy@std@@@std@@QAE@ABV?$allocator@UOption@CCustomMenu@@@1@@Z
_TEXT	SEGMENT
_this$ = -8						; size = 4
___formal$ = 8						; size = 4
??$?0UOption@CCustomMenu@@@?$allocator@U_Container_proxy@std@@@std@@QAE@ABV?$allocator@UOption@CCustomMenu@@@1@@Z PROC ; std::allocator<std::_Container_proxy>::allocator<std::_Container_proxy><CCustomMenu::Option>, COMDAT
; _this$ = ecx

; 709  : 		{	// construct from a related allocator (do nothing)

	push	ebp
	mov	ebp, esp
	sub	esp, 204				; 000000ccH
	push	ebx
	push	esi
	push	edi
	push	ecx
	lea	edi, DWORD PTR [ebp-204]
	mov	ecx, 51					; 00000033H
	mov	eax, -858993460				; ccccccccH
	rep stosd
	pop	ecx
	mov	DWORD PTR _this$[ebp], ecx

; 710  : 		}

	mov	eax, DWORD PTR _this$[ebp]
	pop	edi
	pop	esi
	pop	ebx
	mov	esp, ebp
	pop	ebp
	ret	4
??$?0UOption@CCustomMenu@@@?$allocator@U_Container_proxy@std@@@std@@QAE@ABV?$allocator@UOption@CCustomMenu@@@1@@Z ENDP ; std::allocator<std::_Container_proxy>::allocator<std::_Container_proxy><CCustomMenu::Option>
_TEXT	ENDS
; Function compile flags: /Odtp /RTCsu /ZI
; File c:\program files (x86)\microsoft visual studio 14.0\vc\include\type_traits
;	COMDAT ??$forward@AAU?$_Wrap_alloc@V?$allocator@UOption@CCustomMenu@@@std@@@std@@@std@@YAAAU?$_Wrap_alloc@V?$allocator@UOption@CCustomMenu@@@std@@@0@AAU10@@Z
_TEXT	SEGMENT
__Arg$ = 8						; size = 4
??$forward@AAU?$_Wrap_alloc@V?$allocator@UOption@CCustomMenu@@@std@@@std@@@std@@YAAAU?$_Wrap_alloc@V?$allocator@UOption@CCustomMenu@@@std@@@0@AAU10@@Z PROC ; std::forward<std::_Wrap_alloc<std::allocator<CCustomMenu::Option> > &>, COMDAT

; 1275 : 	{	// forward an lvalue as either an lvalue or an rvalue

	push	ebp
	mov	ebp, esp
	sub	esp, 192				; 000000c0H
	push	ebx
	push	esi
	push	edi
	lea	edi, DWORD PTR [ebp-192]
	mov	ecx, 48					; 00000030H
	mov	eax, -858993460				; ccccccccH
	rep stosd

; 1276 : 	return (static_cast<_Ty&&>(_Arg));

	mov	eax, DWORD PTR __Arg$[ebp]

; 1277 : 	}

	pop	edi
	pop	esi
	pop	ebx
	mov	esp, ebp
	pop	ebp
	ret	0
??$forward@AAU?$_Wrap_alloc@V?$allocator@UOption@CCustomMenu@@@std@@@std@@@std@@YAAAU?$_Wrap_alloc@V?$allocator@UOption@CCustomMenu@@@std@@@0@AAU10@@Z ENDP ; std::forward<std::_Wrap_alloc<std::allocator<CCustomMenu::Option> > &>
_TEXT	ENDS
; Function compile flags: /Odtp /RTCsu /ZI
; File c:\program files (x86)\microsoft visual studio 14.0\vc\include\xmemory0
;	COMDAT ??$construct@PADAAPAD@?$allocator_traits@V?$allocator@D@std@@@std@@SAXAAV?$allocator@D@1@PAPADAAPAD@Z
_TEXT	SEGMENT
__Al$ = 8						; size = 4
__Ptr$ = 12						; size = 4
_<_Args_0>$ = 16					; size = 4
??$construct@PADAAPAD@?$allocator_traits@V?$allocator@D@std@@@std@@SAXAAV?$allocator@D@1@PAPADAAPAD@Z PROC ; std::allocator_traits<std::allocator<char> >::construct<char *,char * &>, COMDAT

; 856  : 		{	// construct _Objty(_Types...) at _Ptr

	push	ebp
	mov	ebp, esp
	sub	esp, 192				; 000000c0H
	push	ebx
	push	esi
	push	edi
	lea	edi, DWORD PTR [ebp-192]
	mov	ecx, 48					; 00000030H
	mov	eax, -858993460				; ccccccccH
	rep stosd

; 857  : 		_Al.construct(_Ptr, _STD forward<_Types>(_Args)...);

	mov	eax, DWORD PTR _<_Args_0>$[ebp]
	push	eax
	call	??$forward@AAPAD@std@@YAAAPADAAPAD@Z	; std::forward<char * &>
	add	esp, 4
	push	eax
	mov	ecx, DWORD PTR __Ptr$[ebp]
	push	ecx
	mov	ecx, DWORD PTR __Al$[ebp]
	call	??$construct@PADAAPAD@?$allocator@D@std@@QAEXPAPADAAPAD@Z ; std::allocator<char>::construct<char *,char * &>

; 858  : 		}

	pop	edi
	pop	esi
	pop	ebx
	add	esp, 192				; 000000c0H
	cmp	ebp, esp
	call	__RTC_CheckEsp
	mov	esp, ebp
	pop	ebp
	ret	0
??$construct@PADAAPAD@?$allocator_traits@V?$allocator@D@std@@@std@@SAXAAV?$allocator@D@1@PAPADAAPAD@Z ENDP ; std::allocator_traits<std::allocator<char> >::construct<char *,char * &>
_TEXT	ENDS
; Function compile flags: /Odtp /RTCsu /ZI
; File c:\program files (x86)\microsoft visual studio 14.0\vc\include\type_traits
;	COMDAT ??$forward@AAPAD@std@@YAAAPADAAPAD@Z
_TEXT	SEGMENT
__Arg$ = 8						; size = 4
??$forward@AAPAD@std@@YAAAPADAAPAD@Z PROC		; std::forward<char * &>, COMDAT

; 1275 : 	{	// forward an lvalue as either an lvalue or an rvalue

	push	ebp
	mov	ebp, esp
	sub	esp, 192				; 000000c0H
	push	ebx
	push	esi
	push	edi
	lea	edi, DWORD PTR [ebp-192]
	mov	ecx, 48					; 00000030H
	mov	eax, -858993460				; ccccccccH
	rep stosd

; 1276 : 	return (static_cast<_Ty&&>(_Arg));

	mov	eax, DWORD PTR __Arg$[ebp]

; 1277 : 	}

	pop	edi
	pop	esi
	pop	ebx
	mov	esp, ebp
	pop	ebp
	ret	0
??$forward@AAPAD@std@@YAAAPADAAPAD@Z ENDP		; std::forward<char * &>
_TEXT	ENDS
; Function compile flags: /Odtp /RTCsu /ZI
; File c:\program files (x86)\microsoft visual studio 14.0\vc\include\xmemory0
;	COMDAT ??$destroy@PAD@?$allocator_traits@V?$allocator@D@std@@@std@@SAXAAV?$allocator@D@1@PAPAD@Z
_TEXT	SEGMENT
__Al$ = 8						; size = 4
__Ptr$ = 12						; size = 4
??$destroy@PAD@?$allocator_traits@V?$allocator@D@std@@@std@@SAXAAV?$allocator@D@1@PAPAD@Z PROC ; std::allocator_traits<std::allocator<char> >::destroy<char *>, COMDAT

; 863  : 		{	// destroy object at _Ptr

	push	ebp
	mov	ebp, esp
	sub	esp, 192				; 000000c0H
	push	ebx
	push	esi
	push	edi
	lea	edi, DWORD PTR [ebp-192]
	mov	ecx, 48					; 00000030H
	mov	eax, -858993460				; ccccccccH
	rep stosd

; 864  : 		_Al.destroy(_Ptr);

	mov	eax, DWORD PTR __Ptr$[ebp]
	push	eax
	mov	ecx, DWORD PTR __Al$[ebp]
	call	??$destroy@PAD@?$allocator@D@std@@QAEXPAPAD@Z ; std::allocator<char>::destroy<char *>

; 865  : 		}

	pop	edi
	pop	esi
	pop	ebx
	add	esp, 192				; 000000c0H
	cmp	ebp, esp
	call	__RTC_CheckEsp
	mov	esp, ebp
	pop	ebp
	ret	0
??$destroy@PAD@?$allocator_traits@V?$allocator@D@std@@@std@@SAXAAV?$allocator@D@1@PAPAD@Z ENDP ; std::allocator_traits<std::allocator<char> >::destroy<char *>
_TEXT	ENDS
; Function compile flags: /Odtp /RTCsu /ZI
; File c:\program files (x86)\microsoft visual studio 14.0\vc\include\xmemory0
;	COMDAT ??$_Pocca@U?$_Wrap_alloc@V?$allocator@D@std@@@std@@@std@@YAXAAU?$_Wrap_alloc@V?$allocator@D@std@@@0@ABU10@U?$integral_constant@_N$0A@@0@@Z
_TEXT	SEGMENT
___formal$ = 8						; size = 4
___formal$ = 12						; size = 4
___formal$ = 16						; size = 1
??$_Pocca@U?$_Wrap_alloc@V?$allocator@D@std@@@std@@@std@@YAXAAU?$_Wrap_alloc@V?$allocator@D@std@@@0@ABU10@U?$integral_constant@_N$0A@@0@@Z PROC ; std::_Pocca<std::_Wrap_alloc<std::allocator<char> > >, COMDAT

; 1038 : 	{	// (don't) propagate on container copy assignment

	push	ebp
	mov	ebp, esp
	sub	esp, 192				; 000000c0H
	push	ebx
	push	esi
	push	edi
	lea	edi, DWORD PTR [ebp-192]
	mov	ecx, 48					; 00000030H
	mov	eax, -858993460				; ccccccccH
	rep stosd

; 1039 : 	}

	pop	edi
	pop	esi
	pop	ebx
	mov	esp, ebp
	pop	ebp
	ret	0
??$_Pocca@U?$_Wrap_alloc@V?$allocator@D@std@@@std@@@std@@YAXAAU?$_Wrap_alloc@V?$allocator@D@std@@@0@ABU10@U?$integral_constant@_N$0A@@0@@Z ENDP ; std::_Pocca<std::_Wrap_alloc<std::allocator<char> > >
_TEXT	ENDS
; Function compile flags: /Odtp /RTCsu /ZI
; File c:\program files (x86)\microsoft visual studio 14.0\vc\include\type_traits
;	COMDAT ??$forward@V?$allocator@D@std@@@std@@YA$$QAV?$allocator@D@0@AAV10@@Z
_TEXT	SEGMENT
__Arg$ = 8						; size = 4
??$forward@V?$allocator@D@std@@@std@@YA$$QAV?$allocator@D@0@AAV10@@Z PROC ; std::forward<std::allocator<char> >, COMDAT

; 1275 : 	{	// forward an lvalue as either an lvalue or an rvalue

	push	ebp
	mov	ebp, esp
	sub	esp, 192				; 000000c0H
	push	ebx
	push	esi
	push	edi
	lea	edi, DWORD PTR [ebp-192]
	mov	ecx, 48					; 00000030H
	mov	eax, -858993460				; ccccccccH
	rep stosd

; 1276 : 	return (static_cast<_Ty&&>(_Arg));

	mov	eax, DWORD PTR __Arg$[ebp]

; 1277 : 	}

	pop	edi
	pop	esi
	pop	ebx
	mov	esp, ebp
	pop	ebp
	ret	0
??$forward@V?$allocator@D@std@@@std@@YA$$QAV?$allocator@D@0@AAV10@@Z ENDP ; std::forward<std::allocator<char> >
_TEXT	ENDS
; Function compile flags: /Odtp /RTCsu /ZI
; File c:\program files (x86)\microsoft visual studio 14.0\vc\include\xutility
;	COMDAT ??$?0U?$_Wrap_alloc@V?$allocator@D@std@@@std@@$$V@?$_Compressed_pair@U?$_Wrap_alloc@V?$allocator@D@std@@@std@@V?$_String_val@U?$_Simple_types@D@std@@@2@$00@std@@QAE@U_One_then_variadic_args_t@1@$$QAU?$_Wrap_alloc@V?$allocator@D@std@@@1@@Z
_TEXT	SEGMENT
_this$ = -8						; size = 4
___formal$ = 8						; size = 1
__Val1$ = 12						; size = 4
??$?0U?$_Wrap_alloc@V?$allocator@D@std@@@std@@$$V@?$_Compressed_pair@U?$_Wrap_alloc@V?$allocator@D@std@@@std@@V?$_String_val@U?$_Simple_types@D@std@@@2@$00@std@@QAE@U_One_then_variadic_args_t@1@$$QAU?$_Wrap_alloc@V?$allocator@D@std@@@1@@Z PROC ; std::_Compressed_pair<std::_Wrap_alloc<std::allocator<char> >,std::_String_val<std::_Simple_types<char> >,1>::_Compressed_pair<std::_Wrap_alloc<std::allocator<char> >,std::_String_val<std::_Simple_types<char> >,1><std::_Wrap_alloc<std::allocator<char> > >, COMDAT
; _this$ = ecx

; 289  : 		{	// construct from forwarded values

	push	ebp
	mov	ebp, esp
	sub	esp, 204				; 000000ccH
	push	ebx
	push	esi
	push	edi
	push	ecx
	lea	edi, DWORD PTR [ebp-204]
	mov	ecx, 51					; 00000033H
	mov	eax, -858993460				; ccccccccH
	rep stosd
	pop	ecx
	mov	DWORD PTR _this$[ebp], ecx

; 287  : 		: _Ty1(_STD forward<_Other1>(_Val1)),

	mov	eax, DWORD PTR __Val1$[ebp]
	push	eax
	call	??$forward@U?$_Wrap_alloc@V?$allocator@D@std@@@std@@@std@@YA$$QAU?$_Wrap_alloc@V?$allocator@D@std@@@0@AAU10@@Z ; std::forward<std::_Wrap_alloc<std::allocator<char> > >
	add	esp, 4
	push	eax
	mov	ecx, DWORD PTR _this$[ebp]
	call	??0?$_Wrap_alloc@V?$allocator@D@std@@@std@@QAE@$$QAU01@@Z ; std::_Wrap_alloc<std::allocator<char> >::_Wrap_alloc<std::allocator<char> >

; 288  : 			_Myval2(_STD forward<_Other2>(_Val2)...)

	mov	ecx, DWORD PTR _this$[ebp]
	call	??0?$_String_val@U?$_Simple_types@D@std@@@std@@QAE@XZ ; std::_String_val<std::_Simple_types<char> >::_String_val<std::_Simple_types<char> >

; 290  : 		}

	mov	eax, DWORD PTR _this$[ebp]
	pop	edi
	pop	esi
	pop	ebx
	add	esp, 204				; 000000ccH
	cmp	ebp, esp
	call	__RTC_CheckEsp
	mov	esp, ebp
	pop	ebp
	ret	8
??$?0U?$_Wrap_alloc@V?$allocator@D@std@@@std@@$$V@?$_Compressed_pair@U?$_Wrap_alloc@V?$allocator@D@std@@@std@@V?$_String_val@U?$_Simple_types@D@std@@@2@$00@std@@QAE@U_One_then_variadic_args_t@1@$$QAU?$_Wrap_alloc@V?$allocator@D@std@@@1@@Z ENDP ; std::_Compressed_pair<std::_Wrap_alloc<std::allocator<char> >,std::_String_val<std::_Simple_types<char> >,1>::_Compressed_pair<std::_Wrap_alloc<std::allocator<char> >,std::_String_val<std::_Simple_types<char> >,1><std::_Wrap_alloc<std::allocator<char> > >
_TEXT	ENDS
; Function compile flags: /Odtp /RTCsu /ZI
; File c:\program files (x86)\microsoft visual studio 14.0\vc\include\type_traits
;	COMDAT ??$forward@U?$_Wrap_alloc@V?$allocator@D@std@@@std@@@std@@YA$$QAU?$_Wrap_alloc@V?$allocator@D@std@@@0@AAU10@@Z
_TEXT	SEGMENT
__Arg$ = 8						; size = 4
??$forward@U?$_Wrap_alloc@V?$allocator@D@std@@@std@@@std@@YA$$QAU?$_Wrap_alloc@V?$allocator@D@std@@@0@AAU10@@Z PROC ; std::forward<std::_Wrap_alloc<std::allocator<char> > >, COMDAT

; 1275 : 	{	// forward an lvalue as either an lvalue or an rvalue

	push	ebp
	mov	ebp, esp
	sub	esp, 192				; 000000c0H
	push	ebx
	push	esi
	push	edi
	lea	edi, DWORD PTR [ebp-192]
	mov	ecx, 48					; 00000030H
	mov	eax, -858993460				; ccccccccH
	rep stosd

; 1276 : 	return (static_cast<_Ty&&>(_Arg));

	mov	eax, DWORD PTR __Arg$[ebp]

; 1277 : 	}

	pop	edi
	pop	esi
	pop	ebx
	mov	esp, ebp
	pop	ebp
	ret	0
??$forward@U?$_Wrap_alloc@V?$allocator@D@std@@@std@@@std@@YA$$QAU?$_Wrap_alloc@V?$allocator@D@std@@@0@AAU10@@Z ENDP ; std::forward<std::_Wrap_alloc<std::allocator<char> > >
_TEXT	ENDS
; Function compile flags: /Odtp /RTCsu /ZI
; File c:\program files (x86)\microsoft visual studio 14.0\vc\include\xmemory0
;	COMDAT ??$?8DD@std@@YA_NABV?$allocator@D@0@0@Z
_TEXT	SEGMENT
___formal$ = 8						; size = 4
___formal$ = 12						; size = 4
??$?8DD@std@@YA_NABV?$allocator@D@0@0@Z PROC		; std::operator==<char,char>, COMDAT

; 795  : 	{	// test for allocator equality

	push	ebp
	mov	ebp, esp
	sub	esp, 192				; 000000c0H
	push	ebx
	push	esi
	push	edi
	lea	edi, DWORD PTR [ebp-192]
	mov	ecx, 48					; 00000030H
	mov	eax, -858993460				; ccccccccH
	rep stosd

; 796  : 	return (true);

	mov	al, 1

; 797  : 	}

	pop	edi
	pop	esi
	pop	ebx
	mov	esp, ebp
	pop	ebp
	ret	0
??$?8DD@std@@YA_NABV?$allocator@D@0@0@Z ENDP		; std::operator==<char,char>
_TEXT	ENDS
; Function compile flags: /Odtp /RTCsu /ZI
; File c:\program files (x86)\microsoft visual studio 14.0\vc\include\xmemory0
;	COMDAT ??$?8V?$allocator@D@std@@V01@@std@@YA_NABU?$_Wrap_alloc@V?$allocator@D@std@@@0@0@Z
_TEXT	SEGMENT
__Left$ = 8						; size = 4
__Right$ = 12						; size = 4
??$?8V?$allocator@D@std@@V01@@std@@YA_NABU?$_Wrap_alloc@V?$allocator@D@std@@@0@0@Z PROC ; std::operator==<std::allocator<char>,std::allocator<char> >, COMDAT

; 1016 : 	{	// test for allocator equality

	push	ebp
	mov	ebp, esp
	sub	esp, 192				; 000000c0H
	push	ebx
	push	esi
	push	edi
	lea	edi, DWORD PTR [ebp-192]
	mov	ecx, 48					; 00000030H
	mov	eax, -858993460				; ccccccccH
	rep stosd

; 1017 : 	return (static_cast<const _Ty&>(_Left)

	mov	eax, DWORD PTR __Right$[ebp]
	push	eax
	mov	ecx, DWORD PTR __Left$[ebp]
	push	ecx
	call	??$?8DD@std@@YA_NABV?$allocator@D@0@0@Z	; std::operator==<char,char>
	add	esp, 8

; 1018 : 		== static_cast<const _Other&>(_Right));
; 1019 : 	}

	pop	edi
	pop	esi
	pop	ebx
	add	esp, 192				; 000000c0H
	cmp	ebp, esp
	call	__RTC_CheckEsp
	mov	esp, ebp
	pop	ebp
	ret	0
??$?8V?$allocator@D@std@@V01@@std@@YA_NABU?$_Wrap_alloc@V?$allocator@D@std@@@0@0@Z ENDP ; std::operator==<std::allocator<char>,std::allocator<char> >
_TEXT	ENDS
; Function compile flags: /Odtp /RTCsu /ZI
; File c:\program files (x86)\microsoft visual studio 14.0\vc\include\xmemory0
;	COMDAT ??$construct@UOption@CCustomMenu@@ABU12@@?$allocator_traits@V?$allocator@UOption@CCustomMenu@@@std@@@std@@SAXAAV?$allocator@UOption@CCustomMenu@@@1@PAUOption@CCustomMenu@@ABU34@@Z
_TEXT	SEGMENT
__Al$ = 8						; size = 4
__Ptr$ = 12						; size = 4
_<_Args_0>$ = 16					; size = 4
??$construct@UOption@CCustomMenu@@ABU12@@?$allocator_traits@V?$allocator@UOption@CCustomMenu@@@std@@@std@@SAXAAV?$allocator@UOption@CCustomMenu@@@1@PAUOption@CCustomMenu@@ABU34@@Z PROC ; std::allocator_traits<std::allocator<CCustomMenu::Option> >::construct<CCustomMenu::Option,CCustomMenu::Option const &>, COMDAT

; 856  : 		{	// construct _Objty(_Types...) at _Ptr

	push	ebp
	mov	ebp, esp
	sub	esp, 192				; 000000c0H
	push	ebx
	push	esi
	push	edi
	lea	edi, DWORD PTR [ebp-192]
	mov	ecx, 48					; 00000030H
	mov	eax, -858993460				; ccccccccH
	rep stosd

; 857  : 		_Al.construct(_Ptr, _STD forward<_Types>(_Args)...);

	mov	eax, DWORD PTR _<_Args_0>$[ebp]
	push	eax
	call	??$forward@ABUOption@CCustomMenu@@@std@@YAABUOption@CCustomMenu@@ABU12@@Z ; std::forward<CCustomMenu::Option const &>
	add	esp, 4
	push	eax
	mov	ecx, DWORD PTR __Ptr$[ebp]
	push	ecx
	mov	ecx, DWORD PTR __Al$[ebp]
	call	??$construct@UOption@CCustomMenu@@ABU12@@?$allocator@UOption@CCustomMenu@@@std@@QAEXPAUOption@CCustomMenu@@ABU23@@Z ; std::allocator<CCustomMenu::Option>::construct<CCustomMenu::Option,CCustomMenu::Option const &>

; 858  : 		}

	pop	edi
	pop	esi
	pop	ebx
	add	esp, 192				; 000000c0H
	cmp	ebp, esp
	call	__RTC_CheckEsp
	mov	esp, ebp
	pop	ebp
	ret	0
??$construct@UOption@CCustomMenu@@ABU12@@?$allocator_traits@V?$allocator@UOption@CCustomMenu@@@std@@@std@@SAXAAV?$allocator@UOption@CCustomMenu@@@1@PAUOption@CCustomMenu@@ABU34@@Z ENDP ; std::allocator_traits<std::allocator<CCustomMenu::Option> >::construct<CCustomMenu::Option,CCustomMenu::Option const &>
_TEXT	ENDS
; Function compile flags: /Odtp /RTCsu /ZI
; File c:\program files (x86)\microsoft visual studio 14.0\vc\include\type_traits
;	COMDAT ??$forward@ABUOption@CCustomMenu@@@std@@YAABUOption@CCustomMenu@@ABU12@@Z
_TEXT	SEGMENT
__Arg$ = 8						; size = 4
??$forward@ABUOption@CCustomMenu@@@std@@YAABUOption@CCustomMenu@@ABU12@@Z PROC ; std::forward<CCustomMenu::Option const &>, COMDAT

; 1275 : 	{	// forward an lvalue as either an lvalue or an rvalue

	push	ebp
	mov	ebp, esp
	sub	esp, 192				; 000000c0H
	push	ebx
	push	esi
	push	edi
	lea	edi, DWORD PTR [ebp-192]
	mov	ecx, 48					; 00000030H
	mov	eax, -858993460				; ccccccccH
	rep stosd

; 1276 : 	return (static_cast<_Ty&&>(_Arg));

	mov	eax, DWORD PTR __Arg$[ebp]

; 1277 : 	}

	pop	edi
	pop	esi
	pop	ebx
	mov	esp, ebp
	pop	ebp
	ret	0
??$forward@ABUOption@CCustomMenu@@@std@@YAABUOption@CCustomMenu@@ABU12@@Z ENDP ; std::forward<CCustomMenu::Option const &>
_TEXT	ENDS
; Function compile flags: /Odtp /RTCsu /ZI
; File c:\program files (x86)\microsoft visual studio 14.0\vc\include\xmemory0
;	COMDAT ??$construct@UOption@CCustomMenu@@AAU12@@?$allocator_traits@V?$allocator@UOption@CCustomMenu@@@std@@@std@@SAXAAV?$allocator@UOption@CCustomMenu@@@1@PAUOption@CCustomMenu@@AAU34@@Z
_TEXT	SEGMENT
__Al$ = 8						; size = 4
__Ptr$ = 12						; size = 4
_<_Args_0>$ = 16					; size = 4
??$construct@UOption@CCustomMenu@@AAU12@@?$allocator_traits@V?$allocator@UOption@CCustomMenu@@@std@@@std@@SAXAAV?$allocator@UOption@CCustomMenu@@@1@PAUOption@CCustomMenu@@AAU34@@Z PROC ; std::allocator_traits<std::allocator<CCustomMenu::Option> >::construct<CCustomMenu::Option,CCustomMenu::Option &>, COMDAT

; 856  : 		{	// construct _Objty(_Types...) at _Ptr

	push	ebp
	mov	ebp, esp
	sub	esp, 192				; 000000c0H
	push	ebx
	push	esi
	push	edi
	lea	edi, DWORD PTR [ebp-192]
	mov	ecx, 48					; 00000030H
	mov	eax, -858993460				; ccccccccH
	rep stosd

; 857  : 		_Al.construct(_Ptr, _STD forward<_Types>(_Args)...);

	mov	eax, DWORD PTR _<_Args_0>$[ebp]
	push	eax
	call	??$forward@AAUOption@CCustomMenu@@@std@@YAAAUOption@CCustomMenu@@AAU12@@Z ; std::forward<CCustomMenu::Option &>
	add	esp, 4
	push	eax
	mov	ecx, DWORD PTR __Ptr$[ebp]
	push	ecx
	mov	ecx, DWORD PTR __Al$[ebp]
	call	??$construct@UOption@CCustomMenu@@AAU12@@?$allocator@UOption@CCustomMenu@@@std@@QAEXPAUOption@CCustomMenu@@AAU23@@Z ; std::allocator<CCustomMenu::Option>::construct<CCustomMenu::Option,CCustomMenu::Option &>

; 858  : 		}

	pop	edi
	pop	esi
	pop	ebx
	add	esp, 192				; 000000c0H
	cmp	ebp, esp
	call	__RTC_CheckEsp
	mov	esp, ebp
	pop	ebp
	ret	0
??$construct@UOption@CCustomMenu@@AAU12@@?$allocator_traits@V?$allocator@UOption@CCustomMenu@@@std@@@std@@SAXAAV?$allocator@UOption@CCustomMenu@@@1@PAUOption@CCustomMenu@@AAU34@@Z ENDP ; std::allocator_traits<std::allocator<CCustomMenu::Option> >::construct<CCustomMenu::Option,CCustomMenu::Option &>
_TEXT	ENDS
; Function compile flags: /Odtp /RTCsu /ZI
; File c:\program files (x86)\microsoft visual studio 14.0\vc\include\type_traits
;	COMDAT ??$forward@AAUOption@CCustomMenu@@@std@@YAAAUOption@CCustomMenu@@AAU12@@Z
_TEXT	SEGMENT
__Arg$ = 8						; size = 4
??$forward@AAUOption@CCustomMenu@@@std@@YAAAUOption@CCustomMenu@@AAU12@@Z PROC ; std::forward<CCustomMenu::Option &>, COMDAT

; 1275 : 	{	// forward an lvalue as either an lvalue or an rvalue

	push	ebp
	mov	ebp, esp
	sub	esp, 192				; 000000c0H
	push	ebx
	push	esi
	push	edi
	lea	edi, DWORD PTR [ebp-192]
	mov	ecx, 48					; 00000030H
	mov	eax, -858993460				; ccccccccH
	rep stosd

; 1276 : 	return (static_cast<_Ty&&>(_Arg));

	mov	eax, DWORD PTR __Arg$[ebp]

; 1277 : 	}

	pop	edi
	pop	esi
	pop	ebx
	mov	esp, ebp
	pop	ebp
	ret	0
??$forward@AAUOption@CCustomMenu@@@std@@YAAAUOption@CCustomMenu@@AAU12@@Z ENDP ; std::forward<CCustomMenu::Option &>
_TEXT	ENDS
; Function compile flags: /Odtp /RTCsu /ZI
; File c:\program files (x86)\microsoft visual studio 14.0\vc\include\ostream
;	COMDAT ??Bsentry@?$basic_ostream@DU?$char_traits@D@std@@@std@@QBE_NXZ
_TEXT	SEGMENT
_this$ = -8						; size = 4
??Bsentry@?$basic_ostream@DU?$char_traits@D@std@@@std@@QBE_NXZ PROC ; std::basic_ostream<char,std::char_traits<char> >::sentry::operator bool, COMDAT
; _this$ = ecx

; 141  : 			{	// test if stream state okay

	push	ebp
	mov	ebp, esp
	sub	esp, 204				; 000000ccH
	push	ebx
	push	esi
	push	edi
	push	ecx
	lea	edi, DWORD PTR [ebp-204]
	mov	ecx, 51					; 00000033H
	mov	eax, -858993460				; ccccccccH
	rep stosd
	pop	ecx
	mov	DWORD PTR _this$[ebp], ecx

; 142  : 			return (_Ok);

	mov	eax, DWORD PTR _this$[ebp]
	mov	al, BYTE PTR [eax+4]

; 143  : 			}

	pop	edi
	pop	esi
	pop	ebx
	mov	esp, ebp
	pop	ebp
	ret	0
??Bsentry@?$basic_ostream@DU?$char_traits@D@std@@@std@@QBE_NXZ ENDP ; std::basic_ostream<char,std::char_traits<char> >::sentry::operator bool
_TEXT	ENDS
; Function compile flags: /Odtp /RTCsu /ZI
; File c:\program files (x86)\microsoft visual studio 14.0\vc\include\ostream
;	COMDAT ??1sentry@?$basic_ostream@DU?$char_traits@D@std@@@std@@QAE@XZ
_TEXT	SEGMENT
_this$ = -20						; size = 4
__$EHRec$ = -12						; size = 12
??1sentry@?$basic_ostream@DU?$char_traits@D@std@@@std@@QAE@XZ PROC ; std::basic_ostream<char,std::char_traits<char> >::sentry::~sentry, COMDAT
; _this$ = ecx

; 130  : 			{	// destroy the object

	push	ebp
	mov	ebp, esp
	push	-1
	push	__ehhandler$??1sentry@?$basic_ostream@DU?$char_traits@D@std@@@std@@QAE@XZ
	mov	eax, DWORD PTR fs:0
	push	eax
	sub	esp, 204				; 000000ccH
	push	ebx
	push	esi
	push	edi
	push	ecx
	lea	edi, DWORD PTR [ebp-216]
	mov	ecx, 51					; 00000033H
	mov	eax, -858993460				; ccccccccH
	rep stosd
	pop	ecx
	mov	eax, DWORD PTR ___security_cookie
	xor	eax, ebp
	push	eax
	lea	eax, DWORD PTR __$EHRec$[ebp]
	mov	DWORD PTR fs:0, eax
	mov	DWORD PTR _this$[ebp], ecx

; 131  :  #if _HAS_EXCEPTIONS
; 132  : 			if (!_XSTD uncaught_exception())

	mov	esi, esp
	call	DWORD PTR __imp_?uncaught_exception@std@@YA_NXZ
	cmp	esi, esp
	call	__RTC_CheckEsp
	movzx	eax, al
	test	eax, eax
	jne	SHORT $LN1@sentry

; 133  : 				this->_Myostr._Osfx();

	mov	esi, esp
	mov	eax, DWORD PTR _this$[ebp]
	mov	ecx, DWORD PTR [eax]
	call	DWORD PTR __imp_?_Osfx@?$basic_ostream@DU?$char_traits@D@std@@@std@@QAEXXZ
	cmp	esi, esp
	call	__RTC_CheckEsp
$LN1@sentry:

; 134  : 
; 135  :  #else /* _HAS_EXCEPTIONS */
; 136  : 			this->_Myostr._Osfx();
; 137  :  #endif /* _HAS_EXCEPTIONS */
; 138  : 			}

	mov	ecx, DWORD PTR _this$[ebp]
	call	??1_Sentry_base@?$basic_ostream@DU?$char_traits@D@std@@@std@@QAE@XZ ; std::basic_ostream<char,std::char_traits<char> >::_Sentry_base::~_Sentry_base
	mov	ecx, DWORD PTR __$EHRec$[ebp]
	mov	DWORD PTR fs:0, ecx
	pop	ecx
	pop	edi
	pop	esi
	pop	ebx
	add	esp, 216				; 000000d8H
	cmp	ebp, esp
	call	__RTC_CheckEsp
	mov	esp, ebp
	pop	ebp
	ret	0
_TEXT	ENDS
;	COMDAT text$x
text$x	SEGMENT
__ehhandler$??1sentry@?$basic_ostream@DU?$char_traits@D@std@@@std@@QAE@XZ:
	mov	edx, DWORD PTR [esp+8]
	lea	eax, DWORD PTR [edx+12]
	mov	ecx, DWORD PTR [edx-220]
	xor	ecx, eax
	call	@__security_check_cookie@4
	mov	eax, OFFSET __ehfuncinfo$??1sentry@?$basic_ostream@DU?$char_traits@D@std@@@std@@QAE@XZ
	jmp	___CxxFrameHandler3
text$x	ENDS
??1sentry@?$basic_ostream@DU?$char_traits@D@std@@@std@@QAE@XZ ENDP ; std::basic_ostream<char,std::char_traits<char> >::sentry::~sentry
; Function compile flags: /Odtp /RTCsu /ZI
; File c:\program files (x86)\microsoft visual studio 14.0\vc\include\ostream
;	COMDAT ??0sentry@?$basic_ostream@DU?$char_traits@D@std@@@std@@QAE@AAV12@@Z
_TEXT	SEGMENT
_this$ = -20						; size = 4
__$EHRec$ = -12						; size = 12
__Ostr$ = 8						; size = 4
??0sentry@?$basic_ostream@DU?$char_traits@D@std@@@std@@QAE@AAV12@@Z PROC ; std::basic_ostream<char,std::char_traits<char> >::sentry::sentry, COMDAT
; _this$ = ecx

; 123  : 			{	// construct locking and testing stream

	push	ebp
	mov	ebp, esp
	push	-1
	push	__ehhandler$??0sentry@?$basic_ostream@DU?$char_traits@D@std@@@std@@QAE@AAV12@@Z
	mov	eax, DWORD PTR fs:0
	push	eax
	sub	esp, 204				; 000000ccH
	push	ebx
	push	esi
	push	edi
	push	ecx
	lea	edi, DWORD PTR [ebp-216]
	mov	ecx, 51					; 00000033H
	mov	eax, -858993460				; ccccccccH
	rep stosd
	pop	ecx
	mov	eax, DWORD PTR ___security_cookie
	xor	eax, ebp
	push	eax
	lea	eax, DWORD PTR __$EHRec$[ebp]
	mov	DWORD PTR fs:0, eax
	mov	DWORD PTR _this$[ebp], ecx

; 122  : 			: _Sentry_base(_Ostr)

	mov	eax, DWORD PTR __Ostr$[ebp]
	push	eax
	mov	ecx, DWORD PTR _this$[ebp]
	call	??0_Sentry_base@?$basic_ostream@DU?$char_traits@D@std@@@std@@QAE@AAV12@@Z ; std::basic_ostream<char,std::char_traits<char> >::_Sentry_base::_Sentry_base
	mov	DWORD PTR __$EHRec$[ebp+8], 0

; 124  : 			if (_Ostr.good() && _Ostr.tie() != 0 && _Ostr.tie() != &_Ostr)

	mov	eax, DWORD PTR __Ostr$[ebp]
	mov	ecx, DWORD PTR [eax]
	mov	edx, DWORD PTR __Ostr$[ebp]
	add	edx, DWORD PTR [ecx+4]
	mov	esi, esp
	mov	ecx, edx
	call	DWORD PTR __imp_?good@ios_base@std@@QBE_NXZ
	cmp	esi, esp
	call	__RTC_CheckEsp
	movzx	eax, al
	test	eax, eax
	je	SHORT $LN2@sentry
	mov	eax, DWORD PTR __Ostr$[ebp]
	mov	ecx, DWORD PTR [eax]
	mov	edx, DWORD PTR __Ostr$[ebp]
	add	edx, DWORD PTR [ecx+4]
	mov	esi, esp
	mov	ecx, edx
	call	DWORD PTR __imp_?tie@?$basic_ios@DU?$char_traits@D@std@@@std@@QBEPAV?$basic_ostream@DU?$char_traits@D@std@@@2@XZ
	cmp	esi, esp
	call	__RTC_CheckEsp
	test	eax, eax
	je	SHORT $LN2@sentry
	mov	eax, DWORD PTR __Ostr$[ebp]
	mov	ecx, DWORD PTR [eax]
	mov	edx, DWORD PTR __Ostr$[ebp]
	add	edx, DWORD PTR [ecx+4]
	mov	esi, esp
	mov	ecx, edx
	call	DWORD PTR __imp_?tie@?$basic_ios@DU?$char_traits@D@std@@@std@@QBEPAV?$basic_ostream@DU?$char_traits@D@std@@@2@XZ
	cmp	esi, esp
	call	__RTC_CheckEsp
	cmp	eax, DWORD PTR __Ostr$[ebp]
	je	SHORT $LN2@sentry

; 125  : 				_Ostr.tie()->flush();

	mov	eax, DWORD PTR __Ostr$[ebp]
	mov	ecx, DWORD PTR [eax]
	mov	edx, DWORD PTR __Ostr$[ebp]
	add	edx, DWORD PTR [ecx+4]
	mov	esi, esp
	mov	ecx, edx
	call	DWORD PTR __imp_?tie@?$basic_ios@DU?$char_traits@D@std@@@std@@QBEPAV?$basic_ostream@DU?$char_traits@D@std@@@2@XZ
	cmp	esi, esp
	call	__RTC_CheckEsp
	mov	esi, esp
	mov	ecx, eax
	call	DWORD PTR __imp_?flush@?$basic_ostream@DU?$char_traits@D@std@@@std@@QAEAAV12@XZ
	cmp	esi, esp
	call	__RTC_CheckEsp
$LN2@sentry:

; 126  : 			_Ok = _Ostr.good();	// store test only after flushing tie

	mov	eax, DWORD PTR __Ostr$[ebp]
	mov	ecx, DWORD PTR [eax]
	mov	edx, DWORD PTR __Ostr$[ebp]
	add	edx, DWORD PTR [ecx+4]
	mov	esi, esp
	mov	ecx, edx
	call	DWORD PTR __imp_?good@ios_base@std@@QBE_NXZ
	cmp	esi, esp
	call	__RTC_CheckEsp
	mov	ecx, DWORD PTR _this$[ebp]
	mov	BYTE PTR [ecx+4], al

; 127  : 			}

	mov	DWORD PTR __$EHRec$[ebp+8], -1
	mov	eax, DWORD PTR _this$[ebp]
	mov	ecx, DWORD PTR __$EHRec$[ebp]
	mov	DWORD PTR fs:0, ecx
	pop	ecx
	pop	edi
	pop	esi
	pop	ebx
	add	esp, 216				; 000000d8H
	cmp	ebp, esp
	call	__RTC_CheckEsp
	mov	esp, ebp
	pop	ebp
	ret	4
_TEXT	ENDS
;	COMDAT text$x
text$x	SEGMENT
__unwindfunclet$??0sentry@?$basic_ostream@DU?$char_traits@D@std@@@std@@QAE@AAV12@@Z$0:
	mov	ecx, DWORD PTR _this$[ebp]
	jmp	??1_Sentry_base@?$basic_ostream@DU?$char_traits@D@std@@@std@@QAE@XZ ; std::basic_ostream<char,std::char_traits<char> >::_Sentry_base::~_Sentry_base
__ehhandler$??0sentry@?$basic_ostream@DU?$char_traits@D@std@@@std@@QAE@AAV12@@Z:
	mov	edx, DWORD PTR [esp+8]
	lea	eax, DWORD PTR [edx+12]
	mov	ecx, DWORD PTR [edx-220]
	xor	ecx, eax
	call	@__security_check_cookie@4
	mov	eax, OFFSET __ehfuncinfo$??0sentry@?$basic_ostream@DU?$char_traits@D@std@@@std@@QAE@AAV12@@Z
	jmp	___CxxFrameHandler3
text$x	ENDS
??0sentry@?$basic_ostream@DU?$char_traits@D@std@@@std@@QAE@AAV12@@Z ENDP ; std::basic_ostream<char,std::char_traits<char> >::sentry::sentry
; Function compile flags: /Odtp /RTCsu /ZI
; File c:\program files (x86)\microsoft visual studio 14.0\vc\include\ostream
;	COMDAT ??1_Sentry_base@?$basic_ostream@DU?$char_traits@D@std@@@std@@QAE@XZ
_TEXT	SEGMENT
tv92 = -224						; size = 4
tv86 = -220						; size = 4
tv72 = -220						; size = 4
_this$ = -20						; size = 4
__$EHRec$ = -12						; size = 12
??1_Sentry_base@?$basic_ostream@DU?$char_traits@D@std@@@std@@QAE@XZ PROC ; std::basic_ostream<char,std::char_traits<char> >::_Sentry_base::~_Sentry_base, COMDAT
; _this$ = ecx

; 106  : 			{	// destroy after unlocking

	push	ebp
	mov	ebp, esp
	push	-1
	push	__ehhandler$??1_Sentry_base@?$basic_ostream@DU?$char_traits@D@std@@@std@@QAE@XZ
	mov	eax, DWORD PTR fs:0
	push	eax
	sub	esp, 212				; 000000d4H
	push	ebx
	push	esi
	push	edi
	push	ecx
	lea	edi, DWORD PTR [ebp-224]
	mov	ecx, 53					; 00000035H
	mov	eax, -858993460				; ccccccccH
	rep stosd
	pop	ecx
	mov	eax, DWORD PTR ___security_cookie
	xor	eax, ebp
	push	eax
	lea	eax, DWORD PTR __$EHRec$[ebp]
	mov	DWORD PTR fs:0, eax
	mov	DWORD PTR _this$[ebp], ecx

; 107  : 			if (_Myostr.rdbuf() != 0)

	mov	eax, DWORD PTR _this$[ebp]
	mov	ecx, DWORD PTR [eax]
	mov	DWORD PTR tv72[ebp], ecx
	mov	edx, DWORD PTR tv72[ebp]
	mov	eax, DWORD PTR [edx]
	mov	ecx, DWORD PTR tv72[ebp]
	add	ecx, DWORD PTR [eax+4]
	mov	esi, esp
	call	DWORD PTR __imp_?rdbuf@?$basic_ios@DU?$char_traits@D@std@@@std@@QBEPAV?$basic_streambuf@DU?$char_traits@D@std@@@2@XZ
	cmp	esi, esp
	call	__RTC_CheckEsp
	test	eax, eax
	je	SHORT $LN3@Sentry_bas

; 108  : 				_Myostr.rdbuf()->_Unlock();

	mov	eax, DWORD PTR _this$[ebp]
	mov	ecx, DWORD PTR [eax]
	mov	DWORD PTR tv86[ebp], ecx
	mov	edx, DWORD PTR tv86[ebp]
	mov	eax, DWORD PTR [edx]
	mov	ecx, DWORD PTR tv86[ebp]
	add	ecx, DWORD PTR [eax+4]
	mov	esi, esp
	call	DWORD PTR __imp_?rdbuf@?$basic_ios@DU?$char_traits@D@std@@@std@@QBEPAV?$basic_streambuf@DU?$char_traits@D@std@@@2@XZ
	cmp	esi, esp
	call	__RTC_CheckEsp
	mov	DWORD PTR tv92[ebp], eax
	mov	ecx, DWORD PTR tv92[ebp]
	mov	edx, DWORD PTR [ecx]
	mov	esi, esp
	mov	ecx, DWORD PTR tv92[ebp]
	mov	eax, DWORD PTR [edx+8]
	call	eax
	cmp	esi, esp
	call	__RTC_CheckEsp
$LN3@Sentry_bas:

; 109  : 			}

	mov	ecx, DWORD PTR __$EHRec$[ebp]
	mov	DWORD PTR fs:0, ecx
	pop	ecx
	pop	edi
	pop	esi
	pop	ebx
	add	esp, 224				; 000000e0H
	cmp	ebp, esp
	call	__RTC_CheckEsp
	mov	esp, ebp
	pop	ebp
	ret	0
_TEXT	ENDS
;	COMDAT text$x
text$x	SEGMENT
__ehhandler$??1_Sentry_base@?$basic_ostream@DU?$char_traits@D@std@@@std@@QAE@XZ:
	mov	edx, DWORD PTR [esp+8]
	lea	eax, DWORD PTR [edx+12]
	mov	ecx, DWORD PTR [edx-228]
	xor	ecx, eax
	call	@__security_check_cookie@4
	mov	eax, OFFSET __ehfuncinfo$??1_Sentry_base@?$basic_ostream@DU?$char_traits@D@std@@@std@@QAE@XZ
	jmp	___CxxFrameHandler3
text$x	ENDS
??1_Sentry_base@?$basic_ostream@DU?$char_traits@D@std@@@std@@QAE@XZ ENDP ; std::basic_ostream<char,std::char_traits<char> >::_Sentry_base::~_Sentry_base
; Function compile flags: /Odtp /RTCsu /ZI
; File c:\program files (x86)\microsoft visual studio 14.0\vc\include\ostream
;	COMDAT ??0_Sentry_base@?$basic_ostream@DU?$char_traits@D@std@@@std@@QAE@AAV12@@Z
_TEXT	SEGMENT
tv93 = -212						; size = 4
tv87 = -208						; size = 4
tv73 = -208						; size = 4
_this$ = -8						; size = 4
__Ostr$ = 8						; size = 4
??0_Sentry_base@?$basic_ostream@DU?$char_traits@D@std@@@std@@QAE@AAV12@@Z PROC ; std::basic_ostream<char,std::char_traits<char> >::_Sentry_base::_Sentry_base, COMDAT
; _this$ = ecx

; 100  : 			{	// lock the stream buffer, if there

	push	ebp
	mov	ebp, esp
	sub	esp, 212				; 000000d4H
	push	ebx
	push	esi
	push	edi
	push	ecx
	lea	edi, DWORD PTR [ebp-212]
	mov	ecx, 53					; 00000035H
	mov	eax, -858993460				; ccccccccH
	rep stosd
	pop	ecx
	mov	DWORD PTR _this$[ebp], ecx

; 99   : 			: _Myostr(_Ostr)

	mov	eax, DWORD PTR _this$[ebp]
	mov	ecx, DWORD PTR __Ostr$[ebp]
	mov	DWORD PTR [eax], ecx

; 101  : 			if (_Myostr.rdbuf() != 0)

	mov	eax, DWORD PTR _this$[ebp]
	mov	ecx, DWORD PTR [eax]
	mov	DWORD PTR tv73[ebp], ecx
	mov	edx, DWORD PTR tv73[ebp]
	mov	eax, DWORD PTR [edx]
	mov	ecx, DWORD PTR tv73[ebp]
	add	ecx, DWORD PTR [eax+4]
	mov	esi, esp
	call	DWORD PTR __imp_?rdbuf@?$basic_ios@DU?$char_traits@D@std@@@std@@QBEPAV?$basic_streambuf@DU?$char_traits@D@std@@@2@XZ
	cmp	esi, esp
	call	__RTC_CheckEsp
	test	eax, eax
	je	SHORT $LN1@Sentry_bas

; 102  : 				_Myostr.rdbuf()->_Lock();

	mov	eax, DWORD PTR _this$[ebp]
	mov	ecx, DWORD PTR [eax]
	mov	DWORD PTR tv87[ebp], ecx
	mov	edx, DWORD PTR tv87[ebp]
	mov	eax, DWORD PTR [edx]
	mov	ecx, DWORD PTR tv87[ebp]
	add	ecx, DWORD PTR [eax+4]
	mov	esi, esp
	call	DWORD PTR __imp_?rdbuf@?$basic_ios@DU?$char_traits@D@std@@@std@@QBEPAV?$basic_streambuf@DU?$char_traits@D@std@@@2@XZ
	cmp	esi, esp
	call	__RTC_CheckEsp
	mov	DWORD PTR tv93[ebp], eax
	mov	ecx, DWORD PTR tv93[ebp]
	mov	edx, DWORD PTR [ecx]
	mov	esi, esp
	mov	ecx, DWORD PTR tv93[ebp]
	mov	eax, DWORD PTR [edx+4]
	call	eax
	cmp	esi, esp
	call	__RTC_CheckEsp
$LN1@Sentry_bas:

; 103  : 			}

	mov	eax, DWORD PTR _this$[ebp]
	pop	edi
	pop	esi
	pop	ebx
	add	esp, 212				; 000000d4H
	cmp	ebp, esp
	call	__RTC_CheckEsp
	mov	esp, ebp
	pop	ebp
	ret	4
??0_Sentry_base@?$basic_ostream@DU?$char_traits@D@std@@@std@@QAE@AAV12@@Z ENDP ; std::basic_ostream<char,std::char_traits<char> >::_Sentry_base::_Sentry_base
_TEXT	ENDS
; Function compile flags: /Odtp /RTCsu /ZI
; File c:\program files (x86)\microsoft visual studio 14.0\vc\include\algorithm
;	COMDAT ??$sort@V?$_Vector_iterator@V?$_Vector_val@U?$_Simple_types@UOption@CCustomMenu@@@std@@@std@@@std@@U?$less@X@2@@std@@YAXV?$_Vector_iterator@V?$_Vector_val@U?$_Simple_types@UOption@CCustomMenu@@@std@@@std@@@0@0U?$less@X@0@@Z
_TEXT	SEGMENT
tv176 = -268						; size = 4
tv175 = -264						; size = 4
tv168 = -264						; size = 4
tv172 = -260						; size = 4
tv165 = -260						; size = 4
tv179 = -256						; size = 4
tv171 = -256						; size = 4
$T2 = -248						; size = 4
$T3 = -236						; size = 4
$T4 = -224						; size = 4
$T5 = -212						; size = 4
__$EHRec$ = -12						; size = 12
__First$ = 8						; size = 12
__Last$ = 20						; size = 12
__Pred$ = 32						; size = 1
??$sort@V?$_Vector_iterator@V?$_Vector_val@U?$_Simple_types@UOption@CCustomMenu@@@std@@@std@@@std@@U?$less@X@2@@std@@YAXV?$_Vector_iterator@V?$_Vector_val@U?$_Simple_types@UOption@CCustomMenu@@@std@@@std@@@0@0U?$less@X@0@@Z PROC ; std::sort<std::_Vector_iterator<std::_Vector_val<std::_Simple_types<CCustomMenu::Option> > >,std::less<void> >, COMDAT

; 2782 : 	{	// order [_First, _Last), using _Pred

	push	ebp
	mov	ebp, esp
	push	-1
	push	__ehhandler$??$sort@V?$_Vector_iterator@V?$_Vector_val@U?$_Simple_types@UOption@CCustomMenu@@@std@@@std@@@std@@U?$less@X@2@@std@@YAXV?$_Vector_iterator@V?$_Vector_val@U?$_Simple_types@UOption@CCustomMenu@@@std@@@std@@@0@0U?$less@X@0@@Z
	mov	eax, DWORD PTR fs:0
	push	eax
	sub	esp, 256				; 00000100H
	push	ebx
	push	esi
	push	edi
	lea	edi, DWORD PTR [ebp-268]
	mov	ecx, 64					; 00000040H
	mov	eax, -858993460				; ccccccccH
	rep stosd
	mov	eax, DWORD PTR ___security_cookie
	xor	eax, ebp
	push	eax
	lea	eax, DWORD PTR __$EHRec$[ebp]
	mov	DWORD PTR fs:0, eax
	mov	DWORD PTR __$EHRec$[ebp+8], 1

; 2783 : 	_DEBUG_RANGE(_First, _Last);

	push	2783					; 00000adfH
	push	OFFSET ??_C@_1JC@ELNBGKIG@?$AAc?$AA?3?$AA?2?$AAp?$AAr?$AAo?$AAg?$AAr?$AAa?$AAm?$AA?5?$AAf?$AAi?$AAl?$AAe?$AAs?$AA?5?$AA?$CI?$AAx?$AA8?$AA6?$AA?$CJ?$AA?2?$AAm?$AAi?$AAc?$AAr?$AAo?$AAs?$AAo?$AAf?$AAt@
	sub	esp, 12					; 0000000cH
	mov	ecx, esp
	mov	DWORD PTR $T5[ebp], esp
	lea	eax, DWORD PTR __Last$[ebp]
	push	eax
	call	??0?$_Vector_iterator@V?$_Vector_val@U?$_Simple_types@UOption@CCustomMenu@@@std@@@std@@@std@@QAE@ABV01@@Z
	mov	DWORD PTR tv179[ebp], eax
	mov	ecx, DWORD PTR tv179[ebp]
	mov	DWORD PTR tv165[ebp], ecx
	mov	BYTE PTR __$EHRec$[ebp+8], 2
	sub	esp, 12					; 0000000cH
	mov	ecx, esp
	mov	DWORD PTR $T4[ebp], esp
	lea	edx, DWORD PTR __First$[ebp]
	push	edx
	call	??0?$_Vector_iterator@V?$_Vector_val@U?$_Simple_types@UOption@CCustomMenu@@@std@@@std@@@std@@QAE@ABV01@@Z
	mov	DWORD PTR tv168[ebp], eax
	mov	BYTE PTR __$EHRec$[ebp+8], 1
	call	??$_Debug_range@V?$_Vector_iterator@V?$_Vector_val@U?$_Simple_types@UOption@CCustomMenu@@@std@@@std@@@std@@@std@@YAXV?$_Vector_iterator@V?$_Vector_val@U?$_Simple_types@UOption@CCustomMenu@@@std@@@std@@@0@0PB_WI@Z ; std::_Debug_range<std::_Vector_iterator<std::_Vector_val<std::_Simple_types<CCustomMenu::Option> > > >
	add	esp, 32					; 00000020H

; 2784 : 	_Sort_unchecked(_Unchecked(_First), _Unchecked(_Last), _Pred);

	lea	eax, DWORD PTR __Pred$[ebp]
	push	eax
	sub	esp, 12					; 0000000cH
	mov	ecx, esp
	mov	DWORD PTR $T3[ebp], esp
	lea	edx, DWORD PTR __Last$[ebp]
	push	edx
	call	??0?$_Vector_iterator@V?$_Vector_val@U?$_Simple_types@UOption@CCustomMenu@@@std@@@std@@@std@@QAE@ABV01@@Z
	mov	DWORD PTR tv171[ebp], eax
	call	??$_Unchecked@V?$_Vector_val@U?$_Simple_types@UOption@CCustomMenu@@@std@@@std@@@std@@YAPAUOption@CCustomMenu@@V?$_Vector_iterator@V?$_Vector_val@U?$_Simple_types@UOption@CCustomMenu@@@std@@@std@@@0@@Z ; std::_Unchecked<std::_Vector_val<std::_Simple_types<CCustomMenu::Option> > >
	add	esp, 12					; 0000000cH
	mov	DWORD PTR tv172[ebp], eax
	mov	eax, DWORD PTR tv172[ebp]
	push	eax
	sub	esp, 12					; 0000000cH
	mov	ecx, esp
	mov	DWORD PTR $T2[ebp], esp
	lea	edx, DWORD PTR __First$[ebp]
	push	edx
	call	??0?$_Vector_iterator@V?$_Vector_val@U?$_Simple_types@UOption@CCustomMenu@@@std@@@std@@@std@@QAE@ABV01@@Z
	mov	DWORD PTR tv175[ebp], eax
	call	??$_Unchecked@V?$_Vector_val@U?$_Simple_types@UOption@CCustomMenu@@@std@@@std@@@std@@YAPAUOption@CCustomMenu@@V?$_Vector_iterator@V?$_Vector_val@U?$_Simple_types@UOption@CCustomMenu@@@std@@@std@@@0@@Z ; std::_Unchecked<std::_Vector_val<std::_Simple_types<CCustomMenu::Option> > >
	add	esp, 12					; 0000000cH
	mov	DWORD PTR tv176[ebp], eax
	mov	eax, DWORD PTR tv176[ebp]
	push	eax
	call	??$_Sort_unchecked@PAUOption@CCustomMenu@@U?$less@X@std@@@std@@YAXPAUOption@CCustomMenu@@0AAU?$less@X@0@@Z ; std::_Sort_unchecked<CCustomMenu::Option *,std::less<void> >
	add	esp, 12					; 0000000cH

; 2785 : 	}

	mov	BYTE PTR __$EHRec$[ebp+8], 0
	lea	ecx, DWORD PTR __First$[ebp]
	call	??1?$_Vector_iterator@V?$_Vector_val@U?$_Simple_types@UOption@CCustomMenu@@@std@@@std@@@std@@QAE@XZ
	mov	DWORD PTR __$EHRec$[ebp+8], -1
	lea	ecx, DWORD PTR __Last$[ebp]
	call	??1?$_Vector_iterator@V?$_Vector_val@U?$_Simple_types@UOption@CCustomMenu@@@std@@@std@@@std@@QAE@XZ
	mov	ecx, DWORD PTR __$EHRec$[ebp]
	mov	DWORD PTR fs:0, ecx
	pop	ecx
	pop	edi
	pop	esi
	pop	ebx
	add	esp, 268				; 0000010cH
	cmp	ebp, esp
	call	__RTC_CheckEsp
	mov	esp, ebp
	pop	ebp
	ret	0
_TEXT	ENDS
;	COMDAT text$x
text$x	SEGMENT
__unwindfunclet$??$sort@V?$_Vector_iterator@V?$_Vector_val@U?$_Simple_types@UOption@CCustomMenu@@@std@@@std@@@std@@U?$less@X@2@@std@@YAXV?$_Vector_iterator@V?$_Vector_val@U?$_Simple_types@UOption@CCustomMenu@@@std@@@std@@@0@0U?$less@X@0@@Z$0:
	lea	ecx, DWORD PTR __Last$[ebp]
	jmp	??1?$_Vector_iterator@V?$_Vector_val@U?$_Simple_types@UOption@CCustomMenu@@@std@@@std@@@std@@QAE@XZ
__unwindfunclet$??$sort@V?$_Vector_iterator@V?$_Vector_val@U?$_Simple_types@UOption@CCustomMenu@@@std@@@std@@@std@@U?$less@X@2@@std@@YAXV?$_Vector_iterator@V?$_Vector_val@U?$_Simple_types@UOption@CCustomMenu@@@std@@@std@@@0@0U?$less@X@0@@Z$1:
	lea	ecx, DWORD PTR __First$[ebp]
	jmp	??1?$_Vector_iterator@V?$_Vector_val@U?$_Simple_types@UOption@CCustomMenu@@@std@@@std@@@std@@QAE@XZ
__unwindfunclet$??$sort@V?$_Vector_iterator@V?$_Vector_val@U?$_Simple_types@UOption@CCustomMenu@@@std@@@std@@@std@@U?$less@X@2@@std@@YAXV?$_Vector_iterator@V?$_Vector_val@U?$_Simple_types@UOption@CCustomMenu@@@std@@@std@@@0@0U?$less@X@0@@Z$2:
	mov	ecx, DWORD PTR $T5[ebp]
	jmp	??1?$_Vector_iterator@V?$_Vector_val@U?$_Simple_types@UOption@CCustomMenu@@@std@@@std@@@std@@QAE@XZ
__ehhandler$??$sort@V?$_Vector_iterator@V?$_Vector_val@U?$_Simple_types@UOption@CCustomMenu@@@std@@@std@@@std@@U?$less@X@2@@std@@YAXV?$_Vector_iterator@V?$_Vector_val@U?$_Simple_types@UOption@CCustomMenu@@@std@@@std@@@0@0U?$less@X@0@@Z:
	mov	edx, DWORD PTR [esp+8]
	lea	eax, DWORD PTR [edx+12]
	mov	ecx, DWORD PTR [edx-272]
	xor	ecx, eax
	call	@__security_check_cookie@4
	mov	eax, OFFSET __ehfuncinfo$??$sort@V?$_Vector_iterator@V?$_Vector_val@U?$_Simple_types@UOption@CCustomMenu@@@std@@@std@@@std@@U?$less@X@2@@std@@YAXV?$_Vector_iterator@V?$_Vector_val@U?$_Simple_types@UOption@CCustomMenu@@@std@@@std@@@0@0U?$less@X@0@@Z
	jmp	___CxxFrameHandler3
text$x	ENDS
??$sort@V?$_Vector_iterator@V?$_Vector_val@U?$_Simple_types@UOption@CCustomMenu@@@std@@@std@@@std@@U?$less@X@2@@std@@YAXV?$_Vector_iterator@V?$_Vector_val@U?$_Simple_types@UOption@CCustomMenu@@@std@@@std@@@0@0U?$less@X@0@@Z ENDP ; std::sort<std::_Vector_iterator<std::_Vector_val<std::_Simple_types<CCustomMenu::Option> > >,std::less<void> >
; Function compile flags: /Odtp /RTCsu /ZI
; File c:\program files (x86)\microsoft visual studio 14.0\vc\include\vector
;	COMDAT ??$_Rechecked@V?$_Vector_val@U?$_Simple_types@UOption@CCustomMenu@@@std@@@std@@@std@@YAAAV?$_Vector_iterator@V?$_Vector_val@U?$_Simple_types@UOption@CCustomMenu@@@std@@@std@@@0@AAV10@PAUOption@CCustomMenu@@@Z
_TEXT	SEGMENT
__Iter$ = 8						; size = 4
__Right$ = 12						; size = 4
??$_Rechecked@V?$_Vector_val@U?$_Simple_types@UOption@CCustomMenu@@@std@@@std@@@std@@YAAAV?$_Vector_iterator@V?$_Vector_val@U?$_Simple_types@UOption@CCustomMenu@@@std@@@std@@@0@AAV10@PAUOption@CCustomMenu@@@Z PROC ; std::_Rechecked<std::_Vector_val<std::_Simple_types<CCustomMenu::Option> > >, COMDAT

; 411  : 	{	// convert to checked

	push	ebp
	mov	ebp, esp
	sub	esp, 192				; 000000c0H
	push	ebx
	push	esi
	push	edi
	lea	edi, DWORD PTR [ebp-192]
	mov	ecx, 48					; 00000030H
	mov	eax, -858993460				; ccccccccH
	rep stosd

; 412  : 	return (_Iter._Rechecked(_Right));

	mov	eax, DWORD PTR __Right$[ebp]
	push	eax
	mov	ecx, DWORD PTR __Iter$[ebp]
	call	?_Rechecked@?$_Vector_iterator@V?$_Vector_val@U?$_Simple_types@UOption@CCustomMenu@@@std@@@std@@@std@@QAEAAV12@PAUOption@CCustomMenu@@@Z ; std::_Vector_iterator<std::_Vector_val<std::_Simple_types<CCustomMenu::Option> > >::_Rechecked

; 413  : 	}

	pop	edi
	pop	esi
	pop	ebx
	add	esp, 192				; 000000c0H
	cmp	ebp, esp
	call	__RTC_CheckEsp
	mov	esp, ebp
	pop	ebp
	ret	0
??$_Rechecked@V?$_Vector_val@U?$_Simple_types@UOption@CCustomMenu@@@std@@@std@@@std@@YAAAV?$_Vector_iterator@V?$_Vector_val@U?$_Simple_types@UOption@CCustomMenu@@@std@@@std@@@0@AAV10@PAUOption@CCustomMenu@@@Z ENDP ; std::_Rechecked<std::_Vector_val<std::_Simple_types<CCustomMenu::Option> > >
_TEXT	ENDS
; Function compile flags: /Odtp /RTCsu /ZI
; File c:\program files (x86)\microsoft visual studio 14.0\vc\include\xutility
;	COMDAT ??$_Find_unchecked@PAUOption@CCustomMenu@@D@std@@YAPAUOption@CCustomMenu@@PAU12@0ABD@Z
_TEXT	SEGMENT
$T1 = -197						; size = 1
__First$ = 8						; size = 4
__Last$ = 12						; size = 4
__Val$ = 16						; size = 4
??$_Find_unchecked@PAUOption@CCustomMenu@@D@std@@YAPAUOption@CCustomMenu@@PAU12@0ABD@Z PROC ; std::_Find_unchecked<CCustomMenu::Option *,char>, COMDAT

; 3266 : 	{	// find first matching _Val; choose optimization

	push	ebp
	mov	ebp, esp
	sub	esp, 204				; 000000ccH
	push	ebx
	push	esi
	push	edi
	lea	edi, DWORD PTR [ebp-204]
	mov	ecx, 51					; 00000033H
	mov	eax, -858993460				; ccccccccH
	rep stosd

; 3267 : 	// activate optimization for pointers to (const) bytes and integral values
; 3268 : 	typedef integral_constant<bool,
; 3269 : 		(is_same<_InIt, char *>::value
; 3270 : 		|| is_same<_InIt, signed char *>::value
; 3271 : 		|| is_same<_InIt, unsigned char *>::value
; 3272 : 		|| is_same<_InIt, const char *>::value
; 3273 : 		|| is_same<_InIt, const signed char *>::value
; 3274 : 		|| is_same<_InIt, const unsigned char *>::value)
; 3275 : 		&& is_integral<_Ty>::value
; 3276 : 	> _Memchr_opt;
; 3277 : 	return (_Find_unchecked1(_First, _Last, _Val, _Memchr_opt()));

	movzx	eax, BYTE PTR $T1[ebp]
	push	eax
	mov	ecx, DWORD PTR __Val$[ebp]
	push	ecx
	mov	edx, DWORD PTR __Last$[ebp]
	push	edx
	mov	eax, DWORD PTR __First$[ebp]
	push	eax
	call	??$_Find_unchecked1@PAUOption@CCustomMenu@@D@std@@YAPAUOption@CCustomMenu@@PAU12@0ABDU?$integral_constant@_N$0A@@0@@Z ; std::_Find_unchecked1<CCustomMenu::Option *,char>
	add	esp, 16					; 00000010H

; 3278 : 	}

	pop	edi
	pop	esi
	pop	ebx
	add	esp, 204				; 000000ccH
	cmp	ebp, esp
	call	__RTC_CheckEsp
	mov	esp, ebp
	pop	ebp
	ret	0
??$_Find_unchecked@PAUOption@CCustomMenu@@D@std@@YAPAUOption@CCustomMenu@@PAU12@0ABD@Z ENDP ; std::_Find_unchecked<CCustomMenu::Option *,char>
_TEXT	ENDS
; Function compile flags: /Odtp /RTCsu /ZI
; File c:\program files (x86)\microsoft visual studio 14.0\vc\include\vector
;	COMDAT ??$_Unchecked@V?$_Vector_val@U?$_Simple_types@UOption@CCustomMenu@@@std@@@std@@@std@@YAPAUOption@CCustomMenu@@V?$_Vector_iterator@V?$_Vector_val@U?$_Simple_types@UOption@CCustomMenu@@@std@@@std@@@0@@Z
_TEXT	SEGMENT
$T2 = -212						; size = 4
__$EHRec$ = -12						; size = 12
__Iter$ = 8						; size = 12
??$_Unchecked@V?$_Vector_val@U?$_Simple_types@UOption@CCustomMenu@@@std@@@std@@@std@@YAPAUOption@CCustomMenu@@V?$_Vector_iterator@V?$_Vector_val@U?$_Simple_types@UOption@CCustomMenu@@@std@@@std@@@0@@Z PROC ; std::_Unchecked<std::_Vector_val<std::_Simple_types<CCustomMenu::Option> > >, COMDAT

; 402  : 	{	// convert to unchecked

	push	ebp
	mov	ebp, esp
	push	-1
	push	__ehhandler$??$_Unchecked@V?$_Vector_val@U?$_Simple_types@UOption@CCustomMenu@@@std@@@std@@@std@@YAPAUOption@CCustomMenu@@V?$_Vector_iterator@V?$_Vector_val@U?$_Simple_types@UOption@CCustomMenu@@@std@@@std@@@0@@Z
	mov	eax, DWORD PTR fs:0
	push	eax
	sub	esp, 204				; 000000ccH
	push	ebx
	push	esi
	push	edi
	lea	edi, DWORD PTR [ebp-216]
	mov	ecx, 51					; 00000033H
	mov	eax, -858993460				; ccccccccH
	rep stosd
	mov	eax, DWORD PTR ___security_cookie
	xor	eax, ebp
	push	eax
	lea	eax, DWORD PTR __$EHRec$[ebp]
	mov	DWORD PTR fs:0, eax
	mov	DWORD PTR __$EHRec$[ebp+8], 0

; 403  : 	return (_Iter._Unchecked());

	lea	ecx, DWORD PTR __Iter$[ebp]
	call	?_Unchecked@?$_Vector_iterator@V?$_Vector_val@U?$_Simple_types@UOption@CCustomMenu@@@std@@@std@@@std@@QBEPAUOption@CCustomMenu@@XZ ; std::_Vector_iterator<std::_Vector_val<std::_Simple_types<CCustomMenu::Option> > >::_Unchecked
	mov	DWORD PTR $T2[ebp], eax
	mov	DWORD PTR __$EHRec$[ebp+8], -1
	lea	ecx, DWORD PTR __Iter$[ebp]
	call	??1?$_Vector_iterator@V?$_Vector_val@U?$_Simple_types@UOption@CCustomMenu@@@std@@@std@@@std@@QAE@XZ
	mov	eax, DWORD PTR $T2[ebp]

; 404  : 	}

	mov	ecx, DWORD PTR __$EHRec$[ebp]
	mov	DWORD PTR fs:0, ecx
	pop	ecx
	pop	edi
	pop	esi
	pop	ebx
	add	esp, 216				; 000000d8H
	cmp	ebp, esp
	call	__RTC_CheckEsp
	mov	esp, ebp
	pop	ebp
	ret	0
_TEXT	ENDS
;	COMDAT text$x
text$x	SEGMENT
__unwindfunclet$??$_Unchecked@V?$_Vector_val@U?$_Simple_types@UOption@CCustomMenu@@@std@@@std@@@std@@YAPAUOption@CCustomMenu@@V?$_Vector_iterator@V?$_Vector_val@U?$_Simple_types@UOption@CCustomMenu@@@std@@@std@@@0@@Z$0:
	lea	ecx, DWORD PTR __Iter$[ebp]
	jmp	??1?$_Vector_iterator@V?$_Vector_val@U?$_Simple_types@UOption@CCustomMenu@@@std@@@std@@@std@@QAE@XZ
__ehhandler$??$_Unchecked@V?$_Vector_val@U?$_Simple_types@UOption@CCustomMenu@@@std@@@std@@@std@@YAPAUOption@CCustomMenu@@V?$_Vector_iterator@V?$_Vector_val@U?$_Simple_types@UOption@CCustomMenu@@@std@@@std@@@0@@Z:
	mov	edx, DWORD PTR [esp+8]
	lea	eax, DWORD PTR [edx+12]
	mov	ecx, DWORD PTR [edx-220]
	xor	ecx, eax
	call	@__security_check_cookie@4
	mov	eax, OFFSET __ehfuncinfo$??$_Unchecked@V?$_Vector_val@U?$_Simple_types@UOption@CCustomMenu@@@std@@@std@@@std@@YAPAUOption@CCustomMenu@@V?$_Vector_iterator@V?$_Vector_val@U?$_Simple_types@UOption@CCustomMenu@@@std@@@std@@@0@@Z
	jmp	___CxxFrameHandler3
text$x	ENDS
??$_Unchecked@V?$_Vector_val@U?$_Simple_types@UOption@CCustomMenu@@@std@@@std@@@std@@YAPAUOption@CCustomMenu@@V?$_Vector_iterator@V?$_Vector_val@U?$_Simple_types@UOption@CCustomMenu@@@std@@@std@@@0@@Z ENDP ; std::_Unchecked<std::_Vector_val<std::_Simple_types<CCustomMenu::Option> > >
; Function compile flags: /Odtp /RTCsu /ZI
; File c:\program files (x86)\microsoft visual studio 14.0\vc\include\xutility
;	COMDAT ??$_Debug_range@V?$_Vector_iterator@V?$_Vector_val@U?$_Simple_types@UOption@CCustomMenu@@@std@@@std@@@std@@@std@@YAXV?$_Vector_iterator@V?$_Vector_val@U?$_Simple_types@UOption@CCustomMenu@@@std@@@std@@@0@0PB_WI@Z
_TEXT	SEGMENT
tv140 = -252						; size = 4
tv137 = -248						; size = 4
tv143 = -244						; size = 4
$T2 = -236						; size = 4
$T3 = -224						; size = 4
$T4 = -209						; size = 1
__$EHRec$ = -12						; size = 12
__First$ = 8						; size = 12
__Last$ = 20						; size = 12
__File$ = 32						; size = 4
__Line$ = 36						; size = 4
??$_Debug_range@V?$_Vector_iterator@V?$_Vector_val@U?$_Simple_types@UOption@CCustomMenu@@@std@@@std@@@std@@@std@@YAXV?$_Vector_iterator@V?$_Vector_val@U?$_Simple_types@UOption@CCustomMenu@@@std@@@std@@@0@0PB_WI@Z PROC ; std::_Debug_range<std::_Vector_iterator<std::_Vector_val<std::_Simple_types<CCustomMenu::Option> > > >, COMDAT

; 966  : 	{	// test iterator pair for valid range

	push	ebp
	mov	ebp, esp
	push	-1
	push	__ehhandler$??$_Debug_range@V?$_Vector_iterator@V?$_Vector_val@U?$_Simple_types@UOption@CCustomMenu@@@std@@@std@@@std@@@std@@YAXV?$_Vector_iterator@V?$_Vector_val@U?$_Simple_types@UOption@CCustomMenu@@@std@@@std@@@0@0PB_WI@Z
	mov	eax, DWORD PTR fs:0
	push	eax
	sub	esp, 240				; 000000f0H
	push	ebx
	push	esi
	push	edi
	lea	edi, DWORD PTR [ebp-252]
	mov	ecx, 60					; 0000003cH
	mov	eax, -858993460				; ccccccccH
	rep stosd
	mov	eax, DWORD PTR ___security_cookie
	xor	eax, ebp
	push	eax
	lea	eax, DWORD PTR __$EHRec$[ebp]
	mov	DWORD PTR fs:0, eax
	mov	DWORD PTR __$EHRec$[ebp+8], 1

; 967  : 	_Debug_range2(_First, _Last, _File, _Line, _Iter_cat_t<_InIt>());

	xor	eax, eax
	mov	BYTE PTR $T4[ebp], al
	movzx	ecx, BYTE PTR $T4[ebp]
	push	ecx
	mov	edx, DWORD PTR __Line$[ebp]
	push	edx
	mov	eax, DWORD PTR __File$[ebp]
	push	eax
	sub	esp, 12					; 0000000cH
	mov	ecx, esp
	mov	DWORD PTR $T3[ebp], esp
	lea	edx, DWORD PTR __Last$[ebp]
	push	edx
	call	??0?$_Vector_iterator@V?$_Vector_val@U?$_Simple_types@UOption@CCustomMenu@@@std@@@std@@@std@@QAE@ABV01@@Z
	mov	DWORD PTR tv143[ebp], eax
	mov	eax, DWORD PTR tv143[ebp]
	mov	DWORD PTR tv137[ebp], eax
	mov	BYTE PTR __$EHRec$[ebp+8], 2
	sub	esp, 12					; 0000000cH
	mov	ecx, esp
	mov	DWORD PTR $T2[ebp], esp
	lea	edx, DWORD PTR __First$[ebp]
	push	edx
	call	??0?$_Vector_iterator@V?$_Vector_val@U?$_Simple_types@UOption@CCustomMenu@@@std@@@std@@@std@@QAE@ABV01@@Z
	mov	DWORD PTR tv140[ebp], eax
	mov	BYTE PTR __$EHRec$[ebp+8], 1
	call	??$_Debug_range2@V?$_Vector_iterator@V?$_Vector_val@U?$_Simple_types@UOption@CCustomMenu@@@std@@@std@@@std@@@std@@YAXV?$_Vector_iterator@V?$_Vector_val@U?$_Simple_types@UOption@CCustomMenu@@@std@@@std@@@0@0PB_WIUrandom_access_iterator_tag@0@@Z ; std::_Debug_range2<std::_Vector_iterator<std::_Vector_val<std::_Simple_types<CCustomMenu::Option> > > >
	add	esp, 36					; 00000024H

; 968  : 	}

	mov	BYTE PTR __$EHRec$[ebp+8], 0
	lea	ecx, DWORD PTR __First$[ebp]
	call	??1?$_Vector_iterator@V?$_Vector_val@U?$_Simple_types@UOption@CCustomMenu@@@std@@@std@@@std@@QAE@XZ
	mov	DWORD PTR __$EHRec$[ebp+8], -1
	lea	ecx, DWORD PTR __Last$[ebp]
	call	??1?$_Vector_iterator@V?$_Vector_val@U?$_Simple_types@UOption@CCustomMenu@@@std@@@std@@@std@@QAE@XZ
	mov	ecx, DWORD PTR __$EHRec$[ebp]
	mov	DWORD PTR fs:0, ecx
	pop	ecx
	pop	edi
	pop	esi
	pop	ebx
	add	esp, 252				; 000000fcH
	cmp	ebp, esp
	call	__RTC_CheckEsp
	mov	esp, ebp
	pop	ebp
	ret	0
_TEXT	ENDS
;	COMDAT text$x
text$x	SEGMENT
__unwindfunclet$??$_Debug_range@V?$_Vector_iterator@V?$_Vector_val@U?$_Simple_types@UOption@CCustomMenu@@@std@@@std@@@std@@@std@@YAXV?$_Vector_iterator@V?$_Vector_val@U?$_Simple_types@UOption@CCustomMenu@@@std@@@std@@@0@0PB_WI@Z$0:
	lea	ecx, DWORD PTR __Last$[ebp]
	jmp	??1?$_Vector_iterator@V?$_Vector_val@U?$_Simple_types@UOption@CCustomMenu@@@std@@@std@@@std@@QAE@XZ
__unwindfunclet$??$_Debug_range@V?$_Vector_iterator@V?$_Vector_val@U?$_Simple_types@UOption@CCustomMenu@@@std@@@std@@@std@@@std@@YAXV?$_Vector_iterator@V?$_Vector_val@U?$_Simple_types@UOption@CCustomMenu@@@std@@@std@@@0@0PB_WI@Z$1:
	lea	ecx, DWORD PTR __First$[ebp]
	jmp	??1?$_Vector_iterator@V?$_Vector_val@U?$_Simple_types@UOption@CCustomMenu@@@std@@@std@@@std@@QAE@XZ
__unwindfunclet$??$_Debug_range@V?$_Vector_iterator@V?$_Vector_val@U?$_Simple_types@UOption@CCustomMenu@@@std@@@std@@@std@@@std@@YAXV?$_Vector_iterator@V?$_Vector_val@U?$_Simple_types@UOption@CCustomMenu@@@std@@@std@@@0@0PB_WI@Z$2:
	mov	ecx, DWORD PTR $T3[ebp]
	jmp	??1?$_Vector_iterator@V?$_Vector_val@U?$_Simple_types@UOption@CCustomMenu@@@std@@@std@@@std@@QAE@XZ
__ehhandler$??$_Debug_range@V?$_Vector_iterator@V?$_Vector_val@U?$_Simple_types@UOption@CCustomMenu@@@std@@@std@@@std@@@std@@YAXV?$_Vector_iterator@V?$_Vector_val@U?$_Simple_types@UOption@CCustomMenu@@@std@@@std@@@0@0PB_WI@Z:
	mov	edx, DWORD PTR [esp+8]
	lea	eax, DWORD PTR [edx+12]
	mov	ecx, DWORD PTR [edx-256]
	xor	ecx, eax
	call	@__security_check_cookie@4
	mov	eax, OFFSET __ehfuncinfo$??$_Debug_range@V?$_Vector_iterator@V?$_Vector_val@U?$_Simple_types@UOption@CCustomMenu@@@std@@@std@@@std@@@std@@YAXV?$_Vector_iterator@V?$_Vector_val@U?$_Simple_types@UOption@CCustomMenu@@@std@@@std@@@0@0PB_WI@Z
	jmp	___CxxFrameHandler3
text$x	ENDS
??$_Debug_range@V?$_Vector_iterator@V?$_Vector_val@U?$_Simple_types@UOption@CCustomMenu@@@std@@@std@@@std@@@std@@YAXV?$_Vector_iterator@V?$_Vector_val@U?$_Simple_types@UOption@CCustomMenu@@@std@@@std@@@0@0PB_WI@Z ENDP ; std::_Debug_range<std::_Vector_iterator<std::_Vector_val<std::_Simple_types<CCustomMenu::Option> > > >
; Function compile flags: /Odtp /RTCsu /ZI
; File c:\program files (x86)\microsoft visual studio 14.0\vc\include\xstddef
;	COMDAT ??$addressof@U_Container_proxy@std@@@std@@YAPAU_Container_proxy@0@AAU10@@Z
_TEXT	SEGMENT
__Val$ = 8						; size = 4
??$addressof@U_Container_proxy@std@@@std@@YAPAU_Container_proxy@0@AAU10@@Z PROC ; std::addressof<std::_Container_proxy>, COMDAT

; 724  : 	{	// return address of _Val

	push	ebp
	mov	ebp, esp
	sub	esp, 192				; 000000c0H
	push	ebx
	push	esi
	push	edi
	lea	edi, DWORD PTR [ebp-192]
	mov	ecx, 48					; 00000030H
	mov	eax, -858993460				; ccccccccH
	rep stosd

; 725  : 	return (__builtin_addressof(_Val));

	mov	eax, DWORD PTR __Val$[ebp]

; 726  : 	}

	pop	edi
	pop	esi
	pop	ebx
	mov	esp, ebp
	pop	ebp
	ret	0
??$addressof@U_Container_proxy@std@@@std@@YAPAU_Container_proxy@0@AAU10@@Z ENDP ; std::addressof<std::_Container_proxy>
_TEXT	ENDS
; Function compile flags: /Odtp /RTCsu /ZI
; File c:\program files (x86)\microsoft visual studio 14.0\vc\include\xmemory0
;	COMDAT ?pointer_to@?$pointer_traits@PAU_Container_proxy@std@@@std@@SAPAU_Container_proxy@2@AAU32@@Z
_TEXT	SEGMENT
__Val$ = 8						; size = 4
?pointer_to@?$pointer_traits@PAU_Container_proxy@std@@@std@@SAPAU_Container_proxy@2@AAU32@@Z PROC ; std::pointer_traits<std::_Container_proxy *>::pointer_to, COMDAT

; 279  : 		{	// convert raw reference to pointer

	push	ebp
	mov	ebp, esp
	sub	esp, 192				; 000000c0H
	push	ebx
	push	esi
	push	edi
	lea	edi, DWORD PTR [ebp-192]
	mov	ecx, 48					; 00000030H
	mov	eax, -858993460				; ccccccccH
	rep stosd

; 280  : 		return (_STD addressof(_Val));

	mov	eax, DWORD PTR __Val$[ebp]
	push	eax
	call	??$addressof@U_Container_proxy@std@@@std@@YAPAU_Container_proxy@0@AAU10@@Z ; std::addressof<std::_Container_proxy>
	add	esp, 4

; 281  : 		}

	pop	edi
	pop	esi
	pop	ebx
	add	esp, 192				; 000000c0H
	cmp	ebp, esp
	call	__RTC_CheckEsp
	mov	esp, ebp
	pop	ebp
	ret	0
?pointer_to@?$pointer_traits@PAU_Container_proxy@std@@@std@@SAPAU_Container_proxy@2@AAU32@@Z ENDP ; std::pointer_traits<std::_Container_proxy *>::pointer_to
_TEXT	ENDS
; Function compile flags: /Odtp /RTCsu /ZI
; File c:\program files (x86)\microsoft visual studio 14.0\vc\include\xmemory0
;	COMDAT ??$?0AAU?$_Wrap_alloc@V?$allocator@D@std@@@std@@@?$_Wrap_alloc@V?$allocator@U_Container_proxy@std@@@std@@@std@@QAE@AAU?$_Wrap_alloc@V?$allocator@D@std@@@1@@Z
_TEXT	SEGMENT
_this$ = -8						; size = 4
__Right$ = 8						; size = 4
??$?0AAU?$_Wrap_alloc@V?$allocator@D@std@@@std@@@?$_Wrap_alloc@V?$allocator@U_Container_proxy@std@@@std@@@std@@QAE@AAU?$_Wrap_alloc@V?$allocator@D@std@@@1@@Z PROC ; std::_Wrap_alloc<std::allocator<std::_Container_proxy> >::_Wrap_alloc<std::allocator<std::_Container_proxy> ><std::_Wrap_alloc<std::allocator<char> > &>, COMDAT
; _this$ = ecx

; 952  : 		{	// construct from a related allocator

	push	ebp
	mov	ebp, esp
	sub	esp, 204				; 000000ccH
	push	ebx
	push	esi
	push	edi
	push	ecx
	lea	edi, DWORD PTR [ebp-204]
	mov	ecx, 51					; 00000033H
	mov	eax, -858993460				; ccccccccH
	rep stosd
	pop	ecx
	mov	DWORD PTR _this$[ebp], ecx

; 951  : 		: _Mybase(_STD forward<_Other>(_Right))

	mov	eax, DWORD PTR __Right$[ebp]
	push	eax
	call	??$forward@AAU?$_Wrap_alloc@V?$allocator@D@std@@@std@@@std@@YAAAU?$_Wrap_alloc@V?$allocator@D@std@@@0@AAU10@@Z ; std::forward<std::_Wrap_alloc<std::allocator<char> > &>
	add	esp, 4
	push	eax
	mov	ecx, DWORD PTR _this$[ebp]
	call	??$?0D@?$allocator@U_Container_proxy@std@@@std@@QAE@ABV?$allocator@D@1@@Z ; std::allocator<std::_Container_proxy>::allocator<std::_Container_proxy><char>

; 953  : 		}

	mov	eax, DWORD PTR _this$[ebp]
	pop	edi
	pop	esi
	pop	ebx
	add	esp, 204				; 000000ccH
	cmp	ebp, esp
	call	__RTC_CheckEsp
	mov	esp, ebp
	pop	ebp
	ret	4
??$?0AAU?$_Wrap_alloc@V?$allocator@D@std@@@std@@@?$_Wrap_alloc@V?$allocator@U_Container_proxy@std@@@std@@@std@@QAE@AAU?$_Wrap_alloc@V?$allocator@D@std@@@1@@Z ENDP ; std::_Wrap_alloc<std::allocator<std::_Container_proxy> >::_Wrap_alloc<std::allocator<std::_Container_proxy> ><std::_Wrap_alloc<std::allocator<char> > &>
_TEXT	ENDS
; Function compile flags: /Odtp /RTCsu /ZI
; File c:\program files (x86)\microsoft visual studio 14.0\vc\include\xmemory0
;	COMDAT ??$_Destroy_range@V?$allocator@UOption@CCustomMenu@@@std@@PAUOption@CCustomMenu@@@std@@YAXPAUOption@CCustomMenu@@0AAU?$_Wrap_alloc@V?$allocator@UOption@CCustomMenu@@@std@@@0@@Z
_TEXT	SEGMENT
$T1 = -197						; size = 1
__First$ = 8						; size = 4
__Last$ = 12						; size = 4
__Al$ = 16						; size = 4
??$_Destroy_range@V?$allocator@UOption@CCustomMenu@@@std@@PAUOption@CCustomMenu@@@std@@YAXPAUOption@CCustomMenu@@0AAU?$_Wrap_alloc@V?$allocator@UOption@CCustomMenu@@@std@@@0@@Z PROC ; std::_Destroy_range<std::allocator<CCustomMenu::Option>,CCustomMenu::Option *>, COMDAT

; 1114 : 	{	// destroy [_First, _Last), choose optimization

	push	ebp
	mov	ebp, esp
	sub	esp, 204				; 000000ccH
	push	ebx
	push	esi
	push	edi
	lea	edi, DWORD PTR [ebp-204]
	mov	ecx, 51					; 00000033H
	mov	eax, -858993460				; ccccccccH
	rep stosd

; 1115 : 		// note that this is an optimization for debug mode codegen;
; 1116 : 		// in release mode the BE removes all of this
; 1117 : 	typedef typename _Alloc::value_type _Val;
; 1118 : 	_Destroy_range1(_First, _Last, _Al, typename conjunction<

	movzx	eax, BYTE PTR $T1[ebp]
	push	eax
	mov	ecx, DWORD PTR __Al$[ebp]
	push	ecx
	mov	edx, DWORD PTR __Last$[ebp]
	push	edx
	mov	eax, DWORD PTR __First$[ebp]
	push	eax
	call	??$_Destroy_range1@V?$allocator@UOption@CCustomMenu@@@std@@PAUOption@CCustomMenu@@@std@@YAXPAUOption@CCustomMenu@@0AAU?$_Wrap_alloc@V?$allocator@UOption@CCustomMenu@@@std@@@0@U?$integral_constant@_N$0A@@0@@Z ; std::_Destroy_range1<std::allocator<CCustomMenu::Option>,CCustomMenu::Option *>
	add	esp, 16					; 00000010H

; 1119 : 		is_trivially_destructible<_Val>,
; 1120 : 		_Uses_default_destroy<_Alloc, _Val *>>::type());
; 1121 : 	}

	pop	edi
	pop	esi
	pop	ebx
	add	esp, 204				; 000000ccH
	cmp	ebp, esp
	call	__RTC_CheckEsp
	mov	esp, ebp
	pop	ebp
	ret	0
??$_Destroy_range@V?$allocator@UOption@CCustomMenu@@@std@@PAUOption@CCustomMenu@@@std@@YAXPAUOption@CCustomMenu@@0AAU?$_Wrap_alloc@V?$allocator@UOption@CCustomMenu@@@std@@@0@@Z ENDP ; std::_Destroy_range<std::allocator<CCustomMenu::Option>,CCustomMenu::Option *>
_TEXT	ENDS
; Function compile flags: /Odtp /RTCsu /ZI
; File c:\program files (x86)\microsoft visual studio 14.0\vc\include\vector
;	COMDAT ??$_Umove@PAUOption@CCustomMenu@@@?$vector@UOption@CCustomMenu@@V?$allocator@UOption@CCustomMenu@@@std@@@std@@IAEPAUOption@CCustomMenu@@PAU23@00@Z
_TEXT	SEGMENT
_this$ = -8						; size = 4
__First$ = 8						; size = 4
__Last$ = 12						; size = 4
__Ptr$ = 16						; size = 4
??$_Umove@PAUOption@CCustomMenu@@@?$vector@UOption@CCustomMenu@@V?$allocator@UOption@CCustomMenu@@@std@@@std@@IAEPAUOption@CCustomMenu@@PAU23@00@Z PROC ; std::vector<CCustomMenu::Option,std::allocator<CCustomMenu::Option> >::_Umove<CCustomMenu::Option *>, COMDAT
; _this$ = ecx

; 1658 : 		{	// move initializing [_First, _Last), using allocator

	push	ebp
	mov	ebp, esp
	sub	esp, 204				; 000000ccH
	push	ebx
	push	esi
	push	edi
	push	ecx
	lea	edi, DWORD PTR [ebp-204]
	mov	ecx, 51					; 00000033H
	mov	eax, -858993460				; ccccccccH
	rep stosd
	pop	ecx
	mov	DWORD PTR _this$[ebp], ecx

; 1659 : 		return (_Uninitialized_move(_First, _Last,

	mov	ecx, DWORD PTR _this$[ebp]
	call	?_Getal@?$_Vector_alloc@U?$_Vec_base_types@UOption@CCustomMenu@@V?$allocator@UOption@CCustomMenu@@@std@@@std@@@std@@QAEAAU?$_Wrap_alloc@V?$allocator@UOption@CCustomMenu@@@std@@@2@XZ ; std::_Vector_alloc<std::_Vec_base_types<CCustomMenu::Option,std::allocator<CCustomMenu::Option> > >::_Getal
	push	eax
	mov	eax, DWORD PTR __Ptr$[ebp]
	push	eax
	mov	ecx, DWORD PTR __Last$[ebp]
	push	ecx
	mov	edx, DWORD PTR __First$[ebp]
	push	edx
	call	??$_Uninitialized_move@PAUOption@CCustomMenu@@PAU12@V?$allocator@UOption@CCustomMenu@@@std@@@std@@YAPAUOption@CCustomMenu@@PAU12@00AAU?$_Wrap_alloc@V?$allocator@UOption@CCustomMenu@@@std@@@0@@Z ; std::_Uninitialized_move<CCustomMenu::Option *,CCustomMenu::Option *,std::allocator<CCustomMenu::Option> >
	add	esp, 16					; 00000010H

; 1660 : 			_Ptr, this->_Getal()));
; 1661 : 		}

	pop	edi
	pop	esi
	pop	ebx
	add	esp, 204				; 000000ccH
	cmp	ebp, esp
	call	__RTC_CheckEsp
	mov	esp, ebp
	pop	ebp
	ret	12					; 0000000cH
??$_Umove@PAUOption@CCustomMenu@@@?$vector@UOption@CCustomMenu@@V?$allocator@UOption@CCustomMenu@@@std@@@std@@IAEPAUOption@CCustomMenu@@PAU23@00@Z ENDP ; std::vector<CCustomMenu::Option,std::allocator<CCustomMenu::Option> >::_Umove<CCustomMenu::Option *>
_TEXT	ENDS
; Function compile flags: /Odtp /RTCsu /ZI
; File c:\program files (x86)\microsoft visual studio 14.0\vc\include\xmemory0
;	COMDAT ??$construct@U_Container_proxy@std@@U12@@?$_Wrap_alloc@V?$allocator@U_Container_proxy@std@@@std@@@std@@QAEXPAU_Container_proxy@1@$$QAU21@@Z
_TEXT	SEGMENT
_this$ = -8						; size = 4
__Ptr$ = 8						; size = 4
_<_Args_0>$ = 12					; size = 4
??$construct@U_Container_proxy@std@@U12@@?$_Wrap_alloc@V?$allocator@U_Container_proxy@std@@@std@@@std@@QAEXPAU_Container_proxy@1@$$QAU21@@Z PROC ; std::_Wrap_alloc<std::allocator<std::_Container_proxy> >::construct<std::_Container_proxy,std::_Container_proxy>, COMDAT
; _this$ = ecx

; 994  : 		{	// construct _Ty(_Types...) at _Ptr

	push	ebp
	mov	ebp, esp
	sub	esp, 204				; 000000ccH
	push	ebx
	push	esi
	push	edi
	push	ecx
	lea	edi, DWORD PTR [ebp-204]
	mov	ecx, 51					; 00000033H
	mov	eax, -858993460				; ccccccccH
	rep stosd
	pop	ecx
	mov	DWORD PTR _this$[ebp], ecx

; 995  : 		_Mytraits::construct(*this, _Ptr,

	mov	eax, DWORD PTR _<_Args_0>$[ebp]
	push	eax
	call	??$forward@U_Container_proxy@std@@@std@@YA$$QAU_Container_proxy@0@AAU10@@Z ; std::forward<std::_Container_proxy>
	add	esp, 4
	push	eax
	mov	ecx, DWORD PTR __Ptr$[ebp]
	push	ecx
	mov	edx, DWORD PTR _this$[ebp]
	push	edx
	call	??$construct@U_Container_proxy@std@@U12@@?$allocator_traits@V?$allocator@U_Container_proxy@std@@@std@@@std@@SAXAAV?$allocator@U_Container_proxy@std@@@1@PAU_Container_proxy@1@$$QAU31@@Z ; std::allocator_traits<std::allocator<std::_Container_proxy> >::construct<std::_Container_proxy,std::_Container_proxy>
	add	esp, 12					; 0000000cH

; 996  : 			_STD forward<_Types>(_Args)...);
; 997  : 		}

	pop	edi
	pop	esi
	pop	ebx
	add	esp, 204				; 000000ccH
	cmp	ebp, esp
	call	__RTC_CheckEsp
	mov	esp, ebp
	pop	ebp
	ret	8
??$construct@U_Container_proxy@std@@U12@@?$_Wrap_alloc@V?$allocator@U_Container_proxy@std@@@std@@@std@@QAEXPAU_Container_proxy@1@$$QAU21@@Z ENDP ; std::_Wrap_alloc<std::allocator<std::_Container_proxy> >::construct<std::_Container_proxy,std::_Container_proxy>
_TEXT	ENDS
; Function compile flags: /Odtp /RTCsu /ZI
; File c:\program files (x86)\microsoft visual studio 14.0\vc\include\xstddef
;	COMDAT ??$_Unfancy@U_Container_proxy@std@@@std@@YAPAU_Container_proxy@0@PAU10@@Z
_TEXT	SEGMENT
__Ptr$ = 8						; size = 4
??$_Unfancy@U_Container_proxy@std@@@std@@YAPAU_Container_proxy@0@PAU10@@Z PROC ; std::_Unfancy<std::_Container_proxy>, COMDAT

; 739  : 	{	// do nothing for plain pointers

	push	ebp
	mov	ebp, esp
	sub	esp, 192				; 000000c0H
	push	ebx
	push	esi
	push	edi
	lea	edi, DWORD PTR [ebp-192]
	mov	ecx, 48					; 00000030H
	mov	eax, -858993460				; ccccccccH
	rep stosd

; 740  : 	return (_Ptr);

	mov	eax, DWORD PTR __Ptr$[ebp]

; 741  : 	}

	pop	edi
	pop	esi
	pop	ebx
	mov	esp, ebp
	pop	ebp
	ret	0
??$_Unfancy@U_Container_proxy@std@@@std@@YAPAU_Container_proxy@0@PAU10@@Z ENDP ; std::_Unfancy<std::_Container_proxy>
_TEXT	ENDS
; Function compile flags: /Odtp /RTCsu /ZI
; File c:\program files (x86)\microsoft visual studio 14.0\vc\include\xmemory0
;	COMDAT ??$destroy@U_Container_proxy@std@@@?$_Wrap_alloc@V?$allocator@U_Container_proxy@std@@@std@@@std@@QAEXPAU_Container_proxy@1@@Z
_TEXT	SEGMENT
_this$ = -8						; size = 4
__Ptr$ = 8						; size = 4
??$destroy@U_Container_proxy@std@@@?$_Wrap_alloc@V?$allocator@U_Container_proxy@std@@@std@@@std@@QAEXPAU_Container_proxy@1@@Z PROC ; std::_Wrap_alloc<std::allocator<std::_Container_proxy> >::destroy<std::_Container_proxy>, COMDAT
; _this$ = ecx

; 1002 : 		{	// destroy object at _Ptr

	push	ebp
	mov	ebp, esp
	sub	esp, 204				; 000000ccH
	push	ebx
	push	esi
	push	edi
	push	ecx
	lea	edi, DWORD PTR [ebp-204]
	mov	ecx, 51					; 00000033H
	mov	eax, -858993460				; ccccccccH
	rep stosd
	pop	ecx
	mov	DWORD PTR _this$[ebp], ecx

; 1003 : 		_Mytraits::destroy(*this, _Ptr);

	mov	eax, DWORD PTR __Ptr$[ebp]
	push	eax
	mov	ecx, DWORD PTR _this$[ebp]
	push	ecx
	call	??$destroy@U_Container_proxy@std@@@?$allocator_traits@V?$allocator@U_Container_proxy@std@@@std@@@std@@SAXAAV?$allocator@U_Container_proxy@std@@@1@PAU_Container_proxy@1@@Z ; std::allocator_traits<std::allocator<std::_Container_proxy> >::destroy<std::_Container_proxy>
	add	esp, 8

; 1004 : 		}

	pop	edi
	pop	esi
	pop	ebx
	add	esp, 204				; 000000ccH
	cmp	ebp, esp
	call	__RTC_CheckEsp
	mov	esp, ebp
	pop	ebp
	ret	4
??$destroy@U_Container_proxy@std@@@?$_Wrap_alloc@V?$allocator@U_Container_proxy@std@@@std@@@std@@QAEXPAU_Container_proxy@1@@Z ENDP ; std::_Wrap_alloc<std::allocator<std::_Container_proxy> >::destroy<std::_Container_proxy>
_TEXT	ENDS
; Function compile flags: /Odtp /RTCsu /ZI
; File c:\program files (x86)\microsoft visual studio 14.0\vc\include\xmemory0
;	COMDAT ??$?0AAU?$_Wrap_alloc@V?$allocator@UOption@CCustomMenu@@@std@@@std@@@?$_Wrap_alloc@V?$allocator@U_Container_proxy@std@@@std@@@std@@QAE@AAU?$_Wrap_alloc@V?$allocator@UOption@CCustomMenu@@@std@@@1@@Z
_TEXT	SEGMENT
_this$ = -8						; size = 4
__Right$ = 8						; size = 4
??$?0AAU?$_Wrap_alloc@V?$allocator@UOption@CCustomMenu@@@std@@@std@@@?$_Wrap_alloc@V?$allocator@U_Container_proxy@std@@@std@@@std@@QAE@AAU?$_Wrap_alloc@V?$allocator@UOption@CCustomMenu@@@std@@@1@@Z PROC ; std::_Wrap_alloc<std::allocator<std::_Container_proxy> >::_Wrap_alloc<std::allocator<std::_Container_proxy> ><std::_Wrap_alloc<std::allocator<CCustomMenu::Option> > &>, COMDAT
; _this$ = ecx

; 952  : 		{	// construct from a related allocator

	push	ebp
	mov	ebp, esp
	sub	esp, 204				; 000000ccH
	push	ebx
	push	esi
	push	edi
	push	ecx
	lea	edi, DWORD PTR [ebp-204]
	mov	ecx, 51					; 00000033H
	mov	eax, -858993460				; ccccccccH
	rep stosd
	pop	ecx
	mov	DWORD PTR _this$[ebp], ecx

; 951  : 		: _Mybase(_STD forward<_Other>(_Right))

	mov	eax, DWORD PTR __Right$[ebp]
	push	eax
	call	??$forward@AAU?$_Wrap_alloc@V?$allocator@UOption@CCustomMenu@@@std@@@std@@@std@@YAAAU?$_Wrap_alloc@V?$allocator@UOption@CCustomMenu@@@std@@@0@AAU10@@Z ; std::forward<std::_Wrap_alloc<std::allocator<CCustomMenu::Option> > &>
	add	esp, 4
	push	eax
	mov	ecx, DWORD PTR _this$[ebp]
	call	??$?0UOption@CCustomMenu@@@?$allocator@U_Container_proxy@std@@@std@@QAE@ABV?$allocator@UOption@CCustomMenu@@@1@@Z ; std::allocator<std::_Container_proxy>::allocator<std::_Container_proxy><CCustomMenu::Option>

; 953  : 		}

	mov	eax, DWORD PTR _this$[ebp]
	pop	edi
	pop	esi
	pop	ebx
	add	esp, 204				; 000000ccH
	cmp	ebp, esp
	call	__RTC_CheckEsp
	mov	esp, ebp
	pop	ebp
	ret	4
??$?0AAU?$_Wrap_alloc@V?$allocator@UOption@CCustomMenu@@@std@@@std@@@?$_Wrap_alloc@V?$allocator@U_Container_proxy@std@@@std@@@std@@QAE@AAU?$_Wrap_alloc@V?$allocator@UOption@CCustomMenu@@@std@@@1@@Z ENDP ; std::_Wrap_alloc<std::allocator<std::_Container_proxy> >::_Wrap_alloc<std::allocator<std::_Container_proxy> ><std::_Wrap_alloc<std::allocator<CCustomMenu::Option> > &>
_TEXT	ENDS
; Function compile flags: /Odtp /RTCsu /ZI
; File c:\program files (x86)\microsoft visual studio 14.0\vc\include\xmemory0
;	COMDAT ?deallocate@?$_Wrap_alloc@V?$allocator@U_Container_proxy@std@@@std@@@std@@QAEXPAU_Container_proxy@2@I@Z
_TEXT	SEGMENT
_this$ = -8						; size = 4
__Ptr$ = 8						; size = 4
__Count$ = 12						; size = 4
?deallocate@?$_Wrap_alloc@V?$allocator@U_Container_proxy@std@@@std@@@std@@QAEXPAU_Container_proxy@2@I@Z PROC ; std::_Wrap_alloc<std::allocator<std::_Container_proxy> >::deallocate, COMDAT
; _this$ = ecx

; 986  : 		{	// deallocate object at _Ptr, ignore size

	push	ebp
	mov	ebp, esp
	sub	esp, 204				; 000000ccH
	push	ebx
	push	esi
	push	edi
	push	ecx
	lea	edi, DWORD PTR [ebp-204]
	mov	ecx, 51					; 00000033H
	mov	eax, -858993460				; ccccccccH
	rep stosd
	pop	ecx
	mov	DWORD PTR _this$[ebp], ecx

; 987  : 		_Mybase::deallocate(_Ptr, _Count);

	mov	eax, DWORD PTR __Count$[ebp]
	push	eax
	mov	ecx, DWORD PTR __Ptr$[ebp]
	push	ecx
	mov	ecx, DWORD PTR _this$[ebp]
	call	?deallocate@?$allocator@U_Container_proxy@std@@@std@@QAEXPAU_Container_proxy@2@I@Z ; std::allocator<std::_Container_proxy>::deallocate

; 988  : 		}

	pop	edi
	pop	esi
	pop	ebx
	add	esp, 204				; 000000ccH
	cmp	ebp, esp
	call	__RTC_CheckEsp
	mov	esp, ebp
	pop	ebp
	ret	8
?deallocate@?$_Wrap_alloc@V?$allocator@U_Container_proxy@std@@@std@@@std@@QAEXPAU_Container_proxy@2@I@Z ENDP ; std::_Wrap_alloc<std::allocator<std::_Container_proxy> >::deallocate
_TEXT	ENDS
; Function compile flags: /Odtp /RTCsu /ZI
; File c:\program files (x86)\microsoft visual studio 14.0\vc\include\xmemory0
;	COMDAT ?allocate@?$_Wrap_alloc@V?$allocator@U_Container_proxy@std@@@std@@@std@@QAEPAU_Container_proxy@2@I@Z
_TEXT	SEGMENT
_this$ = -8						; size = 4
__Count$ = 8						; size = 4
?allocate@?$_Wrap_alloc@V?$allocator@U_Container_proxy@std@@@std@@@std@@QAEPAU_Container_proxy@2@I@Z PROC ; std::_Wrap_alloc<std::allocator<std::_Container_proxy> >::allocate, COMDAT
; _this$ = ecx

; 975  : 		{	// allocate array of _Count elements

	push	ebp
	mov	ebp, esp
	sub	esp, 204				; 000000ccH
	push	ebx
	push	esi
	push	edi
	push	ecx
	lea	edi, DWORD PTR [ebp-204]
	mov	ecx, 51					; 00000033H
	mov	eax, -858993460				; ccccccccH
	rep stosd
	pop	ecx
	mov	DWORD PTR _this$[ebp], ecx

; 976  : 		return (_Mybase::allocate(_Count));

	mov	eax, DWORD PTR __Count$[ebp]
	push	eax
	mov	ecx, DWORD PTR _this$[ebp]
	call	?allocate@?$allocator@U_Container_proxy@std@@@std@@QAEPAU_Container_proxy@2@I@Z ; std::allocator<std::_Container_proxy>::allocate

; 977  : 		}

	pop	edi
	pop	esi
	pop	ebx
	add	esp, 204				; 000000ccH
	cmp	ebp, esp
	call	__RTC_CheckEsp
	mov	esp, ebp
	pop	ebp
	ret	4
?allocate@?$_Wrap_alloc@V?$allocator@U_Container_proxy@std@@@std@@@std@@QAEPAU_Container_proxy@2@I@Z ENDP ; std::_Wrap_alloc<std::allocator<std::_Container_proxy> >::allocate
_TEXT	ENDS
; Function compile flags: /Odtp /RTCsu /ZI
; File c:\program files (x86)\microsoft visual studio 14.0\vc\include\xmemory0
;	COMDAT ?address@?$_Wrap_alloc@V?$allocator@U_Container_proxy@std@@@std@@@std@@QBEPAU_Container_proxy@2@AAU32@@Z
_TEXT	SEGMENT
_this$ = -8						; size = 4
__Val$ = 8						; size = 4
?address@?$_Wrap_alloc@V?$allocator@U_Container_proxy@std@@@std@@@std@@QBEPAU_Container_proxy@2@AAU32@@Z PROC ; std::_Wrap_alloc<std::allocator<std::_Container_proxy> >::address, COMDAT
; _this$ = ecx

; 925  : 		{	// return address of mutable _Val

	push	ebp
	mov	ebp, esp
	sub	esp, 204				; 000000ccH
	push	ebx
	push	esi
	push	edi
	push	ecx
	lea	edi, DWORD PTR [ebp-204]
	mov	ecx, 51					; 00000033H
	mov	eax, -858993460				; ccccccccH
	rep stosd
	pop	ecx
	mov	DWORD PTR _this$[ebp], ecx

; 926  : 		return (pointer_traits<pointer>::pointer_to(_Val));

	mov	eax, DWORD PTR __Val$[ebp]
	push	eax
	call	?pointer_to@?$pointer_traits@PAU_Container_proxy@std@@@std@@SAPAU_Container_proxy@2@AAU32@@Z ; std::pointer_traits<std::_Container_proxy *>::pointer_to
	add	esp, 4

; 927  : 		}

	pop	edi
	pop	esi
	pop	ebx
	add	esp, 204				; 000000ccH
	cmp	ebp, esp
	call	__RTC_CheckEsp
	mov	esp, ebp
	pop	ebp
	ret	4
?address@?$_Wrap_alloc@V?$allocator@U_Container_proxy@std@@@std@@@std@@QBEPAU_Container_proxy@2@AAU32@@Z ENDP ; std::_Wrap_alloc<std::allocator<std::_Container_proxy> >::address
_TEXT	ENDS
; Function compile flags: /Odtp /RTCsu /ZI
; File c:\program files (x86)\microsoft visual studio 14.0\vc\include\xmemory0
;	COMDAT ?allocate@?$allocator@U_Container_proxy@std@@@std@@QAEPAU_Container_proxy@2@I@Z
_TEXT	SEGMENT
_this$ = -8						; size = 4
__Count$ = 8						; size = 4
?allocate@?$allocator@U_Container_proxy@std@@@std@@QAEPAU_Container_proxy@2@I@Z PROC ; std::allocator<std::_Container_proxy>::allocate, COMDAT
; _this$ = ecx

; 724  : 		{	// allocate array of _Count elements

	push	ebp
	mov	ebp, esp
	sub	esp, 204				; 000000ccH
	push	ebx
	push	esi
	push	edi
	push	ecx
	lea	edi, DWORD PTR [ebp-204]
	mov	ecx, 51					; 00000033H
	mov	eax, -858993460				; ccccccccH
	rep stosd
	pop	ecx
	mov	DWORD PTR _this$[ebp], ecx

; 725  : 		return (static_cast<pointer>(_Allocate(_Count, sizeof (_Ty))));

	push	1
	push	8
	mov	eax, DWORD PTR __Count$[ebp]
	push	eax
	call	?_Allocate@std@@YAPAXII_N@Z		; std::_Allocate
	add	esp, 12					; 0000000cH

; 726  : 		}

	pop	edi
	pop	esi
	pop	ebx
	add	esp, 204				; 000000ccH
	cmp	ebp, esp
	call	__RTC_CheckEsp
	mov	esp, ebp
	pop	ebp
	ret	4
?allocate@?$allocator@U_Container_proxy@std@@@std@@QAEPAU_Container_proxy@2@I@Z ENDP ; std::allocator<std::_Container_proxy>::allocate
_TEXT	ENDS
; Function compile flags: /Odtp /RTCsu /ZI
; File c:\program files (x86)\microsoft visual studio 14.0\vc\include\xmemory0
;	COMDAT ?deallocate@?$allocator@U_Container_proxy@std@@@std@@QAEXPAU_Container_proxy@2@I@Z
_TEXT	SEGMENT
_this$ = -8						; size = 4
__Ptr$ = 8						; size = 4
__Count$ = 12						; size = 4
?deallocate@?$allocator@U_Container_proxy@std@@@std@@QAEXPAU_Container_proxy@2@I@Z PROC ; std::allocator<std::_Container_proxy>::deallocate, COMDAT
; _this$ = ecx

; 719  : 		{	// deallocate object at _Ptr

	push	ebp
	mov	ebp, esp
	sub	esp, 204				; 000000ccH
	push	ebx
	push	esi
	push	edi
	push	ecx
	lea	edi, DWORD PTR [ebp-204]
	mov	ecx, 51					; 00000033H
	mov	eax, -858993460				; ccccccccH
	rep stosd
	pop	ecx
	mov	DWORD PTR _this$[ebp], ecx

; 720  : 		_Deallocate(_Ptr, _Count, sizeof (_Ty));

	push	8
	mov	eax, DWORD PTR __Count$[ebp]
	push	eax
	mov	ecx, DWORD PTR __Ptr$[ebp]
	push	ecx
	call	?_Deallocate@std@@YAXPAXII@Z		; std::_Deallocate
	add	esp, 12					; 0000000cH

; 721  : 		}

	pop	edi
	pop	esi
	pop	ebx
	add	esp, 204				; 000000ccH
	cmp	ebp, esp
	call	__RTC_CheckEsp
	mov	esp, ebp
	pop	ebp
	ret	8
?deallocate@?$allocator@U_Container_proxy@std@@@std@@QAEXPAU_Container_proxy@2@I@Z ENDP ; std::allocator<std::_Container_proxy>::deallocate
_TEXT	ENDS
; Function compile flags: /Odtp /RTCsu /ZI
; File c:\program files (x86)\microsoft visual studio 14.0\vc\include\xmemory0
;	COMDAT ??$construct@PADAAPAD@?$_Wrap_alloc@V?$allocator@D@std@@@std@@QAEXPAPADAAPAD@Z
_TEXT	SEGMENT
_this$ = -8						; size = 4
__Ptr$ = 8						; size = 4
_<_Args_0>$ = 12					; size = 4
??$construct@PADAAPAD@?$_Wrap_alloc@V?$allocator@D@std@@@std@@QAEXPAPADAAPAD@Z PROC ; std::_Wrap_alloc<std::allocator<char> >::construct<char *,char * &>, COMDAT
; _this$ = ecx

; 994  : 		{	// construct _Ty(_Types...) at _Ptr

	push	ebp
	mov	ebp, esp
	sub	esp, 204				; 000000ccH
	push	ebx
	push	esi
	push	edi
	push	ecx
	lea	edi, DWORD PTR [ebp-204]
	mov	ecx, 51					; 00000033H
	mov	eax, -858993460				; ccccccccH
	rep stosd
	pop	ecx
	mov	DWORD PTR _this$[ebp], ecx

; 995  : 		_Mytraits::construct(*this, _Ptr,

	mov	eax, DWORD PTR _<_Args_0>$[ebp]
	push	eax
	call	??$forward@AAPAD@std@@YAAAPADAAPAD@Z	; std::forward<char * &>
	add	esp, 4
	push	eax
	mov	ecx, DWORD PTR __Ptr$[ebp]
	push	ecx
	mov	edx, DWORD PTR _this$[ebp]
	push	edx
	call	??$construct@PADAAPAD@?$allocator_traits@V?$allocator@D@std@@@std@@SAXAAV?$allocator@D@1@PAPADAAPAD@Z ; std::allocator_traits<std::allocator<char> >::construct<char *,char * &>
	add	esp, 12					; 0000000cH

; 996  : 			_STD forward<_Types>(_Args)...);
; 997  : 		}

	pop	edi
	pop	esi
	pop	ebx
	add	esp, 204				; 000000ccH
	cmp	ebp, esp
	call	__RTC_CheckEsp
	mov	esp, ebp
	pop	ebp
	ret	8
??$construct@PADAAPAD@?$_Wrap_alloc@V?$allocator@D@std@@@std@@QAEXPAPADAAPAD@Z ENDP ; std::_Wrap_alloc<std::allocator<char> >::construct<char *,char * &>
_TEXT	ENDS
; Function compile flags: /Odtp /RTCsu /ZI
; File c:\program files (x86)\microsoft visual studio 14.0\vc\include\xutility
;	COMDAT ??$_Debug_pointer_if@$$CBD@std@@YAX_NPBDPB_WI@Z
_TEXT	SEGMENT
__Test$ = 8						; size = 1
__Ptr$ = 12						; size = 4
__File$ = 16						; size = 4
__Line$ = 20						; size = 4
??$_Debug_pointer_if@$$CBD@std@@YAX_NPBDPB_WI@Z PROC	; std::_Debug_pointer_if<char const >, COMDAT

; 937  : 	{	// conditionally test pointer for non-singularity, pointers

	push	ebp
	mov	ebp, esp
	sub	esp, 192				; 000000c0H
	push	ebx
	push	esi
	push	edi
	lea	edi, DWORD PTR [ebp-192]
	mov	ecx, 48					; 00000030H
	mov	eax, -858993460				; ccccccccH
	rep stosd

; 938  : 	if (_Test && _Ptr == 0)

	movzx	eax, BYTE PTR __Test$[ebp]
	test	eax, eax
	je	SHORT $LN1@Debug_poin
	cmp	DWORD PTR __Ptr$[ebp], 0
	jne	SHORT $LN1@Debug_poin

; 939  : 		_DEBUG_ERROR2("invalid null pointer", _File, _Line);

	mov	esi, esp
	mov	eax, DWORD PTR __Line$[ebp]
	push	eax
	mov	ecx, DWORD PTR __File$[ebp]
	push	ecx
	push	OFFSET ??_C@_1CK@EOPGIILJ@?$AAi?$AAn?$AAv?$AAa?$AAl?$AAi?$AAd?$AA?5?$AAn?$AAu?$AAl?$AAl?$AA?5?$AAp?$AAo?$AAi?$AAn?$AAt?$AAe?$AAr?$AA?$AA@
	call	DWORD PTR __imp_?_Debug_message@std@@YAXPB_W0I@Z
	add	esp, 12					; 0000000cH
	cmp	esi, esp
	call	__RTC_CheckEsp
$LN1@Debug_poin:

; 940  : 	}

	pop	edi
	pop	esi
	pop	ebx
	add	esp, 192				; 000000c0H
	cmp	ebp, esp
	call	__RTC_CheckEsp
	mov	esp, ebp
	pop	ebp
	ret	0
??$_Debug_pointer_if@$$CBD@std@@YAX_NPBDPB_WI@Z ENDP	; std::_Debug_pointer_if<char const >
_TEXT	ENDS
; Function compile flags: /Odtp /RTCsu /ZI
; File c:\program files (x86)\microsoft visual studio 14.0\vc\include\xstddef
;	COMDAT ??$_Unfancy@D@std@@YAPADPAD@Z
_TEXT	SEGMENT
__Ptr$ = 8						; size = 4
??$_Unfancy@D@std@@YAPADPAD@Z PROC			; std::_Unfancy<char>, COMDAT

; 739  : 	{	// do nothing for plain pointers

	push	ebp
	mov	ebp, esp
	sub	esp, 192				; 000000c0H
	push	ebx
	push	esi
	push	edi
	lea	edi, DWORD PTR [ebp-192]
	mov	ecx, 48					; 00000030H
	mov	eax, -858993460				; ccccccccH
	rep stosd

; 740  : 	return (_Ptr);

	mov	eax, DWORD PTR __Ptr$[ebp]

; 741  : 	}

	pop	edi
	pop	esi
	pop	ebx
	mov	esp, ebp
	pop	ebp
	ret	0
??$_Unfancy@D@std@@YAPADPAD@Z ENDP			; std::_Unfancy<char>
_TEXT	ENDS
; Function compile flags: /Odtp /RTCsu /ZI
; File c:\program files (x86)\microsoft visual studio 14.0\vc\include\xmemory0
;	COMDAT ??$destroy@PAD@?$_Wrap_alloc@V?$allocator@D@std@@@std@@QAEXPAPAD@Z
_TEXT	SEGMENT
_this$ = -8						; size = 4
__Ptr$ = 8						; size = 4
??$destroy@PAD@?$_Wrap_alloc@V?$allocator@D@std@@@std@@QAEXPAPAD@Z PROC ; std::_Wrap_alloc<std::allocator<char> >::destroy<char *>, COMDAT
; _this$ = ecx

; 1002 : 		{	// destroy object at _Ptr

	push	ebp
	mov	ebp, esp
	sub	esp, 204				; 000000ccH
	push	ebx
	push	esi
	push	edi
	push	ecx
	lea	edi, DWORD PTR [ebp-204]
	mov	ecx, 51					; 00000033H
	mov	eax, -858993460				; ccccccccH
	rep stosd
	pop	ecx
	mov	DWORD PTR _this$[ebp], ecx

; 1003 : 		_Mytraits::destroy(*this, _Ptr);

	mov	eax, DWORD PTR __Ptr$[ebp]
	push	eax
	mov	ecx, DWORD PTR _this$[ebp]
	push	ecx
	call	??$destroy@PAD@?$allocator_traits@V?$allocator@D@std@@@std@@SAXAAV?$allocator@D@1@PAPAD@Z ; std::allocator_traits<std::allocator<char> >::destroy<char *>
	add	esp, 8

; 1004 : 		}

	pop	edi
	pop	esi
	pop	ebx
	add	esp, 204				; 000000ccH
	cmp	ebp, esp
	call	__RTC_CheckEsp
	mov	esp, ebp
	pop	ebp
	ret	4
??$destroy@PAD@?$_Wrap_alloc@V?$allocator@D@std@@@std@@QAEXPAPAD@Z ENDP ; std::_Wrap_alloc<std::allocator<char> >::destroy<char *>
_TEXT	ENDS
; Function compile flags: /Odtp /RTCsu /ZI
; File c:\program files (x86)\microsoft visual studio 14.0\vc\include\xstddef
;	COMDAT ??$addressof@PAD@std@@YAPAPADAAPAD@Z
_TEXT	SEGMENT
__Val$ = 8						; size = 4
??$addressof@PAD@std@@YAPAPADAAPAD@Z PROC		; std::addressof<char *>, COMDAT

; 724  : 	{	// return address of _Val

	push	ebp
	mov	ebp, esp
	sub	esp, 192				; 000000c0H
	push	ebx
	push	esi
	push	edi
	lea	edi, DWORD PTR [ebp-192]
	mov	ecx, 48					; 00000030H
	mov	eax, -858993460				; ccccccccH
	rep stosd

; 725  : 	return (__builtin_addressof(_Val));

	mov	eax, DWORD PTR __Val$[ebp]

; 726  : 	}

	pop	edi
	pop	esi
	pop	ebx
	mov	esp, ebp
	pop	ebp
	ret	0
??$addressof@PAD@std@@YAPAPADAAPAD@Z ENDP		; std::addressof<char *>
_TEXT	ENDS
; Function compile flags: /Odtp /RTCsu /ZI
; File c:\program files (x86)\microsoft visual studio 14.0\vc\include\xutility
;	COMDAT ??$?0$$V@?$_Compressed_pair@U?$_Wrap_alloc@V?$allocator@D@std@@@std@@V?$_String_val@U?$_Simple_types@D@std@@@2@$00@std@@QAE@U_Zero_then_variadic_args_t@1@@Z
_TEXT	SEGMENT
_this$ = -8						; size = 4
___formal$ = 8						; size = 1
??$?0$$V@?$_Compressed_pair@U?$_Wrap_alloc@V?$allocator@D@std@@@std@@V?$_String_val@U?$_Simple_types@D@std@@@2@$00@std@@QAE@U_Zero_then_variadic_args_t@1@@Z PROC ; std::_Compressed_pair<std::_Wrap_alloc<std::allocator<char> >,std::_String_val<std::_Simple_types<char> >,1>::_Compressed_pair<std::_Wrap_alloc<std::allocator<char> >,std::_String_val<std::_Simple_types<char> >,1><>, COMDAT
; _this$ = ecx

; 280  : 		{	// construct from forwarded values

	push	ebp
	mov	ebp, esp
	sub	esp, 204				; 000000ccH
	push	ebx
	push	esi
	push	edi
	push	ecx
	lea	edi, DWORD PTR [ebp-204]
	mov	ecx, 51					; 00000033H
	mov	eax, -858993460				; ccccccccH
	rep stosd
	pop	ecx
	mov	DWORD PTR _this$[ebp], ecx

; 279  : 		: _Ty1(), _Myval2(_STD forward<_Other2>(_Val2)...)

	mov	ecx, DWORD PTR _this$[ebp]
	call	??0?$_Wrap_alloc@V?$allocator@D@std@@@std@@QAE@XZ ; std::_Wrap_alloc<std::allocator<char> >::_Wrap_alloc<std::allocator<char> >
	mov	ecx, DWORD PTR _this$[ebp]
	call	??0?$_String_val@U?$_Simple_types@D@std@@@std@@QAE@XZ ; std::_String_val<std::_Simple_types<char> >::_String_val<std::_Simple_types<char> >

; 281  : 		}

	mov	eax, DWORD PTR _this$[ebp]
	pop	edi
	pop	esi
	pop	ebx
	add	esp, 204				; 000000ccH
	cmp	ebp, esp
	call	__RTC_CheckEsp
	mov	esp, ebp
	pop	ebp
	ret	4
??$?0$$V@?$_Compressed_pair@U?$_Wrap_alloc@V?$allocator@D@std@@@std@@V?$_String_val@U?$_Simple_types@D@std@@@2@$00@std@@QAE@U_Zero_then_variadic_args_t@1@@Z ENDP ; std::_Compressed_pair<std::_Wrap_alloc<std::allocator<char> >,std::_String_val<std::_Simple_types<char> >,1>::_Compressed_pair<std::_Wrap_alloc<std::allocator<char> >,std::_String_val<std::_Simple_types<char> >,1><>
_TEXT	ENDS
; Function compile flags: /Odtp /RTCsu /ZI
; File c:\program files (x86)\microsoft visual studio 14.0\vc\include\xmemory0
;	COMDAT ??$_Pocca@U?$_Wrap_alloc@V?$allocator@D@std@@@std@@@std@@YAXAAU?$_Wrap_alloc@V?$allocator@D@std@@@0@ABU10@@Z
_TEXT	SEGMENT
__Tag$ = -5						; size = 1
__Left$ = 8						; size = 4
__Right$ = 12						; size = 4
??$_Pocca@U?$_Wrap_alloc@V?$allocator@D@std@@@std@@@std@@YAXAAU?$_Wrap_alloc@V?$allocator@D@std@@@0@ABU10@@Z PROC ; std::_Pocca<std::_Wrap_alloc<std::allocator<char> > >, COMDAT

; 1043 : 	{	// (maybe) propagate on container copy assignment

	push	ebp
	mov	ebp, esp
	sub	esp, 204				; 000000ccH
	push	ebx
	push	esi
	push	edi
	lea	edi, DWORD PTR [ebp-204]
	mov	ecx, 51					; 00000033H
	mov	eax, -858993460				; ccccccccH
	rep stosd

; 1044 : 	typename _Alty::propagate_on_container_copy_assignment _Tag;
; 1045 : 	_Pocca(_Left, _Right, _Tag);

	movzx	eax, BYTE PTR __Tag$[ebp]
	push	eax
	mov	ecx, DWORD PTR __Right$[ebp]
	push	ecx
	mov	edx, DWORD PTR __Left$[ebp]
	push	edx
	call	??$_Pocca@U?$_Wrap_alloc@V?$allocator@D@std@@@std@@@std@@YAXAAU?$_Wrap_alloc@V?$allocator@D@std@@@0@ABU10@U?$integral_constant@_N$0A@@0@@Z ; std::_Pocca<std::_Wrap_alloc<std::allocator<char> > >
	add	esp, 12					; 0000000cH

; 1046 : 	}

	push	edx
	mov	ecx, ebp
	push	eax
	lea	edx, DWORD PTR $LN5@Pocca
	call	@_RTC_CheckStackVars@8
	pop	eax
	pop	edx
	pop	edi
	pop	esi
	pop	ebx
	add	esp, 204				; 000000ccH
	cmp	ebp, esp
	call	__RTC_CheckEsp
	mov	esp, ebp
	pop	ebp
	ret	0
$LN5@Pocca:
	DD	1
	DD	$LN4@Pocca
$LN4@Pocca:
	DD	-5					; fffffffbH
	DD	1
	DD	$LN3@Pocca
$LN3@Pocca:
	DB	95					; 0000005fH
	DB	84					; 00000054H
	DB	97					; 00000061H
	DB	103					; 00000067H
	DB	0
??$_Pocca@U?$_Wrap_alloc@V?$allocator@D@std@@@std@@@std@@YAXAAU?$_Wrap_alloc@V?$allocator@D@std@@@0@ABU10@@Z ENDP ; std::_Pocca<std::_Wrap_alloc<std::allocator<char> > >
_TEXT	ENDS
; Function compile flags: /Odtp /RTCsu /ZI
; File c:\program files (x86)\microsoft visual studio 14.0\vc\include\xmemory0
;	COMDAT ??$?0V?$allocator@D@std@@@?$_Wrap_alloc@V?$allocator@D@std@@@std@@QAE@$$QAV?$allocator@D@1@@Z
_TEXT	SEGMENT
_this$ = -8						; size = 4
__Right$ = 8						; size = 4
??$?0V?$allocator@D@std@@@?$_Wrap_alloc@V?$allocator@D@std@@@std@@QAE@$$QAV?$allocator@D@1@@Z PROC ; std::_Wrap_alloc<std::allocator<char> >::_Wrap_alloc<std::allocator<char> ><std::allocator<char> >, COMDAT
; _this$ = ecx

; 952  : 		{	// construct from a related allocator

	push	ebp
	mov	ebp, esp
	sub	esp, 204				; 000000ccH
	push	ebx
	push	esi
	push	edi
	push	ecx
	lea	edi, DWORD PTR [ebp-204]
	mov	ecx, 51					; 00000033H
	mov	eax, -858993460				; ccccccccH
	rep stosd
	pop	ecx
	mov	DWORD PTR _this$[ebp], ecx

; 951  : 		: _Mybase(_STD forward<_Other>(_Right))

	mov	eax, DWORD PTR __Right$[ebp]
	push	eax
	call	??$forward@V?$allocator@D@std@@@std@@YA$$QAV?$allocator@D@0@AAV10@@Z ; std::forward<std::allocator<char> >
	add	esp, 4
	push	eax
	mov	ecx, DWORD PTR _this$[ebp]
	call	??0?$allocator@D@std@@QAE@ABV01@@Z	; std::allocator<char>::allocator<char>

; 953  : 		}

	mov	eax, DWORD PTR _this$[ebp]
	pop	edi
	pop	esi
	pop	ebx
	add	esp, 204				; 000000ccH
	cmp	ebp, esp
	call	__RTC_CheckEsp
	mov	esp, ebp
	pop	ebp
	ret	4
??$?0V?$allocator@D@std@@@?$_Wrap_alloc@V?$allocator@D@std@@@std@@QAE@$$QAV?$allocator@D@1@@Z ENDP ; std::_Wrap_alloc<std::allocator<char> >::_Wrap_alloc<std::allocator<char> ><std::allocator<char> >
_TEXT	ENDS
; Function compile flags: /Odtp /RTCsu /ZI
; File c:\program files (x86)\microsoft visual studio 14.0\vc\include\xutility
;	COMDAT ??$?0$$V@?$_Compressed_pair@U?$_Wrap_alloc@V?$allocator@UOption@CCustomMenu@@@std@@@std@@V?$_Vector_val@U?$_Simple_types@UOption@CCustomMenu@@@std@@@2@$00@std@@QAE@U_Zero_then_variadic_args_t@1@@Z
_TEXT	SEGMENT
_this$ = -8						; size = 4
___formal$ = 8						; size = 1
??$?0$$V@?$_Compressed_pair@U?$_Wrap_alloc@V?$allocator@UOption@CCustomMenu@@@std@@@std@@V?$_Vector_val@U?$_Simple_types@UOption@CCustomMenu@@@std@@@2@$00@std@@QAE@U_Zero_then_variadic_args_t@1@@Z PROC ; std::_Compressed_pair<std::_Wrap_alloc<std::allocator<CCustomMenu::Option> >,std::_Vector_val<std::_Simple_types<CCustomMenu::Option> >,1>::_Compressed_pair<std::_Wrap_alloc<std::allocator<CCustomMenu::Option> >,std::_Vector_val<std::_Simple_types<CCustomMenu::Option> >,1><>, COMDAT
; _this$ = ecx

; 280  : 		{	// construct from forwarded values

	push	ebp
	mov	ebp, esp
	sub	esp, 204				; 000000ccH
	push	ebx
	push	esi
	push	edi
	push	ecx
	lea	edi, DWORD PTR [ebp-204]
	mov	ecx, 51					; 00000033H
	mov	eax, -858993460				; ccccccccH
	rep stosd
	pop	ecx
	mov	DWORD PTR _this$[ebp], ecx

; 279  : 		: _Ty1(), _Myval2(_STD forward<_Other2>(_Val2)...)

	mov	ecx, DWORD PTR _this$[ebp]
	call	??0?$_Wrap_alloc@V?$allocator@UOption@CCustomMenu@@@std@@@std@@QAE@XZ ; std::_Wrap_alloc<std::allocator<CCustomMenu::Option> >::_Wrap_alloc<std::allocator<CCustomMenu::Option> >
	mov	ecx, DWORD PTR _this$[ebp]
	call	??0?$_Vector_val@U?$_Simple_types@UOption@CCustomMenu@@@std@@@std@@QAE@XZ ; std::_Vector_val<std::_Simple_types<CCustomMenu::Option> >::_Vector_val<std::_Simple_types<CCustomMenu::Option> >

; 281  : 		}

	mov	eax, DWORD PTR _this$[ebp]
	pop	edi
	pop	esi
	pop	ebx
	add	esp, 204				; 000000ccH
	cmp	ebp, esp
	call	__RTC_CheckEsp
	mov	esp, ebp
	pop	ebp
	ret	4
??$?0$$V@?$_Compressed_pair@U?$_Wrap_alloc@V?$allocator@UOption@CCustomMenu@@@std@@@std@@V?$_Vector_val@U?$_Simple_types@UOption@CCustomMenu@@@std@@@2@$00@std@@QAE@U_Zero_then_variadic_args_t@1@@Z ENDP ; std::_Compressed_pair<std::_Wrap_alloc<std::allocator<CCustomMenu::Option> >,std::_Vector_val<std::_Simple_types<CCustomMenu::Option> >,1>::_Compressed_pair<std::_Wrap_alloc<std::allocator<CCustomMenu::Option> >,std::_Vector_val<std::_Simple_types<CCustomMenu::Option> >,1><>
_TEXT	ENDS
; Function compile flags: /Odtp /RTCsu /ZI
; File c:\program files (x86)\microsoft visual studio 14.0\vc\include\type_traits
;	COMDAT ??$forward@V?$basic_string@DU?$char_traits@D@std@@V?$allocator@D@2@@std@@@std@@YA$$QAV?$basic_string@DU?$char_traits@D@std@@V?$allocator@D@2@@0@AAV10@@Z
_TEXT	SEGMENT
__Arg$ = 8						; size = 4
??$forward@V?$basic_string@DU?$char_traits@D@std@@V?$allocator@D@2@@std@@@std@@YA$$QAV?$basic_string@DU?$char_traits@D@std@@V?$allocator@D@2@@0@AAV10@@Z PROC ; std::forward<std::basic_string<char,std::char_traits<char>,std::allocator<char> > >, COMDAT

; 1275 : 	{	// forward an lvalue as either an lvalue or an rvalue

	push	ebp
	mov	ebp, esp
	sub	esp, 192				; 000000c0H
	push	ebx
	push	esi
	push	edi
	lea	edi, DWORD PTR [ebp-192]
	mov	ecx, 48					; 00000030H
	mov	eax, -858993460				; ccccccccH
	rep stosd

; 1276 : 	return (static_cast<_Ty&&>(_Arg));

	mov	eax, DWORD PTR __Arg$[ebp]

; 1277 : 	}

	pop	edi
	pop	esi
	pop	ebx
	mov	esp, ebp
	pop	ebp
	ret	0
??$forward@V?$basic_string@DU?$char_traits@D@std@@V?$allocator@D@2@@std@@@std@@YA$$QAV?$basic_string@DU?$char_traits@D@std@@V?$allocator@D@2@@0@AAV10@@Z ENDP ; std::forward<std::basic_string<char,std::char_traits<char>,std::allocator<char> > >
_TEXT	ENDS
; Function compile flags: /Odtp /RTCsu /ZI
; File c:\program files (x86)\microsoft visual studio 14.0\vc\include\xstring
;	COMDAT ??$?0U?$_Wrap_alloc@V?$allocator@D@std@@@std@@X@?$_String_alloc@U?$_String_base_types@DV?$allocator@D@std@@@std@@@std@@QAE@$$QAU?$_Wrap_alloc@V?$allocator@D@std@@@1@@Z
_TEXT	SEGMENT
$T2 = -221						; size = 1
_this$ = -20						; size = 4
__$EHRec$ = -12						; size = 12
__Al$ = 8						; size = 4
??$?0U?$_Wrap_alloc@V?$allocator@D@std@@@std@@X@?$_String_alloc@U?$_String_base_types@DV?$allocator@D@std@@@std@@@std@@QAE@$$QAU?$_Wrap_alloc@V?$allocator@D@std@@@1@@Z PROC ; std::_String_alloc<std::_String_base_types<char,std::allocator<char> > >::_String_alloc<std::_String_base_types<char,std::allocator<char> > ><std::_Wrap_alloc<std::allocator<char> >,void>, COMDAT
; _this$ = ecx

; 622  : 		{	// construct allocator from _Al

	push	ebp
	mov	ebp, esp
	push	-1
	push	__ehhandler$??$?0U?$_Wrap_alloc@V?$allocator@D@std@@@std@@X@?$_String_alloc@U?$_String_base_types@DV?$allocator@D@std@@@std@@@std@@QAE@$$QAU?$_Wrap_alloc@V?$allocator@D@std@@@1@@Z
	mov	eax, DWORD PTR fs:0
	push	eax
	sub	esp, 216				; 000000d8H
	push	ebx
	push	esi
	push	edi
	push	ecx
	lea	edi, DWORD PTR [ebp-228]
	mov	ecx, 54					; 00000036H
	mov	eax, -858993460				; ccccccccH
	rep stosd
	pop	ecx
	mov	eax, DWORD PTR ___security_cookie
	xor	eax, ebp
	push	eax
	lea	eax, DWORD PTR __$EHRec$[ebp]
	mov	DWORD PTR fs:0, eax
	mov	DWORD PTR _this$[ebp], ecx

; 620  : 		: _Mypair(_One_then_variadic_args_t(),

	mov	eax, DWORD PTR __Al$[ebp]
	push	eax
	call	??$forward@U?$_Wrap_alloc@V?$allocator@D@std@@@std@@@std@@YA$$QAU?$_Wrap_alloc@V?$allocator@D@std@@@0@AAU10@@Z ; std::forward<std::_Wrap_alloc<std::allocator<char> > >
	add	esp, 4
	push	eax
	movzx	ecx, BYTE PTR $T2[ebp]
	push	ecx
	mov	ecx, DWORD PTR _this$[ebp]
	call	??$?0U?$_Wrap_alloc@V?$allocator@D@std@@@std@@$$V@?$_Compressed_pair@U?$_Wrap_alloc@V?$allocator@D@std@@@std@@V?$_String_val@U?$_Simple_types@D@std@@@2@$00@std@@QAE@U_One_then_variadic_args_t@1@$$QAU?$_Wrap_alloc@V?$allocator@D@std@@@1@@Z ; std::_Compressed_pair<std::_Wrap_alloc<std::allocator<char> >,std::_String_val<std::_Simple_types<char> >,1>::_Compressed_pair<std::_Wrap_alloc<std::allocator<char> >,std::_String_val<std::_Simple_types<char> >,1><std::_Wrap_alloc<std::allocator<char> > >
	mov	DWORD PTR __$EHRec$[ebp+8], 0

; 623  : 		_Alloc_proxy();

	mov	ecx, DWORD PTR _this$[ebp]
	call	?_Alloc_proxy@?$_String_alloc@U?$_String_base_types@DV?$allocator@D@std@@@std@@@std@@QAEXXZ ; std::_String_alloc<std::_String_base_types<char,std::allocator<char> > >::_Alloc_proxy

; 624  : 		}

	mov	DWORD PTR __$EHRec$[ebp+8], -1
	mov	eax, DWORD PTR _this$[ebp]
	mov	ecx, DWORD PTR __$EHRec$[ebp]
	mov	DWORD PTR fs:0, ecx
	pop	ecx
	pop	edi
	pop	esi
	pop	ebx
	add	esp, 228				; 000000e4H
	cmp	ebp, esp
	call	__RTC_CheckEsp
	mov	esp, ebp
	pop	ebp
	ret	4
_TEXT	ENDS
;	COMDAT text$x
text$x	SEGMENT
__unwindfunclet$??$?0U?$_Wrap_alloc@V?$allocator@D@std@@@std@@X@?$_String_alloc@U?$_String_base_types@DV?$allocator@D@std@@@std@@@std@@QAE@$$QAU?$_Wrap_alloc@V?$allocator@D@std@@@1@@Z$0:
	mov	ecx, DWORD PTR _this$[ebp]
	jmp	??1?$_Compressed_pair@U?$_Wrap_alloc@V?$allocator@D@std@@@std@@V?$_String_val@U?$_Simple_types@D@std@@@2@$00@std@@QAE@XZ
__ehhandler$??$?0U?$_Wrap_alloc@V?$allocator@D@std@@@std@@X@?$_String_alloc@U?$_String_base_types@DV?$allocator@D@std@@@std@@@std@@QAE@$$QAU?$_Wrap_alloc@V?$allocator@D@std@@@1@@Z:
	mov	edx, DWORD PTR [esp+8]
	lea	eax, DWORD PTR [edx+12]
	mov	ecx, DWORD PTR [edx-232]
	xor	ecx, eax
	call	@__security_check_cookie@4
	mov	eax, OFFSET __ehfuncinfo$??$?0U?$_Wrap_alloc@V?$allocator@D@std@@@std@@X@?$_String_alloc@U?$_String_base_types@DV?$allocator@D@std@@@std@@@std@@QAE@$$QAU?$_Wrap_alloc@V?$allocator@D@std@@@1@@Z
	jmp	___CxxFrameHandler3
text$x	ENDS
??$?0U?$_Wrap_alloc@V?$allocator@D@std@@@std@@X@?$_String_alloc@U?$_String_base_types@DV?$allocator@D@std@@@std@@@std@@QAE@$$QAU?$_Wrap_alloc@V?$allocator@D@std@@@1@@Z ENDP ; std::_String_alloc<std::_String_base_types<char,std::allocator<char> > >::_String_alloc<std::_String_base_types<char,std::allocator<char> > ><std::_Wrap_alloc<std::allocator<char> >,void>
; Function compile flags: /Odtp /RTCsu /ZI
; File c:\program files (x86)\microsoft visual studio 14.0\vc\include\type_traits
;	COMDAT ??$move@AAU?$_Wrap_alloc@V?$allocator@D@std@@@std@@@std@@YA$$QAU?$_Wrap_alloc@V?$allocator@D@std@@@0@AAU10@@Z
_TEXT	SEGMENT
__Arg$ = 8						; size = 4
??$move@AAU?$_Wrap_alloc@V?$allocator@D@std@@@std@@@std@@YA$$QAU?$_Wrap_alloc@V?$allocator@D@std@@@0@AAU10@@Z PROC ; std::move<std::_Wrap_alloc<std::allocator<char> > &>, COMDAT

; 1291 : 	{	// forward _Arg as movable

	push	ebp
	mov	ebp, esp
	sub	esp, 192				; 000000c0H
	push	ebx
	push	esi
	push	edi
	lea	edi, DWORD PTR [ebp-192]
	mov	ecx, 48					; 00000030H
	mov	eax, -858993460				; ccccccccH
	rep stosd

; 1292 : 	return (static_cast<typename remove_reference<_Ty>::type&&>(_Arg));

	mov	eax, DWORD PTR __Arg$[ebp]

; 1293 : 	}

	pop	edi
	pop	esi
	pop	ebx
	mov	esp, ebp
	pop	ebp
	ret	0
??$move@AAU?$_Wrap_alloc@V?$allocator@D@std@@@std@@@std@@YA$$QAU?$_Wrap_alloc@V?$allocator@D@std@@@0@AAU10@@Z ENDP ; std::move<std::_Wrap_alloc<std::allocator<char> > &>
_TEXT	ENDS
; Function compile flags: /Odtp /RTCsu /ZI
; File c:\program files (x86)\microsoft visual studio 14.0\vc\include\xmemory0
;	COMDAT ??$?9V?$allocator@D@std@@V01@@std@@YA_NABU?$_Wrap_alloc@V?$allocator@D@std@@@0@0@Z
_TEXT	SEGMENT
tv69 = -196						; size = 4
__Left$ = 8						; size = 4
__Right$ = 12						; size = 4
??$?9V?$allocator@D@std@@V01@@std@@YA_NABU?$_Wrap_alloc@V?$allocator@D@std@@@0@0@Z PROC ; std::operator!=<std::allocator<char>,std::allocator<char> >, COMDAT

; 1025 : 	{	// test for allocator inequality

	push	ebp
	mov	ebp, esp
	sub	esp, 196				; 000000c4H
	push	ebx
	push	esi
	push	edi
	lea	edi, DWORD PTR [ebp-196]
	mov	ecx, 49					; 00000031H
	mov	eax, -858993460				; ccccccccH
	rep stosd

; 1026 : 	return (!(_Left == _Right));

	mov	eax, DWORD PTR __Right$[ebp]
	push	eax
	mov	ecx, DWORD PTR __Left$[ebp]
	push	ecx
	call	??$?8V?$allocator@D@std@@V01@@std@@YA_NABU?$_Wrap_alloc@V?$allocator@D@std@@@0@0@Z ; std::operator==<std::allocator<char>,std::allocator<char> >
	add	esp, 8
	movzx	edx, al
	test	edx, edx
	jne	SHORT $LN3@operator
	mov	DWORD PTR tv69[ebp], 1
	jmp	SHORT $LN4@operator
$LN3@operator:
	mov	DWORD PTR tv69[ebp], 0
$LN4@operator:
	mov	al, BYTE PTR tv69[ebp]

; 1027 : 	}

	pop	edi
	pop	esi
	pop	ebx
	add	esp, 196				; 000000c4H
	cmp	ebp, esp
	call	__RTC_CheckEsp
	mov	esp, ebp
	pop	ebp
	ret	0
??$?9V?$allocator@D@std@@V01@@std@@YA_NABU?$_Wrap_alloc@V?$allocator@D@std@@@0@0@Z ENDP ; std::operator!=<std::allocator<char>,std::allocator<char> >
_TEXT	ENDS
; Function compile flags: /Odtp /RTCsu /ZI
;	COMDAT ??0?$_String_const_iterator@V?$_String_val@U?$_Simple_types@D@std@@@std@@@std@@QAE@$$QAV01@@Z
_TEXT	SEGMENT
_this$ = -8						; size = 4
___that$ = 8						; size = 4
??0?$_String_const_iterator@V?$_String_val@U?$_Simple_types@D@std@@@std@@@std@@QAE@$$QAV01@@Z PROC ; std::_String_const_iterator<std::_String_val<std::_Simple_types<char> > >::_String_const_iterator<std::_String_val<std::_Simple_types<char> > >, COMDAT
; _this$ = ecx
	push	ebp
	mov	ebp, esp
	sub	esp, 204				; 000000ccH
	push	ebx
	push	esi
	push	edi
	push	ecx
	lea	edi, DWORD PTR [ebp-204]
	mov	ecx, 51					; 00000033H
	mov	eax, -858993460				; ccccccccH
	rep stosd
	pop	ecx
	mov	DWORD PTR _this$[ebp], ecx
	mov	eax, DWORD PTR ___that$[ebp]
	push	eax
	mov	ecx, DWORD PTR _this$[ebp]
	call	??0?$_Iterator012@Urandom_access_iterator_tag@std@@DHPBDABDU_Iterator_base12@2@@std@@QAE@$$QAU01@@Z
	mov	eax, DWORD PTR _this$[ebp]
	mov	ecx, DWORD PTR ___that$[ebp]
	mov	edx, DWORD PTR [ecx+8]
	mov	DWORD PTR [eax+8], edx
	mov	eax, DWORD PTR _this$[ebp]
	pop	edi
	pop	esi
	pop	ebx
	add	esp, 204				; 000000ccH
	cmp	ebp, esp
	call	__RTC_CheckEsp
	mov	esp, ebp
	pop	ebp
	ret	4
??0?$_String_const_iterator@V?$_String_val@U?$_Simple_types@D@std@@@std@@@std@@QAE@$$QAV01@@Z ENDP ; std::_String_const_iterator<std::_String_val<std::_Simple_types<char> > >::_String_const_iterator<std::_String_val<std::_Simple_types<char> > >
_TEXT	ENDS
; Function compile flags: /Odtp /RTCsu /ZI
;	COMDAT ??0?$_String_const_iterator@V?$_String_val@U?$_Simple_types@D@std@@@std@@@std@@QAE@ABV01@@Z
_TEXT	SEGMENT
_this$ = -8						; size = 4
___that$ = 8						; size = 4
??0?$_String_const_iterator@V?$_String_val@U?$_Simple_types@D@std@@@std@@@std@@QAE@ABV01@@Z PROC ; std::_String_const_iterator<std::_String_val<std::_Simple_types<char> > >::_String_const_iterator<std::_String_val<std::_Simple_types<char> > >, COMDAT
; _this$ = ecx
	push	ebp
	mov	ebp, esp
	sub	esp, 204				; 000000ccH
	push	ebx
	push	esi
	push	edi
	push	ecx
	lea	edi, DWORD PTR [ebp-204]
	mov	ecx, 51					; 00000033H
	mov	eax, -858993460				; ccccccccH
	rep stosd
	pop	ecx
	mov	DWORD PTR _this$[ebp], ecx
	mov	eax, DWORD PTR ___that$[ebp]
	push	eax
	mov	ecx, DWORD PTR _this$[ebp]
	call	??0?$_Iterator012@Urandom_access_iterator_tag@std@@DHPBDABDU_Iterator_base12@2@@std@@QAE@ABU01@@Z
	mov	eax, DWORD PTR _this$[ebp]
	mov	ecx, DWORD PTR ___that$[ebp]
	mov	edx, DWORD PTR [ecx+8]
	mov	DWORD PTR [eax+8], edx
	mov	eax, DWORD PTR _this$[ebp]
	pop	edi
	pop	esi
	pop	ebx
	add	esp, 204				; 000000ccH
	cmp	ebp, esp
	call	__RTC_CheckEsp
	mov	esp, ebp
	pop	ebp
	ret	4
??0?$_String_const_iterator@V?$_String_val@U?$_Simple_types@D@std@@@std@@@std@@QAE@ABV01@@Z ENDP ; std::_String_const_iterator<std::_String_val<std::_Simple_types<char> > >::_String_const_iterator<std::_String_val<std::_Simple_types<char> > >
_TEXT	ENDS
; Function compile flags: /Odtp /RTCsu /ZI
;	COMDAT ??1?$_String_const_iterator@V?$_String_val@U?$_Simple_types@D@std@@@std@@@std@@QAE@XZ
_TEXT	SEGMENT
_this$ = -8						; size = 4
??1?$_String_const_iterator@V?$_String_val@U?$_Simple_types@D@std@@@std@@@std@@QAE@XZ PROC ; std::_String_const_iterator<std::_String_val<std::_Simple_types<char> > >::~_String_const_iterator<std::_String_val<std::_Simple_types<char> > >, COMDAT
; _this$ = ecx
	push	ebp
	mov	ebp, esp
	sub	esp, 204				; 000000ccH
	push	ebx
	push	esi
	push	edi
	push	ecx
	lea	edi, DWORD PTR [ebp-204]
	mov	ecx, 51					; 00000033H
	mov	eax, -858993460				; ccccccccH
	rep stosd
	pop	ecx
	mov	DWORD PTR _this$[ebp], ecx
	mov	ecx, DWORD PTR _this$[ebp]
	call	??1?$_Iterator012@Urandom_access_iterator_tag@std@@DHPBDABDU_Iterator_base12@2@@std@@QAE@XZ
	pop	edi
	pop	esi
	pop	ebx
	add	esp, 204				; 000000ccH
	cmp	ebp, esp
	call	__RTC_CheckEsp
	mov	esp, ebp
	pop	ebp
	ret	0
??1?$_String_const_iterator@V?$_String_val@U?$_Simple_types@D@std@@@std@@@std@@QAE@XZ ENDP ; std::_String_const_iterator<std::_String_val<std::_Simple_types<char> > >::~_String_const_iterator<std::_String_val<std::_Simple_types<char> > >
_TEXT	ENDS
; Function compile flags: /Odtp /RTCsu /ZI
; File c:\program files (x86)\microsoft visual studio 14.0\vc\include\xstring
;	COMDAT ?_Compat@?$_String_const_iterator@V?$_String_val@U?$_Simple_types@D@std@@@std@@@std@@QBEXABV12@@Z
_TEXT	SEGMENT
_this$ = -8						; size = 4
__Right$ = 8						; size = 4
?_Compat@?$_String_const_iterator@V?$_String_val@U?$_Simple_types@D@std@@@std@@@std@@QBEXABV12@@Z PROC ; std::_String_const_iterator<std::_String_val<std::_Simple_types<char> > >::_Compat, COMDAT
; _this$ = ecx

; 253  : 		{	// test for compatible iterator pair

	push	ebp
	mov	ebp, esp
	sub	esp, 204				; 000000ccH
	push	ebx
	push	esi
	push	edi
	push	ecx
	lea	edi, DWORD PTR [ebp-204]
	mov	ecx, 51					; 00000033H
	mov	eax, -858993460				; ccccccccH
	rep stosd
	pop	ecx
	mov	DWORD PTR _this$[ebp], ecx

; 254  : 		if (this->_Getcont() != _Right._Getcont())

	mov	ecx, DWORD PTR _this$[ebp]
	call	?_Getcont@_Iterator_base12@std@@QBEPBU_Container_base12@2@XZ ; std::_Iterator_base12::_Getcont
	mov	esi, eax
	mov	ecx, DWORD PTR __Right$[ebp]
	call	?_Getcont@_Iterator_base12@std@@QBEPBU_Container_base12@2@XZ ; std::_Iterator_base12::_Getcont
	cmp	esi, eax
	je	$LN1@Compat

; 255  : 			{
; 256  : 			_DEBUG_ERROR("string iterators incompatible");

	mov	esi, esp
	push	256					; 00000100H
	push	OFFSET ??_C@_1IO@EADHKMNI@?$AAc?$AA?3?$AA?2?$AAp?$AAr?$AAo?$AAg?$AAr?$AAa?$AAm?$AA?5?$AAf?$AAi?$AAl?$AAe?$AAs?$AA?5?$AA?$CI?$AAx?$AA8?$AA6?$AA?$CJ?$AA?2?$AAm?$AAi?$AAc?$AAr?$AAo?$AAs?$AAo?$AAf?$AAt@
	push	OFFSET ??_C@_1DM@KDEKGMPF@?$AAs?$AAt?$AAr?$AAi?$AAn?$AAg?$AA?5?$AAi?$AAt?$AAe?$AAr?$AAa?$AAt?$AAo?$AAr?$AAs?$AA?5?$AAi?$AAn?$AAc?$AAo?$AAm?$AAp?$AAa?$AAt?$AAi?$AAb?$AAl?$AAe?$AA?$AA@
	call	DWORD PTR __imp_?_Debug_message@std@@YAXPB_W0I@Z
	add	esp, 12					; 0000000cH
	cmp	esi, esp
	call	__RTC_CheckEsp

; 257  : 			_SCL_SECURE_INVALID_ARGUMENT;

	mov	eax, OFFSET ??_C@_0CI@FNPHFCCM@Standard?5C?$CL?$CL?5Libraries?5Invalid?5A@
	test	eax, eax
	je	SHORT $LN4@Compat
	xor	ecx, ecx
	jne	SHORT $LN5@Compat
$LN4@Compat:
	mov	esi, esp
	push	OFFSET ??_C@_1FO@GJIHNDLM@?$AA?$CC?$AAS?$AAt?$AAa?$AAn?$AAd?$AAa?$AAr?$AAd?$AA?5?$AAC?$AA?$CL?$AA?$CL?$AA?5?$AAL?$AAi?$AAb?$AAr?$AAa?$AAr?$AAi?$AAe?$AAs?$AA?5?$AAI?$AAn?$AAv?$AAa?$AAl?$AAi?$AAd?$AA?5@
	push	OFFSET ??_C@_17CNPHIMPH@?$AA?$CF?$AAl?$AAs?$AA?$AA@
	push	0
	push	257					; 00000101H
	push	OFFSET ??_C@_1IO@EADHKMNI@?$AAc?$AA?3?$AA?2?$AAp?$AAr?$AAo?$AAg?$AAr?$AAa?$AAm?$AA?5?$AAf?$AAi?$AAl?$AAe?$AAs?$AA?5?$AA?$CI?$AAx?$AA8?$AA6?$AA?$CJ?$AA?2?$AAm?$AAi?$AAc?$AAr?$AAo?$AAs?$AAo?$AAf?$AAt@
	push	2
	call	DWORD PTR __imp___CrtDbgReportW
	add	esp, 24					; 00000018H
	cmp	esi, esp
	call	__RTC_CheckEsp
	cmp	eax, 1
	jne	SHORT $LN5@Compat
	int	3
$LN5@Compat:
	mov	esi, esp
	push	0
	push	257					; 00000101H
	push	OFFSET ??_C@_1IO@EADHKMNI@?$AAc?$AA?3?$AA?2?$AAp?$AAr?$AAo?$AAg?$AAr?$AAa?$AAm?$AA?5?$AAf?$AAi?$AAl?$AAe?$AAs?$AA?5?$AA?$CI?$AAx?$AA8?$AA6?$AA?$CJ?$AA?2?$AAm?$AAi?$AAc?$AAr?$AAo?$AAs?$AAo?$AAf?$AAt@
	push	OFFSET ??_C@_1MA@BDELDFHB@?$AAs?$AAt?$AAd?$AA?3?$AA?3?$AA_?$AAS?$AAt?$AAr?$AAi?$AAn?$AAg?$AA_?$AAc?$AAo?$AAn?$AAs?$AAt?$AA_?$AAi?$AAt?$AAe?$AAr?$AAa?$AAt?$AAo?$AAr?$AA?$DM?$AAc?$AAl?$AAa?$AAs@
	push	OFFSET ??_C@_1CG@JNLFBNGN@?$AA?$CC?$AAi?$AAn?$AAv?$AAa?$AAl?$AAi?$AAd?$AA?5?$AAa?$AAr?$AAg?$AAu?$AAm?$AAe?$AAn?$AAt?$AA?$CC?$AA?$AA@
	call	DWORD PTR __imp___invalid_parameter
	add	esp, 20					; 00000014H
	cmp	esi, esp
	call	__RTC_CheckEsp
$LN1@Compat:

; 258  : 			}
; 259  : 		}

	pop	edi
	pop	esi
	pop	ebx
	add	esp, 204				; 000000ccH
	cmp	ebp, esp
	call	__RTC_CheckEsp
	mov	esp, ebp
	pop	ebp
	ret	4
?_Compat@?$_String_const_iterator@V?$_String_val@U?$_Simple_types@D@std@@@std@@@std@@QBEXABV12@@Z ENDP ; std::_String_const_iterator<std::_String_val<std::_Simple_types<char> > >::_Compat
_TEXT	ENDS
; Function compile flags: /Odtp /RTCsu /ZI
; File c:\program files (x86)\microsoft visual studio 14.0\vc\include\xstring
;	COMDAT ??8?$_String_const_iterator@V?$_String_val@U?$_Simple_types@D@std@@@std@@@std@@QBE_NABV01@@Z
_TEXT	SEGMENT
tv69 = -208						; size = 4
_this$ = -8						; size = 4
__Right$ = 8						; size = 4
??8?$_String_const_iterator@V?$_String_val@U?$_Simple_types@D@std@@@std@@@std@@QBE_NABV01@@Z PROC ; std::_String_const_iterator<std::_String_val<std::_Simple_types<char> > >::operator==, COMDAT
; _this$ = ecx

; 220  : 		{	// test for iterator equality

	push	ebp
	mov	ebp, esp
	sub	esp, 208				; 000000d0H
	push	ebx
	push	esi
	push	edi
	push	ecx
	lea	edi, DWORD PTR [ebp-208]
	mov	ecx, 52					; 00000034H
	mov	eax, -858993460				; ccccccccH
	rep stosd
	pop	ecx
	mov	DWORD PTR _this$[ebp], ecx

; 221  : 		_Compat(_Right);

	mov	eax, DWORD PTR __Right$[ebp]
	push	eax
	mov	ecx, DWORD PTR _this$[ebp]
	call	?_Compat@?$_String_const_iterator@V?$_String_val@U?$_Simple_types@D@std@@@std@@@std@@QBEXABV12@@Z ; std::_String_const_iterator<std::_String_val<std::_Simple_types<char> > >::_Compat

; 222  : 		return (_Ptr == _Right._Ptr);

	mov	eax, DWORD PTR _this$[ebp]
	mov	ecx, DWORD PTR __Right$[ebp]
	mov	edx, DWORD PTR [eax+8]
	cmp	edx, DWORD PTR [ecx+8]
	jne	SHORT $LN3@operator
	mov	DWORD PTR tv69[ebp], 1
	jmp	SHORT $LN4@operator
$LN3@operator:
	mov	DWORD PTR tv69[ebp], 0
$LN4@operator:
	mov	al, BYTE PTR tv69[ebp]

; 223  : 		}

	pop	edi
	pop	esi
	pop	ebx
	add	esp, 208				; 000000d0H
	cmp	ebp, esp
	call	__RTC_CheckEsp
	mov	esp, ebp
	pop	ebp
	ret	4
??8?$_String_const_iterator@V?$_String_val@U?$_Simple_types@D@std@@@std@@@std@@QBE_NABV01@@Z ENDP ; std::_String_const_iterator<std::_String_val<std::_Simple_types<char> > >::operator==
_TEXT	ENDS
; Function compile flags: /Odtp /RTCsu /ZI
; File c:\program files (x86)\microsoft visual studio 14.0\vc\include\xstring
;	COMDAT ??G?$_String_const_iterator@V?$_String_val@U?$_Simple_types@D@std@@@std@@@std@@QBEHABV01@@Z
_TEXT	SEGMENT
_this$ = -8						; size = 4
__Right$ = 8						; size = 4
??G?$_String_const_iterator@V?$_String_val@U?$_Simple_types@D@std@@@std@@@std@@QBEHABV01@@Z PROC ; std::_String_const_iterator<std::_String_val<std::_Simple_types<char> > >::operator-, COMDAT
; _this$ = ecx

; 209  : 		{	// return difference of iterators

	push	ebp
	mov	ebp, esp
	sub	esp, 204				; 000000ccH
	push	ebx
	push	esi
	push	edi
	push	ecx
	lea	edi, DWORD PTR [ebp-204]
	mov	ecx, 51					; 00000033H
	mov	eax, -858993460				; ccccccccH
	rep stosd
	pop	ecx
	mov	DWORD PTR _this$[ebp], ecx

; 210  : 		_Compat(_Right);

	mov	eax, DWORD PTR __Right$[ebp]
	push	eax
	mov	ecx, DWORD PTR _this$[ebp]
	call	?_Compat@?$_String_const_iterator@V?$_String_val@U?$_Simple_types@D@std@@@std@@@std@@QBEXABV12@@Z ; std::_String_const_iterator<std::_String_val<std::_Simple_types<char> > >::_Compat

; 211  : 		return (_Ptr - _Right._Ptr);

	mov	eax, DWORD PTR _this$[ebp]
	mov	ecx, DWORD PTR __Right$[ebp]
	mov	eax, DWORD PTR [eax+8]
	sub	eax, DWORD PTR [ecx+8]

; 212  : 		}

	pop	edi
	pop	esi
	pop	ebx
	add	esp, 204				; 000000ccH
	cmp	ebp, esp
	call	__RTC_CheckEsp
	mov	esp, ebp
	pop	ebp
	ret	4
??G?$_String_const_iterator@V?$_String_val@U?$_Simple_types@D@std@@@std@@@std@@QBEHABV01@@Z ENDP ; std::_String_const_iterator<std::_String_val<std::_Simple_types<char> > >::operator-
_TEXT	ENDS
; Function compile flags: /Odtp /RTCsu /ZI
; File c:\program files (x86)\microsoft visual studio 14.0\vc\include\xstring
;	COMDAT ??D?$_String_const_iterator@V?$_String_val@U?$_Simple_types@D@std@@@std@@@std@@QBEABDXZ
_TEXT	SEGMENT
tv77 = -232						; size = 4
__Contptr$ = -32					; size = 4
__Mycont$ = -20						; size = 4
_this$ = -8						; size = 4
??D?$_String_const_iterator@V?$_String_val@U?$_Simple_types@D@std@@@std@@@std@@QBEABDXZ PROC ; std::_String_const_iterator<std::_String_val<std::_Simple_types<char> > >::operator*, COMDAT
; _this$ = ecx

; 67   : 		{	// return designated object

	push	ebp
	mov	ebp, esp
	sub	esp, 232				; 000000e8H
	push	ebx
	push	esi
	push	edi
	push	ecx
	lea	edi, DWORD PTR [ebp-232]
	mov	ecx, 58					; 0000003aH
	mov	eax, -858993460				; ccccccccH
	rep stosd
	pop	ecx
	mov	DWORD PTR _this$[ebp], ecx

; 68   :  #if _ITERATOR_DEBUG_LEVEL == 2
; 69   : 		const auto _Mycont = static_cast<const _Mystr *>(this->_Getcont());

	mov	ecx, DWORD PTR _this$[ebp]
	call	?_Getcont@_Iterator_base12@std@@QBEPBU_Container_base12@2@XZ ; std::_Iterator_base12::_Getcont
	mov	DWORD PTR __Mycont$[ebp], eax

; 70   : 		const auto _Contptr = _Mycont ? _Mycont->_Myptr() : 0;

	cmp	DWORD PTR __Mycont$[ebp], 0
	je	SHORT $LN5@operator
	mov	ecx, DWORD PTR __Mycont$[ebp]
	call	?_Myptr@?$_String_val@U?$_Simple_types@D@std@@@std@@QBEPBDXZ ; std::_String_val<std::_Simple_types<char> >::_Myptr
	mov	DWORD PTR tv77[ebp], eax
	jmp	SHORT $LN6@operator
$LN5@operator:
	mov	DWORD PTR tv77[ebp], 0
$LN6@operator:
	mov	eax, DWORD PTR tv77[ebp]
	mov	DWORD PTR __Contptr$[ebp], eax

; 71   : 		if (_Mycont == 0
; 72   : 			|| _Ptr == nullptr_t{}
; 73   : 			|| _Unfancy(_Ptr) < _Contptr
; 74   : 			|| _Contptr + _Mycont->_Mysize <= _Unfancy(_Ptr))

	cmp	DWORD PTR __Mycont$[ebp], 0
	je	SHORT $LN3@operator
	mov	eax, DWORD PTR _this$[ebp]
	cmp	DWORD PTR [eax+8], 0
	je	SHORT $LN3@operator
	mov	eax, DWORD PTR _this$[ebp]
	mov	ecx, DWORD PTR [eax+8]
	push	ecx
	call	??$_Unfancy@$$CBD@std@@YAPBDPBD@Z	; std::_Unfancy<char const >
	add	esp, 4
	cmp	eax, DWORD PTR __Contptr$[ebp]
	jb	SHORT $LN3@operator
	mov	eax, DWORD PTR __Mycont$[ebp]
	mov	esi, DWORD PTR __Contptr$[ebp]
	add	esi, DWORD PTR [eax+20]
	mov	ecx, DWORD PTR _this$[ebp]
	mov	edx, DWORD PTR [ecx+8]
	push	edx
	call	??$_Unfancy@$$CBD@std@@YAPBDPBD@Z	; std::_Unfancy<char const >
	add	esp, 4
	cmp	esi, eax
	ja	SHORT $LN2@operator
$LN3@operator:

; 75   : 			{	// report error
; 76   : 			_DEBUG_ERROR("string iterator not dereferencable");

	mov	esi, esp
	push	76					; 0000004cH
	push	OFFSET ??_C@_1IO@EADHKMNI@?$AAc?$AA?3?$AA?2?$AAp?$AAr?$AAo?$AAg?$AAr?$AAa?$AAm?$AA?5?$AAf?$AAi?$AAl?$AAe?$AAs?$AA?5?$AA?$CI?$AAx?$AA8?$AA6?$AA?$CJ?$AA?2?$AAm?$AAi?$AAc?$AAr?$AAo?$AAs?$AAo?$AAf?$AAt@
	push	OFFSET ??_C@_1EG@CNCHLAOB@?$AAs?$AAt?$AAr?$AAi?$AAn?$AAg?$AA?5?$AAi?$AAt?$AAe?$AAr?$AAa?$AAt?$AAo?$AAr?$AA?5?$AAn?$AAo?$AAt?$AA?5?$AAd?$AAe?$AAr?$AAe?$AAf?$AAe?$AAr?$AAe?$AAn?$AAc?$AAa?$AAb@
	call	DWORD PTR __imp_?_Debug_message@std@@YAXPB_W0I@Z
	add	esp, 12					; 0000000cH
	cmp	esi, esp
	call	__RTC_CheckEsp

; 77   : 			_SCL_SECURE_OUT_OF_RANGE;

	mov	eax, OFFSET ??_C@_0CE@OFMIGAMM@Standard?5C?$CL?$CL?5Libraries?5Out?5of?5Ra@
	test	eax, eax
	je	SHORT $LN7@operator
	xor	ecx, ecx
	jne	SHORT $LN8@operator
$LN7@operator:
	mov	esi, esp
	push	OFFSET ??_C@_1FG@IBPIFFN@?$AA?$CC?$AAS?$AAt?$AAa?$AAn?$AAd?$AAa?$AAr?$AAd?$AA?5?$AAC?$AA?$CL?$AA?$CL?$AA?5?$AAL?$AAi?$AAb?$AAr?$AAa?$AAr?$AAi?$AAe?$AAs?$AA?5?$AAO?$AAu?$AAt?$AA?5?$AAo?$AAf?$AA?5?$AAR@
	push	OFFSET ??_C@_17CNPHIMPH@?$AA?$CF?$AAl?$AAs?$AA?$AA@
	push	0
	push	77					; 0000004dH
	push	OFFSET ??_C@_1IO@EADHKMNI@?$AAc?$AA?3?$AA?2?$AAp?$AAr?$AAo?$AAg?$AAr?$AAa?$AAm?$AA?5?$AAf?$AAi?$AAl?$AAe?$AAs?$AA?5?$AA?$CI?$AAx?$AA8?$AA6?$AA?$CJ?$AA?2?$AAm?$AAi?$AAc?$AAr?$AAo?$AAs?$AAo?$AAf?$AAt@
	push	2
	call	DWORD PTR __imp___CrtDbgReportW
	add	esp, 24					; 00000018H
	cmp	esi, esp
	call	__RTC_CheckEsp
	cmp	eax, 1
	jne	SHORT $LN8@operator
	int	3
$LN8@operator:
	mov	esi, esp
	push	0
	push	77					; 0000004dH
	push	OFFSET ??_C@_1IO@EADHKMNI@?$AAc?$AA?3?$AA?2?$AAp?$AAr?$AAo?$AAg?$AAr?$AAa?$AAm?$AA?5?$AAf?$AAi?$AAl?$AAe?$AAs?$AA?5?$AA?$CI?$AAx?$AA8?$AA6?$AA?$CJ?$AA?2?$AAm?$AAi?$AAc?$AAr?$AAo?$AAs?$AAo?$AAf?$AAt@
	push	OFFSET ??_C@_1MG@GDGHDIKC@?$AAs?$AAt?$AAd?$AA?3?$AA?3?$AA_?$AAS?$AAt?$AAr?$AAi?$AAn?$AAg?$AA_?$AAc?$AAo?$AAn?$AAs?$AAt?$AA_?$AAi?$AAt?$AAe?$AAr?$AAa?$AAt?$AAo?$AAr?$AA?$DM?$AAc?$AAl?$AAa?$AAs@
	push	OFFSET ??_C@_1BO@MEPPHOO@?$AA?$CC?$AAo?$AAu?$AAt?$AA?5?$AAo?$AAf?$AA?5?$AAr?$AAa?$AAn?$AAg?$AAe?$AA?$CC?$AA?$AA@
	call	DWORD PTR __imp___invalid_parameter
	add	esp, 20					; 00000014H
	cmp	esi, esp
	call	__RTC_CheckEsp
$LN2@operator:

; 78   : 			}
; 79   : 
; 80   :  #elif _ITERATOR_DEBUG_LEVEL == 1
; 81   : 		_SCL_SECURE_VALIDATE(_Ptr != nullptr_t{});
; 82   : 		const auto _Mycont = static_cast<const _Mystr *>(this->_Getcont());
; 83   : 		_SCL_SECURE_VALIDATE(_Mycont != 0);
; 84   : 		const auto _Contptr = _Mycont->_Myptr();
; 85   : 		_SCL_SECURE_VALIDATE_RANGE(_Contptr <= _Unfancy(_Ptr) && _Unfancy(_Ptr) < _Contptr + _Mycont->_Mysize);
; 86   :  #endif /* _ITERATOR_DEBUG_LEVEL */
; 87   : 
; 88   : 		_Analysis_assume_(_Ptr != nullptr_t{});
; 89   : 
; 90   : 		return (*_Ptr);

	mov	eax, DWORD PTR _this$[ebp]
	mov	eax, DWORD PTR [eax+8]

; 91   : 		}

	pop	edi
	pop	esi
	pop	ebx
	add	esp, 232				; 000000e8H
	cmp	ebp, esp
	call	__RTC_CheckEsp
	mov	esp, ebp
	pop	ebp
	ret	0
??D?$_String_const_iterator@V?$_String_val@U?$_Simple_types@D@std@@@std@@@std@@QBEABDXZ ENDP ; std::_String_const_iterator<std::_String_val<std::_Simple_types<char> > >::operator*
_TEXT	ENDS
; Function compile flags: /Odtp /RTCsu /ZI
; File c:\program files (x86)\microsoft visual studio 14.0\vc\include\xstring
;	COMDAT ??0?$_String_const_iterator@V?$_String_val@U?$_Simple_types@D@std@@@std@@@std@@QAE@PBDPBU_Container_base12@1@@Z
_TEXT	SEGMENT
_this$ = -20						; size = 4
__$EHRec$ = -12						; size = 12
__Parg$ = 8						; size = 4
__Pstring$ = 12						; size = 4
??0?$_String_const_iterator@V?$_String_val@U?$_Simple_types@D@std@@@std@@@std@@QAE@PBDPBU_Container_base12@1@@Z PROC ; std::_String_const_iterator<std::_String_val<std::_Simple_types<char> > >::_String_const_iterator<std::_String_val<std::_Simple_types<char> > >, COMDAT
; _this$ = ecx

; 49   : 		{	// construct with pointer _Parg

	push	ebp
	mov	ebp, esp
	push	-1
	push	__ehhandler$??0?$_String_const_iterator@V?$_String_val@U?$_Simple_types@D@std@@@std@@@std@@QAE@PBDPBU_Container_base12@1@@Z
	mov	eax, DWORD PTR fs:0
	push	eax
	sub	esp, 204				; 000000ccH
	push	ebx
	push	esi
	push	edi
	push	ecx
	lea	edi, DWORD PTR [ebp-216]
	mov	ecx, 51					; 00000033H
	mov	eax, -858993460				; ccccccccH
	rep stosd
	pop	ecx
	mov	eax, DWORD PTR ___security_cookie
	xor	eax, ebp
	push	eax
	lea	eax, DWORD PTR __$EHRec$[ebp]
	mov	DWORD PTR fs:0, eax
	mov	DWORD PTR _this$[ebp], ecx
	mov	ecx, DWORD PTR _this$[ebp]
	call	??0?$_Iterator012@Urandom_access_iterator_tag@std@@DHPBDABDU_Iterator_base12@2@@std@@QAE@XZ
	mov	DWORD PTR __$EHRec$[ebp+8], 0

; 48   : 		: _Ptr(_Parg)

	mov	eax, DWORD PTR _this$[ebp]
	mov	ecx, DWORD PTR __Parg$[ebp]
	mov	DWORD PTR [eax+8], ecx

; 50   : 		this->_Adopt(_Pstring);

	mov	eax, DWORD PTR __Pstring$[ebp]
	push	eax
	mov	ecx, DWORD PTR _this$[ebp]
	call	?_Adopt@_Iterator_base12@std@@QAEXPBU_Container_base12@2@@Z ; std::_Iterator_base12::_Adopt

; 51   : 		}

	mov	DWORD PTR __$EHRec$[ebp+8], -1
	mov	eax, DWORD PTR _this$[ebp]
	mov	ecx, DWORD PTR __$EHRec$[ebp]
	mov	DWORD PTR fs:0, ecx
	pop	ecx
	pop	edi
	pop	esi
	pop	ebx
	add	esp, 216				; 000000d8H
	cmp	ebp, esp
	call	__RTC_CheckEsp
	mov	esp, ebp
	pop	ebp
	ret	8
_TEXT	ENDS
;	COMDAT text$x
text$x	SEGMENT
__unwindfunclet$??0?$_String_const_iterator@V?$_String_val@U?$_Simple_types@D@std@@@std@@@std@@QAE@PBDPBU_Container_base12@1@@Z$0:
	mov	ecx, DWORD PTR _this$[ebp]
	jmp	??1?$_Iterator012@Urandom_access_iterator_tag@std@@DHPBDABDU_Iterator_base12@2@@std@@QAE@XZ
__ehhandler$??0?$_String_const_iterator@V?$_String_val@U?$_Simple_types@D@std@@@std@@@std@@QAE@PBDPBU_Container_base12@1@@Z:
	mov	edx, DWORD PTR [esp+8]
	lea	eax, DWORD PTR [edx+12]
	mov	ecx, DWORD PTR [edx-220]
	xor	ecx, eax
	call	@__security_check_cookie@4
	mov	eax, OFFSET __ehfuncinfo$??0?$_String_const_iterator@V?$_String_val@U?$_Simple_types@D@std@@@std@@@std@@QAE@PBDPBU_Container_base12@1@@Z
	jmp	___CxxFrameHandler3
text$x	ENDS
??0?$_String_const_iterator@V?$_String_val@U?$_Simple_types@D@std@@@std@@@std@@QAE@PBDPBU_Container_base12@1@@Z ENDP ; std::_String_const_iterator<std::_String_val<std::_Simple_types<char> > >::_String_const_iterator<std::_String_val<std::_Simple_types<char> > >
; Function compile flags: /Odtp /RTCsu /ZI
;	COMDAT ??0?$_Iterator012@Urandom_access_iterator_tag@std@@DHPBDABDU_Iterator_base12@2@@std@@QAE@$$QAU01@@Z
_TEXT	SEGMENT
_this$ = -8						; size = 4
___that$ = 8						; size = 4
??0?$_Iterator012@Urandom_access_iterator_tag@std@@DHPBDABDU_Iterator_base12@2@@std@@QAE@$$QAU01@@Z PROC ; std::_Iterator012<std::random_access_iterator_tag,char,int,char const *,char const &,std::_Iterator_base12>::_Iterator012<std::random_access_iterator_tag,char,int,char const *,char const &,std::_Iterator_base12>, COMDAT
; _this$ = ecx
	push	ebp
	mov	ebp, esp
	sub	esp, 204				; 000000ccH
	push	ebx
	push	esi
	push	edi
	push	ecx
	lea	edi, DWORD PTR [ebp-204]
	mov	ecx, 51					; 00000033H
	mov	eax, -858993460				; ccccccccH
	rep stosd
	pop	ecx
	mov	DWORD PTR _this$[ebp], ecx
	mov	eax, DWORD PTR ___that$[ebp]
	push	eax
	mov	ecx, DWORD PTR _this$[ebp]
	call	??0_Iterator_base12@std@@QAE@ABU01@@Z	; std::_Iterator_base12::_Iterator_base12
	mov	eax, DWORD PTR _this$[ebp]
	pop	edi
	pop	esi
	pop	ebx
	add	esp, 204				; 000000ccH
	cmp	ebp, esp
	call	__RTC_CheckEsp
	mov	esp, ebp
	pop	ebp
	ret	4
??0?$_Iterator012@Urandom_access_iterator_tag@std@@DHPBDABDU_Iterator_base12@2@@std@@QAE@$$QAU01@@Z ENDP ; std::_Iterator012<std::random_access_iterator_tag,char,int,char const *,char const &,std::_Iterator_base12>::_Iterator012<std::random_access_iterator_tag,char,int,char const *,char const &,std::_Iterator_base12>
_TEXT	ENDS
; Function compile flags: /Odtp /RTCsu /ZI
;	COMDAT ??0?$_Iterator012@Urandom_access_iterator_tag@std@@DHPBDABDU_Iterator_base12@2@@std@@QAE@ABU01@@Z
_TEXT	SEGMENT
_this$ = -8						; size = 4
___that$ = 8						; size = 4
??0?$_Iterator012@Urandom_access_iterator_tag@std@@DHPBDABDU_Iterator_base12@2@@std@@QAE@ABU01@@Z PROC ; std::_Iterator012<std::random_access_iterator_tag,char,int,char const *,char const &,std::_Iterator_base12>::_Iterator012<std::random_access_iterator_tag,char,int,char const *,char const &,std::_Iterator_base12>, COMDAT
; _this$ = ecx
	push	ebp
	mov	ebp, esp
	sub	esp, 204				; 000000ccH
	push	ebx
	push	esi
	push	edi
	push	ecx
	lea	edi, DWORD PTR [ebp-204]
	mov	ecx, 51					; 00000033H
	mov	eax, -858993460				; ccccccccH
	rep stosd
	pop	ecx
	mov	DWORD PTR _this$[ebp], ecx
	mov	eax, DWORD PTR ___that$[ebp]
	push	eax
	mov	ecx, DWORD PTR _this$[ebp]
	call	??0_Iterator_base12@std@@QAE@ABU01@@Z	; std::_Iterator_base12::_Iterator_base12
	mov	eax, DWORD PTR _this$[ebp]
	pop	edi
	pop	esi
	pop	ebx
	add	esp, 204				; 000000ccH
	cmp	ebp, esp
	call	__RTC_CheckEsp
	mov	esp, ebp
	pop	ebp
	ret	4
??0?$_Iterator012@Urandom_access_iterator_tag@std@@DHPBDABDU_Iterator_base12@2@@std@@QAE@ABU01@@Z ENDP ; std::_Iterator012<std::random_access_iterator_tag,char,int,char const *,char const &,std::_Iterator_base12>::_Iterator012<std::random_access_iterator_tag,char,int,char const *,char const &,std::_Iterator_base12>
_TEXT	ENDS
; Function compile flags: /Odtp /RTCsu /ZI
;	COMDAT ??1?$_Iterator012@Urandom_access_iterator_tag@std@@DHPBDABDU_Iterator_base12@2@@std@@QAE@XZ
_TEXT	SEGMENT
_this$ = -8						; size = 4
??1?$_Iterator012@Urandom_access_iterator_tag@std@@DHPBDABDU_Iterator_base12@2@@std@@QAE@XZ PROC ; std::_Iterator012<std::random_access_iterator_tag,char,int,char const *,char const &,std::_Iterator_base12>::~_Iterator012<std::random_access_iterator_tag,char,int,char const *,char const &,std::_Iterator_base12>, COMDAT
; _this$ = ecx
	push	ebp
	mov	ebp, esp
	sub	esp, 204				; 000000ccH
	push	ebx
	push	esi
	push	edi
	push	ecx
	lea	edi, DWORD PTR [ebp-204]
	mov	ecx, 51					; 00000033H
	mov	eax, -858993460				; ccccccccH
	rep stosd
	pop	ecx
	mov	DWORD PTR _this$[ebp], ecx
	mov	ecx, DWORD PTR _this$[ebp]
	call	??1_Iterator_base12@std@@QAE@XZ		; std::_Iterator_base12::~_Iterator_base12
	pop	edi
	pop	esi
	pop	ebx
	add	esp, 204				; 000000ccH
	cmp	ebp, esp
	call	__RTC_CheckEsp
	mov	esp, ebp
	pop	ebp
	ret	0
??1?$_Iterator012@Urandom_access_iterator_tag@std@@DHPBDABDU_Iterator_base12@2@@std@@QAE@XZ ENDP ; std::_Iterator012<std::random_access_iterator_tag,char,int,char const *,char const &,std::_Iterator_base12>::~_Iterator012<std::random_access_iterator_tag,char,int,char const *,char const &,std::_Iterator_base12>
_TEXT	ENDS
; Function compile flags: /Odtp /RTCsu /ZI
;	COMDAT ??0?$_Iterator012@Urandom_access_iterator_tag@std@@DHPBDABDU_Iterator_base12@2@@std@@QAE@XZ
_TEXT	SEGMENT
_this$ = -8						; size = 4
??0?$_Iterator012@Urandom_access_iterator_tag@std@@DHPBDABDU_Iterator_base12@2@@std@@QAE@XZ PROC ; std::_Iterator012<std::random_access_iterator_tag,char,int,char const *,char const &,std::_Iterator_base12>::_Iterator012<std::random_access_iterator_tag,char,int,char const *,char const &,std::_Iterator_base12>, COMDAT
; _this$ = ecx
	push	ebp
	mov	ebp, esp
	sub	esp, 204				; 000000ccH
	push	ebx
	push	esi
	push	edi
	push	ecx
	lea	edi, DWORD PTR [ebp-204]
	mov	ecx, 51					; 00000033H
	mov	eax, -858993460				; ccccccccH
	rep stosd
	pop	ecx
	mov	DWORD PTR _this$[ebp], ecx
	mov	ecx, DWORD PTR _this$[ebp]
	call	??0_Iterator_base12@std@@QAE@XZ		; std::_Iterator_base12::_Iterator_base12
	mov	eax, DWORD PTR _this$[ebp]
	pop	edi
	pop	esi
	pop	ebx
	add	esp, 204				; 000000ccH
	cmp	ebp, esp
	call	__RTC_CheckEsp
	mov	esp, ebp
	pop	ebp
	ret	0
??0?$_Iterator012@Urandom_access_iterator_tag@std@@DHPBDABDU_Iterator_base12@2@@std@@QAE@XZ ENDP ; std::_Iterator012<std::random_access_iterator_tag,char,int,char const *,char const &,std::_Iterator_base12>::_Iterator012<std::random_access_iterator_tag,char,int,char const *,char const &,std::_Iterator_base12>
_TEXT	ENDS
; Function compile flags: /Odtp /RTCsu /ZI
; File c:\program files (x86)\microsoft visual studio 14.0\vc\include\xmemory0
;	COMDAT ??$construct@UOption@CCustomMenu@@ABU12@@?$_Wrap_alloc@V?$allocator@UOption@CCustomMenu@@@std@@@std@@QAEXPAUOption@CCustomMenu@@ABU23@@Z
_TEXT	SEGMENT
_this$ = -8						; size = 4
__Ptr$ = 8						; size = 4
_<_Args_0>$ = 12					; size = 4
??$construct@UOption@CCustomMenu@@ABU12@@?$_Wrap_alloc@V?$allocator@UOption@CCustomMenu@@@std@@@std@@QAEXPAUOption@CCustomMenu@@ABU23@@Z PROC ; std::_Wrap_alloc<std::allocator<CCustomMenu::Option> >::construct<CCustomMenu::Option,CCustomMenu::Option const &>, COMDAT
; _this$ = ecx

; 994  : 		{	// construct _Ty(_Types...) at _Ptr

	push	ebp
	mov	ebp, esp
	sub	esp, 204				; 000000ccH
	push	ebx
	push	esi
	push	edi
	push	ecx
	lea	edi, DWORD PTR [ebp-204]
	mov	ecx, 51					; 00000033H
	mov	eax, -858993460				; ccccccccH
	rep stosd
	pop	ecx
	mov	DWORD PTR _this$[ebp], ecx

; 995  : 		_Mytraits::construct(*this, _Ptr,

	mov	eax, DWORD PTR _<_Args_0>$[ebp]
	push	eax
	call	??$forward@ABUOption@CCustomMenu@@@std@@YAABUOption@CCustomMenu@@ABU12@@Z ; std::forward<CCustomMenu::Option const &>
	add	esp, 4
	push	eax
	mov	ecx, DWORD PTR __Ptr$[ebp]
	push	ecx
	mov	edx, DWORD PTR _this$[ebp]
	push	edx
	call	??$construct@UOption@CCustomMenu@@ABU12@@?$allocator_traits@V?$allocator@UOption@CCustomMenu@@@std@@@std@@SAXAAV?$allocator@UOption@CCustomMenu@@@1@PAUOption@CCustomMenu@@ABU34@@Z ; std::allocator_traits<std::allocator<CCustomMenu::Option> >::construct<CCustomMenu::Option,CCustomMenu::Option const &>
	add	esp, 12					; 0000000cH

; 996  : 			_STD forward<_Types>(_Args)...);
; 997  : 		}

	pop	edi
	pop	esi
	pop	ebx
	add	esp, 204				; 000000ccH
	cmp	ebp, esp
	call	__RTC_CheckEsp
	mov	esp, ebp
	pop	ebp
	ret	8
??$construct@UOption@CCustomMenu@@ABU12@@?$_Wrap_alloc@V?$allocator@UOption@CCustomMenu@@@std@@@std@@QAEXPAUOption@CCustomMenu@@ABU23@@Z ENDP ; std::_Wrap_alloc<std::allocator<CCustomMenu::Option> >::construct<CCustomMenu::Option,CCustomMenu::Option const &>
_TEXT	ENDS
; Function compile flags: /Odtp /RTCsu /ZI
; File c:\program files (x86)\microsoft visual studio 14.0\vc\include\xmemory0
;	COMDAT ??$construct@UOption@CCustomMenu@@AAU12@@?$_Wrap_alloc@V?$allocator@UOption@CCustomMenu@@@std@@@std@@QAEXPAUOption@CCustomMenu@@AAU23@@Z
_TEXT	SEGMENT
_this$ = -8						; size = 4
__Ptr$ = 8						; size = 4
_<_Args_0>$ = 12					; size = 4
??$construct@UOption@CCustomMenu@@AAU12@@?$_Wrap_alloc@V?$allocator@UOption@CCustomMenu@@@std@@@std@@QAEXPAUOption@CCustomMenu@@AAU23@@Z PROC ; std::_Wrap_alloc<std::allocator<CCustomMenu::Option> >::construct<CCustomMenu::Option,CCustomMenu::Option &>, COMDAT
; _this$ = ecx

; 994  : 		{	// construct _Ty(_Types...) at _Ptr

	push	ebp
	mov	ebp, esp
	sub	esp, 204				; 000000ccH
	push	ebx
	push	esi
	push	edi
	push	ecx
	lea	edi, DWORD PTR [ebp-204]
	mov	ecx, 51					; 00000033H
	mov	eax, -858993460				; ccccccccH
	rep stosd
	pop	ecx
	mov	DWORD PTR _this$[ebp], ecx

; 995  : 		_Mytraits::construct(*this, _Ptr,

	mov	eax, DWORD PTR _<_Args_0>$[ebp]
	push	eax
	call	??$forward@AAUOption@CCustomMenu@@@std@@YAAAUOption@CCustomMenu@@AAU12@@Z ; std::forward<CCustomMenu::Option &>
	add	esp, 4
	push	eax
	mov	ecx, DWORD PTR __Ptr$[ebp]
	push	ecx
	mov	edx, DWORD PTR _this$[ebp]
	push	edx
	call	??$construct@UOption@CCustomMenu@@AAU12@@?$allocator_traits@V?$allocator@UOption@CCustomMenu@@@std@@@std@@SAXAAV?$allocator@UOption@CCustomMenu@@@1@PAUOption@CCustomMenu@@AAU34@@Z ; std::allocator_traits<std::allocator<CCustomMenu::Option> >::construct<CCustomMenu::Option,CCustomMenu::Option &>
	add	esp, 12					; 0000000cH

; 996  : 			_STD forward<_Types>(_Args)...);
; 997  : 		}

	pop	edi
	pop	esi
	pop	ebx
	add	esp, 204				; 000000ccH
	cmp	ebp, esp
	call	__RTC_CheckEsp
	mov	esp, ebp
	pop	ebp
	ret	8
??$construct@UOption@CCustomMenu@@AAU12@@?$_Wrap_alloc@V?$allocator@UOption@CCustomMenu@@@std@@@std@@QAEXPAUOption@CCustomMenu@@AAU23@@Z ENDP ; std::_Wrap_alloc<std::allocator<CCustomMenu::Option> >::construct<CCustomMenu::Option,CCustomMenu::Option &>
_TEXT	ENDS
; Function compile flags: /Odtp /RTCsu /ZI
; File c:\program files (x86)\microsoft visual studio 14.0\vc\include\xstddef
;	COMDAT ??$_Unfancy@UOption@CCustomMenu@@@std@@YAPAUOption@CCustomMenu@@PAU12@@Z
_TEXT	SEGMENT
__Ptr$ = 8						; size = 4
??$_Unfancy@UOption@CCustomMenu@@@std@@YAPAUOption@CCustomMenu@@PAU12@@Z PROC ; std::_Unfancy<CCustomMenu::Option>, COMDAT

; 739  : 	{	// do nothing for plain pointers

	push	ebp
	mov	ebp, esp
	sub	esp, 192				; 000000c0H
	push	ebx
	push	esi
	push	edi
	lea	edi, DWORD PTR [ebp-192]
	mov	ecx, 48					; 00000030H
	mov	eax, -858993460				; ccccccccH
	rep stosd

; 740  : 	return (_Ptr);

	mov	eax, DWORD PTR __Ptr$[ebp]

; 741  : 	}

	pop	edi
	pop	esi
	pop	ebx
	mov	esp, ebp
	pop	ebp
	ret	0
??$_Unfancy@UOption@CCustomMenu@@@std@@YAPAUOption@CCustomMenu@@PAU12@@Z ENDP ; std::_Unfancy<CCustomMenu::Option>
_TEXT	ENDS
; Function compile flags: /Odtp /RTCsu /ZI
; File c:\program files (x86)\microsoft visual studio 14.0\vc\include\xstddef
;	COMDAT ??$addressof@$$CBUOption@CCustomMenu@@@std@@YAPBUOption@CCustomMenu@@ABU12@@Z
_TEXT	SEGMENT
__Val$ = 8						; size = 4
??$addressof@$$CBUOption@CCustomMenu@@@std@@YAPBUOption@CCustomMenu@@ABU12@@Z PROC ; std::addressof<CCustomMenu::Option const >, COMDAT

; 724  : 	{	// return address of _Val

	push	ebp
	mov	ebp, esp
	sub	esp, 192				; 000000c0H
	push	ebx
	push	esi
	push	edi
	lea	edi, DWORD PTR [ebp-192]
	mov	ecx, 48					; 00000030H
	mov	eax, -858993460				; ccccccccH
	rep stosd

; 725  : 	return (__builtin_addressof(_Val));

	mov	eax, DWORD PTR __Val$[ebp]

; 726  : 	}

	pop	edi
	pop	esi
	pop	ebx
	mov	esp, ebp
	pop	ebp
	ret	0
??$addressof@$$CBUOption@CCustomMenu@@@std@@YAPBUOption@CCustomMenu@@ABU12@@Z ENDP ; std::addressof<CCustomMenu::Option const >
_TEXT	ENDS
; Function compile flags: /Odtp /RTCsu /ZI
; File c:\program files (x86)\microsoft visual studio 14.0\vc\include\xmemory0
;	COMDAT ?pointer_to@?$pointer_traits@PBUOption@CCustomMenu@@@std@@SAPBUOption@CCustomMenu@@ABU34@@Z
_TEXT	SEGMENT
__Val$ = 8						; size = 4
?pointer_to@?$pointer_traits@PBUOption@CCustomMenu@@@std@@SAPBUOption@CCustomMenu@@ABU34@@Z PROC ; std::pointer_traits<CCustomMenu::Option const *>::pointer_to, COMDAT

; 279  : 		{	// convert raw reference to pointer

	push	ebp
	mov	ebp, esp
	sub	esp, 192				; 000000c0H
	push	ebx
	push	esi
	push	edi
	lea	edi, DWORD PTR [ebp-192]
	mov	ecx, 48					; 00000030H
	mov	eax, -858993460				; ccccccccH
	rep stosd

; 280  : 		return (_STD addressof(_Val));

	mov	eax, DWORD PTR __Val$[ebp]
	push	eax
	call	??$addressof@$$CBUOption@CCustomMenu@@@std@@YAPBUOption@CCustomMenu@@ABU12@@Z ; std::addressof<CCustomMenu::Option const >
	add	esp, 4

; 281  : 		}

	pop	edi
	pop	esi
	pop	ebx
	add	esp, 192				; 000000c0H
	cmp	ebp, esp
	call	__RTC_CheckEsp
	mov	esp, ebp
	pop	ebp
	ret	0
?pointer_to@?$pointer_traits@PBUOption@CCustomMenu@@@std@@SAPBUOption@CCustomMenu@@ABU34@@Z ENDP ; std::pointer_traits<CCustomMenu::Option const *>::pointer_to
_TEXT	ENDS
; Function compile flags: /Odtp /RTCsu /ZI
; File c:\program files (x86)\microsoft visual studio 14.0\vc\include\ostream
;	COMDAT ??$endl@DU?$char_traits@D@std@@@std@@YAAAV?$basic_ostream@DU?$char_traits@D@std@@@0@AAV10@@Z
_TEXT	SEGMENT
__Ostr$ = 8						; size = 4
??$endl@DU?$char_traits@D@std@@@std@@YAAAV?$basic_ostream@DU?$char_traits@D@std@@@0@AAV10@@Z PROC ; std::endl<char,std::char_traits<char> >, COMDAT

; 991  : 	{	// insert newline and flush stream

	push	ebp
	mov	ebp, esp
	sub	esp, 192				; 000000c0H
	push	ebx
	push	esi
	push	edi
	lea	edi, DWORD PTR [ebp-192]
	mov	ecx, 48					; 00000030H
	mov	eax, -858993460				; ccccccccH
	rep stosd

; 992  : 	_Ostr.put(_Ostr.widen('\n'));

	mov	esi, esp
	push	10					; 0000000aH
	mov	eax, DWORD PTR __Ostr$[ebp]
	mov	ecx, DWORD PTR [eax]
	mov	edx, DWORD PTR __Ostr$[ebp]
	add	edx, DWORD PTR [ecx+4]
	mov	ecx, edx
	call	DWORD PTR __imp_?widen@?$basic_ios@DU?$char_traits@D@std@@@std@@QBEDD@Z
	cmp	esi, esp
	call	__RTC_CheckEsp
	mov	esi, esp
	movzx	eax, al
	push	eax
	mov	ecx, DWORD PTR __Ostr$[ebp]
	call	DWORD PTR __imp_?put@?$basic_ostream@DU?$char_traits@D@std@@@std@@QAEAAV12@D@Z
	cmp	esi, esp
	call	__RTC_CheckEsp

; 993  : 	_Ostr.flush();

	mov	esi, esp
	mov	ecx, DWORD PTR __Ostr$[ebp]
	call	DWORD PTR __imp_?flush@?$basic_ostream@DU?$char_traits@D@std@@@std@@QAEAAV12@XZ
	cmp	esi, esp
	call	__RTC_CheckEsp

; 994  : 	return (_Ostr);

	mov	eax, DWORD PTR __Ostr$[ebp]

; 995  : 	}

	pop	edi
	pop	esi
	pop	ebx
	add	esp, 192				; 000000c0H
	cmp	ebp, esp
	call	__RTC_CheckEsp
	mov	esp, ebp
	pop	ebp
	ret	0
??$endl@DU?$char_traits@D@std@@@std@@YAAAV?$basic_ostream@DU?$char_traits@D@std@@@0@AAV10@@Z ENDP ; std::endl<char,std::char_traits<char> >
_TEXT	ENDS
; Function compile flags: /Odtp /RTCsu /ZI
; File c:\program files (x86)\microsoft visual studio 14.0\vc\include\string
;	COMDAT ??$?6DU?$char_traits@D@std@@V?$allocator@D@1@@std@@YAAAV?$basic_ostream@DU?$char_traits@D@std@@@0@AAV10@ABV?$basic_string@DU?$char_traits@D@std@@V?$allocator@D@2@@0@@Z
_TEXT	SEGMENT
tv411 = -340						; size = 8
tv294 = -332						; size = 4
tv291 = -332						; size = 8
tv289 = -332						; size = 4
tv136 = -332						; size = 4
tv329 = -328						; size = 8
tv293 = -328						; size = 4
tv288 = -328						; size = 4
tv290 = -324						; size = 4
tv138 = -324						; size = 4
tv292 = -321						; size = 1
tv287 = -321						; size = 1
$T2 = -316						; size = 4
$T3 = -304						; size = 4
$T4 = -292						; size = 4
$T5 = -280						; size = 4
$T6 = -268						; size = 4
__Ok$ = -64						; size = 8
__Pad$ = -48						; size = 4
__Size$ = -36						; size = 4
__State$ = -24						; size = 4
__$EHRec$ = -16						; size = 16
__Ostr$ = 8						; size = 4
__Str$ = 12						; size = 4
??$?6DU?$char_traits@D@std@@V?$allocator@D@1@@std@@YAAAV?$basic_ostream@DU?$char_traits@D@std@@@0@AAV10@ABV?$basic_string@DU?$char_traits@D@std@@V?$allocator@D@2@@0@@Z PROC ; std::operator<<<char,std::char_traits<char>,std::allocator<char> >, COMDAT

; 170  : 	{	// insert a string

	push	ebp
	mov	ebp, esp
	push	-1
	push	__ehhandler$??$?6DU?$char_traits@D@std@@V?$allocator@D@1@@std@@YAAAV?$basic_ostream@DU?$char_traits@D@std@@@0@AAV10@ABV?$basic_string@DU?$char_traits@D@std@@V?$allocator@D@2@@0@@Z
	mov	eax, DWORD PTR fs:0
	push	eax
	push	ecx
	sub	esp, 324				; 00000144H
	push	ebx
	push	esi
	push	edi
	lea	edi, DWORD PTR [ebp-340]
	mov	ecx, 81					; 00000051H
	mov	eax, -858993460				; ccccccccH
	rep stosd
	mov	eax, DWORD PTR ___security_cookie
	xor	eax, ebp
	push	eax
	lea	eax, DWORD PTR __$EHRec$[ebp+4]
	mov	DWORD PTR fs:0, eax
	mov	DWORD PTR __$EHRec$[ebp], esp

; 171  : 	typedef basic_ostream<_Elem, _Traits> _Myos;
; 172  : 	typedef basic_string<_Elem, _Traits, _Alloc> _Mystr;
; 173  : 	typedef typename _Mystr::size_type _Mysizt;
; 174  : 
; 175  : 	ios_base::iostate _State = ios_base::goodbit;

	mov	DWORD PTR __State$[ebp], 0

; 176  : 	_Mysizt _Size = _Str.size();

	mov	ecx, DWORD PTR __Str$[ebp]
	call	?size@?$basic_string@DU?$char_traits@D@std@@V?$allocator@D@2@@std@@QBEIXZ ; std::basic_string<char,std::char_traits<char>,std::allocator<char> >::size
	mov	DWORD PTR __Size$[ebp], eax

; 177  : 	_Mysizt _Pad = _Ostr.width() <= 0 || (_Mysizt)_Ostr.width() <= _Size

	mov	eax, DWORD PTR __Ostr$[ebp]
	mov	ecx, DWORD PTR [eax]
	mov	edx, DWORD PTR __Ostr$[ebp]
	add	edx, DWORD PTR [ecx+4]
	mov	esi, esp
	mov	ecx, edx
	call	DWORD PTR __imp_?width@ios_base@std@@QBE_JXZ
	cmp	esi, esp
	call	__RTC_CheckEsp
	mov	DWORD PTR tv329[ebp], eax
	mov	DWORD PTR tv329[ebp+4], edx
	cmp	DWORD PTR tv329[ebp+4], 0
	jl	SHORT $LN17@operator
	jg	SHORT $LN24@operator
	cmp	DWORD PTR tv329[ebp], 0
	jbe	SHORT $LN17@operator
$LN24@operator:
	mov	eax, DWORD PTR __Ostr$[ebp]
	mov	ecx, DWORD PTR [eax]
	mov	edx, DWORD PTR __Ostr$[ebp]
	add	edx, DWORD PTR [ecx+4]
	mov	esi, esp
	mov	ecx, edx
	call	DWORD PTR __imp_?width@ios_base@std@@QBE_JXZ
	cmp	esi, esp
	call	__RTC_CheckEsp
	cmp	eax, DWORD PTR __Size$[ebp]
	jbe	SHORT $LN17@operator
	mov	eax, DWORD PTR __Ostr$[ebp]
	mov	ecx, DWORD PTR [eax]
	mov	edx, DWORD PTR __Ostr$[ebp]
	add	edx, DWORD PTR [ecx+4]
	mov	esi, esp
	mov	ecx, edx
	call	DWORD PTR __imp_?width@ios_base@std@@QBE_JXZ
	cmp	esi, esp
	call	__RTC_CheckEsp
	sub	eax, DWORD PTR __Size$[ebp]
	mov	DWORD PTR tv136[ebp], eax
	jmp	SHORT $LN18@operator
$LN17@operator:
	mov	DWORD PTR tv136[ebp], 0
$LN18@operator:
	mov	eax, DWORD PTR tv136[ebp]
	mov	DWORD PTR __Pad$[ebp], eax

; 178  : 		? 0 : (_Mysizt)_Ostr.width() - _Size;
; 179  : 	const typename _Myos::sentry _Ok(_Ostr);

	mov	eax, DWORD PTR __Ostr$[ebp]
	push	eax
	lea	ecx, DWORD PTR __Ok$[ebp]
	call	??0sentry@?$basic_ostream@DU?$char_traits@D@std@@@std@@QAE@AAV12@@Z ; std::basic_ostream<char,std::char_traits<char> >::sentry::sentry
	mov	DWORD PTR __$EHRec$[ebp+12], 0

; 180  : 
; 181  : 	if (!_Ok)

	lea	ecx, DWORD PTR __Ok$[ebp]
	call	??Bsentry@?$basic_ostream@DU?$char_traits@D@std@@@std@@QBE_NXZ ; std::basic_ostream<char,std::char_traits<char> >::sentry::operator bool
	movzx	eax, al
	test	eax, eax
	jne	SHORT $LN8@operator

; 182  : 		_State |= ios_base::badbit;

	mov	eax, DWORD PTR __State$[ebp]
	or	eax, 4
	mov	DWORD PTR __State$[ebp], eax

; 183  : 	else

	jmp	$LN9@operator
$LN8@operator:

; 184  : 		{	// state okay, insert characters
; 185  : 	_TRY_IO_BEGIN

	mov	BYTE PTR __$EHRec$[ebp+12], 1

; 186  : 		if ((_Ostr.flags() & ios_base::adjustfield) != ios_base::left)

	mov	eax, DWORD PTR __Ostr$[ebp]
	mov	ecx, DWORD PTR [eax]
	mov	edx, DWORD PTR __Ostr$[ebp]
	add	edx, DWORD PTR [ecx+4]
	mov	esi, esp
	mov	ecx, edx
	call	DWORD PTR __imp_?flags@ios_base@std@@QBEHXZ
	cmp	esi, esp
	call	__RTC_CheckEsp
	mov	DWORD PTR tv138[ebp], eax
	mov	eax, DWORD PTR tv138[ebp]
	and	eax, 448				; 000001c0H
	cmp	eax, 64					; 00000040H
	je	$LN11@operator

; 187  : 			for (; 0 < _Pad; --_Pad)	// pad on left

	jmp	SHORT $LN4@operator
$LN2@operator:
	mov	eax, DWORD PTR __Pad$[ebp]
	sub	eax, 1
	mov	DWORD PTR __Pad$[ebp], eax
$LN4@operator:
	cmp	DWORD PTR __Pad$[ebp], 0
	jbe	$LN11@operator

; 188  : 				if (_Traits::eq_int_type(_Traits::eof(),

	mov	eax, DWORD PTR __Ostr$[ebp]
	mov	ecx, DWORD PTR [eax]
	mov	edx, DWORD PTR __Ostr$[ebp]
	add	edx, DWORD PTR [ecx+4]
	mov	esi, esp
	mov	ecx, edx
	call	DWORD PTR __imp_?fill@?$basic_ios@DU?$char_traits@D@std@@@std@@QBEDXZ
	cmp	esi, esp
	call	__RTC_CheckEsp
	mov	BYTE PTR tv287[ebp], al
	mov	eax, DWORD PTR __Ostr$[ebp]
	mov	ecx, DWORD PTR [eax]
	mov	edx, DWORD PTR __Ostr$[ebp]
	add	edx, DWORD PTR [ecx+4]
	mov	esi, esp
	mov	ecx, edx
	call	DWORD PTR __imp_?rdbuf@?$basic_ios@DU?$char_traits@D@std@@@std@@QBEPAV?$basic_streambuf@DU?$char_traits@D@std@@@2@XZ
	cmp	esi, esp
	call	__RTC_CheckEsp
	mov	DWORD PTR tv288[ebp], eax
	mov	esi, esp
	movzx	eax, BYTE PTR tv287[ebp]
	push	eax
	mov	ecx, DWORD PTR tv288[ebp]
	call	DWORD PTR __imp_?sputc@?$basic_streambuf@DU?$char_traits@D@std@@@std@@QAEHD@Z
	cmp	esi, esp
	call	__RTC_CheckEsp
	mov	DWORD PTR tv289[ebp], eax
	mov	ecx, DWORD PTR tv289[ebp]
	mov	DWORD PTR $T6[ebp], ecx
	call	?eof@?$char_traits@D@std@@SAHXZ		; std::char_traits<char>::eof
	mov	DWORD PTR $T5[ebp], eax
	lea	edx, DWORD PTR $T6[ebp]
	push	edx
	lea	eax, DWORD PTR $T5[ebp]
	push	eax
	call	?eq_int_type@?$char_traits@D@std@@SA_NABH0@Z ; std::char_traits<char>::eq_int_type
	add	esp, 8
	movzx	ecx, al
	test	ecx, ecx
	je	SHORT $LN12@operator

; 189  : 					_Ostr.rdbuf()->sputc(_Ostr.fill())))
; 190  : 					{	// insertion failed, quit
; 191  : 					_State |= ios_base::badbit;

	mov	eax, DWORD PTR __State$[ebp]
	or	eax, 4
	mov	DWORD PTR __State$[ebp], eax

; 192  : 					break;

	jmp	SHORT $LN11@operator
$LN12@operator:

; 193  : 					}
; 194  : 
; 195  : 		if (_State == ios_base::goodbit

	jmp	$LN2@operator
$LN11@operator:

; 196  : 			&& _Ostr.rdbuf()->sputn(_Str.c_str(), (streamsize)_Size)

	cmp	DWORD PTR __State$[ebp], 0
	jne	$LN13@operator
	mov	eax, DWORD PTR __Ostr$[ebp]
	mov	ecx, DWORD PTR [eax]
	mov	edx, DWORD PTR __Ostr$[ebp]
	add	edx, DWORD PTR [ecx+4]
	mov	esi, esp
	mov	ecx, edx
	call	DWORD PTR __imp_?rdbuf@?$basic_ios@DU?$char_traits@D@std@@@std@@QBEPAV?$basic_streambuf@DU?$char_traits@D@std@@@2@XZ
	cmp	esi, esp
	call	__RTC_CheckEsp
	mov	DWORD PTR tv290[ebp], eax
	mov	eax, DWORD PTR __Size$[ebp]
	xor	ecx, ecx
	mov	esi, esp
	push	ecx
	push	eax
	mov	ecx, DWORD PTR __Str$[ebp]
	call	?c_str@?$basic_string@DU?$char_traits@D@std@@V?$allocator@D@2@@std@@QBEPBDXZ ; std::basic_string<char,std::char_traits<char>,std::allocator<char> >::c_str
	push	eax
	mov	ecx, DWORD PTR tv290[ebp]
	call	DWORD PTR __imp_?sputn@?$basic_streambuf@DU?$char_traits@D@std@@@std@@QAE_JPBD_J@Z
	cmp	esi, esp
	call	__RTC_CheckEsp
	mov	DWORD PTR tv291[ebp], eax
	mov	DWORD PTR tv291[ebp+4], edx
	mov	edx, DWORD PTR __Size$[ebp]
	xor	eax, eax
	mov	DWORD PTR tv411[ebp], edx
	mov	DWORD PTR tv411[ebp+4], eax
	mov	ecx, DWORD PTR tv291[ebp]
	cmp	ecx, DWORD PTR tv411[ebp]
	jne	SHORT $LN25@operator
	mov	edx, DWORD PTR tv291[ebp+4]
	cmp	edx, DWORD PTR tv411[ebp+4]
	je	SHORT $LN13@operator
$LN25@operator:

; 197  : 				!= (streamsize)_Size)
; 198  : 				_State |= ios_base::badbit;

	mov	eax, DWORD PTR __State$[ebp]
	or	eax, 4
	mov	DWORD PTR __State$[ebp], eax

; 199  : 		else

	jmp	$LN14@operator
$LN13@operator:

; 200  : 			for (; 0 < _Pad; --_Pad)	// pad on right

	jmp	SHORT $LN7@operator
$LN5@operator:
	mov	eax, DWORD PTR __Pad$[ebp]
	sub	eax, 1
	mov	DWORD PTR __Pad$[ebp], eax
$LN7@operator:
	cmp	DWORD PTR __Pad$[ebp], 0
	jbe	$LN14@operator

; 201  : 				if (_Traits::eq_int_type(_Traits::eof(),

	mov	eax, DWORD PTR __Ostr$[ebp]
	mov	ecx, DWORD PTR [eax]
	mov	edx, DWORD PTR __Ostr$[ebp]
	add	edx, DWORD PTR [ecx+4]
	mov	esi, esp
	mov	ecx, edx
	call	DWORD PTR __imp_?fill@?$basic_ios@DU?$char_traits@D@std@@@std@@QBEDXZ
	cmp	esi, esp
	call	__RTC_CheckEsp
	mov	BYTE PTR tv292[ebp], al
	mov	eax, DWORD PTR __Ostr$[ebp]
	mov	ecx, DWORD PTR [eax]
	mov	edx, DWORD PTR __Ostr$[ebp]
	add	edx, DWORD PTR [ecx+4]
	mov	esi, esp
	mov	ecx, edx
	call	DWORD PTR __imp_?rdbuf@?$basic_ios@DU?$char_traits@D@std@@@std@@QBEPAV?$basic_streambuf@DU?$char_traits@D@std@@@2@XZ
	cmp	esi, esp
	call	__RTC_CheckEsp
	mov	DWORD PTR tv293[ebp], eax
	mov	esi, esp
	movzx	eax, BYTE PTR tv292[ebp]
	push	eax
	mov	ecx, DWORD PTR tv293[ebp]
	call	DWORD PTR __imp_?sputc@?$basic_streambuf@DU?$char_traits@D@std@@@std@@QAEHD@Z
	cmp	esi, esp
	call	__RTC_CheckEsp
	mov	DWORD PTR tv294[ebp], eax
	mov	ecx, DWORD PTR tv294[ebp]
	mov	DWORD PTR $T4[ebp], ecx
	call	?eof@?$char_traits@D@std@@SAHXZ		; std::char_traits<char>::eof
	mov	DWORD PTR $T3[ebp], eax
	lea	edx, DWORD PTR $T4[ebp]
	push	edx
	lea	eax, DWORD PTR $T3[ebp]
	push	eax
	call	?eq_int_type@?$char_traits@D@std@@SA_NABH0@Z ; std::char_traits<char>::eq_int_type
	add	esp, 8
	movzx	ecx, al
	test	ecx, ecx
	je	SHORT $LN15@operator

; 202  : 					_Ostr.rdbuf()->sputc(_Ostr.fill())))
; 203  : 					{	// insertion failed, quit
; 204  : 					_State |= ios_base::badbit;

	mov	eax, DWORD PTR __State$[ebp]
	or	eax, 4
	mov	DWORD PTR __State$[ebp], eax

; 205  : 					break;

	jmp	SHORT $LN14@operator
$LN15@operator:

; 206  : 					}

	jmp	$LN5@operator
$LN14@operator:

; 207  : 		_Ostr.width(0);

	mov	esi, esp
	push	0
	push	0
	mov	eax, DWORD PTR __Ostr$[ebp]
	mov	ecx, DWORD PTR [eax]
	mov	edx, DWORD PTR __Ostr$[ebp]
	add	edx, DWORD PTR [ecx+4]
	mov	ecx, edx
	call	DWORD PTR __imp_?width@ios_base@std@@QAE_J_J@Z
	cmp	esi, esp
	call	__RTC_CheckEsp
	jmp	SHORT $LN19@operator
__catch$??$?6DU?$char_traits@D@std@@V?$allocator@D@1@@std@@YAAAV?$basic_ostream@DU?$char_traits@D@std@@@0@AAV10@ABV?$basic_string@DU?$char_traits@D@std@@V?$allocator@D@2@@0@@Z$0:

; 208  : 		_CATCH_IO_(_Ostr)

	mov	esi, esp
	push	1
	push	4
	mov	eax, DWORD PTR __Ostr$[ebp]
	mov	ecx, DWORD PTR [eax]
	mov	edx, DWORD PTR __Ostr$[ebp]
	add	edx, DWORD PTR [ecx+4]
	mov	ecx, edx
	call	DWORD PTR __imp_?setstate@?$basic_ios@DU?$char_traits@D@std@@@std@@QAEXH_N@Z
	cmp	esi, esp
	call	__RTC_CheckEsp
	mov	eax, $LN23@operator
	ret	0
$LN19@operator:
	mov	DWORD PTR __$EHRec$[ebp+12], 0
	jmp	SHORT $LN9@operator
$LN23@operator:
	mov	DWORD PTR __$EHRec$[ebp+12], 0
$LN9@operator:

; 209  : 		}
; 210  : 
; 211  : 	_Ostr.setstate(_State);

	mov	esi, esp
	push	0
	mov	eax, DWORD PTR __State$[ebp]
	push	eax
	mov	ecx, DWORD PTR __Ostr$[ebp]
	mov	edx, DWORD PTR [ecx]
	mov	ecx, DWORD PTR __Ostr$[ebp]
	add	ecx, DWORD PTR [edx+4]
	call	DWORD PTR __imp_?setstate@?$basic_ios@DU?$char_traits@D@std@@@std@@QAEXH_N@Z
	cmp	esi, esp
	call	__RTC_CheckEsp

; 212  : 	return (_Ostr);

	mov	eax, DWORD PTR __Ostr$[ebp]
	mov	DWORD PTR $T2[ebp], eax
	mov	DWORD PTR __$EHRec$[ebp+12], -1
	lea	ecx, DWORD PTR __Ok$[ebp]
	call	??1sentry@?$basic_ostream@DU?$char_traits@D@std@@@std@@QAE@XZ ; std::basic_ostream<char,std::char_traits<char> >::sentry::~sentry
	mov	eax, DWORD PTR $T2[ebp]

; 213  : 	}

	push	edx
	mov	ecx, ebp
	push	eax
	lea	edx, DWORD PTR $LN29@operator
	call	@_RTC_CheckStackVars@8
	pop	eax
	pop	edx
	mov	ecx, DWORD PTR __$EHRec$[ebp+4]
	mov	DWORD PTR fs:0, ecx
	pop	ecx
	pop	edi
	pop	esi
	pop	ebx
	add	esp, 340				; 00000154H
	cmp	ebp, esp
	call	__RTC_CheckEsp
	mov	esp, ebp
	pop	ebp
	ret	0
	npad	2
$LN29@operator:
	DD	1
	DD	$LN28@operator
$LN28@operator:
	DD	-64					; ffffffc0H
	DD	8
	DD	$LN26@operator
$LN26@operator:
	DB	95					; 0000005fH
	DB	79					; 0000004fH
	DB	107					; 0000006bH
	DB	0
_TEXT	ENDS
;	COMDAT text$x
text$x	SEGMENT
__unwindfunclet$??$?6DU?$char_traits@D@std@@V?$allocator@D@1@@std@@YAAAV?$basic_ostream@DU?$char_traits@D@std@@@0@AAV10@ABV?$basic_string@DU?$char_traits@D@std@@V?$allocator@D@2@@0@@Z$2:
	lea	ecx, DWORD PTR __Ok$[ebp]
	jmp	??1sentry@?$basic_ostream@DU?$char_traits@D@std@@@std@@QAE@XZ ; std::basic_ostream<char,std::char_traits<char> >::sentry::~sentry
__ehhandler$??$?6DU?$char_traits@D@std@@V?$allocator@D@1@@std@@YAAAV?$basic_ostream@DU?$char_traits@D@std@@@0@AAV10@ABV?$basic_string@DU?$char_traits@D@std@@V?$allocator@D@2@@0@@Z:
	mov	edx, DWORD PTR [esp+8]
	lea	eax, DWORD PTR [edx+12]
	mov	ecx, DWORD PTR [edx-344]
	xor	ecx, eax
	call	@__security_check_cookie@4
	mov	eax, OFFSET __ehfuncinfo$??$?6DU?$char_traits@D@std@@V?$allocator@D@1@@std@@YAAAV?$basic_ostream@DU?$char_traits@D@std@@@0@AAV10@ABV?$basic_string@DU?$char_traits@D@std@@V?$allocator@D@2@@0@@Z
	jmp	___CxxFrameHandler3
text$x	ENDS
??$?6DU?$char_traits@D@std@@V?$allocator@D@1@@std@@YAAAV?$basic_ostream@DU?$char_traits@D@std@@@0@AAV10@ABV?$basic_string@DU?$char_traits@D@std@@V?$allocator@D@2@@0@@Z ENDP ; std::operator<<<char,std::char_traits<char>,std::allocator<char> >
; Function compile flags: /Odtp /RTCsu /ZI
; File c:\program files (x86)\microsoft visual studio 14.0\vc\include\ostream
;	COMDAT ??$?6U?$char_traits@D@std@@@std@@YAAAV?$basic_ostream@DU?$char_traits@D@std@@@0@AAV10@PBD@Z
_TEXT	SEGMENT
tv135 = -352						; size = 8
tv342 = -344						; size = 8
tv290 = -340						; size = 4
tv287 = -340						; size = 8
tv285 = -340						; size = 4
tv328 = -336						; size = 8
tv289 = -336						; size = 4
tv284 = -336						; size = 4
tv286 = -332						; size = 4
tv137 = -332						; size = 4
tv288 = -329						; size = 1
tv283 = -329						; size = 1
$T2 = -324						; size = 4
$T3 = -312						; size = 4
$T4 = -300						; size = 4
$T5 = -288						; size = 4
$T6 = -276						; size = 4
__Ok$ = -72						; size = 8
__Pad$ = -56						; size = 8
__Count$ = -40						; size = 8
__State$ = -24						; size = 4
__$EHRec$ = -16						; size = 16
__Ostr$ = 8						; size = 4
__Val$ = 12						; size = 4
??$?6U?$char_traits@D@std@@@std@@YAAAV?$basic_ostream@DU?$char_traits@D@std@@@0@AAV10@PBD@Z PROC ; std::operator<<<std::char_traits<char> >, COMDAT

; 780  : 	{	// insert NTBS into char stream

	push	ebp
	mov	ebp, esp
	push	-1
	push	__ehhandler$??$?6U?$char_traits@D@std@@@std@@YAAAV?$basic_ostream@DU?$char_traits@D@std@@@0@AAV10@PBD@Z
	mov	eax, DWORD PTR fs:0
	push	eax
	push	ecx
	sub	esp, 336				; 00000150H
	push	ebx
	push	esi
	push	edi
	lea	edi, DWORD PTR [ebp-352]
	mov	ecx, 84					; 00000054H
	mov	eax, -858993460				; ccccccccH
	rep stosd
	mov	eax, DWORD PTR ___security_cookie
	xor	eax, ebp
	push	eax
	lea	eax, DWORD PTR __$EHRec$[ebp+4]
	mov	DWORD PTR fs:0, eax
	mov	DWORD PTR __$EHRec$[ebp], esp

; 781  : 	typedef char _Elem;
; 782  : 	typedef basic_ostream<_Elem, _Traits> _Myos;
; 783  : 	ios_base::iostate _State = ios_base::goodbit;

	mov	DWORD PTR __State$[ebp], 0

; 784  : 	streamsize _Count = (streamsize)_Traits::length(_Val);	// may overflow

	mov	eax, DWORD PTR __Val$[ebp]
	push	eax
	call	?length@?$char_traits@D@std@@SAIPBD@Z	; std::char_traits<char>::length
	add	esp, 4
	xor	ecx, ecx
	mov	DWORD PTR __Count$[ebp], eax
	mov	DWORD PTR __Count$[ebp+4], ecx

; 785  : 	streamsize _Pad = _Ostr.width() <= 0 || _Ostr.width() <= _Count

	mov	eax, DWORD PTR __Ostr$[ebp]
	mov	ecx, DWORD PTR [eax]
	mov	edx, DWORD PTR __Ostr$[ebp]
	add	edx, DWORD PTR [ecx+4]
	mov	esi, esp
	mov	ecx, edx
	call	DWORD PTR __imp_?width@ios_base@std@@QBE_JXZ
	cmp	esi, esp
	call	__RTC_CheckEsp
	mov	DWORD PTR tv328[ebp], eax
	mov	DWORD PTR tv328[ebp+4], edx
	cmp	DWORD PTR tv328[ebp+4], 0
	jl	SHORT $LN17@operator
	jg	SHORT $LN24@operator
	cmp	DWORD PTR tv328[ebp], 0
	jbe	SHORT $LN17@operator
$LN24@operator:
	mov	eax, DWORD PTR __Ostr$[ebp]
	mov	ecx, DWORD PTR [eax]
	mov	edx, DWORD PTR __Ostr$[ebp]
	add	edx, DWORD PTR [ecx+4]
	mov	esi, esp
	mov	ecx, edx
	call	DWORD PTR __imp_?width@ios_base@std@@QBE_JXZ
	cmp	esi, esp
	call	__RTC_CheckEsp
	mov	DWORD PTR tv342[ebp], eax
	mov	DWORD PTR tv342[ebp+4], edx
	mov	eax, DWORD PTR tv342[ebp+4]
	cmp	eax, DWORD PTR __Count$[ebp+4]
	jl	SHORT $LN17@operator
	jg	SHORT $LN25@operator
	mov	ecx, DWORD PTR tv342[ebp]
	cmp	ecx, DWORD PTR __Count$[ebp]
	jbe	SHORT $LN17@operator
$LN25@operator:
	mov	edx, DWORD PTR __Ostr$[ebp]
	mov	eax, DWORD PTR [edx]
	mov	ecx, DWORD PTR __Ostr$[ebp]
	add	ecx, DWORD PTR [eax+4]
	mov	esi, esp
	call	DWORD PTR __imp_?width@ios_base@std@@QBE_JXZ
	cmp	esi, esp
	call	__RTC_CheckEsp
	sub	eax, DWORD PTR __Count$[ebp]
	sbb	edx, DWORD PTR __Count$[ebp+4]
	mov	DWORD PTR tv135[ebp], eax
	mov	DWORD PTR tv135[ebp+4], edx
	jmp	SHORT $LN18@operator
$LN17@operator:
	xorps	xmm0, xmm0
	movlpd	QWORD PTR tv135[ebp], xmm0
$LN18@operator:
	mov	ecx, DWORD PTR tv135[ebp]
	mov	DWORD PTR __Pad$[ebp], ecx
	mov	edx, DWORD PTR tv135[ebp+4]
	mov	DWORD PTR __Pad$[ebp+4], edx

; 786  : 		? 0 : _Ostr.width() - _Count;
; 787  : 	const typename _Myos::sentry _Ok(_Ostr);

	mov	eax, DWORD PTR __Ostr$[ebp]
	push	eax
	lea	ecx, DWORD PTR __Ok$[ebp]
	call	??0sentry@?$basic_ostream@DU?$char_traits@D@std@@@std@@QAE@AAV12@@Z ; std::basic_ostream<char,std::char_traits<char> >::sentry::sentry
	mov	DWORD PTR __$EHRec$[ebp+12], 0

; 788  : 
; 789  : 	if (!_Ok)

	lea	ecx, DWORD PTR __Ok$[ebp]
	call	??Bsentry@?$basic_ostream@DU?$char_traits@D@std@@@std@@QBE_NXZ ; std::basic_ostream<char,std::char_traits<char> >::sentry::operator bool
	movzx	eax, al
	test	eax, eax
	jne	SHORT $LN8@operator

; 790  : 		_State |= ios_base::badbit;

	mov	eax, DWORD PTR __State$[ebp]
	or	eax, 4
	mov	DWORD PTR __State$[ebp], eax

; 791  : 	else

	jmp	$LN9@operator
$LN8@operator:

; 792  : 		{	// state okay, insert
; 793  : 		_TRY_IO_BEGIN

	mov	BYTE PTR __$EHRec$[ebp+12], 1

; 794  : 		if ((_Ostr.flags() & ios_base::adjustfield) != ios_base::left)

	mov	eax, DWORD PTR __Ostr$[ebp]
	mov	ecx, DWORD PTR [eax]
	mov	edx, DWORD PTR __Ostr$[ebp]
	add	edx, DWORD PTR [ecx+4]
	mov	esi, esp
	mov	ecx, edx
	call	DWORD PTR __imp_?flags@ios_base@std@@QBEHXZ
	cmp	esi, esp
	call	__RTC_CheckEsp
	mov	DWORD PTR tv137[ebp], eax
	mov	eax, DWORD PTR tv137[ebp]
	and	eax, 448				; 000001c0H
	cmp	eax, 64					; 00000040H
	je	$LN11@operator

; 795  : 			for (; 0 < _Pad; --_Pad)	// pad on left

	jmp	SHORT $LN4@operator
$LN2@operator:
	mov	eax, DWORD PTR __Pad$[ebp]
	sub	eax, 1
	mov	ecx, DWORD PTR __Pad$[ebp+4]
	sbb	ecx, 0
	mov	DWORD PTR __Pad$[ebp], eax
	mov	DWORD PTR __Pad$[ebp+4], ecx
$LN4@operator:
	cmp	DWORD PTR __Pad$[ebp+4], 0
	jl	$LN11@operator
	jg	SHORT $LN26@operator
	cmp	DWORD PTR __Pad$[ebp], 0
	jbe	$LN11@operator
$LN26@operator:

; 796  : 				if (_Traits::eq_int_type(_Traits::eof(),

	mov	eax, DWORD PTR __Ostr$[ebp]
	mov	ecx, DWORD PTR [eax]
	mov	edx, DWORD PTR __Ostr$[ebp]
	add	edx, DWORD PTR [ecx+4]
	mov	esi, esp
	mov	ecx, edx
	call	DWORD PTR __imp_?fill@?$basic_ios@DU?$char_traits@D@std@@@std@@QBEDXZ
	cmp	esi, esp
	call	__RTC_CheckEsp
	mov	BYTE PTR tv283[ebp], al
	mov	eax, DWORD PTR __Ostr$[ebp]
	mov	ecx, DWORD PTR [eax]
	mov	edx, DWORD PTR __Ostr$[ebp]
	add	edx, DWORD PTR [ecx+4]
	mov	esi, esp
	mov	ecx, edx
	call	DWORD PTR __imp_?rdbuf@?$basic_ios@DU?$char_traits@D@std@@@std@@QBEPAV?$basic_streambuf@DU?$char_traits@D@std@@@2@XZ
	cmp	esi, esp
	call	__RTC_CheckEsp
	mov	DWORD PTR tv284[ebp], eax
	mov	esi, esp
	movzx	eax, BYTE PTR tv283[ebp]
	push	eax
	mov	ecx, DWORD PTR tv284[ebp]
	call	DWORD PTR __imp_?sputc@?$basic_streambuf@DU?$char_traits@D@std@@@std@@QAEHD@Z
	cmp	esi, esp
	call	__RTC_CheckEsp
	mov	DWORD PTR tv285[ebp], eax
	mov	ecx, DWORD PTR tv285[ebp]
	mov	DWORD PTR $T6[ebp], ecx
	call	?eof@?$char_traits@D@std@@SAHXZ		; std::char_traits<char>::eof
	mov	DWORD PTR $T5[ebp], eax
	lea	edx, DWORD PTR $T6[ebp]
	push	edx
	lea	eax, DWORD PTR $T5[ebp]
	push	eax
	call	?eq_int_type@?$char_traits@D@std@@SA_NABH0@Z ; std::char_traits<char>::eq_int_type
	add	esp, 8
	movzx	ecx, al
	test	ecx, ecx
	je	SHORT $LN12@operator

; 797  : 					_Ostr.rdbuf()->sputc(_Ostr.fill())))
; 798  : 					{	// insertion failed, quit
; 799  : 					_State |= ios_base::badbit;

	mov	eax, DWORD PTR __State$[ebp]
	or	eax, 4
	mov	DWORD PTR __State$[ebp], eax

; 800  : 					break;

	jmp	SHORT $LN11@operator
$LN12@operator:

; 801  : 					}
; 802  : 
; 803  : 		if (_State == ios_base::goodbit

	jmp	$LN2@operator
$LN11@operator:

; 804  : 			&& _Ostr.rdbuf()->sputn(_Val, _Count) != _Count)

	cmp	DWORD PTR __State$[ebp], 0
	jne	SHORT $LN13@operator
	mov	eax, DWORD PTR __Ostr$[ebp]
	mov	ecx, DWORD PTR [eax]
	mov	edx, DWORD PTR __Ostr$[ebp]
	add	edx, DWORD PTR [ecx+4]
	mov	esi, esp
	mov	ecx, edx
	call	DWORD PTR __imp_?rdbuf@?$basic_ios@DU?$char_traits@D@std@@@std@@QBEPAV?$basic_streambuf@DU?$char_traits@D@std@@@2@XZ
	cmp	esi, esp
	call	__RTC_CheckEsp
	mov	DWORD PTR tv286[ebp], eax
	mov	esi, esp
	mov	eax, DWORD PTR __Count$[ebp+4]
	push	eax
	mov	ecx, DWORD PTR __Count$[ebp]
	push	ecx
	mov	edx, DWORD PTR __Val$[ebp]
	push	edx
	mov	ecx, DWORD PTR tv286[ebp]
	call	DWORD PTR __imp_?sputn@?$basic_streambuf@DU?$char_traits@D@std@@@std@@QAE_JPBD_J@Z
	cmp	esi, esp
	call	__RTC_CheckEsp
	mov	DWORD PTR tv287[ebp], eax
	mov	DWORD PTR tv287[ebp+4], edx
	mov	eax, DWORD PTR tv287[ebp]
	cmp	eax, DWORD PTR __Count$[ebp]
	jne	SHORT $LN27@operator
	mov	ecx, DWORD PTR tv287[ebp+4]
	cmp	ecx, DWORD PTR __Count$[ebp+4]
	je	SHORT $LN13@operator
$LN27@operator:

; 805  : 			_State |= ios_base::badbit;

	mov	eax, DWORD PTR __State$[ebp]
	or	eax, 4
	mov	DWORD PTR __State$[ebp], eax
$LN13@operator:

; 806  : 
; 807  : 		if (_State == ios_base::goodbit)

	cmp	DWORD PTR __State$[ebp], 0
	jne	$LN14@operator

; 808  : 			for (; 0 < _Pad; --_Pad)	// pad on right

	jmp	SHORT $LN7@operator
$LN5@operator:
	mov	eax, DWORD PTR __Pad$[ebp]
	sub	eax, 1
	mov	ecx, DWORD PTR __Pad$[ebp+4]
	sbb	ecx, 0
	mov	DWORD PTR __Pad$[ebp], eax
	mov	DWORD PTR __Pad$[ebp+4], ecx
$LN7@operator:
	cmp	DWORD PTR __Pad$[ebp+4], 0
	jl	$LN14@operator
	jg	SHORT $LN28@operator
	cmp	DWORD PTR __Pad$[ebp], 0
	jbe	$LN14@operator
$LN28@operator:

; 809  : 				if (_Traits::eq_int_type(_Traits::eof(),

	mov	eax, DWORD PTR __Ostr$[ebp]
	mov	ecx, DWORD PTR [eax]
	mov	edx, DWORD PTR __Ostr$[ebp]
	add	edx, DWORD PTR [ecx+4]
	mov	esi, esp
	mov	ecx, edx
	call	DWORD PTR __imp_?fill@?$basic_ios@DU?$char_traits@D@std@@@std@@QBEDXZ
	cmp	esi, esp
	call	__RTC_CheckEsp
	mov	BYTE PTR tv288[ebp], al
	mov	eax, DWORD PTR __Ostr$[ebp]
	mov	ecx, DWORD PTR [eax]
	mov	edx, DWORD PTR __Ostr$[ebp]
	add	edx, DWORD PTR [ecx+4]
	mov	esi, esp
	mov	ecx, edx
	call	DWORD PTR __imp_?rdbuf@?$basic_ios@DU?$char_traits@D@std@@@std@@QBEPAV?$basic_streambuf@DU?$char_traits@D@std@@@2@XZ
	cmp	esi, esp
	call	__RTC_CheckEsp
	mov	DWORD PTR tv289[ebp], eax
	mov	esi, esp
	movzx	eax, BYTE PTR tv288[ebp]
	push	eax
	mov	ecx, DWORD PTR tv289[ebp]
	call	DWORD PTR __imp_?sputc@?$basic_streambuf@DU?$char_traits@D@std@@@std@@QAEHD@Z
	cmp	esi, esp
	call	__RTC_CheckEsp
	mov	DWORD PTR tv290[ebp], eax
	mov	ecx, DWORD PTR tv290[ebp]
	mov	DWORD PTR $T4[ebp], ecx
	call	?eof@?$char_traits@D@std@@SAHXZ		; std::char_traits<char>::eof
	mov	DWORD PTR $T3[ebp], eax
	lea	edx, DWORD PTR $T4[ebp]
	push	edx
	lea	eax, DWORD PTR $T3[ebp]
	push	eax
	call	?eq_int_type@?$char_traits@D@std@@SA_NABH0@Z ; std::char_traits<char>::eq_int_type
	add	esp, 8
	movzx	ecx, al
	test	ecx, ecx
	je	SHORT $LN15@operator

; 810  : 					_Ostr.rdbuf()->sputc(_Ostr.fill())))
; 811  : 					{	// insertion failed, quit
; 812  : 					_State |= ios_base::badbit;

	mov	eax, DWORD PTR __State$[ebp]
	or	eax, 4
	mov	DWORD PTR __State$[ebp], eax

; 813  : 					break;

	jmp	SHORT $LN14@operator
$LN15@operator:

; 814  : 					}

	jmp	$LN5@operator
$LN14@operator:

; 815  : 		_Ostr.width(0);

	mov	esi, esp
	push	0
	push	0
	mov	eax, DWORD PTR __Ostr$[ebp]
	mov	ecx, DWORD PTR [eax]
	mov	edx, DWORD PTR __Ostr$[ebp]
	add	edx, DWORD PTR [ecx+4]
	mov	ecx, edx
	call	DWORD PTR __imp_?width@ios_base@std@@QAE_J_J@Z
	cmp	esi, esp
	call	__RTC_CheckEsp
	jmp	SHORT $LN19@operator
__catch$??$?6U?$char_traits@D@std@@@std@@YAAAV?$basic_ostream@DU?$char_traits@D@std@@@0@AAV10@PBD@Z$0:

; 816  : 		_CATCH_IO_(_Ostr)

	mov	esi, esp
	push	1
	push	4
	mov	eax, DWORD PTR __Ostr$[ebp]
	mov	ecx, DWORD PTR [eax]
	mov	edx, DWORD PTR __Ostr$[ebp]
	add	edx, DWORD PTR [ecx+4]
	mov	ecx, edx
	call	DWORD PTR __imp_?setstate@?$basic_ios@DU?$char_traits@D@std@@@std@@QAEXH_N@Z
	cmp	esi, esp
	call	__RTC_CheckEsp
	mov	eax, $LN23@operator
	ret	0
$LN19@operator:
	mov	DWORD PTR __$EHRec$[ebp+12], 0
	jmp	SHORT $LN9@operator
$LN23@operator:
	mov	DWORD PTR __$EHRec$[ebp+12], 0
$LN9@operator:

; 817  : 		}
; 818  : 
; 819  : 	_Ostr.setstate(_State);

	mov	esi, esp
	push	0
	mov	eax, DWORD PTR __State$[ebp]
	push	eax
	mov	ecx, DWORD PTR __Ostr$[ebp]
	mov	edx, DWORD PTR [ecx]
	mov	ecx, DWORD PTR __Ostr$[ebp]
	add	ecx, DWORD PTR [edx+4]
	call	DWORD PTR __imp_?setstate@?$basic_ios@DU?$char_traits@D@std@@@std@@QAEXH_N@Z
	cmp	esi, esp
	call	__RTC_CheckEsp

; 820  : 	return (_Ostr);

	mov	eax, DWORD PTR __Ostr$[ebp]
	mov	DWORD PTR $T2[ebp], eax
	mov	DWORD PTR __$EHRec$[ebp+12], -1
	lea	ecx, DWORD PTR __Ok$[ebp]
	call	??1sentry@?$basic_ostream@DU?$char_traits@D@std@@@std@@QAE@XZ ; std::basic_ostream<char,std::char_traits<char> >::sentry::~sentry
	mov	eax, DWORD PTR $T2[ebp]

; 821  : 	}

	push	edx
	mov	ecx, ebp
	push	eax
	lea	edx, DWORD PTR $LN32@operator
	call	@_RTC_CheckStackVars@8
	pop	eax
	pop	edx
	mov	ecx, DWORD PTR __$EHRec$[ebp+4]
	mov	DWORD PTR fs:0, ecx
	pop	ecx
	pop	edi
	pop	esi
	pop	ebx
	add	esp, 352				; 00000160H
	cmp	ebp, esp
	call	__RTC_CheckEsp
	mov	esp, ebp
	pop	ebp
	ret	0
	npad	1
$LN32@operator:
	DD	1
	DD	$LN31@operator
$LN31@operator:
	DD	-72					; ffffffb8H
	DD	8
	DD	$LN29@operator
$LN29@operator:
	DB	95					; 0000005fH
	DB	79					; 0000004fH
	DB	107					; 0000006bH
	DB	0
_TEXT	ENDS
;	COMDAT text$x
text$x	SEGMENT
__unwindfunclet$??$?6U?$char_traits@D@std@@@std@@YAAAV?$basic_ostream@DU?$char_traits@D@std@@@0@AAV10@PBD@Z$2:
	lea	ecx, DWORD PTR __Ok$[ebp]
	jmp	??1sentry@?$basic_ostream@DU?$char_traits@D@std@@@std@@QAE@XZ ; std::basic_ostream<char,std::char_traits<char> >::sentry::~sentry
__ehhandler$??$?6U?$char_traits@D@std@@@std@@YAAAV?$basic_ostream@DU?$char_traits@D@std@@@0@AAV10@PBD@Z:
	mov	edx, DWORD PTR [esp+8]
	lea	eax, DWORD PTR [edx+12]
	mov	ecx, DWORD PTR [edx-356]
	xor	ecx, eax
	call	@__security_check_cookie@4
	mov	eax, OFFSET __ehfuncinfo$??$?6U?$char_traits@D@std@@@std@@YAAAV?$basic_ostream@DU?$char_traits@D@std@@@0@AAV10@PBD@Z
	jmp	___CxxFrameHandler3
text$x	ENDS
??$?6U?$char_traits@D@std@@@std@@YAAAV?$basic_ostream@DU?$char_traits@D@std@@@0@AAV10@PBD@Z ENDP ; std::operator<<<std::char_traits<char> >
; Function compile flags: /Odtp /RTCsu /ZI
; File c:\program files (x86)\microsoft visual studio 14.0\vc\include\ostream
;	COMDAT ??$?6U?$char_traits@D@std@@@std@@YAAAV?$basic_ostream@DU?$char_traits@D@std@@@0@AAV10@D@Z
_TEXT	SEGMENT
tv128 = -352						; size = 8
tv279 = -348						; size = 4
tv274 = -348						; size = 4
tv313 = -344						; size = 8
tv278 = -344						; size = 4
tv276 = -344						; size = 4
tv273 = -344						; size = 4
tv275 = -340						; size = 4
tv65 = -340						; size = 4
tv277 = -337						; size = 1
tv272 = -337						; size = 1
$T2 = -332						; size = 4
$T3 = -320						; size = 4
$T4 = -308						; size = 4
$T5 = -296						; size = 4
$T6 = -284						; size = 4
$T7 = -272						; size = 4
$T8 = -260						; size = 4
__Pad$9 = -56						; size = 8
__Ok$ = -40						; size = 8
__State$ = -24						; size = 4
__$EHRec$ = -16						; size = 16
__Ostr$ = 8						; size = 4
__Ch$ = 12						; size = 1
??$?6U?$char_traits@D@std@@@std@@YAAAV?$basic_ostream@DU?$char_traits@D@std@@@0@AAV10@D@Z PROC ; std::operator<<<std::char_traits<char> >, COMDAT

; 826  : 	{	// insert a char into char stream

	push	ebp
	mov	ebp, esp
	push	-1
	push	__ehhandler$??$?6U?$char_traits@D@std@@@std@@YAAAV?$basic_ostream@DU?$char_traits@D@std@@@0@AAV10@D@Z
	mov	eax, DWORD PTR fs:0
	push	eax
	push	ecx
	sub	esp, 336				; 00000150H
	push	ebx
	push	esi
	push	edi
	lea	edi, DWORD PTR [ebp-352]
	mov	ecx, 84					; 00000054H
	mov	eax, -858993460				; ccccccccH
	rep stosd
	mov	eax, DWORD PTR ___security_cookie
	xor	eax, ebp
	push	eax
	lea	eax, DWORD PTR __$EHRec$[ebp+4]
	mov	DWORD PTR fs:0, eax
	mov	DWORD PTR __$EHRec$[ebp], esp

; 827  : 	typedef char _Elem;
; 828  : 	typedef basic_ostream<_Elem, _Traits> _Myos;
; 829  : 	ios_base::iostate _State = ios_base::goodbit;

	mov	DWORD PTR __State$[ebp], 0

; 830  : 	const typename _Myos::sentry _Ok(_Ostr);

	mov	eax, DWORD PTR __Ostr$[ebp]
	push	eax
	lea	ecx, DWORD PTR __Ok$[ebp]
	call	??0sentry@?$basic_ostream@DU?$char_traits@D@std@@@std@@QAE@AAV12@@Z ; std::basic_ostream<char,std::char_traits<char> >::sentry::sentry
	mov	DWORD PTR __$EHRec$[ebp+12], 0

; 831  : 
; 832  : 	if (_Ok)

	lea	ecx, DWORD PTR __Ok$[ebp]
	call	??Bsentry@?$basic_ostream@DU?$char_traits@D@std@@@std@@QBE_NXZ ; std::basic_ostream<char,std::char_traits<char> >::sentry::operator bool
	movzx	eax, al
	test	eax, eax
	je	$LN8@operator

; 833  : 		{	// state okay, insert
; 834  : 		streamsize _Pad = _Ostr.width() <= 1 ? 0 : _Ostr.width() - 1;

	mov	eax, DWORD PTR __Ostr$[ebp]
	mov	ecx, DWORD PTR [eax]
	mov	edx, DWORD PTR __Ostr$[ebp]
	add	edx, DWORD PTR [ecx+4]
	mov	esi, esp
	mov	ecx, edx
	call	DWORD PTR __imp_?width@ios_base@std@@QBE_JXZ
	cmp	esi, esp
	call	__RTC_CheckEsp
	mov	DWORD PTR tv313[ebp], eax
	mov	DWORD PTR tv313[ebp+4], edx
	cmp	DWORD PTR tv313[ebp+4], 0
	jg	SHORT $LN15@operator
	jl	SHORT $LN22@operator
	cmp	DWORD PTR tv313[ebp], 1
	ja	SHORT $LN15@operator
$LN22@operator:
	xorps	xmm0, xmm0
	movlpd	QWORD PTR tv128[ebp], xmm0
	jmp	SHORT $LN16@operator
$LN15@operator:
	mov	eax, DWORD PTR __Ostr$[ebp]
	mov	ecx, DWORD PTR [eax]
	mov	edx, DWORD PTR __Ostr$[ebp]
	add	edx, DWORD PTR [ecx+4]
	mov	esi, esp
	mov	ecx, edx
	call	DWORD PTR __imp_?width@ios_base@std@@QBE_JXZ
	cmp	esi, esp
	call	__RTC_CheckEsp
	sub	eax, 1
	sbb	edx, 0
	mov	DWORD PTR tv128[ebp], eax
	mov	DWORD PTR tv128[ebp+4], edx
$LN16@operator:
	mov	eax, DWORD PTR tv128[ebp]
	mov	DWORD PTR __Pad$9[ebp], eax
	mov	ecx, DWORD PTR tv128[ebp+4]
	mov	DWORD PTR __Pad$9[ebp+4], ecx

; 835  : 
; 836  : 		_TRY_IO_BEGIN

	mov	BYTE PTR __$EHRec$[ebp+12], 1

; 837  : 		if ((_Ostr.flags() & ios_base::adjustfield) != ios_base::left)

	mov	eax, DWORD PTR __Ostr$[ebp]
	mov	ecx, DWORD PTR [eax]
	mov	edx, DWORD PTR __Ostr$[ebp]
	add	edx, DWORD PTR [ecx+4]
	mov	esi, esp
	mov	ecx, edx
	call	DWORD PTR __imp_?flags@ios_base@std@@QBEHXZ
	cmp	esi, esp
	call	__RTC_CheckEsp
	mov	DWORD PTR tv65[ebp], eax
	mov	eax, DWORD PTR tv65[ebp]
	and	eax, 448				; 000001c0H
	cmp	eax, 64					; 00000040H
	je	$LN10@operator

; 838  : 			for (; _State == ios_base::goodbit && 0 < _Pad;

	jmp	SHORT $LN4@operator
$LN2@operator:

; 839  : 				--_Pad)	// pad on left

	mov	eax, DWORD PTR __Pad$9[ebp]
	sub	eax, 1
	mov	ecx, DWORD PTR __Pad$9[ebp+4]
	sbb	ecx, 0
	mov	DWORD PTR __Pad$9[ebp], eax
	mov	DWORD PTR __Pad$9[ebp+4], ecx
$LN4@operator:

; 838  : 			for (; _State == ios_base::goodbit && 0 < _Pad;

	cmp	DWORD PTR __State$[ebp], 0
	jne	$LN10@operator
	cmp	DWORD PTR __Pad$9[ebp+4], 0
	jl	$LN10@operator
	jg	SHORT $LN23@operator
	cmp	DWORD PTR __Pad$9[ebp], 0
	jbe	$LN10@operator
$LN23@operator:

; 840  : 				if (_Traits::eq_int_type(_Traits::eof(),

	mov	eax, DWORD PTR __Ostr$[ebp]
	mov	ecx, DWORD PTR [eax]
	mov	edx, DWORD PTR __Ostr$[ebp]
	add	edx, DWORD PTR [ecx+4]
	mov	esi, esp
	mov	ecx, edx
	call	DWORD PTR __imp_?fill@?$basic_ios@DU?$char_traits@D@std@@@std@@QBEDXZ
	cmp	esi, esp
	call	__RTC_CheckEsp
	mov	BYTE PTR tv272[ebp], al
	mov	eax, DWORD PTR __Ostr$[ebp]
	mov	ecx, DWORD PTR [eax]
	mov	edx, DWORD PTR __Ostr$[ebp]
	add	edx, DWORD PTR [ecx+4]
	mov	esi, esp
	mov	ecx, edx
	call	DWORD PTR __imp_?rdbuf@?$basic_ios@DU?$char_traits@D@std@@@std@@QBEPAV?$basic_streambuf@DU?$char_traits@D@std@@@2@XZ
	cmp	esi, esp
	call	__RTC_CheckEsp
	mov	DWORD PTR tv273[ebp], eax
	mov	esi, esp
	movzx	eax, BYTE PTR tv272[ebp]
	push	eax
	mov	ecx, DWORD PTR tv273[ebp]
	call	DWORD PTR __imp_?sputc@?$basic_streambuf@DU?$char_traits@D@std@@@std@@QAEHD@Z
	cmp	esi, esp
	call	__RTC_CheckEsp
	mov	DWORD PTR tv274[ebp], eax
	mov	ecx, DWORD PTR tv274[ebp]
	mov	DWORD PTR $T8[ebp], ecx
	call	?eof@?$char_traits@D@std@@SAHXZ		; std::char_traits<char>::eof
	mov	DWORD PTR $T7[ebp], eax
	lea	edx, DWORD PTR $T8[ebp]
	push	edx
	lea	eax, DWORD PTR $T7[ebp]
	push	eax
	call	?eq_int_type@?$char_traits@D@std@@SA_NABH0@Z ; std::char_traits<char>::eq_int_type
	add	esp, 8
	movzx	ecx, al
	test	ecx, ecx
	je	SHORT $LN11@operator

; 841  : 					_Ostr.rdbuf()->sputc(_Ostr.fill())))
; 842  : 					_State |= ios_base::badbit;

	mov	eax, DWORD PTR __State$[ebp]
	or	eax, 4
	mov	DWORD PTR __State$[ebp], eax
$LN11@operator:

; 843  : 
; 844  : 		if (_State == ios_base::goodbit

	jmp	$LN2@operator
$LN10@operator:

; 845  : 			&& _Traits::eq_int_type(_Traits::eof(),

	cmp	DWORD PTR __State$[ebp], 0
	jne	SHORT $LN12@operator
	mov	eax, DWORD PTR __Ostr$[ebp]
	mov	ecx, DWORD PTR [eax]
	mov	edx, DWORD PTR __Ostr$[ebp]
	add	edx, DWORD PTR [ecx+4]
	mov	esi, esp
	mov	ecx, edx
	call	DWORD PTR __imp_?rdbuf@?$basic_ios@DU?$char_traits@D@std@@@std@@QBEPAV?$basic_streambuf@DU?$char_traits@D@std@@@2@XZ
	cmp	esi, esp
	call	__RTC_CheckEsp
	mov	DWORD PTR tv275[ebp], eax
	mov	esi, esp
	movzx	eax, BYTE PTR __Ch$[ebp]
	push	eax
	mov	ecx, DWORD PTR tv275[ebp]
	call	DWORD PTR __imp_?sputc@?$basic_streambuf@DU?$char_traits@D@std@@@std@@QAEHD@Z
	cmp	esi, esp
	call	__RTC_CheckEsp
	mov	DWORD PTR tv276[ebp], eax
	mov	ecx, DWORD PTR tv276[ebp]
	mov	DWORD PTR $T6[ebp], ecx
	call	?eof@?$char_traits@D@std@@SAHXZ		; std::char_traits<char>::eof
	mov	DWORD PTR $T5[ebp], eax
	lea	edx, DWORD PTR $T6[ebp]
	push	edx
	lea	eax, DWORD PTR $T5[ebp]
	push	eax
	call	?eq_int_type@?$char_traits@D@std@@SA_NABH0@Z ; std::char_traits<char>::eq_int_type
	add	esp, 8
	movzx	ecx, al
	test	ecx, ecx
	je	SHORT $LN12@operator

; 846  : 				_Ostr.rdbuf()->sputc(_Ch)))
; 847  : 			_State |= ios_base::badbit;

	mov	eax, DWORD PTR __State$[ebp]
	or	eax, 4
	mov	DWORD PTR __State$[ebp], eax
$LN12@operator:

; 848  : 
; 849  : 		for (; _State == ios_base::goodbit && 0 < _Pad;

	jmp	SHORT $LN7@operator
$LN5@operator:

; 850  : 			--_Pad)	// pad on right

	mov	eax, DWORD PTR __Pad$9[ebp]
	sub	eax, 1
	mov	ecx, DWORD PTR __Pad$9[ebp+4]
	sbb	ecx, 0
	mov	DWORD PTR __Pad$9[ebp], eax
	mov	DWORD PTR __Pad$9[ebp+4], ecx
$LN7@operator:

; 848  : 
; 849  : 		for (; _State == ios_base::goodbit && 0 < _Pad;

	cmp	DWORD PTR __State$[ebp], 0
	jne	$LN6@operator
	cmp	DWORD PTR __Pad$9[ebp+4], 0
	jl	$LN6@operator
	jg	SHORT $LN24@operator
	cmp	DWORD PTR __Pad$9[ebp], 0
	jbe	$LN6@operator
$LN24@operator:

; 851  : 			if (_Traits::eq_int_type(_Traits::eof(),

	mov	eax, DWORD PTR __Ostr$[ebp]
	mov	ecx, DWORD PTR [eax]
	mov	edx, DWORD PTR __Ostr$[ebp]
	add	edx, DWORD PTR [ecx+4]
	mov	esi, esp
	mov	ecx, edx
	call	DWORD PTR __imp_?fill@?$basic_ios@DU?$char_traits@D@std@@@std@@QBEDXZ
	cmp	esi, esp
	call	__RTC_CheckEsp
	mov	BYTE PTR tv277[ebp], al
	mov	eax, DWORD PTR __Ostr$[ebp]
	mov	ecx, DWORD PTR [eax]
	mov	edx, DWORD PTR __Ostr$[ebp]
	add	edx, DWORD PTR [ecx+4]
	mov	esi, esp
	mov	ecx, edx
	call	DWORD PTR __imp_?rdbuf@?$basic_ios@DU?$char_traits@D@std@@@std@@QBEPAV?$basic_streambuf@DU?$char_traits@D@std@@@2@XZ
	cmp	esi, esp
	call	__RTC_CheckEsp
	mov	DWORD PTR tv278[ebp], eax
	mov	esi, esp
	movzx	eax, BYTE PTR tv277[ebp]
	push	eax
	mov	ecx, DWORD PTR tv278[ebp]
	call	DWORD PTR __imp_?sputc@?$basic_streambuf@DU?$char_traits@D@std@@@std@@QAEHD@Z
	cmp	esi, esp
	call	__RTC_CheckEsp
	mov	DWORD PTR tv279[ebp], eax
	mov	ecx, DWORD PTR tv279[ebp]
	mov	DWORD PTR $T4[ebp], ecx
	call	?eof@?$char_traits@D@std@@SAHXZ		; std::char_traits<char>::eof
	mov	DWORD PTR $T3[ebp], eax
	lea	edx, DWORD PTR $T4[ebp]
	push	edx
	lea	eax, DWORD PTR $T3[ebp]
	push	eax
	call	?eq_int_type@?$char_traits@D@std@@SA_NABH0@Z ; std::char_traits<char>::eq_int_type
	add	esp, 8
	movzx	ecx, al
	test	ecx, ecx
	je	SHORT $LN13@operator

; 852  : 				_Ostr.rdbuf()->sputc(_Ostr.fill())))
; 853  : 				_State |= ios_base::badbit;

	mov	eax, DWORD PTR __State$[ebp]
	or	eax, 4
	mov	DWORD PTR __State$[ebp], eax
$LN13@operator:

; 854  : 		_CATCH_IO_(_Ostr)

	jmp	$LN5@operator
$LN6@operator:
	jmp	SHORT $LN17@operator
__catch$??$?6U?$char_traits@D@std@@@std@@YAAAV?$basic_ostream@DU?$char_traits@D@std@@@0@AAV10@D@Z$0:
	mov	esi, esp
	push	1
	push	4
	mov	eax, DWORD PTR __Ostr$[ebp]
	mov	ecx, DWORD PTR [eax]
	mov	edx, DWORD PTR __Ostr$[ebp]
	add	edx, DWORD PTR [ecx+4]
	mov	ecx, edx
	call	DWORD PTR __imp_?setstate@?$basic_ios@DU?$char_traits@D@std@@@std@@QAEXH_N@Z
	cmp	esi, esp
	call	__RTC_CheckEsp
	mov	eax, $LN21@operator
	ret	0
$LN17@operator:
	mov	DWORD PTR __$EHRec$[ebp+12], 0
	jmp	SHORT $LN8@operator
$LN21@operator:
	mov	DWORD PTR __$EHRec$[ebp+12], 0
$LN8@operator:

; 855  : 		}
; 856  : 
; 857  : 	_Ostr.width(0);

	mov	esi, esp
	push	0
	push	0
	mov	eax, DWORD PTR __Ostr$[ebp]
	mov	ecx, DWORD PTR [eax]
	mov	edx, DWORD PTR __Ostr$[ebp]
	add	edx, DWORD PTR [ecx+4]
	mov	ecx, edx
	call	DWORD PTR __imp_?width@ios_base@std@@QAE_J_J@Z
	cmp	esi, esp
	call	__RTC_CheckEsp

; 858  : 	_Ostr.setstate(_State);

	mov	esi, esp
	push	0
	mov	eax, DWORD PTR __State$[ebp]
	push	eax
	mov	ecx, DWORD PTR __Ostr$[ebp]
	mov	edx, DWORD PTR [ecx]
	mov	ecx, DWORD PTR __Ostr$[ebp]
	add	ecx, DWORD PTR [edx+4]
	call	DWORD PTR __imp_?setstate@?$basic_ios@DU?$char_traits@D@std@@@std@@QAEXH_N@Z
	cmp	esi, esp
	call	__RTC_CheckEsp

; 859  : 	return (_Ostr);

	mov	eax, DWORD PTR __Ostr$[ebp]
	mov	DWORD PTR $T2[ebp], eax
	mov	DWORD PTR __$EHRec$[ebp+12], -1
	lea	ecx, DWORD PTR __Ok$[ebp]
	call	??1sentry@?$basic_ostream@DU?$char_traits@D@std@@@std@@QAE@XZ ; std::basic_ostream<char,std::char_traits<char> >::sentry::~sentry
	mov	eax, DWORD PTR $T2[ebp]

; 860  : 	}

	push	edx
	mov	ecx, ebp
	push	eax
	lea	edx, DWORD PTR $LN28@operator
	call	@_RTC_CheckStackVars@8
	pop	eax
	pop	edx
	mov	ecx, DWORD PTR __$EHRec$[ebp+4]
	mov	DWORD PTR fs:0, ecx
	pop	ecx
	pop	edi
	pop	esi
	pop	ebx
	add	esp, 352				; 00000160H
	cmp	ebp, esp
	call	__RTC_CheckEsp
	mov	esp, ebp
	pop	ebp
	ret	0
	npad	2
$LN28@operator:
	DD	1
	DD	$LN27@operator
$LN27@operator:
	DD	-40					; ffffffd8H
	DD	8
	DD	$LN25@operator
$LN25@operator:
	DB	95					; 0000005fH
	DB	79					; 0000004fH
	DB	107					; 0000006bH
	DB	0
_TEXT	ENDS
;	COMDAT text$x
text$x	SEGMENT
__unwindfunclet$??$?6U?$char_traits@D@std@@@std@@YAAAV?$basic_ostream@DU?$char_traits@D@std@@@0@AAV10@D@Z$2:
	lea	ecx, DWORD PTR __Ok$[ebp]
	jmp	??1sentry@?$basic_ostream@DU?$char_traits@D@std@@@std@@QAE@XZ ; std::basic_ostream<char,std::char_traits<char> >::sentry::~sentry
__ehhandler$??$?6U?$char_traits@D@std@@@std@@YAAAV?$basic_ostream@DU?$char_traits@D@std@@@0@AAV10@D@Z:
	mov	edx, DWORD PTR [esp+8]
	lea	eax, DWORD PTR [edx+12]
	mov	ecx, DWORD PTR [edx-356]
	xor	ecx, eax
	call	@__security_check_cookie@4
	mov	eax, OFFSET __ehfuncinfo$??$?6U?$char_traits@D@std@@@std@@YAAAV?$basic_ostream@DU?$char_traits@D@std@@@0@AAV10@D@Z
	jmp	___CxxFrameHandler3
text$x	ENDS
??$?6U?$char_traits@D@std@@@std@@YAAAV?$basic_ostream@DU?$char_traits@D@std@@@0@AAV10@D@Z ENDP ; std::operator<<<std::char_traits<char> >
; Function compile flags: /Odtp /RTCsu /ZI
; File c:\program files (x86)\microsoft visual studio 14.0\vc\include\algorithm
;	COMDAT ??$sort@V?$_Vector_iterator@V?$_Vector_val@U?$_Simple_types@UOption@CCustomMenu@@@std@@@std@@@std@@@std@@YAXV?$_Vector_iterator@V?$_Vector_val@U?$_Simple_types@UOption@CCustomMenu@@@std@@@std@@@0@0@Z
_TEXT	SEGMENT
tv133 = -252						; size = 4
tv130 = -248						; size = 4
tv136 = -244						; size = 4
$T2 = -236						; size = 4
$T3 = -224						; size = 4
$T4 = -209						; size = 1
__$EHRec$ = -12						; size = 12
__First$ = 8						; size = 12
__Last$ = 20						; size = 12
??$sort@V?$_Vector_iterator@V?$_Vector_val@U?$_Simple_types@UOption@CCustomMenu@@@std@@@std@@@std@@@std@@YAXV?$_Vector_iterator@V?$_Vector_val@U?$_Simple_types@UOption@CCustomMenu@@@std@@@std@@@0@0@Z PROC ; std::sort<std::_Vector_iterator<std::_Vector_val<std::_Simple_types<CCustomMenu::Option> > > >, COMDAT

; 2790 : 	{	// order [_First, _Last), using operator<

	push	ebp
	mov	ebp, esp
	push	-1
	push	__ehhandler$??$sort@V?$_Vector_iterator@V?$_Vector_val@U?$_Simple_types@UOption@CCustomMenu@@@std@@@std@@@std@@@std@@YAXV?$_Vector_iterator@V?$_Vector_val@U?$_Simple_types@UOption@CCustomMenu@@@std@@@std@@@0@0@Z
	mov	eax, DWORD PTR fs:0
	push	eax
	sub	esp, 240				; 000000f0H
	push	ebx
	push	esi
	push	edi
	lea	edi, DWORD PTR [ebp-252]
	mov	ecx, 60					; 0000003cH
	mov	eax, -858993460				; ccccccccH
	rep stosd
	mov	eax, DWORD PTR ___security_cookie
	xor	eax, ebp
	push	eax
	lea	eax, DWORD PTR __$EHRec$[ebp]
	mov	DWORD PTR fs:0, eax
	mov	DWORD PTR __$EHRec$[ebp+8], 1

; 2791 : 	_STD sort(_First, _Last, less<>());

	movzx	eax, BYTE PTR $T4[ebp]
	push	eax
	sub	esp, 12					; 0000000cH
	mov	ecx, esp
	mov	DWORD PTR $T3[ebp], esp
	lea	edx, DWORD PTR __Last$[ebp]
	push	edx
	call	??0?$_Vector_iterator@V?$_Vector_val@U?$_Simple_types@UOption@CCustomMenu@@@std@@@std@@@std@@QAE@ABV01@@Z
	mov	DWORD PTR tv136[ebp], eax
	mov	eax, DWORD PTR tv136[ebp]
	mov	DWORD PTR tv130[ebp], eax
	mov	BYTE PTR __$EHRec$[ebp+8], 2
	sub	esp, 12					; 0000000cH
	mov	ecx, esp
	mov	DWORD PTR $T2[ebp], esp
	lea	edx, DWORD PTR __First$[ebp]
	push	edx
	call	??0?$_Vector_iterator@V?$_Vector_val@U?$_Simple_types@UOption@CCustomMenu@@@std@@@std@@@std@@QAE@ABV01@@Z
	mov	DWORD PTR tv133[ebp], eax
	mov	BYTE PTR __$EHRec$[ebp+8], 1
	call	??$sort@V?$_Vector_iterator@V?$_Vector_val@U?$_Simple_types@UOption@CCustomMenu@@@std@@@std@@@std@@U?$less@X@2@@std@@YAXV?$_Vector_iterator@V?$_Vector_val@U?$_Simple_types@UOption@CCustomMenu@@@std@@@std@@@0@0U?$less@X@0@@Z ; std::sort<std::_Vector_iterator<std::_Vector_val<std::_Simple_types<CCustomMenu::Option> > >,std::less<void> >
	add	esp, 28					; 0000001cH

; 2792 : 	}

	mov	BYTE PTR __$EHRec$[ebp+8], 0
	lea	ecx, DWORD PTR __First$[ebp]
	call	??1?$_Vector_iterator@V?$_Vector_val@U?$_Simple_types@UOption@CCustomMenu@@@std@@@std@@@std@@QAE@XZ
	mov	DWORD PTR __$EHRec$[ebp+8], -1
	lea	ecx, DWORD PTR __Last$[ebp]
	call	??1?$_Vector_iterator@V?$_Vector_val@U?$_Simple_types@UOption@CCustomMenu@@@std@@@std@@@std@@QAE@XZ
	mov	ecx, DWORD PTR __$EHRec$[ebp]
	mov	DWORD PTR fs:0, ecx
	pop	ecx
	pop	edi
	pop	esi
	pop	ebx
	add	esp, 252				; 000000fcH
	cmp	ebp, esp
	call	__RTC_CheckEsp
	mov	esp, ebp
	pop	ebp
	ret	0
_TEXT	ENDS
;	COMDAT text$x
text$x	SEGMENT
__unwindfunclet$??$sort@V?$_Vector_iterator@V?$_Vector_val@U?$_Simple_types@UOption@CCustomMenu@@@std@@@std@@@std@@@std@@YAXV?$_Vector_iterator@V?$_Vector_val@U?$_Simple_types@UOption@CCustomMenu@@@std@@@std@@@0@0@Z$0:
	lea	ecx, DWORD PTR __Last$[ebp]
	jmp	??1?$_Vector_iterator@V?$_Vector_val@U?$_Simple_types@UOption@CCustomMenu@@@std@@@std@@@std@@QAE@XZ
__unwindfunclet$??$sort@V?$_Vector_iterator@V?$_Vector_val@U?$_Simple_types@UOption@CCustomMenu@@@std@@@std@@@std@@@std@@YAXV?$_Vector_iterator@V?$_Vector_val@U?$_Simple_types@UOption@CCustomMenu@@@std@@@std@@@0@0@Z$1:
	lea	ecx, DWORD PTR __First$[ebp]
	jmp	??1?$_Vector_iterator@V?$_Vector_val@U?$_Simple_types@UOption@CCustomMenu@@@std@@@std@@@std@@QAE@XZ
__unwindfunclet$??$sort@V?$_Vector_iterator@V?$_Vector_val@U?$_Simple_types@UOption@CCustomMenu@@@std@@@std@@@std@@@std@@YAXV?$_Vector_iterator@V?$_Vector_val@U?$_Simple_types@UOption@CCustomMenu@@@std@@@std@@@0@0@Z$2:
	mov	ecx, DWORD PTR $T3[ebp]
	jmp	??1?$_Vector_iterator@V?$_Vector_val@U?$_Simple_types@UOption@CCustomMenu@@@std@@@std@@@std@@QAE@XZ
__ehhandler$??$sort@V?$_Vector_iterator@V?$_Vector_val@U?$_Simple_types@UOption@CCustomMenu@@@std@@@std@@@std@@@std@@YAXV?$_Vector_iterator@V?$_Vector_val@U?$_Simple_types@UOption@CCustomMenu@@@std@@@std@@@0@0@Z:
	mov	edx, DWORD PTR [esp+8]
	lea	eax, DWORD PTR [edx+12]
	mov	ecx, DWORD PTR [edx-256]
	xor	ecx, eax
	call	@__security_check_cookie@4
	mov	eax, OFFSET __ehfuncinfo$??$sort@V?$_Vector_iterator@V?$_Vector_val@U?$_Simple_types@UOption@CCustomMenu@@@std@@@std@@@std@@@std@@YAXV?$_Vector_iterator@V?$_Vector_val@U?$_Simple_types@UOption@CCustomMenu@@@std@@@std@@@0@0@Z
	jmp	___CxxFrameHandler3
text$x	ENDS
??$sort@V?$_Vector_iterator@V?$_Vector_val@U?$_Simple_types@UOption@CCustomMenu@@@std@@@std@@@std@@@std@@YAXV?$_Vector_iterator@V?$_Vector_val@U?$_Simple_types@UOption@CCustomMenu@@@std@@@std@@@0@0@Z ENDP ; std::sort<std::_Vector_iterator<std::_Vector_val<std::_Simple_types<CCustomMenu::Option> > > >
; Function compile flags: /Odtp /RTCsu /ZI
; File c:\program files (x86)\microsoft visual studio 14.0\vc\include\xutility
;	COMDAT ??$find@V?$_Vector_iterator@V?$_Vector_val@U?$_Simple_types@UOption@CCustomMenu@@@std@@@std@@@std@@D@std@@YA?AV?$_Vector_iterator@V?$_Vector_val@U?$_Simple_types@UOption@CCustomMenu@@@std@@@std@@@0@V10@0ABD@Z
_TEXT	SEGMENT
tv130 = -284						; size = 4
tv184 = -280						; size = 4
tv183 = -276						; size = 4
tv176 = -276						; size = 4
tv180 = -272						; size = 4
tv173 = -272						; size = 4
tv179 = -268						; size = 4
tv128 = -268						; size = 4
$T2 = -260						; size = 4
$T3 = -248						; size = 4
$T4 = -236						; size = 4
$T5 = -224						; size = 4
$T6 = -212						; size = 4
__$EHRec$ = -12						; size = 12
___$ReturnUdt$ = 8					; size = 4
__First$ = 12						; size = 12
__Last$ = 24						; size = 12
__Val$ = 36						; size = 4
??$find@V?$_Vector_iterator@V?$_Vector_val@U?$_Simple_types@UOption@CCustomMenu@@@std@@@std@@@std@@D@std@@YA?AV?$_Vector_iterator@V?$_Vector_val@U?$_Simple_types@UOption@CCustomMenu@@@std@@@std@@@0@V10@0ABD@Z PROC ; std::find<std::_Vector_iterator<std::_Vector_val<std::_Simple_types<CCustomMenu::Option> > >,char>, COMDAT

; 3283 : 	{	// find first matching _Val

	push	ebp
	mov	ebp, esp
	push	-1
	push	__ehhandler$??$find@V?$_Vector_iterator@V?$_Vector_val@U?$_Simple_types@UOption@CCustomMenu@@@std@@@std@@@std@@D@std@@YA?AV?$_Vector_iterator@V?$_Vector_val@U?$_Simple_types@UOption@CCustomMenu@@@std@@@std@@@0@V10@0ABD@Z
	mov	eax, DWORD PTR fs:0
	push	eax
	sub	esp, 272				; 00000110H
	push	ebx
	push	esi
	push	edi
	lea	edi, DWORD PTR [ebp-284]
	mov	ecx, 68					; 00000044H
	mov	eax, -858993460				; ccccccccH
	rep stosd
	mov	eax, DWORD PTR ___security_cookie
	xor	eax, ebp
	push	eax
	lea	eax, DWORD PTR __$EHRec$[ebp]
	mov	DWORD PTR fs:0, eax
	mov	DWORD PTR $T2[ebp], 0
	mov	DWORD PTR __$EHRec$[ebp+8], 1

; 3284 : 	_DEBUG_RANGE(_First, _Last);

	push	3284					; 00000cd4H
	push	OFFSET ??_C@_1JA@MHADJNIL@?$AAc?$AA?3?$AA?2?$AAp?$AAr?$AAo?$AAg?$AAr?$AAa?$AAm?$AA?5?$AAf?$AAi?$AAl?$AAe?$AAs?$AA?5?$AA?$CI?$AAx?$AA8?$AA6?$AA?$CJ?$AA?2?$AAm?$AAi?$AAc?$AAr?$AAo?$AAs?$AAo?$AAf?$AAt@
	sub	esp, 12					; 0000000cH
	mov	ecx, esp
	mov	DWORD PTR $T6[ebp], esp
	lea	eax, DWORD PTR __Last$[ebp]
	push	eax
	call	??0?$_Vector_iterator@V?$_Vector_val@U?$_Simple_types@UOption@CCustomMenu@@@std@@@std@@@std@@QAE@ABV01@@Z
	mov	DWORD PTR tv128[ebp], eax
	mov	ecx, DWORD PTR tv128[ebp]
	mov	DWORD PTR tv173[ebp], ecx
	mov	BYTE PTR __$EHRec$[ebp+8], 2
	sub	esp, 12					; 0000000cH
	mov	ecx, esp
	mov	DWORD PTR $T5[ebp], esp
	lea	edx, DWORD PTR __First$[ebp]
	push	edx
	call	??0?$_Vector_iterator@V?$_Vector_val@U?$_Simple_types@UOption@CCustomMenu@@@std@@@std@@@std@@QAE@ABV01@@Z
	mov	DWORD PTR tv176[ebp], eax
	mov	BYTE PTR __$EHRec$[ebp+8], 1
	call	??$_Debug_range@V?$_Vector_iterator@V?$_Vector_val@U?$_Simple_types@UOption@CCustomMenu@@@std@@@std@@@std@@@std@@YAXV?$_Vector_iterator@V?$_Vector_val@U?$_Simple_types@UOption@CCustomMenu@@@std@@@std@@@0@0PB_WI@Z ; std::_Debug_range<std::_Vector_iterator<std::_Vector_val<std::_Simple_types<CCustomMenu::Option> > > >
	add	esp, 32					; 00000020H

; 3285 : 	return (_Rechecked(_First,

	mov	eax, DWORD PTR __Val$[ebp]
	push	eax
	sub	esp, 12					; 0000000cH
	mov	ecx, esp
	mov	DWORD PTR $T4[ebp], esp
	lea	edx, DWORD PTR __Last$[ebp]
	push	edx
	call	??0?$_Vector_iterator@V?$_Vector_val@U?$_Simple_types@UOption@CCustomMenu@@@std@@@std@@@std@@QAE@ABV01@@Z
	mov	DWORD PTR tv179[ebp], eax
	call	??$_Unchecked@V?$_Vector_val@U?$_Simple_types@UOption@CCustomMenu@@@std@@@std@@@std@@YAPAUOption@CCustomMenu@@V?$_Vector_iterator@V?$_Vector_val@U?$_Simple_types@UOption@CCustomMenu@@@std@@@std@@@0@@Z ; std::_Unchecked<std::_Vector_val<std::_Simple_types<CCustomMenu::Option> > >
	add	esp, 12					; 0000000cH
	mov	DWORD PTR tv180[ebp], eax
	mov	eax, DWORD PTR tv180[ebp]
	push	eax
	sub	esp, 12					; 0000000cH
	mov	ecx, esp
	mov	DWORD PTR $T3[ebp], esp
	lea	edx, DWORD PTR __First$[ebp]
	push	edx
	call	??0?$_Vector_iterator@V?$_Vector_val@U?$_Simple_types@UOption@CCustomMenu@@@std@@@std@@@std@@QAE@ABV01@@Z
	mov	DWORD PTR tv183[ebp], eax
	call	??$_Unchecked@V?$_Vector_val@U?$_Simple_types@UOption@CCustomMenu@@@std@@@std@@@std@@YAPAUOption@CCustomMenu@@V?$_Vector_iterator@V?$_Vector_val@U?$_Simple_types@UOption@CCustomMenu@@@std@@@std@@@0@@Z ; std::_Unchecked<std::_Vector_val<std::_Simple_types<CCustomMenu::Option> > >
	add	esp, 12					; 0000000cH
	mov	DWORD PTR tv184[ebp], eax
	mov	eax, DWORD PTR tv184[ebp]
	push	eax
	call	??$_Find_unchecked@PAUOption@CCustomMenu@@D@std@@YAPAUOption@CCustomMenu@@PAU12@0ABD@Z ; std::_Find_unchecked<CCustomMenu::Option *,char>
	add	esp, 12					; 0000000cH
	mov	DWORD PTR tv130[ebp], eax
	mov	ecx, DWORD PTR tv130[ebp]
	push	ecx
	lea	edx, DWORD PTR __First$[ebp]
	push	edx
	call	??$_Rechecked@V?$_Vector_val@U?$_Simple_types@UOption@CCustomMenu@@@std@@@std@@@std@@YAAAV?$_Vector_iterator@V?$_Vector_val@U?$_Simple_types@UOption@CCustomMenu@@@std@@@std@@@0@AAV10@PAUOption@CCustomMenu@@@Z ; std::_Rechecked<std::_Vector_val<std::_Simple_types<CCustomMenu::Option> > >
	add	esp, 8
	push	eax
	mov	ecx, DWORD PTR ___$ReturnUdt$[ebp]
	call	??0?$_Vector_iterator@V?$_Vector_val@U?$_Simple_types@UOption@CCustomMenu@@@std@@@std@@@std@@QAE@ABV01@@Z
	mov	eax, DWORD PTR $T2[ebp]
	or	eax, 1
	mov	DWORD PTR $T2[ebp], eax
	mov	BYTE PTR __$EHRec$[ebp+8], 0
	lea	ecx, DWORD PTR __First$[ebp]
	call	??1?$_Vector_iterator@V?$_Vector_val@U?$_Simple_types@UOption@CCustomMenu@@@std@@@std@@@std@@QAE@XZ
	mov	DWORD PTR __$EHRec$[ebp+8], -1
	lea	ecx, DWORD PTR __Last$[ebp]
	call	??1?$_Vector_iterator@V?$_Vector_val@U?$_Simple_types@UOption@CCustomMenu@@@std@@@std@@@std@@QAE@XZ
	mov	eax, DWORD PTR ___$ReturnUdt$[ebp]

; 3286 : 		_Find_unchecked(_Unchecked(_First), _Unchecked(_Last), _Val)));
; 3287 : 	}

	mov	ecx, DWORD PTR __$EHRec$[ebp]
	mov	DWORD PTR fs:0, ecx
	pop	ecx
	pop	edi
	pop	esi
	pop	ebx
	add	esp, 284				; 0000011cH
	cmp	ebp, esp
	call	__RTC_CheckEsp
	mov	esp, ebp
	pop	ebp
	ret	0
_TEXT	ENDS
;	COMDAT text$x
text$x	SEGMENT
__unwindfunclet$??$find@V?$_Vector_iterator@V?$_Vector_val@U?$_Simple_types@UOption@CCustomMenu@@@std@@@std@@@std@@D@std@@YA?AV?$_Vector_iterator@V?$_Vector_val@U?$_Simple_types@UOption@CCustomMenu@@@std@@@std@@@0@V10@0ABD@Z$0:
	lea	ecx, DWORD PTR __Last$[ebp]
	jmp	??1?$_Vector_iterator@V?$_Vector_val@U?$_Simple_types@UOption@CCustomMenu@@@std@@@std@@@std@@QAE@XZ
__unwindfunclet$??$find@V?$_Vector_iterator@V?$_Vector_val@U?$_Simple_types@UOption@CCustomMenu@@@std@@@std@@@std@@D@std@@YA?AV?$_Vector_iterator@V?$_Vector_val@U?$_Simple_types@UOption@CCustomMenu@@@std@@@std@@@0@V10@0ABD@Z$1:
	lea	ecx, DWORD PTR __First$[ebp]
	jmp	??1?$_Vector_iterator@V?$_Vector_val@U?$_Simple_types@UOption@CCustomMenu@@@std@@@std@@@std@@QAE@XZ
__unwindfunclet$??$find@V?$_Vector_iterator@V?$_Vector_val@U?$_Simple_types@UOption@CCustomMenu@@@std@@@std@@@std@@D@std@@YA?AV?$_Vector_iterator@V?$_Vector_val@U?$_Simple_types@UOption@CCustomMenu@@@std@@@std@@@0@V10@0ABD@Z$2:
	mov	ecx, DWORD PTR $T6[ebp]
	jmp	??1?$_Vector_iterator@V?$_Vector_val@U?$_Simple_types@UOption@CCustomMenu@@@std@@@std@@@std@@QAE@XZ
__ehhandler$??$find@V?$_Vector_iterator@V?$_Vector_val@U?$_Simple_types@UOption@CCustomMenu@@@std@@@std@@@std@@D@std@@YA?AV?$_Vector_iterator@V?$_Vector_val@U?$_Simple_types@UOption@CCustomMenu@@@std@@@std@@@0@V10@0ABD@Z:
	mov	edx, DWORD PTR [esp+8]
	lea	eax, DWORD PTR [edx+12]
	mov	ecx, DWORD PTR [edx-288]
	xor	ecx, eax
	call	@__security_check_cookie@4
	mov	eax, OFFSET __ehfuncinfo$??$find@V?$_Vector_iterator@V?$_Vector_val@U?$_Simple_types@UOption@CCustomMenu@@@std@@@std@@@std@@D@std@@YA?AV?$_Vector_iterator@V?$_Vector_val@U?$_Simple_types@UOption@CCustomMenu@@@std@@@std@@@0@V10@0ABD@Z
	jmp	___CxxFrameHandler3
text$x	ENDS
??$find@V?$_Vector_iterator@V?$_Vector_val@U?$_Simple_types@UOption@CCustomMenu@@@std@@@std@@@std@@D@std@@YA?AV?$_Vector_iterator@V?$_Vector_val@U?$_Simple_types@UOption@CCustomMenu@@@std@@@std@@@0@V10@0ABD@Z ENDP ; std::find<std::_Vector_iterator<std::_Vector_val<std::_Simple_types<CCustomMenu::Option> > >,char>
; Function compile flags: /Odtp /RTCsu /ZI
;	COMDAT ??0?$_Vector_iterator@V?$_Vector_val@U?$_Simple_types@UOption@CCustomMenu@@@std@@@std@@@std@@QAE@ABV01@@Z
_TEXT	SEGMENT
_this$ = -8						; size = 4
___that$ = 8						; size = 4
??0?$_Vector_iterator@V?$_Vector_val@U?$_Simple_types@UOption@CCustomMenu@@@std@@@std@@@std@@QAE@ABV01@@Z PROC ; std::_Vector_iterator<std::_Vector_val<std::_Simple_types<CCustomMenu::Option> > >::_Vector_iterator<std::_Vector_val<std::_Simple_types<CCustomMenu::Option> > >, COMDAT
; _this$ = ecx
	push	ebp
	mov	ebp, esp
	sub	esp, 204				; 000000ccH
	push	ebx
	push	esi
	push	edi
	push	ecx
	lea	edi, DWORD PTR [ebp-204]
	mov	ecx, 51					; 00000033H
	mov	eax, -858993460				; ccccccccH
	rep stosd
	pop	ecx
	mov	DWORD PTR _this$[ebp], ecx
	mov	eax, DWORD PTR ___that$[ebp]
	push	eax
	mov	ecx, DWORD PTR _this$[ebp]
	call	??0?$_Vector_const_iterator@V?$_Vector_val@U?$_Simple_types@UOption@CCustomMenu@@@std@@@std@@@std@@QAE@ABV01@@Z
	mov	eax, DWORD PTR _this$[ebp]
	pop	edi
	pop	esi
	pop	ebx
	add	esp, 204				; 000000ccH
	cmp	ebp, esp
	call	__RTC_CheckEsp
	mov	esp, ebp
	pop	ebp
	ret	4
??0?$_Vector_iterator@V?$_Vector_val@U?$_Simple_types@UOption@CCustomMenu@@@std@@@std@@@std@@QAE@ABV01@@Z ENDP ; std::_Vector_iterator<std::_Vector_val<std::_Simple_types<CCustomMenu::Option> > >::_Vector_iterator<std::_Vector_val<std::_Simple_types<CCustomMenu::Option> > >
_TEXT	ENDS
; Function compile flags: /Odtp /RTCsu /ZI
;	COMDAT ??1?$_Vector_iterator@V?$_Vector_val@U?$_Simple_types@UOption@CCustomMenu@@@std@@@std@@@std@@QAE@XZ
_TEXT	SEGMENT
_this$ = -8						; size = 4
??1?$_Vector_iterator@V?$_Vector_val@U?$_Simple_types@UOption@CCustomMenu@@@std@@@std@@@std@@QAE@XZ PROC ; std::_Vector_iterator<std::_Vector_val<std::_Simple_types<CCustomMenu::Option> > >::~_Vector_iterator<std::_Vector_val<std::_Simple_types<CCustomMenu::Option> > >, COMDAT
; _this$ = ecx
	push	ebp
	mov	ebp, esp
	sub	esp, 204				; 000000ccH
	push	ebx
	push	esi
	push	edi
	push	ecx
	lea	edi, DWORD PTR [ebp-204]
	mov	ecx, 51					; 00000033H
	mov	eax, -858993460				; ccccccccH
	rep stosd
	pop	ecx
	mov	DWORD PTR _this$[ebp], ecx
	mov	ecx, DWORD PTR _this$[ebp]
	call	??1?$_Vector_const_iterator@V?$_Vector_val@U?$_Simple_types@UOption@CCustomMenu@@@std@@@std@@@std@@QAE@XZ
	pop	edi
	pop	esi
	pop	ebx
	add	esp, 204				; 000000ccH
	cmp	ebp, esp
	call	__RTC_CheckEsp
	mov	esp, ebp
	pop	ebp
	ret	0
??1?$_Vector_iterator@V?$_Vector_val@U?$_Simple_types@UOption@CCustomMenu@@@std@@@std@@@std@@QAE@XZ ENDP ; std::_Vector_iterator<std::_Vector_val<std::_Simple_types<CCustomMenu::Option> > >::~_Vector_iterator<std::_Vector_val<std::_Simple_types<CCustomMenu::Option> > >
_TEXT	ENDS
; Function compile flags: /Odtp /RTCsu /ZI
; File c:\program files (x86)\microsoft visual studio 14.0\vc\include\vector
;	COMDAT ?_Unchecked@?$_Vector_iterator@V?$_Vector_val@U?$_Simple_types@UOption@CCustomMenu@@@std@@@std@@@std@@QBEPAUOption@CCustomMenu@@XZ
_TEXT	SEGMENT
_this$ = -8						; size = 4
?_Unchecked@?$_Vector_iterator@V?$_Vector_val@U?$_Simple_types@UOption@CCustomMenu@@@std@@@std@@@std@@QBEPAUOption@CCustomMenu@@XZ PROC ; std::_Vector_iterator<std::_Vector_val<std::_Simple_types<CCustomMenu::Option> > >::_Unchecked, COMDAT
; _this$ = ecx

; 325  : 		{	// make an unchecked iterator

	push	ebp
	mov	ebp, esp
	sub	esp, 204				; 000000ccH
	push	ebx
	push	esi
	push	edi
	push	ecx
	lea	edi, DWORD PTR [ebp-204]
	mov	ecx, 51					; 00000033H
	mov	eax, -858993460				; ccccccccH
	rep stosd
	pop	ecx
	mov	DWORD PTR _this$[ebp], ecx

; 326  : 		return (this->_Ptr);

	mov	eax, DWORD PTR _this$[ebp]
	mov	eax, DWORD PTR [eax+8]

; 327  : 		}

	pop	edi
	pop	esi
	pop	ebx
	mov	esp, ebp
	pop	ebp
	ret	0
?_Unchecked@?$_Vector_iterator@V?$_Vector_val@U?$_Simple_types@UOption@CCustomMenu@@@std@@@std@@@std@@QBEPAUOption@CCustomMenu@@XZ ENDP ; std::_Vector_iterator<std::_Vector_val<std::_Simple_types<CCustomMenu::Option> > >::_Unchecked
_TEXT	ENDS
; Function compile flags: /Odtp /RTCsu /ZI
; File c:\program files (x86)\microsoft visual studio 14.0\vc\include\vector
;	COMDAT ?_Rechecked@?$_Vector_iterator@V?$_Vector_val@U?$_Simple_types@UOption@CCustomMenu@@@std@@@std@@@std@@QAEAAV12@PAUOption@CCustomMenu@@@Z
_TEXT	SEGMENT
_this$ = -8						; size = 4
__Right$ = 8						; size = 4
?_Rechecked@?$_Vector_iterator@V?$_Vector_val@U?$_Simple_types@UOption@CCustomMenu@@@std@@@std@@@std@@QAEAAV12@PAUOption@CCustomMenu@@@Z PROC ; std::_Vector_iterator<std::_Vector_val<std::_Simple_types<CCustomMenu::Option> > >::_Rechecked, COMDAT
; _this$ = ecx

; 319  : 		{	// reset from unchecked iterator

	push	ebp
	mov	ebp, esp
	sub	esp, 204				; 000000ccH
	push	ebx
	push	esi
	push	edi
	push	ecx
	lea	edi, DWORD PTR [ebp-204]
	mov	ecx, 51					; 00000033H
	mov	eax, -858993460				; ccccccccH
	rep stosd
	pop	ecx
	mov	DWORD PTR _this$[ebp], ecx

; 320  : 		this->_Ptr = _Right;

	mov	eax, DWORD PTR _this$[ebp]
	mov	ecx, DWORD PTR __Right$[ebp]
	mov	DWORD PTR [eax+8], ecx

; 321  : 		return (*this);

	mov	eax, DWORD PTR _this$[ebp]

; 322  : 		}

	pop	edi
	pop	esi
	pop	ebx
	mov	esp, ebp
	pop	ebp
	ret	4
?_Rechecked@?$_Vector_iterator@V?$_Vector_val@U?$_Simple_types@UOption@CCustomMenu@@@std@@@std@@@std@@QAEAAV12@PAUOption@CCustomMenu@@@Z ENDP ; std::_Vector_iterator<std::_Vector_val<std::_Simple_types<CCustomMenu::Option> > >::_Rechecked
_TEXT	ENDS
; Function compile flags: /Odtp /RTCsu /ZI
; File c:\program files (x86)\microsoft visual studio 14.0\vc\include\vector
;	COMDAT ??0?$_Vector_iterator@V?$_Vector_val@U?$_Simple_types@UOption@CCustomMenu@@@std@@@std@@@std@@QAE@PAUOption@CCustomMenu@@PBU_Container_base12@1@@Z
_TEXT	SEGMENT
_this$ = -8						; size = 4
__Parg$ = 8						; size = 4
__Pvector$ = 12						; size = 4
??0?$_Vector_iterator@V?$_Vector_val@U?$_Simple_types@UOption@CCustomMenu@@@std@@@std@@@std@@QAE@PAUOption@CCustomMenu@@PBU_Container_base12@1@@Z PROC ; std::_Vector_iterator<std::_Vector_val<std::_Simple_types<CCustomMenu::Option> > >::_Vector_iterator<std::_Vector_val<std::_Simple_types<CCustomMenu::Option> > >, COMDAT
; _this$ = ecx

; 313  : 		{	// construct with pointer _Parg

	push	ebp
	mov	ebp, esp
	sub	esp, 204				; 000000ccH
	push	ebx
	push	esi
	push	edi
	push	ecx
	lea	edi, DWORD PTR [ebp-204]
	mov	ecx, 51					; 00000033H
	mov	eax, -858993460				; ccccccccH
	rep stosd
	pop	ecx
	mov	DWORD PTR _this$[ebp], ecx

; 312  : 		: _Mybase(_Parg, _Pvector)

	mov	eax, DWORD PTR __Pvector$[ebp]
	push	eax
	mov	ecx, DWORD PTR __Parg$[ebp]
	push	ecx
	mov	ecx, DWORD PTR _this$[ebp]
	call	??0?$_Vector_const_iterator@V?$_Vector_val@U?$_Simple_types@UOption@CCustomMenu@@@std@@@std@@@std@@QAE@PAUOption@CCustomMenu@@PBU_Container_base12@1@@Z ; std::_Vector_const_iterator<std::_Vector_val<std::_Simple_types<CCustomMenu::Option> > >::_Vector_const_iterator<std::_Vector_val<std::_Simple_types<CCustomMenu::Option> > >

; 314  : 		}

	mov	eax, DWORD PTR _this$[ebp]
	pop	edi
	pop	esi
	pop	ebx
	add	esp, 204				; 000000ccH
	cmp	ebp, esp
	call	__RTC_CheckEsp
	mov	esp, ebp
	pop	ebp
	ret	8
??0?$_Vector_iterator@V?$_Vector_val@U?$_Simple_types@UOption@CCustomMenu@@@std@@@std@@@std@@QAE@PAUOption@CCustomMenu@@PBU_Container_base12@1@@Z ENDP ; std::_Vector_iterator<std::_Vector_val<std::_Simple_types<CCustomMenu::Option> > >::_Vector_iterator<std::_Vector_val<std::_Simple_types<CCustomMenu::Option> > >
_TEXT	ENDS
; Function compile flags: /Odtp /RTCsu /ZI
;	COMDAT ??0?$_Vector_const_iterator@V?$_Vector_val@U?$_Simple_types@UOption@CCustomMenu@@@std@@@std@@@std@@QAE@$$QAV01@@Z
_TEXT	SEGMENT
_this$ = -8						; size = 4
___that$ = 8						; size = 4
??0?$_Vector_const_iterator@V?$_Vector_val@U?$_Simple_types@UOption@CCustomMenu@@@std@@@std@@@std@@QAE@$$QAV01@@Z PROC ; std::_Vector_const_iterator<std::_Vector_val<std::_Simple_types<CCustomMenu::Option> > >::_Vector_const_iterator<std::_Vector_val<std::_Simple_types<CCustomMenu::Option> > >, COMDAT
; _this$ = ecx
	push	ebp
	mov	ebp, esp
	sub	esp, 204				; 000000ccH
	push	ebx
	push	esi
	push	edi
	push	ecx
	lea	edi, DWORD PTR [ebp-204]
	mov	ecx, 51					; 00000033H
	mov	eax, -858993460				; ccccccccH
	rep stosd
	pop	ecx
	mov	DWORD PTR _this$[ebp], ecx
	mov	eax, DWORD PTR ___that$[ebp]
	push	eax
	mov	ecx, DWORD PTR _this$[ebp]
	call	??0?$_Iterator012@Urandom_access_iterator_tag@std@@UOption@CCustomMenu@@HPBU34@ABU34@U_Iterator_base12@2@@std@@QAE@$$QAU01@@Z
	mov	eax, DWORD PTR _this$[ebp]
	mov	ecx, DWORD PTR ___that$[ebp]
	mov	edx, DWORD PTR [ecx+8]
	mov	DWORD PTR [eax+8], edx
	mov	eax, DWORD PTR _this$[ebp]
	pop	edi
	pop	esi
	pop	ebx
	add	esp, 204				; 000000ccH
	cmp	ebp, esp
	call	__RTC_CheckEsp
	mov	esp, ebp
	pop	ebp
	ret	4
??0?$_Vector_const_iterator@V?$_Vector_val@U?$_Simple_types@UOption@CCustomMenu@@@std@@@std@@@std@@QAE@$$QAV01@@Z ENDP ; std::_Vector_const_iterator<std::_Vector_val<std::_Simple_types<CCustomMenu::Option> > >::_Vector_const_iterator<std::_Vector_val<std::_Simple_types<CCustomMenu::Option> > >
_TEXT	ENDS
; Function compile flags: /Odtp /RTCsu /ZI
;	COMDAT ??0?$_Vector_const_iterator@V?$_Vector_val@U?$_Simple_types@UOption@CCustomMenu@@@std@@@std@@@std@@QAE@ABV01@@Z
_TEXT	SEGMENT
_this$ = -8						; size = 4
___that$ = 8						; size = 4
??0?$_Vector_const_iterator@V?$_Vector_val@U?$_Simple_types@UOption@CCustomMenu@@@std@@@std@@@std@@QAE@ABV01@@Z PROC ; std::_Vector_const_iterator<std::_Vector_val<std::_Simple_types<CCustomMenu::Option> > >::_Vector_const_iterator<std::_Vector_val<std::_Simple_types<CCustomMenu::Option> > >, COMDAT
; _this$ = ecx
	push	ebp
	mov	ebp, esp
	sub	esp, 204				; 000000ccH
	push	ebx
	push	esi
	push	edi
	push	ecx
	lea	edi, DWORD PTR [ebp-204]
	mov	ecx, 51					; 00000033H
	mov	eax, -858993460				; ccccccccH
	rep stosd
	pop	ecx
	mov	DWORD PTR _this$[ebp], ecx
	mov	eax, DWORD PTR ___that$[ebp]
	push	eax
	mov	ecx, DWORD PTR _this$[ebp]
	call	??0?$_Iterator012@Urandom_access_iterator_tag@std@@UOption@CCustomMenu@@HPBU34@ABU34@U_Iterator_base12@2@@std@@QAE@ABU01@@Z
	mov	eax, DWORD PTR _this$[ebp]
	mov	ecx, DWORD PTR ___that$[ebp]
	mov	edx, DWORD PTR [ecx+8]
	mov	DWORD PTR [eax+8], edx
	mov	eax, DWORD PTR _this$[ebp]
	pop	edi
	pop	esi
	pop	ebx
	add	esp, 204				; 000000ccH
	cmp	ebp, esp
	call	__RTC_CheckEsp
	mov	esp, ebp
	pop	ebp
	ret	4
??0?$_Vector_const_iterator@V?$_Vector_val@U?$_Simple_types@UOption@CCustomMenu@@@std@@@std@@@std@@QAE@ABV01@@Z ENDP ; std::_Vector_const_iterator<std::_Vector_val<std::_Simple_types<CCustomMenu::Option> > >::_Vector_const_iterator<std::_Vector_val<std::_Simple_types<CCustomMenu::Option> > >
_TEXT	ENDS
; Function compile flags: /Odtp /RTCsu /ZI
;	COMDAT ??1?$_Vector_const_iterator@V?$_Vector_val@U?$_Simple_types@UOption@CCustomMenu@@@std@@@std@@@std@@QAE@XZ
_TEXT	SEGMENT
_this$ = -8						; size = 4
??1?$_Vector_const_iterator@V?$_Vector_val@U?$_Simple_types@UOption@CCustomMenu@@@std@@@std@@@std@@QAE@XZ PROC ; std::_Vector_const_iterator<std::_Vector_val<std::_Simple_types<CCustomMenu::Option> > >::~_Vector_const_iterator<std::_Vector_val<std::_Simple_types<CCustomMenu::Option> > >, COMDAT
; _this$ = ecx
	push	ebp
	mov	ebp, esp
	sub	esp, 204				; 000000ccH
	push	ebx
	push	esi
	push	edi
	push	ecx
	lea	edi, DWORD PTR [ebp-204]
	mov	ecx, 51					; 00000033H
	mov	eax, -858993460				; ccccccccH
	rep stosd
	pop	ecx
	mov	DWORD PTR _this$[ebp], ecx
	mov	ecx, DWORD PTR _this$[ebp]
	call	??1?$_Iterator012@Urandom_access_iterator_tag@std@@UOption@CCustomMenu@@HPBU34@ABU34@U_Iterator_base12@2@@std@@QAE@XZ
	pop	edi
	pop	esi
	pop	ebx
	add	esp, 204				; 000000ccH
	cmp	ebp, esp
	call	__RTC_CheckEsp
	mov	esp, ebp
	pop	ebp
	ret	0
??1?$_Vector_const_iterator@V?$_Vector_val@U?$_Simple_types@UOption@CCustomMenu@@@std@@@std@@@std@@QAE@XZ ENDP ; std::_Vector_const_iterator<std::_Vector_val<std::_Simple_types<CCustomMenu::Option> > >::~_Vector_const_iterator<std::_Vector_val<std::_Simple_types<CCustomMenu::Option> > >
_TEXT	ENDS
; Function compile flags: /Odtp /RTCsu /ZI
; File c:\program files (x86)\microsoft visual studio 14.0\vc\include\vector
;	COMDAT ?_Compat@?$_Vector_const_iterator@V?$_Vector_val@U?$_Simple_types@UOption@CCustomMenu@@@std@@@std@@@std@@QBEXABV12@@Z
_TEXT	SEGMENT
_this$ = -8						; size = 4
__Right$ = 8						; size = 4
?_Compat@?$_Vector_const_iterator@V?$_Vector_val@U?$_Simple_types@UOption@CCustomMenu@@@std@@@std@@@std@@QBEXABV12@@Z PROC ; std::_Vector_const_iterator<std::_Vector_val<std::_Simple_types<CCustomMenu::Option> > >::_Compat, COMDAT
; _this$ = ecx

; 245  : 		{	// test for compatible iterator pair

	push	ebp
	mov	ebp, esp
	sub	esp, 204				; 000000ccH
	push	ebx
	push	esi
	push	edi
	push	ecx
	lea	edi, DWORD PTR [ebp-204]
	mov	ecx, 51					; 00000033H
	mov	eax, -858993460				; ccccccccH
	rep stosd
	pop	ecx
	mov	DWORD PTR _this$[ebp], ecx

; 246  : 		if (this->_Getcont() != _Right._Getcont())

	mov	ecx, DWORD PTR _this$[ebp]
	call	?_Getcont@_Iterator_base12@std@@QBEPBU_Container_base12@2@XZ ; std::_Iterator_base12::_Getcont
	mov	esi, eax
	mov	ecx, DWORD PTR __Right$[ebp]
	call	?_Getcont@_Iterator_base12@std@@QBEPBU_Container_base12@2@XZ ; std::_Iterator_base12::_Getcont
	cmp	esi, eax
	je	$LN1@Compat

; 247  : 			{
; 248  : 			_DEBUG_ERROR("vector iterators incompatible");

	mov	esi, esp
	push	248					; 000000f8H
	push	OFFSET ??_C@_1IM@NCODKBJH@?$AAc?$AA?3?$AA?2?$AAp?$AAr?$AAo?$AAg?$AAr?$AAa?$AAm?$AA?5?$AAf?$AAi?$AAl?$AAe?$AAs?$AA?5?$AA?$CI?$AAx?$AA8?$AA6?$AA?$CJ?$AA?2?$AAm?$AAi?$AAc?$AAr?$AAo?$AAs?$AAo?$AAf?$AAt@
	push	OFFSET ??_C@_1DM@HINDPMBP@?$AAv?$AAe?$AAc?$AAt?$AAo?$AAr?$AA?5?$AAi?$AAt?$AAe?$AAr?$AAa?$AAt?$AAo?$AAr?$AAs?$AA?5?$AAi?$AAn?$AAc?$AAo?$AAm?$AAp?$AAa?$AAt?$AAi?$AAb?$AAl?$AAe?$AA?$AA@
	call	DWORD PTR __imp_?_Debug_message@std@@YAXPB_W0I@Z
	add	esp, 12					; 0000000cH
	cmp	esi, esp
	call	__RTC_CheckEsp

; 249  : 			_SCL_SECURE_INVALID_ARGUMENT;

	mov	eax, OFFSET ??_C@_0CI@FNPHFCCM@Standard?5C?$CL?$CL?5Libraries?5Invalid?5A@
	test	eax, eax
	je	SHORT $LN4@Compat
	xor	ecx, ecx
	jne	SHORT $LN5@Compat
$LN4@Compat:
	mov	esi, esp
	push	OFFSET ??_C@_1FO@GJIHNDLM@?$AA?$CC?$AAS?$AAt?$AAa?$AAn?$AAd?$AAa?$AAr?$AAd?$AA?5?$AAC?$AA?$CL?$AA?$CL?$AA?5?$AAL?$AAi?$AAb?$AAr?$AAa?$AAr?$AAi?$AAe?$AAs?$AA?5?$AAI?$AAn?$AAv?$AAa?$AAl?$AAi?$AAd?$AA?5@
	push	OFFSET ??_C@_17CNPHIMPH@?$AA?$CF?$AAl?$AAs?$AA?$AA@
	push	0
	push	249					; 000000f9H
	push	OFFSET ??_C@_1IM@NCODKBJH@?$AAc?$AA?3?$AA?2?$AAp?$AAr?$AAo?$AAg?$AAr?$AAa?$AAm?$AA?5?$AAf?$AAi?$AAl?$AAe?$AAs?$AA?5?$AA?$CI?$AAx?$AA8?$AA6?$AA?$CJ?$AA?2?$AAm?$AAi?$AAc?$AAr?$AAo?$AAs?$AAo?$AAf?$AAt@
	push	2
	call	DWORD PTR __imp___CrtDbgReportW
	add	esp, 24					; 00000018H
	cmp	esi, esp
	call	__RTC_CheckEsp
	cmp	eax, 1
	jne	SHORT $LN5@Compat
	int	3
$LN5@Compat:
	mov	esi, esp
	push	0
	push	249					; 000000f9H
	push	OFFSET ??_C@_1IM@NCODKBJH@?$AAc?$AA?3?$AA?2?$AAp?$AAr?$AAo?$AAg?$AAr?$AAa?$AAm?$AA?5?$AAf?$AAi?$AAl?$AAe?$AAs?$AA?5?$AA?$CI?$AAx?$AA8?$AA6?$AA?$CJ?$AA?2?$AAm?$AAi?$AAc?$AAr?$AAo?$AAs?$AAo?$AAf?$AAt@
	push	OFFSET ??_C@_1OM@HACCCHHK@?$AAs?$AAt?$AAd?$AA?3?$AA?3?$AA_?$AAV?$AAe?$AAc?$AAt?$AAo?$AAr?$AA_?$AAc?$AAo?$AAn?$AAs?$AAt?$AA_?$AAi?$AAt?$AAe?$AAr?$AAa?$AAt?$AAo?$AAr?$AA?$DM?$AAc?$AAl?$AAa?$AAs@
	push	OFFSET ??_C@_1CG@JNLFBNGN@?$AA?$CC?$AAi?$AAn?$AAv?$AAa?$AAl?$AAi?$AAd?$AA?5?$AAa?$AAr?$AAg?$AAu?$AAm?$AAe?$AAn?$AAt?$AA?$CC?$AA?$AA@
	call	DWORD PTR __imp___invalid_parameter
	add	esp, 20					; 00000014H
	cmp	esi, esp
	call	__RTC_CheckEsp
$LN1@Compat:

; 250  : 			}
; 251  : 		}

	pop	edi
	pop	esi
	pop	ebx
	add	esp, 204				; 000000ccH
	cmp	ebp, esp
	call	__RTC_CheckEsp
	mov	esp, ebp
	pop	ebp
	ret	4
?_Compat@?$_Vector_const_iterator@V?$_Vector_val@U?$_Simple_types@UOption@CCustomMenu@@@std@@@std@@@std@@QBEXABV12@@Z ENDP ; std::_Vector_const_iterator<std::_Vector_val<std::_Simple_types<CCustomMenu::Option> > >::_Compat
_TEXT	ENDS
; Function compile flags: /Odtp /RTCsu /ZI
; File c:\program files (x86)\microsoft visual studio 14.0\vc\include\vector
;	COMDAT ??M?$_Vector_const_iterator@V?$_Vector_val@U?$_Simple_types@UOption@CCustomMenu@@@std@@@std@@@std@@QBE_NABV01@@Z
_TEXT	SEGMENT
tv69 = -208						; size = 4
_this$ = -8						; size = 4
__Right$ = 8						; size = 4
??M?$_Vector_const_iterator@V?$_Vector_val@U?$_Simple_types@UOption@CCustomMenu@@@std@@@std@@@std@@QBE_NABV01@@Z PROC ; std::_Vector_const_iterator<std::_Vector_val<std::_Simple_types<CCustomMenu::Option> > >::operator<, COMDAT
; _this$ = ecx

; 223  : 		{	// test if this < _Right

	push	ebp
	mov	ebp, esp
	sub	esp, 208				; 000000d0H
	push	ebx
	push	esi
	push	edi
	push	ecx
	lea	edi, DWORD PTR [ebp-208]
	mov	ecx, 52					; 00000034H
	mov	eax, -858993460				; ccccccccH
	rep stosd
	pop	ecx
	mov	DWORD PTR _this$[ebp], ecx

; 224  : 		_Compat(_Right);

	mov	eax, DWORD PTR __Right$[ebp]
	push	eax
	mov	ecx, DWORD PTR _this$[ebp]
	call	?_Compat@?$_Vector_const_iterator@V?$_Vector_val@U?$_Simple_types@UOption@CCustomMenu@@@std@@@std@@@std@@QBEXABV12@@Z ; std::_Vector_const_iterator<std::_Vector_val<std::_Simple_types<CCustomMenu::Option> > >::_Compat

; 225  : 		return (_Ptr < _Right._Ptr);

	mov	eax, DWORD PTR _this$[ebp]
	mov	ecx, DWORD PTR __Right$[ebp]
	mov	edx, DWORD PTR [eax+8]
	cmp	edx, DWORD PTR [ecx+8]
	jae	SHORT $LN3@operator
	mov	DWORD PTR tv69[ebp], 1
	jmp	SHORT $LN4@operator
$LN3@operator:
	mov	DWORD PTR tv69[ebp], 0
$LN4@operator:
	mov	al, BYTE PTR tv69[ebp]

; 226  : 		}

	pop	edi
	pop	esi
	pop	ebx
	add	esp, 208				; 000000d0H
	cmp	ebp, esp
	call	__RTC_CheckEsp
	mov	esp, ebp
	pop	ebp
	ret	4
??M?$_Vector_const_iterator@V?$_Vector_val@U?$_Simple_types@UOption@CCustomMenu@@@std@@@std@@@std@@QBE_NABV01@@Z ENDP ; std::_Vector_const_iterator<std::_Vector_val<std::_Simple_types<CCustomMenu::Option> > >::operator<
_TEXT	ENDS
; Function compile flags: /Odtp /RTCsu /ZI
; File c:\program files (x86)\microsoft visual studio 14.0\vc\include\vector
;	COMDAT ??9?$_Vector_const_iterator@V?$_Vector_val@U?$_Simple_types@UOption@CCustomMenu@@@std@@@std@@@std@@QBE_NABV01@@Z
_TEXT	SEGMENT
tv69 = -208						; size = 4
_this$ = -8						; size = 4
__Right$ = 8						; size = 4
??9?$_Vector_const_iterator@V?$_Vector_val@U?$_Simple_types@UOption@CCustomMenu@@@std@@@std@@@std@@QBE_NABV01@@Z PROC ; std::_Vector_const_iterator<std::_Vector_val<std::_Simple_types<CCustomMenu::Option> > >::operator!=, COMDAT
; _this$ = ecx

; 218  : 		{	// test for iterator inequality

	push	ebp
	mov	ebp, esp
	sub	esp, 208				; 000000d0H
	push	ebx
	push	esi
	push	edi
	push	ecx
	lea	edi, DWORD PTR [ebp-208]
	mov	ecx, 52					; 00000034H
	mov	eax, -858993460				; ccccccccH
	rep stosd
	pop	ecx
	mov	DWORD PTR _this$[ebp], ecx

; 219  : 		return (!(*this == _Right));

	mov	eax, DWORD PTR __Right$[ebp]
	push	eax
	mov	ecx, DWORD PTR _this$[ebp]
	call	??8?$_Vector_const_iterator@V?$_Vector_val@U?$_Simple_types@UOption@CCustomMenu@@@std@@@std@@@std@@QBE_NABV01@@Z ; std::_Vector_const_iterator<std::_Vector_val<std::_Simple_types<CCustomMenu::Option> > >::operator==
	movzx	ecx, al
	test	ecx, ecx
	jne	SHORT $LN3@operator
	mov	DWORD PTR tv69[ebp], 1
	jmp	SHORT $LN4@operator
$LN3@operator:
	mov	DWORD PTR tv69[ebp], 0
$LN4@operator:
	mov	al, BYTE PTR tv69[ebp]

; 220  : 		}

	pop	edi
	pop	esi
	pop	ebx
	add	esp, 208				; 000000d0H
	cmp	ebp, esp
	call	__RTC_CheckEsp
	mov	esp, ebp
	pop	ebp
	ret	4
??9?$_Vector_const_iterator@V?$_Vector_val@U?$_Simple_types@UOption@CCustomMenu@@@std@@@std@@@std@@QBE_NABV01@@Z ENDP ; std::_Vector_const_iterator<std::_Vector_val<std::_Simple_types<CCustomMenu::Option> > >::operator!=
_TEXT	ENDS
; Function compile flags: /Odtp /RTCsu /ZI
; File c:\program files (x86)\microsoft visual studio 14.0\vc\include\vector
;	COMDAT ??8?$_Vector_const_iterator@V?$_Vector_val@U?$_Simple_types@UOption@CCustomMenu@@@std@@@std@@@std@@QBE_NABV01@@Z
_TEXT	SEGMENT
tv69 = -208						; size = 4
_this$ = -8						; size = 4
__Right$ = 8						; size = 4
??8?$_Vector_const_iterator@V?$_Vector_val@U?$_Simple_types@UOption@CCustomMenu@@@std@@@std@@@std@@QBE_NABV01@@Z PROC ; std::_Vector_const_iterator<std::_Vector_val<std::_Simple_types<CCustomMenu::Option> > >::operator==, COMDAT
; _this$ = ecx

; 212  : 		{	// test for iterator equality

	push	ebp
	mov	ebp, esp
	sub	esp, 208				; 000000d0H
	push	ebx
	push	esi
	push	edi
	push	ecx
	lea	edi, DWORD PTR [ebp-208]
	mov	ecx, 52					; 00000034H
	mov	eax, -858993460				; ccccccccH
	rep stosd
	pop	ecx
	mov	DWORD PTR _this$[ebp], ecx

; 213  : 		_Compat(_Right);

	mov	eax, DWORD PTR __Right$[ebp]
	push	eax
	mov	ecx, DWORD PTR _this$[ebp]
	call	?_Compat@?$_Vector_const_iterator@V?$_Vector_val@U?$_Simple_types@UOption@CCustomMenu@@@std@@@std@@@std@@QBEXABV12@@Z ; std::_Vector_const_iterator<std::_Vector_val<std::_Simple_types<CCustomMenu::Option> > >::_Compat

; 214  : 		return (_Ptr == _Right._Ptr);

	mov	eax, DWORD PTR _this$[ebp]
	mov	ecx, DWORD PTR __Right$[ebp]
	mov	edx, DWORD PTR [eax+8]
	cmp	edx, DWORD PTR [ecx+8]
	jne	SHORT $LN3@operator
	mov	DWORD PTR tv69[ebp], 1
	jmp	SHORT $LN4@operator
$LN3@operator:
	mov	DWORD PTR tv69[ebp], 0
$LN4@operator:
	mov	al, BYTE PTR tv69[ebp]

; 215  : 		}

	pop	edi
	pop	esi
	pop	ebx
	add	esp, 208				; 000000d0H
	cmp	ebp, esp
	call	__RTC_CheckEsp
	mov	esp, ebp
	pop	ebp
	ret	4
??8?$_Vector_const_iterator@V?$_Vector_val@U?$_Simple_types@UOption@CCustomMenu@@@std@@@std@@@std@@QBE_NABV01@@Z ENDP ; std::_Vector_const_iterator<std::_Vector_val<std::_Simple_types<CCustomMenu::Option> > >::operator==
_TEXT	ENDS
; Function compile flags: /Odtp /RTCsu /ZI
; File c:\program files (x86)\microsoft visual studio 14.0\vc\include\vector
;	COMDAT ??E?$_Vector_const_iterator@V?$_Vector_val@U?$_Simple_types@UOption@CCustomMenu@@@std@@@std@@@std@@QAEAAV01@XZ
_TEXT	SEGMENT
__Mycont$ = -20						; size = 4
_this$ = -8						; size = 4
??E?$_Vector_const_iterator@V?$_Vector_val@U?$_Simple_types@UOption@CCustomMenu@@@std@@@std@@@std@@QAEAAV01@XZ PROC ; std::_Vector_const_iterator<std::_Vector_val<std::_Simple_types<CCustomMenu::Option> > >::operator++, COMDAT
; _this$ = ecx

; 95   : 		{	// preincrement

	push	ebp
	mov	ebp, esp
	sub	esp, 216				; 000000d8H
	push	ebx
	push	esi
	push	edi
	push	ecx
	lea	edi, DWORD PTR [ebp-216]
	mov	ecx, 54					; 00000036H
	mov	eax, -858993460				; ccccccccH
	rep stosd
	pop	ecx
	mov	DWORD PTR _this$[ebp], ecx

; 96   :  #if _ITERATOR_DEBUG_LEVEL == 2
; 97   : 		const auto _Mycont = static_cast<const _Myvec *>(this->_Getcont());

	mov	ecx, DWORD PTR _this$[ebp]
	call	?_Getcont@_Iterator_base12@std@@QBEPBU_Container_base12@2@XZ ; std::_Iterator_base12::_Getcont
	mov	DWORD PTR __Mycont$[ebp], eax

; 98   : 		if (_Mycont == 0
; 99   : 			|| _Ptr == nullptr_t{}
; 100  : 			|| _Mycont->_Mylast <= _Ptr)

	cmp	DWORD PTR __Mycont$[ebp], 0
	je	SHORT $LN3@operator
	mov	eax, DWORD PTR _this$[ebp]
	cmp	DWORD PTR [eax+8], 0
	je	SHORT $LN3@operator
	mov	eax, DWORD PTR __Mycont$[ebp]
	mov	ecx, DWORD PTR _this$[ebp]
	mov	edx, DWORD PTR [eax+8]
	cmp	edx, DWORD PTR [ecx+8]
	ja	SHORT $LN2@operator
$LN3@operator:

; 101  : 			{	// report error
; 102  : 			_DEBUG_ERROR("vector iterator not incrementable");

	mov	esi, esp
	push	102					; 00000066H
	push	OFFSET ??_C@_1IM@NCODKBJH@?$AAc?$AA?3?$AA?2?$AAp?$AAr?$AAo?$AAg?$AAr?$AAa?$AAm?$AA?5?$AAf?$AAi?$AAl?$AAe?$AAs?$AA?5?$AA?$CI?$AAx?$AA8?$AA6?$AA?$CJ?$AA?2?$AAm?$AAi?$AAc?$AAr?$AAo?$AAs?$AAo?$AAf?$AAt@
	push	OFFSET ??_C@_1EE@EJDKCLKB@?$AAv?$AAe?$AAc?$AAt?$AAo?$AAr?$AA?5?$AAi?$AAt?$AAe?$AAr?$AAa?$AAt?$AAo?$AAr?$AA?5?$AAn?$AAo?$AAt?$AA?5?$AAi?$AAn?$AAc?$AAr?$AAe?$AAm?$AAe?$AAn?$AAt?$AAa?$AAb?$AAl@
	call	DWORD PTR __imp_?_Debug_message@std@@YAXPB_W0I@Z
	add	esp, 12					; 0000000cH
	cmp	esi, esp
	call	__RTC_CheckEsp

; 103  : 			_SCL_SECURE_OUT_OF_RANGE;

	mov	eax, OFFSET ??_C@_0CE@OFMIGAMM@Standard?5C?$CL?$CL?5Libraries?5Out?5of?5Ra@
	test	eax, eax
	je	SHORT $LN5@operator
	xor	ecx, ecx
	jne	SHORT $LN6@operator
$LN5@operator:
	mov	esi, esp
	push	OFFSET ??_C@_1FG@IBPIFFN@?$AA?$CC?$AAS?$AAt?$AAa?$AAn?$AAd?$AAa?$AAr?$AAd?$AA?5?$AAC?$AA?$CL?$AA?$CL?$AA?5?$AAL?$AAi?$AAb?$AAr?$AAa?$AAr?$AAi?$AAe?$AAs?$AA?5?$AAO?$AAu?$AAt?$AA?5?$AAo?$AAf?$AA?5?$AAR@
	push	OFFSET ??_C@_17CNPHIMPH@?$AA?$CF?$AAl?$AAs?$AA?$AA@
	push	0
	push	103					; 00000067H
	push	OFFSET ??_C@_1IM@NCODKBJH@?$AAc?$AA?3?$AA?2?$AAp?$AAr?$AAo?$AAg?$AAr?$AAa?$AAm?$AA?5?$AAf?$AAi?$AAl?$AAe?$AAs?$AA?5?$AA?$CI?$AAx?$AA8?$AA6?$AA?$CJ?$AA?2?$AAm?$AAi?$AAc?$AAr?$AAo?$AAs?$AAo?$AAf?$AAt@
	push	2
	call	DWORD PTR __imp___CrtDbgReportW
	add	esp, 24					; 00000018H
	cmp	esi, esp
	call	__RTC_CheckEsp
	cmp	eax, 1
	jne	SHORT $LN6@operator
	int	3
$LN6@operator:
	mov	esi, esp
	push	0
	push	103					; 00000067H
	push	OFFSET ??_C@_1IM@NCODKBJH@?$AAc?$AA?3?$AA?2?$AAp?$AAr?$AAo?$AAg?$AAr?$AAa?$AAm?$AA?5?$AAf?$AAi?$AAl?$AAe?$AAs?$AA?5?$AA?$CI?$AAx?$AA8?$AA6?$AA?$CJ?$AA?2?$AAm?$AAi?$AAc?$AAr?$AAo?$AAs?$AAo?$AAf?$AAt@
	push	OFFSET ??_C@_1PE@FEBODMLG@?$AAs?$AAt?$AAd?$AA?3?$AA?3?$AA_?$AAV?$AAe?$AAc?$AAt?$AAo?$AAr?$AA_?$AAc?$AAo?$AAn?$AAs?$AAt?$AA_?$AAi?$AAt?$AAe?$AAr?$AAa?$AAt?$AAo?$AAr?$AA?$DM?$AAc?$AAl?$AAa?$AAs@
	push	OFFSET ??_C@_1BO@MEPPHOO@?$AA?$CC?$AAo?$AAu?$AAt?$AA?5?$AAo?$AAf?$AA?5?$AAr?$AAa?$AAn?$AAg?$AAe?$AA?$CC?$AA?$AA@
	call	DWORD PTR __imp___invalid_parameter
	add	esp, 20					; 00000014H
	cmp	esi, esp
	call	__RTC_CheckEsp
$LN2@operator:

; 104  : 			}
; 105  : 
; 106  :  #elif _ITERATOR_DEBUG_LEVEL == 1
; 107  : 		_SCL_SECURE_VALIDATE(_Ptr != _Tptr());
; 108  : 		const auto _Mycont = static_cast<const _Myvec *>(this->_Getcont());
; 109  : 		_SCL_SECURE_VALIDATE(_Mycont != 0);
; 110  : 		_SCL_SECURE_VALIDATE_RANGE(_Ptr < _Mycont->_Mylast);
; 111  :  #endif /* _ITERATOR_DEBUG_LEVEL */
; 112  : 
; 113  : 		++_Ptr;

	mov	eax, DWORD PTR _this$[ebp]
	mov	ecx, DWORD PTR [eax+8]
	add	ecx, 32					; 00000020H
	mov	edx, DWORD PTR _this$[ebp]
	mov	DWORD PTR [edx+8], ecx

; 114  : 		return (*this);

	mov	eax, DWORD PTR _this$[ebp]

; 115  : 		}

	pop	edi
	pop	esi
	pop	ebx
	add	esp, 216				; 000000d8H
	cmp	ebp, esp
	call	__RTC_CheckEsp
	mov	esp, ebp
	pop	ebp
	ret	0
??E?$_Vector_const_iterator@V?$_Vector_val@U?$_Simple_types@UOption@CCustomMenu@@@std@@@std@@@std@@QAEAAV01@XZ ENDP ; std::_Vector_const_iterator<std::_Vector_val<std::_Simple_types<CCustomMenu::Option> > >::operator++
_TEXT	ENDS
; Function compile flags: /Odtp /RTCsu /ZI
; File c:\program files (x86)\microsoft visual studio 14.0\vc\include\vector
;	COMDAT ??C?$_Vector_const_iterator@V?$_Vector_val@U?$_Simple_types@UOption@CCustomMenu@@@std@@@std@@@std@@QBEPBUOption@CCustomMenu@@XZ
_TEXT	SEGMENT
_this$ = -8						; size = 4
??C?$_Vector_const_iterator@V?$_Vector_val@U?$_Simple_types@UOption@CCustomMenu@@@std@@@std@@@std@@QBEPBUOption@CCustomMenu@@XZ PROC ; std::_Vector_const_iterator<std::_Vector_val<std::_Simple_types<CCustomMenu::Option> > >::operator->, COMDAT
; _this$ = ecx

; 90   : 		{	// return pointer to class object

	push	ebp
	mov	ebp, esp
	sub	esp, 204				; 000000ccH
	push	ebx
	push	esi
	push	edi
	push	ecx
	lea	edi, DWORD PTR [ebp-204]
	mov	ecx, 51					; 00000033H
	mov	eax, -858993460				; ccccccccH
	rep stosd
	pop	ecx
	mov	DWORD PTR _this$[ebp], ecx

; 91   : 		return (pointer_traits<pointer>::pointer_to(**this));

	mov	ecx, DWORD PTR _this$[ebp]
	call	??D?$_Vector_const_iterator@V?$_Vector_val@U?$_Simple_types@UOption@CCustomMenu@@@std@@@std@@@std@@QBEABUOption@CCustomMenu@@XZ ; std::_Vector_const_iterator<std::_Vector_val<std::_Simple_types<CCustomMenu::Option> > >::operator*
	push	eax
	call	?pointer_to@?$pointer_traits@PBUOption@CCustomMenu@@@std@@SAPBUOption@CCustomMenu@@ABU34@@Z ; std::pointer_traits<CCustomMenu::Option const *>::pointer_to
	add	esp, 4

; 92   : 		}

	pop	edi
	pop	esi
	pop	ebx
	add	esp, 204				; 000000ccH
	cmp	ebp, esp
	call	__RTC_CheckEsp
	mov	esp, ebp
	pop	ebp
	ret	0
??C?$_Vector_const_iterator@V?$_Vector_val@U?$_Simple_types@UOption@CCustomMenu@@@std@@@std@@@std@@QBEPBUOption@CCustomMenu@@XZ ENDP ; std::_Vector_const_iterator<std::_Vector_val<std::_Simple_types<CCustomMenu::Option> > >::operator->
_TEXT	ENDS
; Function compile flags: /Odtp /RTCsu /ZI
; File c:\program files (x86)\microsoft visual studio 14.0\vc\include\vector
;	COMDAT ??D?$_Vector_const_iterator@V?$_Vector_val@U?$_Simple_types@UOption@CCustomMenu@@@std@@@std@@@std@@QBEABUOption@CCustomMenu@@XZ
_TEXT	SEGMENT
__Mycont$ = -20						; size = 4
_this$ = -8						; size = 4
??D?$_Vector_const_iterator@V?$_Vector_val@U?$_Simple_types@UOption@CCustomMenu@@@std@@@std@@@std@@QBEABUOption@CCustomMenu@@XZ PROC ; std::_Vector_const_iterator<std::_Vector_val<std::_Simple_types<CCustomMenu::Option> > >::operator*, COMDAT
; _this$ = ecx

; 65   : 		{	// return designated object

	push	ebp
	mov	ebp, esp
	sub	esp, 216				; 000000d8H
	push	ebx
	push	esi
	push	edi
	push	ecx
	lea	edi, DWORD PTR [ebp-216]
	mov	ecx, 54					; 00000036H
	mov	eax, -858993460				; ccccccccH
	rep stosd
	pop	ecx
	mov	DWORD PTR _this$[ebp], ecx

; 66   :  #if _ITERATOR_DEBUG_LEVEL == 2
; 67   : 		const auto _Mycont = static_cast<const _Myvec *>(this->_Getcont());

	mov	ecx, DWORD PTR _this$[ebp]
	call	?_Getcont@_Iterator_base12@std@@QBEPBU_Container_base12@2@XZ ; std::_Iterator_base12::_Getcont
	mov	DWORD PTR __Mycont$[ebp], eax

; 68   : 		if (_Mycont == 0
; 69   : 			|| _Ptr == _Tptr()
; 70   : 			|| _Ptr < _Mycont->_Myfirst
; 71   : 			|| _Mycont->_Mylast <= _Ptr)

	cmp	DWORD PTR __Mycont$[ebp], 0
	je	SHORT $LN3@operator
	mov	eax, DWORD PTR _this$[ebp]
	cmp	DWORD PTR [eax+8], 0
	je	SHORT $LN3@operator
	mov	eax, DWORD PTR _this$[ebp]
	mov	ecx, DWORD PTR __Mycont$[ebp]
	mov	edx, DWORD PTR [eax+8]
	cmp	edx, DWORD PTR [ecx+4]
	jb	SHORT $LN3@operator
	mov	eax, DWORD PTR __Mycont$[ebp]
	mov	ecx, DWORD PTR _this$[ebp]
	mov	edx, DWORD PTR [eax+8]
	cmp	edx, DWORD PTR [ecx+8]
	ja	SHORT $LN2@operator
$LN3@operator:

; 72   : 			{	// report error
; 73   : 			_DEBUG_ERROR("vector iterator not dereferencable");

	mov	esi, esp
	push	73					; 00000049H
	push	OFFSET ??_C@_1IM@NCODKBJH@?$AAc?$AA?3?$AA?2?$AAp?$AAr?$AAo?$AAg?$AAr?$AAa?$AAm?$AA?5?$AAf?$AAi?$AAl?$AAe?$AAs?$AA?5?$AA?$CI?$AAx?$AA8?$AA6?$AA?$CJ?$AA?2?$AAm?$AAi?$AAc?$AAr?$AAo?$AAs?$AAo?$AAf?$AAt@
	push	OFFSET ??_C@_1EG@FOHJJHAC@?$AAv?$AAe?$AAc?$AAt?$AAo?$AAr?$AA?5?$AAi?$AAt?$AAe?$AAr?$AAa?$AAt?$AAo?$AAr?$AA?5?$AAn?$AAo?$AAt?$AA?5?$AAd?$AAe?$AAr?$AAe?$AAf?$AAe?$AAr?$AAe?$AAn?$AAc?$AAa?$AAb@
	call	DWORD PTR __imp_?_Debug_message@std@@YAXPB_W0I@Z
	add	esp, 12					; 0000000cH
	cmp	esi, esp
	call	__RTC_CheckEsp

; 74   : 			_SCL_SECURE_OUT_OF_RANGE;

	mov	eax, OFFSET ??_C@_0CE@OFMIGAMM@Standard?5C?$CL?$CL?5Libraries?5Out?5of?5Ra@
	test	eax, eax
	je	SHORT $LN5@operator
	xor	ecx, ecx
	jne	SHORT $LN6@operator
$LN5@operator:
	mov	esi, esp
	push	OFFSET ??_C@_1FG@IBPIFFN@?$AA?$CC?$AAS?$AAt?$AAa?$AAn?$AAd?$AAa?$AAr?$AAd?$AA?5?$AAC?$AA?$CL?$AA?$CL?$AA?5?$AAL?$AAi?$AAb?$AAr?$AAa?$AAr?$AAi?$AAe?$AAs?$AA?5?$AAO?$AAu?$AAt?$AA?5?$AAo?$AAf?$AA?5?$AAR@
	push	OFFSET ??_C@_17CNPHIMPH@?$AA?$CF?$AAl?$AAs?$AA?$AA@
	push	0
	push	74					; 0000004aH
	push	OFFSET ??_C@_1IM@NCODKBJH@?$AAc?$AA?3?$AA?2?$AAp?$AAr?$AAo?$AAg?$AAr?$AAa?$AAm?$AA?5?$AAf?$AAi?$AAl?$AAe?$AAs?$AA?5?$AA?$CI?$AAx?$AA8?$AA6?$AA?$CJ?$AA?2?$AAm?$AAi?$AAc?$AAr?$AAo?$AAs?$AAo?$AAf?$AAt@
	push	2
	call	DWORD PTR __imp___CrtDbgReportW
	add	esp, 24					; 00000018H
	cmp	esi, esp
	call	__RTC_CheckEsp
	cmp	eax, 1
	jne	SHORT $LN6@operator
	int	3
$LN6@operator:
	mov	esi, esp
	push	0
	push	74					; 0000004aH
	push	OFFSET ??_C@_1IM@NCODKBJH@?$AAc?$AA?3?$AA?2?$AAp?$AAr?$AAo?$AAg?$AAr?$AAa?$AAm?$AA?5?$AAf?$AAi?$AAl?$AAe?$AAs?$AA?5?$AA?$CI?$AAx?$AA8?$AA6?$AA?$CJ?$AA?2?$AAm?$AAi?$AAc?$AAr?$AAo?$AAs?$AAo?$AAf?$AAt@
	push	OFFSET ??_C@_1PC@BPDPMBHD@?$AAs?$AAt?$AAd?$AA?3?$AA?3?$AA_?$AAV?$AAe?$AAc?$AAt?$AAo?$AAr?$AA_?$AAc?$AAo?$AAn?$AAs?$AAt?$AA_?$AAi?$AAt?$AAe?$AAr?$AAa?$AAt?$AAo?$AAr?$AA?$DM?$AAc?$AAl?$AAa?$AAs@
	push	OFFSET ??_C@_1BO@MEPPHOO@?$AA?$CC?$AAo?$AAu?$AAt?$AA?5?$AAo?$AAf?$AA?5?$AAr?$AAa?$AAn?$AAg?$AAe?$AA?$CC?$AA?$AA@
	call	DWORD PTR __imp___invalid_parameter
	add	esp, 20					; 00000014H
	cmp	esi, esp
	call	__RTC_CheckEsp
$LN2@operator:

; 75   : 			}
; 76   : 
; 77   :  #elif _ITERATOR_DEBUG_LEVEL == 1
; 78   : 		_SCL_SECURE_VALIDATE(_Ptr != _Tptr());
; 79   : 		const auto _Mycont = static_cast<const _Myvec *>(this->_Getcont());
; 80   : 		_SCL_SECURE_VALIDATE(_Mycont != 0);
; 81   : 		_SCL_SECURE_VALIDATE_RANGE(_Mycont->_Myfirst <= _Ptr && _Ptr < _Mycont->_Mylast);
; 82   :  #endif /* _ITERATOR_DEBUG_LEVEL */
; 83   : 
; 84   : 		_Analysis_assume_(_Ptr != _Tptr());
; 85   : 
; 86   : 		return (*_Ptr);

	mov	eax, DWORD PTR _this$[ebp]
	mov	eax, DWORD PTR [eax+8]

; 87   : 		}

	pop	edi
	pop	esi
	pop	ebx
	add	esp, 216				; 000000d8H
	cmp	ebp, esp
	call	__RTC_CheckEsp
	mov	esp, ebp
	pop	ebp
	ret	0
??D?$_Vector_const_iterator@V?$_Vector_val@U?$_Simple_types@UOption@CCustomMenu@@@std@@@std@@@std@@QBEABUOption@CCustomMenu@@XZ ENDP ; std::_Vector_const_iterator<std::_Vector_val<std::_Simple_types<CCustomMenu::Option> > >::operator*
_TEXT	ENDS
; Function compile flags: /Odtp /RTCsu /ZI
; File c:\program files (x86)\microsoft visual studio 14.0\vc\include\vector
;	COMDAT ??0?$_Vector_const_iterator@V?$_Vector_val@U?$_Simple_types@UOption@CCustomMenu@@@std@@@std@@@std@@QAE@PAUOption@CCustomMenu@@PBU_Container_base12@1@@Z
_TEXT	SEGMENT
_this$ = -20						; size = 4
__$EHRec$ = -12						; size = 12
__Parg$ = 8						; size = 4
__Pvector$ = 12						; size = 4
??0?$_Vector_const_iterator@V?$_Vector_val@U?$_Simple_types@UOption@CCustomMenu@@@std@@@std@@@std@@QAE@PAUOption@CCustomMenu@@PBU_Container_base12@1@@Z PROC ; std::_Vector_const_iterator<std::_Vector_val<std::_Simple_types<CCustomMenu::Option> > >::_Vector_const_iterator<std::_Vector_val<std::_Simple_types<CCustomMenu::Option> > >, COMDAT
; _this$ = ecx

; 47   : 		{	// construct with pointer _Parg

	push	ebp
	mov	ebp, esp
	push	-1
	push	__ehhandler$??0?$_Vector_const_iterator@V?$_Vector_val@U?$_Simple_types@UOption@CCustomMenu@@@std@@@std@@@std@@QAE@PAUOption@CCustomMenu@@PBU_Container_base12@1@@Z
	mov	eax, DWORD PTR fs:0
	push	eax
	sub	esp, 204				; 000000ccH
	push	ebx
	push	esi
	push	edi
	push	ecx
	lea	edi, DWORD PTR [ebp-216]
	mov	ecx, 51					; 00000033H
	mov	eax, -858993460				; ccccccccH
	rep stosd
	pop	ecx
	mov	eax, DWORD PTR ___security_cookie
	xor	eax, ebp
	push	eax
	lea	eax, DWORD PTR __$EHRec$[ebp]
	mov	DWORD PTR fs:0, eax
	mov	DWORD PTR _this$[ebp], ecx
	mov	ecx, DWORD PTR _this$[ebp]
	call	??0?$_Iterator012@Urandom_access_iterator_tag@std@@UOption@CCustomMenu@@HPBU34@ABU34@U_Iterator_base12@2@@std@@QAE@XZ
	mov	DWORD PTR __$EHRec$[ebp+8], 0

; 46   : 		: _Ptr(_Parg)

	mov	eax, DWORD PTR _this$[ebp]
	mov	ecx, DWORD PTR __Parg$[ebp]
	mov	DWORD PTR [eax+8], ecx

; 48   : 		this->_Adopt(_Pvector);

	mov	eax, DWORD PTR __Pvector$[ebp]
	push	eax
	mov	ecx, DWORD PTR _this$[ebp]
	call	?_Adopt@_Iterator_base12@std@@QAEXPBU_Container_base12@2@@Z ; std::_Iterator_base12::_Adopt

; 49   : 		}

	mov	DWORD PTR __$EHRec$[ebp+8], -1
	mov	eax, DWORD PTR _this$[ebp]
	mov	ecx, DWORD PTR __$EHRec$[ebp]
	mov	DWORD PTR fs:0, ecx
	pop	ecx
	pop	edi
	pop	esi
	pop	ebx
	add	esp, 216				; 000000d8H
	cmp	ebp, esp
	call	__RTC_CheckEsp
	mov	esp, ebp
	pop	ebp
	ret	8
_TEXT	ENDS
;	COMDAT text$x
text$x	SEGMENT
__unwindfunclet$??0?$_Vector_const_iterator@V?$_Vector_val@U?$_Simple_types@UOption@CCustomMenu@@@std@@@std@@@std@@QAE@PAUOption@CCustomMenu@@PBU_Container_base12@1@@Z$0:
	mov	ecx, DWORD PTR _this$[ebp]
	jmp	??1?$_Iterator012@Urandom_access_iterator_tag@std@@UOption@CCustomMenu@@HPBU34@ABU34@U_Iterator_base12@2@@std@@QAE@XZ
__ehhandler$??0?$_Vector_const_iterator@V?$_Vector_val@U?$_Simple_types@UOption@CCustomMenu@@@std@@@std@@@std@@QAE@PAUOption@CCustomMenu@@PBU_Container_base12@1@@Z:
	mov	edx, DWORD PTR [esp+8]
	lea	eax, DWORD PTR [edx+12]
	mov	ecx, DWORD PTR [edx-220]
	xor	ecx, eax
	call	@__security_check_cookie@4
	mov	eax, OFFSET __ehfuncinfo$??0?$_Vector_const_iterator@V?$_Vector_val@U?$_Simple_types@UOption@CCustomMenu@@@std@@@std@@@std@@QAE@PAUOption@CCustomMenu@@PBU_Container_base12@1@@Z
	jmp	___CxxFrameHandler3
text$x	ENDS
??0?$_Vector_const_iterator@V?$_Vector_val@U?$_Simple_types@UOption@CCustomMenu@@@std@@@std@@@std@@QAE@PAUOption@CCustomMenu@@PBU_Container_base12@1@@Z ENDP ; std::_Vector_const_iterator<std::_Vector_val<std::_Simple_types<CCustomMenu::Option> > >::_Vector_const_iterator<std::_Vector_val<std::_Simple_types<CCustomMenu::Option> > >
; Function compile flags: /Odtp /RTCsu /ZI
;	COMDAT ??0?$_Iterator012@Urandom_access_iterator_tag@std@@UOption@CCustomMenu@@HPBU34@ABU34@U_Iterator_base12@2@@std@@QAE@$$QAU01@@Z
_TEXT	SEGMENT
_this$ = -8						; size = 4
___that$ = 8						; size = 4
??0?$_Iterator012@Urandom_access_iterator_tag@std@@UOption@CCustomMenu@@HPBU34@ABU34@U_Iterator_base12@2@@std@@QAE@$$QAU01@@Z PROC ; std::_Iterator012<std::random_access_iterator_tag,CCustomMenu::Option,int,CCustomMenu::Option const *,CCustomMenu::Option const &,std::_Iterator_base12>::_Iterator012<std::random_access_iterator_tag,CCustomMenu::Option,int,CCustomMenu::Option const *,CCustomMenu::Option const &,std::_Iterator_base12>, COMDAT
; _this$ = ecx
	push	ebp
	mov	ebp, esp
	sub	esp, 204				; 000000ccH
	push	ebx
	push	esi
	push	edi
	push	ecx
	lea	edi, DWORD PTR [ebp-204]
	mov	ecx, 51					; 00000033H
	mov	eax, -858993460				; ccccccccH
	rep stosd
	pop	ecx
	mov	DWORD PTR _this$[ebp], ecx
	mov	eax, DWORD PTR ___that$[ebp]
	push	eax
	mov	ecx, DWORD PTR _this$[ebp]
	call	??0_Iterator_base12@std@@QAE@ABU01@@Z	; std::_Iterator_base12::_Iterator_base12
	mov	eax, DWORD PTR _this$[ebp]
	pop	edi
	pop	esi
	pop	ebx
	add	esp, 204				; 000000ccH
	cmp	ebp, esp
	call	__RTC_CheckEsp
	mov	esp, ebp
	pop	ebp
	ret	4
??0?$_Iterator012@Urandom_access_iterator_tag@std@@UOption@CCustomMenu@@HPBU34@ABU34@U_Iterator_base12@2@@std@@QAE@$$QAU01@@Z ENDP ; std::_Iterator012<std::random_access_iterator_tag,CCustomMenu::Option,int,CCustomMenu::Option const *,CCustomMenu::Option const &,std::_Iterator_base12>::_Iterator012<std::random_access_iterator_tag,CCustomMenu::Option,int,CCustomMenu::Option const *,CCustomMenu::Option const &,std::_Iterator_base12>
_TEXT	ENDS
; Function compile flags: /Odtp /RTCsu /ZI
;	COMDAT ??0?$_Iterator012@Urandom_access_iterator_tag@std@@UOption@CCustomMenu@@HPBU34@ABU34@U_Iterator_base12@2@@std@@QAE@ABU01@@Z
_TEXT	SEGMENT
_this$ = -8						; size = 4
___that$ = 8						; size = 4
??0?$_Iterator012@Urandom_access_iterator_tag@std@@UOption@CCustomMenu@@HPBU34@ABU34@U_Iterator_base12@2@@std@@QAE@ABU01@@Z PROC ; std::_Iterator012<std::random_access_iterator_tag,CCustomMenu::Option,int,CCustomMenu::Option const *,CCustomMenu::Option const &,std::_Iterator_base12>::_Iterator012<std::random_access_iterator_tag,CCustomMenu::Option,int,CCustomMenu::Option const *,CCustomMenu::Option const &,std::_Iterator_base12>, COMDAT
; _this$ = ecx
	push	ebp
	mov	ebp, esp
	sub	esp, 204				; 000000ccH
	push	ebx
	push	esi
	push	edi
	push	ecx
	lea	edi, DWORD PTR [ebp-204]
	mov	ecx, 51					; 00000033H
	mov	eax, -858993460				; ccccccccH
	rep stosd
	pop	ecx
	mov	DWORD PTR _this$[ebp], ecx
	mov	eax, DWORD PTR ___that$[ebp]
	push	eax
	mov	ecx, DWORD PTR _this$[ebp]
	call	??0_Iterator_base12@std@@QAE@ABU01@@Z	; std::_Iterator_base12::_Iterator_base12
	mov	eax, DWORD PTR _this$[ebp]
	pop	edi
	pop	esi
	pop	ebx
	add	esp, 204				; 000000ccH
	cmp	ebp, esp
	call	__RTC_CheckEsp
	mov	esp, ebp
	pop	ebp
	ret	4
??0?$_Iterator012@Urandom_access_iterator_tag@std@@UOption@CCustomMenu@@HPBU34@ABU34@U_Iterator_base12@2@@std@@QAE@ABU01@@Z ENDP ; std::_Iterator012<std::random_access_iterator_tag,CCustomMenu::Option,int,CCustomMenu::Option const *,CCustomMenu::Option const &,std::_Iterator_base12>::_Iterator012<std::random_access_iterator_tag,CCustomMenu::Option,int,CCustomMenu::Option const *,CCustomMenu::Option const &,std::_Iterator_base12>
_TEXT	ENDS
; Function compile flags: /Odtp /RTCsu /ZI
;	COMDAT ??1?$_Iterator012@Urandom_access_iterator_tag@std@@UOption@CCustomMenu@@HPBU34@ABU34@U_Iterator_base12@2@@std@@QAE@XZ
_TEXT	SEGMENT
_this$ = -8						; size = 4
??1?$_Iterator012@Urandom_access_iterator_tag@std@@UOption@CCustomMenu@@HPBU34@ABU34@U_Iterator_base12@2@@std@@QAE@XZ PROC ; std::_Iterator012<std::random_access_iterator_tag,CCustomMenu::Option,int,CCustomMenu::Option const *,CCustomMenu::Option const &,std::_Iterator_base12>::~_Iterator012<std::random_access_iterator_tag,CCustomMenu::Option,int,CCustomMenu::Option const *,CCustomMenu::Option const &,std::_Iterator_base12>, COMDAT
; _this$ = ecx
	push	ebp
	mov	ebp, esp
	sub	esp, 204				; 000000ccH
	push	ebx
	push	esi
	push	edi
	push	ecx
	lea	edi, DWORD PTR [ebp-204]
	mov	ecx, 51					; 00000033H
	mov	eax, -858993460				; ccccccccH
	rep stosd
	pop	ecx
	mov	DWORD PTR _this$[ebp], ecx
	mov	ecx, DWORD PTR _this$[ebp]
	call	??1_Iterator_base12@std@@QAE@XZ		; std::_Iterator_base12::~_Iterator_base12
	pop	edi
	pop	esi
	pop	ebx
	add	esp, 204				; 000000ccH
	cmp	ebp, esp
	call	__RTC_CheckEsp
	mov	esp, ebp
	pop	ebp
	ret	0
??1?$_Iterator012@Urandom_access_iterator_tag@std@@UOption@CCustomMenu@@HPBU34@ABU34@U_Iterator_base12@2@@std@@QAE@XZ ENDP ; std::_Iterator012<std::random_access_iterator_tag,CCustomMenu::Option,int,CCustomMenu::Option const *,CCustomMenu::Option const &,std::_Iterator_base12>::~_Iterator012<std::random_access_iterator_tag,CCustomMenu::Option,int,CCustomMenu::Option const *,CCustomMenu::Option const &,std::_Iterator_base12>
_TEXT	ENDS
; Function compile flags: /Odtp /RTCsu /ZI
;	COMDAT ??0?$_Iterator012@Urandom_access_iterator_tag@std@@UOption@CCustomMenu@@HPBU34@ABU34@U_Iterator_base12@2@@std@@QAE@XZ
_TEXT	SEGMENT
_this$ = -8						; size = 4
??0?$_Iterator012@Urandom_access_iterator_tag@std@@UOption@CCustomMenu@@HPBU34@ABU34@U_Iterator_base12@2@@std@@QAE@XZ PROC ; std::_Iterator012<std::random_access_iterator_tag,CCustomMenu::Option,int,CCustomMenu::Option const *,CCustomMenu::Option const &,std::_Iterator_base12>::_Iterator012<std::random_access_iterator_tag,CCustomMenu::Option,int,CCustomMenu::Option const *,CCustomMenu::Option const &,std::_Iterator_base12>, COMDAT
; _this$ = ecx
	push	ebp
	mov	ebp, esp
	sub	esp, 204				; 000000ccH
	push	ebx
	push	esi
	push	edi
	push	ecx
	lea	edi, DWORD PTR [ebp-204]
	mov	ecx, 51					; 00000033H
	mov	eax, -858993460				; ccccccccH
	rep stosd
	pop	ecx
	mov	DWORD PTR _this$[ebp], ecx
	mov	ecx, DWORD PTR _this$[ebp]
	call	??0_Iterator_base12@std@@QAE@XZ		; std::_Iterator_base12::_Iterator_base12
	mov	eax, DWORD PTR _this$[ebp]
	pop	edi
	pop	esi
	pop	ebx
	add	esp, 204				; 000000ccH
	cmp	ebp, esp
	call	__RTC_CheckEsp
	mov	esp, ebp
	pop	ebp
	ret	0
??0?$_Iterator012@Urandom_access_iterator_tag@std@@UOption@CCustomMenu@@HPBU34@ABU34@U_Iterator_base12@2@@std@@QAE@XZ ENDP ; std::_Iterator012<std::random_access_iterator_tag,CCustomMenu::Option,int,CCustomMenu::Option const *,CCustomMenu::Option const &,std::_Iterator_base12>::_Iterator012<std::random_access_iterator_tag,CCustomMenu::Option,int,CCustomMenu::Option const *,CCustomMenu::Option const &,std::_Iterator_base12>
_TEXT	ENDS
; Function compile flags: /Odtp /RTCsu /ZI
; File s:\chris\onedrive - uat\c++ programming ii\pete_final\pete_final\custommenu.cpp
;	COMDAT ?contains@CCustomMenu@@QAE_ND@Z
_TEXT	SEGMENT
tv139 = -317						; size = 1
tv161 = -316						; size = 4
tv71 = -312						; size = 4
tv159 = -308						; size = 4
tv156 = -304						; size = 4
tv152 = -300						; size = 4
tv162 = -296						; size = 4
$T2 = -288						; size = 12
$T3 = -268						; size = 12
$T4 = -248						; size = 4
$T5 = -236						; size = 4
$T6 = -221						; size = 1
_this$ = -20						; size = 4
__$EHRec$ = -12						; size = 12
_letter$ = 8						; size = 1
?contains@CCustomMenu@@QAE_ND@Z PROC			; CCustomMenu::contains, COMDAT
; _this$ = ecx

; 58   : {

	push	ebp
	mov	ebp, esp
	push	-1
	push	__ehhandler$?contains@CCustomMenu@@QAE_ND@Z
	mov	eax, DWORD PTR fs:0
	push	eax
	sub	esp, 308				; 00000134H
	push	ebx
	push	esi
	push	edi
	push	ecx
	lea	edi, DWORD PTR [ebp-320]
	mov	ecx, 77					; 0000004dH
	mov	eax, -858993460				; ccccccccH
	rep stosd
	pop	ecx
	mov	eax, DWORD PTR ___security_cookie
	xor	eax, ebp
	push	eax
	lea	eax, DWORD PTR __$EHRec$[ebp]
	mov	DWORD PTR fs:0, eax
	mov	DWORD PTR _this$[ebp], ecx

; 59   : 	// Make sure letter is uppercase
; 60   : 	letter = toupper(letter);

	movsx	eax, BYTE PTR _letter$[ebp]
	mov	esi, esp
	push	eax
	call	DWORD PTR __imp__toupper
	add	esp, 4
	cmp	esi, esp
	call	__RTC_CheckEsp
	mov	BYTE PTR _letter$[ebp], al

; 61   : 
; 62   : 	// Check if it can find the inputted value in the menu option list
; 63   : 	return find(optionList.begin(), optionList.end(), letter) != optionList.end();

	lea	eax, DWORD PTR $T2[ebp]
	push	eax
	mov	ecx, DWORD PTR _this$[ebp]
	call	?end@?$vector@UOption@CCustomMenu@@V?$allocator@UOption@CCustomMenu@@@std@@@std@@QAE?AV?$_Vector_iterator@V?$_Vector_val@U?$_Simple_types@UOption@CCustomMenu@@@std@@@std@@@2@XZ ; std::vector<CCustomMenu::Option,std::allocator<CCustomMenu::Option> >::end
	mov	DWORD PTR tv162[ebp], eax
	mov	ecx, DWORD PTR tv162[ebp]
	mov	DWORD PTR tv152[ebp], ecx
	mov	DWORD PTR __$EHRec$[ebp+8], 0
	mov	edx, DWORD PTR tv152[ebp]
	push	edx
	lea	eax, DWORD PTR _letter$[ebp]
	push	eax
	sub	esp, 12					; 0000000cH
	mov	ecx, esp
	mov	DWORD PTR $T5[ebp], esp
	push	ecx
	mov	ecx, DWORD PTR _this$[ebp]
	call	?end@?$vector@UOption@CCustomMenu@@V?$allocator@UOption@CCustomMenu@@@std@@@std@@QAE?AV?$_Vector_iterator@V?$_Vector_val@U?$_Simple_types@UOption@CCustomMenu@@@std@@@std@@@2@XZ ; std::vector<CCustomMenu::Option,std::allocator<CCustomMenu::Option> >::end
	mov	DWORD PTR tv156[ebp], eax
	sub	esp, 12					; 0000000cH
	mov	edx, esp
	mov	DWORD PTR $T4[ebp], esp
	push	edx
	mov	ecx, DWORD PTR _this$[ebp]
	call	?begin@?$vector@UOption@CCustomMenu@@V?$allocator@UOption@CCustomMenu@@@std@@@std@@QAE?AV?$_Vector_iterator@V?$_Vector_val@U?$_Simple_types@UOption@CCustomMenu@@@std@@@std@@@2@XZ ; std::vector<CCustomMenu::Option,std::allocator<CCustomMenu::Option> >::begin
	mov	DWORD PTR tv159[ebp], eax
	lea	eax, DWORD PTR $T3[ebp]
	push	eax
	call	??$find@V?$_Vector_iterator@V?$_Vector_val@U?$_Simple_types@UOption@CCustomMenu@@@std@@@std@@@std@@D@std@@YA?AV?$_Vector_iterator@V?$_Vector_val@U?$_Simple_types@UOption@CCustomMenu@@@std@@@std@@@0@V10@0ABD@Z ; std::find<std::_Vector_iterator<std::_Vector_val<std::_Simple_types<CCustomMenu::Option> > >,char>
	add	esp, 32					; 00000020H
	mov	DWORD PTR tv71[ebp], eax
	mov	ecx, DWORD PTR tv71[ebp]
	mov	DWORD PTR tv161[ebp], ecx
	mov	BYTE PTR __$EHRec$[ebp+8], 1
	mov	ecx, DWORD PTR tv161[ebp]
	call	??9?$_Vector_const_iterator@V?$_Vector_val@U?$_Simple_types@UOption@CCustomMenu@@@std@@@std@@@std@@QBE_NABV01@@Z ; std::_Vector_const_iterator<std::_Vector_val<std::_Simple_types<CCustomMenu::Option> > >::operator!=
	mov	BYTE PTR tv139[ebp], al
	mov	dl, BYTE PTR tv139[ebp]
	mov	BYTE PTR $T6[ebp], dl
	mov	BYTE PTR __$EHRec$[ebp+8], 0
	lea	ecx, DWORD PTR $T3[ebp]
	call	??1?$_Vector_iterator@V?$_Vector_val@U?$_Simple_types@UOption@CCustomMenu@@@std@@@std@@@std@@QAE@XZ
	mov	DWORD PTR __$EHRec$[ebp+8], -1
	lea	ecx, DWORD PTR $T2[ebp]
	call	??1?$_Vector_iterator@V?$_Vector_val@U?$_Simple_types@UOption@CCustomMenu@@@std@@@std@@@std@@QAE@XZ
	mov	al, BYTE PTR $T6[ebp]

; 64   : }

	mov	ecx, DWORD PTR __$EHRec$[ebp]
	mov	DWORD PTR fs:0, ecx
	pop	ecx
	pop	edi
	pop	esi
	pop	ebx
	add	esp, 320				; 00000140H
	cmp	ebp, esp
	call	__RTC_CheckEsp
	mov	esp, ebp
	pop	ebp
	ret	4
_TEXT	ENDS
;	COMDAT text$x
text$x	SEGMENT
__unwindfunclet$?contains@CCustomMenu@@QAE_ND@Z$0:
	lea	ecx, DWORD PTR $T2[ebp]
	jmp	??1?$_Vector_iterator@V?$_Vector_val@U?$_Simple_types@UOption@CCustomMenu@@@std@@@std@@@std@@QAE@XZ
__unwindfunclet$?contains@CCustomMenu@@QAE_ND@Z$3:
	lea	ecx, DWORD PTR $T3[ebp]
	jmp	??1?$_Vector_iterator@V?$_Vector_val@U?$_Simple_types@UOption@CCustomMenu@@@std@@@std@@@std@@QAE@XZ
__ehhandler$?contains@CCustomMenu@@QAE_ND@Z:
	mov	edx, DWORD PTR [esp+8]
	lea	eax, DWORD PTR [edx+12]
	mov	ecx, DWORD PTR [edx-324]
	xor	ecx, eax
	call	@__security_check_cookie@4
	mov	eax, OFFSET __ehfuncinfo$?contains@CCustomMenu@@QAE_ND@Z
	jmp	___CxxFrameHandler3
text$x	ENDS
?contains@CCustomMenu@@QAE_ND@Z ENDP			; CCustomMenu::contains
; Function compile flags: /Odtp /RTCsu /ZI
; File s:\chris\onedrive - uat\c++ programming ii\pete_final\pete_final\custommenu.cpp
;	COMDAT ?displayMenuOptions@CCustomMenu@@QAEXXZ
_TEXT	SEGMENT
tv166 = -328						; size = 4
tv164 = -328						; size = 4
tv161 = -328						; size = 4
tv168 = -324						; size = 4
tv167 = -324						; size = 4
tv65 = -324						; size = 4
$T2 = -316						; size = 12
$T3 = -293						; size = 1
$T4 = -284						; size = 12
$T5 = -261						; size = 1
$T6 = -252						; size = 12
_it$7 = -40						; size = 12
_this$ = -20						; size = 4
__$EHRec$ = -12						; size = 12
?displayMenuOptions@CCustomMenu@@QAEXXZ PROC		; CCustomMenu::displayMenuOptions, COMDAT
; _this$ = ecx

; 41   : {

	push	ebp
	mov	ebp, esp
	push	-1
	push	__ehhandler$?displayMenuOptions@CCustomMenu@@QAEXXZ
	mov	eax, DWORD PTR fs:0
	push	eax
	sub	esp, 316				; 0000013cH
	push	ebx
	push	esi
	push	edi
	push	ecx
	lea	edi, DWORD PTR [ebp-328]
	mov	ecx, 79					; 0000004fH
	mov	eax, -858993460				; ccccccccH
	rep stosd
	pop	ecx
	mov	eax, DWORD PTR ___security_cookie
	xor	eax, ebp
	push	eax
	lea	eax, DWORD PTR __$EHRec$[ebp]
	mov	DWORD PTR fs:0, eax
	mov	DWORD PTR _this$[ebp], ecx

; 42   : 	// Loop through the added options
; 43   : 	for (vector<Option>::const_iterator it = optionList.begin(); it != optionList.end(); ++it)

	lea	eax, DWORD PTR $T6[ebp]
	push	eax
	mov	ecx, DWORD PTR _this$[ebp]
	call	?begin@?$vector@UOption@CCustomMenu@@V?$allocator@UOption@CCustomMenu@@@std@@@std@@QAE?AV?$_Vector_iterator@V?$_Vector_val@U?$_Simple_types@UOption@CCustomMenu@@@std@@@std@@@2@XZ ; std::vector<CCustomMenu::Option,std::allocator<CCustomMenu::Option> >::begin
	mov	DWORD PTR tv167[ebp], eax
	mov	ecx, DWORD PTR tv167[ebp]
	mov	DWORD PTR tv161[ebp], ecx
	mov	DWORD PTR __$EHRec$[ebp+8], 0
	mov	edx, DWORD PTR tv161[ebp]
	push	edx
	lea	ecx, DWORD PTR _it$7[ebp]
	call	??0?$_Vector_const_iterator@V?$_Vector_val@U?$_Simple_types@UOption@CCustomMenu@@@std@@@std@@@std@@QAE@$$QAV01@@Z
	mov	BYTE PTR __$EHRec$[ebp+8], 2
	lea	ecx, DWORD PTR $T6[ebp]
	call	??1?$_Vector_iterator@V?$_Vector_val@U?$_Simple_types@UOption@CCustomMenu@@@std@@@std@@@std@@QAE@XZ
	jmp	SHORT $LN4@displayMen
$LN2@displayMen:
	lea	ecx, DWORD PTR _it$7[ebp]
	call	??E?$_Vector_const_iterator@V?$_Vector_val@U?$_Simple_types@UOption@CCustomMenu@@@std@@@std@@@std@@QAEAAV01@XZ ; std::_Vector_const_iterator<std::_Vector_val<std::_Simple_types<CCustomMenu::Option> > >::operator++
$LN4@displayMen:
	lea	eax, DWORD PTR $T4[ebp]
	push	eax
	mov	ecx, DWORD PTR _this$[ebp]
	call	?end@?$vector@UOption@CCustomMenu@@V?$allocator@UOption@CCustomMenu@@@std@@@std@@QAE?AV?$_Vector_iterator@V?$_Vector_val@U?$_Simple_types@UOption@CCustomMenu@@@std@@@std@@@2@XZ ; std::vector<CCustomMenu::Option,std::allocator<CCustomMenu::Option> >::end
	mov	DWORD PTR tv65[ebp], eax
	mov	ecx, DWORD PTR tv65[ebp]
	mov	DWORD PTR tv164[ebp], ecx
	mov	BYTE PTR __$EHRec$[ebp+8], 3
	mov	edx, DWORD PTR tv164[ebp]
	push	edx
	lea	ecx, DWORD PTR _it$7[ebp]
	call	??9?$_Vector_const_iterator@V?$_Vector_val@U?$_Simple_types@UOption@CCustomMenu@@@std@@@std@@@std@@QBE_NABV01@@Z ; std::_Vector_const_iterator<std::_Vector_val<std::_Simple_types<CCustomMenu::Option> > >::operator!=
	mov	BYTE PTR $T5[ebp], al
	mov	BYTE PTR __$EHRec$[ebp+8], 2
	lea	ecx, DWORD PTR $T4[ebp]
	call	??1?$_Vector_iterator@V?$_Vector_val@U?$_Simple_types@UOption@CCustomMenu@@@std@@@std@@@std@@QAE@XZ
	movzx	eax, BYTE PTR $T5[ebp]
	test	eax, eax
	je	$LN3@displayMen

; 44   : 	{
; 45   : 		// Display the option
; 46   : 		cout << "\t" << it->letter << ")  " << it->text;

	lea	ecx, DWORD PTR _it$7[ebp]
	call	??C?$_Vector_const_iterator@V?$_Vector_val@U?$_Simple_types@UOption@CCustomMenu@@@std@@@std@@@std@@QBEPBUOption@CCustomMenu@@XZ ; std::_Vector_const_iterator<std::_Vector_val<std::_Simple_types<CCustomMenu::Option> > >::operator->
	add	eax, 4
	push	eax
	push	OFFSET ??_C@_03KOEIKCBF@?$CJ?5?5?$AA@
	lea	ecx, DWORD PTR _it$7[ebp]
	call	??C?$_Vector_const_iterator@V?$_Vector_val@U?$_Simple_types@UOption@CCustomMenu@@@std@@@std@@@std@@QBEPBUOption@CCustomMenu@@XZ ; std::_Vector_const_iterator<std::_Vector_val<std::_Simple_types<CCustomMenu::Option> > >::operator->
	mov	al, BYTE PTR [eax]
	movzx	ecx, al
	push	ecx
	push	OFFSET ??_C@_01GPOEFGEJ@?7?$AA@
	mov	edx, DWORD PTR __imp_?cout@std@@3V?$basic_ostream@DU?$char_traits@D@std@@@1@A
	push	edx
	call	??$?6U?$char_traits@D@std@@@std@@YAAAV?$basic_ostream@DU?$char_traits@D@std@@@0@AAV10@PBD@Z ; std::operator<<<std::char_traits<char> >
	add	esp, 8
	push	eax
	call	??$?6U?$char_traits@D@std@@@std@@YAAAV?$basic_ostream@DU?$char_traits@D@std@@@0@AAV10@D@Z ; std::operator<<<std::char_traits<char> >
	add	esp, 8
	push	eax
	call	??$?6U?$char_traits@D@std@@@std@@YAAAV?$basic_ostream@DU?$char_traits@D@std@@@0@AAV10@PBD@Z ; std::operator<<<std::char_traits<char> >
	add	esp, 8
	push	eax
	call	??$?6DU?$char_traits@D@std@@V?$allocator@D@1@@std@@YAAAV?$basic_ostream@DU?$char_traits@D@std@@@0@AAV10@ABV?$basic_string@DU?$char_traits@D@std@@V?$allocator@D@2@@0@@Z ; std::operator<<<char,std::char_traits<char>,std::allocator<char> >
	add	esp, 8

; 47   : 
; 48   : 		// If the option being displayed isn't the last one, add a newline
; 49   : 		if (it != optionList.end())

	lea	eax, DWORD PTR $T2[ebp]
	push	eax
	mov	ecx, DWORD PTR _this$[ebp]
	call	?end@?$vector@UOption@CCustomMenu@@V?$allocator@UOption@CCustomMenu@@@std@@@std@@QAE?AV?$_Vector_iterator@V?$_Vector_val@U?$_Simple_types@UOption@CCustomMenu@@@std@@@std@@@2@XZ ; std::vector<CCustomMenu::Option,std::allocator<CCustomMenu::Option> >::end
	mov	DWORD PTR tv168[ebp], eax
	mov	ecx, DWORD PTR tv168[ebp]
	mov	DWORD PTR tv166[ebp], ecx
	mov	BYTE PTR __$EHRec$[ebp+8], 4
	mov	edx, DWORD PTR tv166[ebp]
	push	edx
	lea	ecx, DWORD PTR _it$7[ebp]
	call	??9?$_Vector_const_iterator@V?$_Vector_val@U?$_Simple_types@UOption@CCustomMenu@@@std@@@std@@@std@@QBE_NABV01@@Z ; std::_Vector_const_iterator<std::_Vector_val<std::_Simple_types<CCustomMenu::Option> > >::operator!=
	mov	BYTE PTR $T3[ebp], al
	mov	BYTE PTR __$EHRec$[ebp+8], 2
	lea	ecx, DWORD PTR $T2[ebp]
	call	??1?$_Vector_iterator@V?$_Vector_val@U?$_Simple_types@UOption@CCustomMenu@@@std@@@std@@@std@@QAE@XZ
	movzx	eax, BYTE PTR $T3[ebp]
	test	eax, eax
	je	SHORT $LN5@displayMen

; 50   : 		{
; 51   : 			cout << endl;

	mov	esi, esp
	push	OFFSET ??$endl@DU?$char_traits@D@std@@@std@@YAAAV?$basic_ostream@DU?$char_traits@D@std@@@0@AAV10@@Z ; std::endl<char,std::char_traits<char> >
	mov	ecx, DWORD PTR __imp_?cout@std@@3V?$basic_ostream@DU?$char_traits@D@std@@@1@A
	call	DWORD PTR __imp_??6?$basic_ostream@DU?$char_traits@D@std@@@std@@QAEAAV01@P6AAAV01@AAV01@@Z@Z
	cmp	esi, esp
	call	__RTC_CheckEsp
$LN5@displayMen:

; 52   : 		}

	jmp	$LN2@displayMen
$LN3@displayMen:

; 53   : 	}

	mov	DWORD PTR __$EHRec$[ebp+8], -1
	lea	ecx, DWORD PTR _it$7[ebp]
	call	??1?$_Vector_const_iterator@V?$_Vector_val@U?$_Simple_types@UOption@CCustomMenu@@@std@@@std@@@std@@QAE@XZ

; 54   : }

	push	edx
	mov	ecx, ebp
	push	eax
	lea	edx, DWORD PTR $LN14@displayMen
	call	@_RTC_CheckStackVars@8
	pop	eax
	pop	edx
	mov	ecx, DWORD PTR __$EHRec$[ebp]
	mov	DWORD PTR fs:0, ecx
	pop	ecx
	pop	edi
	pop	esi
	pop	ebx
	add	esp, 328				; 00000148H
	cmp	ebp, esp
	call	__RTC_CheckEsp
	mov	esp, ebp
	pop	ebp
	ret	0
	npad	2
$LN14@displayMen:
	DD	1
	DD	$LN13@displayMen
$LN13@displayMen:
	DD	-40					; ffffffd8H
	DD	12					; 0000000cH
	DD	$LN11@displayMen
$LN11@displayMen:
	DB	105					; 00000069H
	DB	116					; 00000074H
	DB	0
_TEXT	ENDS
;	COMDAT text$x
text$x	SEGMENT
__unwindfunclet$?displayMenuOptions@CCustomMenu@@QAEXXZ$0:
	lea	ecx, DWORD PTR $T6[ebp]
	jmp	??1?$_Vector_iterator@V?$_Vector_val@U?$_Simple_types@UOption@CCustomMenu@@@std@@@std@@@std@@QAE@XZ
__unwindfunclet$?displayMenuOptions@CCustomMenu@@QAEXXZ$1:
	lea	ecx, DWORD PTR _it$7[ebp]
	jmp	??1?$_Vector_const_iterator@V?$_Vector_val@U?$_Simple_types@UOption@CCustomMenu@@@std@@@std@@@std@@QAE@XZ
__unwindfunclet$?displayMenuOptions@CCustomMenu@@QAEXXZ$2:
	lea	ecx, DWORD PTR $T4[ebp]
	jmp	??1?$_Vector_iterator@V?$_Vector_val@U?$_Simple_types@UOption@CCustomMenu@@@std@@@std@@@std@@QAE@XZ
__unwindfunclet$?displayMenuOptions@CCustomMenu@@QAEXXZ$3:
	lea	ecx, DWORD PTR $T2[ebp]
	jmp	??1?$_Vector_iterator@V?$_Vector_val@U?$_Simple_types@UOption@CCustomMenu@@@std@@@std@@@std@@QAE@XZ
__ehhandler$?displayMenuOptions@CCustomMenu@@QAEXXZ:
	mov	edx, DWORD PTR [esp+8]
	lea	eax, DWORD PTR [edx+12]
	mov	ecx, DWORD PTR [edx-332]
	xor	ecx, eax
	call	@__security_check_cookie@4
	mov	eax, OFFSET __ehfuncinfo$?displayMenuOptions@CCustomMenu@@QAEXXZ
	jmp	___CxxFrameHandler3
text$x	ENDS
?displayMenuOptions@CCustomMenu@@QAEXXZ ENDP		; CCustomMenu::displayMenuOptions
; Function compile flags: /Odtp /RTCsu /ZI
; File s:\chris\onedrive - uat\c++ programming ii\pete_final\pete_final\custommenu.cpp
;	COMDAT ?addMenuOption@CCustomMenu@@QAE_NDV?$basic_string@DU?$char_traits@D@std@@V?$allocator@D@2@@std@@@Z
_TEXT	SEGMENT
tv140 = -409						; size = 1
tv202 = -408						; size = 4
tv72 = -404						; size = 4
tv200 = -400						; size = 4
tv197 = -396						; size = 4
tv209 = -392						; size = 4
tv193 = -392						; size = 4
tv212 = -388						; size = 4
tv206 = -388						; size = 4
$T2 = -377						; size = 1
$T3 = -368						; size = 4
$T4 = -356						; size = 4
$T5 = -341						; size = 1
$T6 = -332						; size = 12
$T7 = -312						; size = 12
$T8 = -292						; size = 4
$T9 = -280						; size = 4
$T10 = -265						; size = 1
_newOption$ = -64					; size = 32
_this$ = -24						; size = 4
__$ArrayPad$ = -16					; size = 4
__$EHRec$ = -12						; size = 12
_letter$ = 8						; size = 1
_text$ = 12						; size = 28
?addMenuOption@CCustomMenu@@QAE_NDV?$basic_string@DU?$char_traits@D@std@@V?$allocator@D@2@@std@@@Z PROC ; CCustomMenu::addMenuOption, COMDAT
; _this$ = ecx

; 16   : {

	push	ebp
	mov	ebp, esp
	push	-1
	push	__ehhandler$?addMenuOption@CCustomMenu@@QAE_NDV?$basic_string@DU?$char_traits@D@std@@V?$allocator@D@2@@std@@@Z
	mov	eax, DWORD PTR fs:0
	push	eax
	sub	esp, 400				; 00000190H
	push	ebx
	push	esi
	push	edi
	push	ecx
	lea	edi, DWORD PTR [ebp-412]
	mov	ecx, 100				; 00000064H
	mov	eax, -858993460				; ccccccccH
	rep stosd
	pop	ecx
	mov	eax, DWORD PTR ___security_cookie
	xor	eax, ebp
	mov	DWORD PTR __$ArrayPad$[ebp], eax
	push	eax
	lea	eax, DWORD PTR __$EHRec$[ebp]
	mov	DWORD PTR fs:0, eax
	mov	DWORD PTR _this$[ebp], ecx
	mov	DWORD PTR __$EHRec$[ebp+8], 0

; 17   : 	// Make sure letter is uppercase
; 18   : 	letter = toupper(letter);

	movsx	eax, BYTE PTR _letter$[ebp]
	mov	esi, esp
	push	eax
	call	DWORD PTR __imp__toupper
	add	esp, 4
	cmp	esi, esp
	call	__RTC_CheckEsp
	mov	BYTE PTR _letter$[ebp], al

; 19   : 
; 20   : 	// Check if an option with that letter already exists
; 21   : 	if (find(optionList.begin(), optionList.end(), letter) != optionList.end())

	lea	eax, DWORD PTR $T6[ebp]
	push	eax
	mov	ecx, DWORD PTR _this$[ebp]
	call	?end@?$vector@UOption@CCustomMenu@@V?$allocator@UOption@CCustomMenu@@@std@@@std@@QAE?AV?$_Vector_iterator@V?$_Vector_val@U?$_Simple_types@UOption@CCustomMenu@@@std@@@std@@@2@XZ ; std::vector<CCustomMenu::Option,std::allocator<CCustomMenu::Option> >::end
	mov	DWORD PTR tv212[ebp], eax
	mov	ecx, DWORD PTR tv212[ebp]
	mov	DWORD PTR tv193[ebp], ecx
	mov	BYTE PTR __$EHRec$[ebp+8], 1
	mov	edx, DWORD PTR tv193[ebp]
	push	edx
	lea	eax, DWORD PTR _letter$[ebp]
	push	eax
	sub	esp, 12					; 0000000cH
	mov	ecx, esp
	mov	DWORD PTR $T9[ebp], esp
	push	ecx
	mov	ecx, DWORD PTR _this$[ebp]
	call	?end@?$vector@UOption@CCustomMenu@@V?$allocator@UOption@CCustomMenu@@@std@@@std@@QAE?AV?$_Vector_iterator@V?$_Vector_val@U?$_Simple_types@UOption@CCustomMenu@@@std@@@std@@@2@XZ ; std::vector<CCustomMenu::Option,std::allocator<CCustomMenu::Option> >::end
	mov	DWORD PTR tv197[ebp], eax
	sub	esp, 12					; 0000000cH
	mov	edx, esp
	mov	DWORD PTR $T8[ebp], esp
	push	edx
	mov	ecx, DWORD PTR _this$[ebp]
	call	?begin@?$vector@UOption@CCustomMenu@@V?$allocator@UOption@CCustomMenu@@@std@@@std@@QAE?AV?$_Vector_iterator@V?$_Vector_val@U?$_Simple_types@UOption@CCustomMenu@@@std@@@std@@@2@XZ ; std::vector<CCustomMenu::Option,std::allocator<CCustomMenu::Option> >::begin
	mov	DWORD PTR tv200[ebp], eax
	lea	eax, DWORD PTR $T7[ebp]
	push	eax
	call	??$find@V?$_Vector_iterator@V?$_Vector_val@U?$_Simple_types@UOption@CCustomMenu@@@std@@@std@@@std@@D@std@@YA?AV?$_Vector_iterator@V?$_Vector_val@U?$_Simple_types@UOption@CCustomMenu@@@std@@@std@@@0@V10@0ABD@Z ; std::find<std::_Vector_iterator<std::_Vector_val<std::_Simple_types<CCustomMenu::Option> > >,char>
	add	esp, 32					; 00000020H
	mov	DWORD PTR tv72[ebp], eax
	mov	ecx, DWORD PTR tv72[ebp]
	mov	DWORD PTR tv202[ebp], ecx
	mov	BYTE PTR __$EHRec$[ebp+8], 2
	mov	ecx, DWORD PTR tv202[ebp]
	call	??9?$_Vector_const_iterator@V?$_Vector_val@U?$_Simple_types@UOption@CCustomMenu@@@std@@@std@@@std@@QBE_NABV01@@Z ; std::_Vector_const_iterator<std::_Vector_val<std::_Simple_types<CCustomMenu::Option> > >::operator!=
	mov	BYTE PTR tv140[ebp], al
	mov	dl, BYTE PTR tv140[ebp]
	mov	BYTE PTR $T10[ebp], dl
	mov	BYTE PTR __$EHRec$[ebp+8], 1
	lea	ecx, DWORD PTR $T7[ebp]
	call	??1?$_Vector_iterator@V?$_Vector_val@U?$_Simple_types@UOption@CCustomMenu@@@std@@@std@@@std@@QAE@XZ
	mov	BYTE PTR __$EHRec$[ebp+8], 0
	lea	ecx, DWORD PTR $T6[ebp]
	call	??1?$_Vector_iterator@V?$_Vector_val@U?$_Simple_types@UOption@CCustomMenu@@@std@@@std@@@std@@QAE@XZ
	movzx	eax, BYTE PTR $T10[ebp]
	test	eax, eax
	je	SHORT $LN2@addMenuOpt

; 22   : 	{
; 23   : 		return false;

	mov	BYTE PTR $T5[ebp], 0
	mov	DWORD PTR __$EHRec$[ebp+8], -1
	lea	ecx, DWORD PTR _text$[ebp]
	call	??1?$basic_string@DU?$char_traits@D@std@@V?$allocator@D@2@@std@@QAE@XZ ; std::basic_string<char,std::char_traits<char>,std::allocator<char> >::~basic_string<char,std::char_traits<char>,std::allocator<char> >
	mov	al, BYTE PTR $T5[ebp]
	jmp	$LN1@addMenuOpt
$LN2@addMenuOpt:

; 24   : 	}
; 25   : 
; 26   : 	// Make a new temporary option variable that will be added to the vector
; 27   : 	Option newOption;

	lea	ecx, DWORD PTR _newOption$[ebp]
	call	??0Option@CCustomMenu@@QAE@XZ
	mov	BYTE PTR __$EHRec$[ebp+8], 3

; 28   : 	newOption.letter = letter;

	mov	al, BYTE PTR _letter$[ebp]
	mov	BYTE PTR _newOption$[ebp], al

; 29   : 	newOption.text = text;

	lea	eax, DWORD PTR _text$[ebp]
	push	eax
	lea	ecx, DWORD PTR _newOption$[ebp+4]
	call	??4?$basic_string@DU?$char_traits@D@std@@V?$allocator@D@2@@std@@QAEAAV01@ABV01@@Z ; std::basic_string<char,std::char_traits<char>,std::allocator<char> >::operator=

; 30   : 
; 31   : 	// Add the new option
; 32   : 	optionList.push_back(newOption);

	lea	eax, DWORD PTR _newOption$[ebp]
	push	eax
	mov	ecx, DWORD PTR _this$[ebp]
	call	?push_back@?$vector@UOption@CCustomMenu@@V?$allocator@UOption@CCustomMenu@@@std@@@std@@QAEXABUOption@CCustomMenu@@@Z ; std::vector<CCustomMenu::Option,std::allocator<CCustomMenu::Option> >::push_back

; 33   : 
; 34   : 	// Sort the list so it is in alphabetical order
; 35   : 	sort(optionList.begin(), optionList.end());

	sub	esp, 12					; 0000000cH
	mov	eax, esp
	mov	DWORD PTR $T4[ebp], esp
	push	eax
	mov	ecx, DWORD PTR _this$[ebp]
	call	?end@?$vector@UOption@CCustomMenu@@V?$allocator@UOption@CCustomMenu@@@std@@@std@@QAE?AV?$_Vector_iterator@V?$_Vector_val@U?$_Simple_types@UOption@CCustomMenu@@@std@@@std@@@2@XZ ; std::vector<CCustomMenu::Option,std::allocator<CCustomMenu::Option> >::end
	mov	DWORD PTR tv206[ebp], eax
	sub	esp, 12					; 0000000cH
	mov	ecx, esp
	mov	DWORD PTR $T3[ebp], esp
	push	ecx
	mov	ecx, DWORD PTR _this$[ebp]
	call	?begin@?$vector@UOption@CCustomMenu@@V?$allocator@UOption@CCustomMenu@@@std@@@std@@QAE?AV?$_Vector_iterator@V?$_Vector_val@U?$_Simple_types@UOption@CCustomMenu@@@std@@@std@@@2@XZ ; std::vector<CCustomMenu::Option,std::allocator<CCustomMenu::Option> >::begin
	mov	DWORD PTR tv209[ebp], eax
	call	??$sort@V?$_Vector_iterator@V?$_Vector_val@U?$_Simple_types@UOption@CCustomMenu@@@std@@@std@@@std@@@std@@YAXV?$_Vector_iterator@V?$_Vector_val@U?$_Simple_types@UOption@CCustomMenu@@@std@@@std@@@0@0@Z ; std::sort<std::_Vector_iterator<std::_Vector_val<std::_Simple_types<CCustomMenu::Option> > > >
	add	esp, 24					; 00000018H

; 36   : 
; 37   : 	return true;

	mov	BYTE PTR $T2[ebp], 1
	mov	BYTE PTR __$EHRec$[ebp+8], 0
	lea	ecx, DWORD PTR _newOption$[ebp]
	call	??1Option@CCustomMenu@@QAE@XZ
	mov	DWORD PTR __$EHRec$[ebp+8], -1
	lea	ecx, DWORD PTR _text$[ebp]
	call	??1?$basic_string@DU?$char_traits@D@std@@V?$allocator@D@2@@std@@QAE@XZ ; std::basic_string<char,std::char_traits<char>,std::allocator<char> >::~basic_string<char,std::char_traits<char>,std::allocator<char> >
	mov	al, BYTE PTR $T2[ebp]
$LN1@addMenuOpt:

; 38   : }

	push	edx
	mov	ecx, ebp
	push	eax
	lea	edx, DWORD PTR $LN15@addMenuOpt
	call	@_RTC_CheckStackVars@8
	pop	eax
	pop	edx
	mov	ecx, DWORD PTR __$EHRec$[ebp]
	mov	DWORD PTR fs:0, ecx
	pop	ecx
	pop	edi
	pop	esi
	pop	ebx
	mov	ecx, DWORD PTR __$ArrayPad$[ebp]
	xor	ecx, ebp
	call	@__security_check_cookie@4
	add	esp, 412				; 0000019cH
	cmp	ebp, esp
	call	__RTC_CheckEsp
	mov	esp, ebp
	pop	ebp
	ret	32					; 00000020H
$LN15@addMenuOpt:
	DD	1
	DD	$LN14@addMenuOpt
$LN14@addMenuOpt:
	DD	-64					; ffffffc0H
	DD	32					; 00000020H
	DD	$LN12@addMenuOpt
$LN12@addMenuOpt:
	DB	110					; 0000006eH
	DB	101					; 00000065H
	DB	119					; 00000077H
	DB	79					; 0000004fH
	DB	112					; 00000070H
	DB	116					; 00000074H
	DB	105					; 00000069H
	DB	111					; 0000006fH
	DB	110					; 0000006eH
	DB	0
_TEXT	ENDS
;	COMDAT text$x
text$x	SEGMENT
__unwindfunclet$?addMenuOption@CCustomMenu@@QAE_NDV?$basic_string@DU?$char_traits@D@std@@V?$allocator@D@2@@std@@@Z$0:
	lea	ecx, DWORD PTR _text$[ebp]
	jmp	??1?$basic_string@DU?$char_traits@D@std@@V?$allocator@D@2@@std@@QAE@XZ ; std::basic_string<char,std::char_traits<char>,std::allocator<char> >::~basic_string<char,std::char_traits<char>,std::allocator<char> >
__unwindfunclet$?addMenuOption@CCustomMenu@@QAE_NDV?$basic_string@DU?$char_traits@D@std@@V?$allocator@D@2@@std@@@Z$1:
	lea	ecx, DWORD PTR $T6[ebp]
	jmp	??1?$_Vector_iterator@V?$_Vector_val@U?$_Simple_types@UOption@CCustomMenu@@@std@@@std@@@std@@QAE@XZ
__unwindfunclet$?addMenuOption@CCustomMenu@@QAE_NDV?$basic_string@DU?$char_traits@D@std@@V?$allocator@D@2@@std@@@Z$4:
	lea	ecx, DWORD PTR $T7[ebp]
	jmp	??1?$_Vector_iterator@V?$_Vector_val@U?$_Simple_types@UOption@CCustomMenu@@@std@@@std@@@std@@QAE@XZ
__unwindfunclet$?addMenuOption@CCustomMenu@@QAE_NDV?$basic_string@DU?$char_traits@D@std@@V?$allocator@D@2@@std@@@Z$5:
	lea	ecx, DWORD PTR _newOption$[ebp]
	jmp	??1Option@CCustomMenu@@QAE@XZ
__ehhandler$?addMenuOption@CCustomMenu@@QAE_NDV?$basic_string@DU?$char_traits@D@std@@V?$allocator@D@2@@std@@@Z:
	mov	edx, DWORD PTR [esp+8]
	lea	eax, DWORD PTR [edx+12]
	mov	ecx, DWORD PTR [edx-416]
	xor	ecx, eax
	call	@__security_check_cookie@4
	mov	ecx, DWORD PTR [edx-4]
	xor	ecx, eax
	call	@__security_check_cookie@4
	mov	eax, OFFSET __ehfuncinfo$?addMenuOption@CCustomMenu@@QAE_NDV?$basic_string@DU?$char_traits@D@std@@V?$allocator@D@2@@std@@@Z
	jmp	___CxxFrameHandler3
text$x	ENDS
?addMenuOption@CCustomMenu@@QAE_NDV?$basic_string@DU?$char_traits@D@std@@V?$allocator@D@2@@std@@@Z ENDP ; CCustomMenu::addMenuOption
; Function compile flags: /Odtp /RTCsu /ZI
; File s:\chris\onedrive - uat\c++ programming ii\pete_final\pete_final\custommenu.cpp
;	COMDAT ??1CCustomMenu@@QAE@XZ
_TEXT	SEGMENT
_this$ = -8						; size = 4
??1CCustomMenu@@QAE@XZ PROC				; CCustomMenu::~CCustomMenu, COMDAT
; _this$ = ecx

; 11   : {

	push	ebp
	mov	ebp, esp
	sub	esp, 204				; 000000ccH
	push	ebx
	push	esi
	push	edi
	push	ecx
	lea	edi, DWORD PTR [ebp-204]
	mov	ecx, 51					; 00000033H
	mov	eax, -858993460				; ccccccccH
	rep stosd
	pop	ecx
	mov	DWORD PTR _this$[ebp], ecx

; 12   : }

	mov	ecx, DWORD PTR _this$[ebp]
	call	??1?$vector@UOption@CCustomMenu@@V?$allocator@UOption@CCustomMenu@@@std@@@std@@QAE@XZ ; std::vector<CCustomMenu::Option,std::allocator<CCustomMenu::Option> >::~vector<CCustomMenu::Option,std::allocator<CCustomMenu::Option> >
	pop	edi
	pop	esi
	pop	ebx
	add	esp, 204				; 000000ccH
	cmp	ebp, esp
	call	__RTC_CheckEsp
	mov	esp, ebp
	pop	ebp
	ret	0
??1CCustomMenu@@QAE@XZ ENDP				; CCustomMenu::~CCustomMenu
_TEXT	ENDS
; Function compile flags: /Odtp /RTCsu /ZI
; File s:\chris\onedrive - uat\c++ programming ii\pete_final\pete_final\custommenu.cpp
;	COMDAT ??0CCustomMenu@@QAE@XZ
_TEXT	SEGMENT
_this$ = -8						; size = 4
??0CCustomMenu@@QAE@XZ PROC				; CCustomMenu::CCustomMenu, COMDAT
; _this$ = ecx

; 6    : {

	push	ebp
	mov	ebp, esp
	sub	esp, 204				; 000000ccH
	push	ebx
	push	esi
	push	edi
	push	ecx
	lea	edi, DWORD PTR [ebp-204]
	mov	ecx, 51					; 00000033H
	mov	eax, -858993460				; ccccccccH
	rep stosd
	pop	ecx
	mov	DWORD PTR _this$[ebp], ecx
	mov	ecx, DWORD PTR _this$[ebp]
	call	??0?$vector@UOption@CCustomMenu@@V?$allocator@UOption@CCustomMenu@@@std@@@std@@QAE@XZ ; std::vector<CCustomMenu::Option,std::allocator<CCustomMenu::Option> >::vector<CCustomMenu::Option,std::allocator<CCustomMenu::Option> >

; 7    : }

	mov	eax, DWORD PTR _this$[ebp]
	pop	edi
	pop	esi
	pop	ebx
	add	esp, 204				; 000000ccH
	cmp	ebp, esp
	call	__RTC_CheckEsp
	mov	esp, ebp
	pop	ebp
	ret	0
??0CCustomMenu@@QAE@XZ ENDP				; CCustomMenu::CCustomMenu
_TEXT	ENDS
; Function compile flags: /Odtp /RTCsu /ZI
; File c:\program files (x86)\microsoft visual studio 14.0\vc\include\vector
;	COMDAT ?_Orphan_range@?$vector@UOption@CCustomMenu@@V?$allocator@UOption@CCustomMenu@@@std@@@std@@IBEXPAUOption@CCustomMenu@@0@Z
_TEXT	SEGMENT
__Pnext$ = -44						; size = 4
__Lock$ = -32						; size = 4
_this$ = -20						; size = 4
__$EHRec$ = -12						; size = 12
__First$ = 8						; size = 4
__Last$ = 12						; size = 4
?_Orphan_range@?$vector@UOption@CCustomMenu@@V?$allocator@UOption@CCustomMenu@@@std@@@std@@IBEXPAUOption@CCustomMenu@@0@Z PROC ; std::vector<CCustomMenu::Option,std::allocator<CCustomMenu::Option> >::_Orphan_range, COMDAT
; _this$ = ecx

; 1775 : 		{	// orphan iterators within specified (inclusive) range

	push	ebp
	mov	ebp, esp
	push	-1
	push	__ehhandler$?_Orphan_range@?$vector@UOption@CCustomMenu@@V?$allocator@UOption@CCustomMenu@@@std@@@std@@IBEXPAUOption@CCustomMenu@@0@Z
	mov	eax, DWORD PTR fs:0
	push	eax
	sub	esp, 228				; 000000e4H
	push	ebx
	push	esi
	push	edi
	push	ecx
	lea	edi, DWORD PTR [ebp-240]
	mov	ecx, 57					; 00000039H
	mov	eax, -858993460				; ccccccccH
	rep stosd
	pop	ecx
	mov	eax, DWORD PTR ___security_cookie
	xor	eax, ebp
	push	eax
	lea	eax, DWORD PTR __$EHRec$[ebp]
	mov	DWORD PTR fs:0, eax
	mov	DWORD PTR _this$[ebp], ecx

; 1776 : 		_Lockit _Lock(_LOCK_DEBUG);

	mov	esi, esp
	push	3
	lea	ecx, DWORD PTR __Lock$[ebp]
	call	DWORD PTR __imp_??0_Lockit@std@@QAE@H@Z
	cmp	esi, esp
	call	__RTC_CheckEsp
	mov	DWORD PTR __$EHRec$[ebp+8], 0

; 1777 : 		const_iterator **_Pnext = (const_iterator **)this->_Getpfirst();

	mov	ecx, DWORD PTR _this$[ebp]
	call	?_Getpfirst@?$_Vector_alloc@U?$_Vec_base_types@UOption@CCustomMenu@@V?$allocator@UOption@CCustomMenu@@@std@@@std@@@std@@QBEPAPAU_Iterator_base12@2@XZ ; std::_Vector_alloc<std::_Vec_base_types<CCustomMenu::Option,std::allocator<CCustomMenu::Option> > >::_Getpfirst
	mov	DWORD PTR __Pnext$[ebp], eax

; 1778 : 		if (_Pnext != 0)

	cmp	DWORD PTR __Pnext$[ebp], 0
	je	SHORT $LN4@Orphan_ran
$LN2@Orphan_ran:

; 1779 : 			{	// test an iterator
; 1780 : 			while (*_Pnext != 0)

	mov	eax, DWORD PTR __Pnext$[ebp]
	cmp	DWORD PTR [eax], 0
	je	SHORT $LN4@Orphan_ran

; 1781 : 				if ((*_Pnext)->_Ptr < _First || _Last < (*_Pnext)->_Ptr)

	mov	eax, DWORD PTR __Pnext$[ebp]
	mov	ecx, DWORD PTR [eax]
	mov	edx, DWORD PTR [ecx+8]
	cmp	edx, DWORD PTR __First$[ebp]
	jb	SHORT $LN7@Orphan_ran
	mov	eax, DWORD PTR __Pnext$[ebp]
	mov	ecx, DWORD PTR [eax]
	mov	edx, DWORD PTR __Last$[ebp]
	cmp	edx, DWORD PTR [ecx+8]
	jae	SHORT $LN5@Orphan_ran
$LN7@Orphan_ran:

; 1782 : 					_Pnext = (const_iterator **)(*_Pnext)->_Getpnext();

	mov	eax, DWORD PTR __Pnext$[ebp]
	mov	ecx, DWORD PTR [eax]
	call	?_Getpnext@_Iterator_base12@std@@QAEPAPAU12@XZ ; std::_Iterator_base12::_Getpnext
	mov	DWORD PTR __Pnext$[ebp], eax

; 1783 : 				else

	jmp	SHORT $LN6@Orphan_ran
$LN5@Orphan_ran:

; 1784 : 					{	// orphan the iterator
; 1785 : 					(*_Pnext)->_Clrcont();

	mov	eax, DWORD PTR __Pnext$[ebp]
	mov	ecx, DWORD PTR [eax]
	call	?_Clrcont@_Iterator_base12@std@@QAEXXZ	; std::_Iterator_base12::_Clrcont

; 1786 : 					*_Pnext = *(const_iterator **)(*_Pnext)->_Getpnext();

	mov	eax, DWORD PTR __Pnext$[ebp]
	mov	ecx, DWORD PTR [eax]
	call	?_Getpnext@_Iterator_base12@std@@QAEPAPAU12@XZ ; std::_Iterator_base12::_Getpnext
	mov	ecx, DWORD PTR __Pnext$[ebp]
	mov	edx, DWORD PTR [eax]
	mov	DWORD PTR [ecx], edx
$LN6@Orphan_ran:

; 1787 : 					}

	jmp	SHORT $LN2@Orphan_ran
$LN4@Orphan_ran:

; 1788 : 			}
; 1789 : 		}

	mov	DWORD PTR __$EHRec$[ebp+8], -1
	mov	esi, esp
	lea	ecx, DWORD PTR __Lock$[ebp]
	call	DWORD PTR __imp_??1_Lockit@std@@QAE@XZ
	cmp	esi, esp
	call	__RTC_CheckEsp
	push	edx
	mov	ecx, ebp
	push	eax
	lea	edx, DWORD PTR $LN13@Orphan_ran
	call	@_RTC_CheckStackVars@8
	pop	eax
	pop	edx
	mov	ecx, DWORD PTR __$EHRec$[ebp]
	mov	DWORD PTR fs:0, ecx
	pop	ecx
	pop	edi
	pop	esi
	pop	ebx
	add	esp, 240				; 000000f0H
	cmp	ebp, esp
	call	__RTC_CheckEsp
	mov	esp, ebp
	pop	ebp
	ret	8
	npad	1
$LN13@Orphan_ran:
	DD	1
	DD	$LN12@Orphan_ran
$LN12@Orphan_ran:
	DD	-32					; ffffffe0H
	DD	4
	DD	$LN10@Orphan_ran
$LN10@Orphan_ran:
	DB	95					; 0000005fH
	DB	76					; 0000004cH
	DB	111					; 0000006fH
	DB	99					; 00000063H
	DB	107					; 0000006bH
	DB	0
_TEXT	ENDS
;	COMDAT text$x
text$x	SEGMENT
__unwindfunclet$?_Orphan_range@?$vector@UOption@CCustomMenu@@V?$allocator@UOption@CCustomMenu@@@std@@@std@@IBEXPAUOption@CCustomMenu@@0@Z$0:
	mov	esi, esp
	lea	ecx, DWORD PTR __Lock$[ebp]
	call	DWORD PTR __imp_??1_Lockit@std@@QAE@XZ
	cmp	esi, esp
	jmp	__RTC_CheckEsp
__ehhandler$?_Orphan_range@?$vector@UOption@CCustomMenu@@V?$allocator@UOption@CCustomMenu@@@std@@@std@@IBEXPAUOption@CCustomMenu@@0@Z:
	mov	edx, DWORD PTR [esp+8]
	lea	eax, DWORD PTR [edx+12]
	mov	ecx, DWORD PTR [edx-244]
	xor	ecx, eax
	call	@__security_check_cookie@4
	mov	eax, OFFSET __ehfuncinfo$?_Orphan_range@?$vector@UOption@CCustomMenu@@V?$allocator@UOption@CCustomMenu@@@std@@@std@@IBEXPAUOption@CCustomMenu@@0@Z
	jmp	___CxxFrameHandler3
text$x	ENDS
?_Orphan_range@?$vector@UOption@CCustomMenu@@V?$allocator@UOption@CCustomMenu@@@std@@@std@@IBEXPAUOption@CCustomMenu@@0@Z ENDP ; std::vector<CCustomMenu::Option,std::allocator<CCustomMenu::Option> >::_Orphan_range
; Function compile flags: /Odtp /RTCsu /ZI
; File c:\program files (x86)\microsoft visual studio 14.0\vc\include\vector
;	COMDAT ?_Xlen@?$vector@UOption@CCustomMenu@@V?$allocator@UOption@CCustomMenu@@@std@@@std@@IBEXXZ
_TEXT	SEGMENT
_this$ = -8						; size = 4
?_Xlen@?$vector@UOption@CCustomMenu@@V?$allocator@UOption@CCustomMenu@@@std@@@std@@IBEXXZ PROC ; std::vector<CCustomMenu::Option,std::allocator<CCustomMenu::Option> >::_Xlen, COMDAT
; _this$ = ecx

; 1764 : 		{	// report a length_error

	push	ebp
	mov	ebp, esp
	sub	esp, 204				; 000000ccH
	push	ebx
	push	esi
	push	edi
	push	ecx
	lea	edi, DWORD PTR [ebp-204]
	mov	ecx, 51					; 00000033H
	mov	eax, -858993460				; ccccccccH
	rep stosd
	pop	ecx
	mov	DWORD PTR _this$[ebp], ecx

; 1765 : 		_Xlength_error("vector<T> too long");

	mov	esi, esp
	push	OFFSET ??_C@_0BD@OLBABOEK@vector?$DMT?$DO?5too?5long?$AA@
	call	DWORD PTR __imp_?_Xlength_error@std@@YAXPBD@Z
	cmp	esi, esp
	call	__RTC_CheckEsp
$LN2@Xlen:

; 1766 : 		}

	pop	edi
	pop	esi
	pop	ebx
	add	esp, 204				; 000000ccH
	cmp	ebp, esp
	call	__RTC_CheckEsp
	mov	esp, ebp
	pop	ebp
	ret	0
?_Xlen@?$vector@UOption@CCustomMenu@@V?$allocator@UOption@CCustomMenu@@@std@@@std@@IBEXXZ ENDP ; std::vector<CCustomMenu::Option,std::allocator<CCustomMenu::Option> >::_Xlen
_TEXT	ENDS
; Function compile flags: /Odtp /RTCsu /ZI
; File c:\program files (x86)\microsoft visual studio 14.0\vc\include\vector
;	COMDAT ?_Tidy@?$vector@UOption@CCustomMenu@@V?$allocator@UOption@CCustomMenu@@@std@@@std@@IAEXXZ
_TEXT	SEGMENT
_this$ = -8						; size = 4
?_Tidy@?$vector@UOption@CCustomMenu@@V?$allocator@UOption@CCustomMenu@@@std@@@std@@IAEXXZ PROC ; std::vector<CCustomMenu::Option,std::allocator<CCustomMenu::Option> >::_Tidy, COMDAT
; _this$ = ecx

; 1636 : 		{	// free all storage

	push	ebp
	mov	ebp, esp
	sub	esp, 204				; 000000ccH
	push	ebx
	push	esi
	push	edi
	push	ecx
	lea	edi, DWORD PTR [ebp-204]
	mov	ecx, 51					; 00000033H
	mov	eax, -858993460				; ccccccccH
	rep stosd
	pop	ecx
	mov	DWORD PTR _this$[ebp], ecx

; 1637 : 		if (this->_Myfirst() != pointer())

	mov	ecx, DWORD PTR _this$[ebp]
	call	?_Myfirst@?$_Vector_alloc@U?$_Vec_base_types@UOption@CCustomMenu@@V?$allocator@UOption@CCustomMenu@@@std@@@std@@@std@@QAEAAPAUOption@CCustomMenu@@XZ ; std::_Vector_alloc<std::_Vec_base_types<CCustomMenu::Option,std::allocator<CCustomMenu::Option> > >::_Myfirst
	cmp	DWORD PTR [eax], 0
	je	$LN1@Tidy

; 1638 : 			{	// something to free, destroy and deallocate it
; 1639 : 			this->_Orphan_all();

	mov	ecx, DWORD PTR _this$[ebp]
	call	?_Orphan_all@?$_Vector_alloc@U?$_Vec_base_types@UOption@CCustomMenu@@V?$allocator@UOption@CCustomMenu@@@std@@@std@@@std@@QAEXXZ ; std::_Vector_alloc<std::_Vec_base_types<CCustomMenu::Option,std::allocator<CCustomMenu::Option> > >::_Orphan_all

; 1640 : 			_Destroy(this->_Myfirst(), this->_Mylast());

	mov	ecx, DWORD PTR _this$[ebp]
	call	?_Mylast@?$_Vector_alloc@U?$_Vec_base_types@UOption@CCustomMenu@@V?$allocator@UOption@CCustomMenu@@@std@@@std@@@std@@QAEAAPAUOption@CCustomMenu@@XZ ; std::_Vector_alloc<std::_Vec_base_types<CCustomMenu::Option,std::allocator<CCustomMenu::Option> > >::_Mylast
	mov	eax, DWORD PTR [eax]
	push	eax
	mov	ecx, DWORD PTR _this$[ebp]
	call	?_Myfirst@?$_Vector_alloc@U?$_Vec_base_types@UOption@CCustomMenu@@V?$allocator@UOption@CCustomMenu@@@std@@@std@@@std@@QAEAAPAUOption@CCustomMenu@@XZ ; std::_Vector_alloc<std::_Vec_base_types<CCustomMenu::Option,std::allocator<CCustomMenu::Option> > >::_Myfirst
	mov	ecx, DWORD PTR [eax]
	push	ecx
	mov	ecx, DWORD PTR _this$[ebp]
	call	?_Destroy@?$vector@UOption@CCustomMenu@@V?$allocator@UOption@CCustomMenu@@@std@@@std@@IAEXPAUOption@CCustomMenu@@0@Z ; std::vector<CCustomMenu::Option,std::allocator<CCustomMenu::Option> >::_Destroy

; 1641 : 			this->_Getal().deallocate(this->_Myfirst(),

	mov	ecx, DWORD PTR _this$[ebp]
	call	?_Myend@?$_Vector_alloc@U?$_Vec_base_types@UOption@CCustomMenu@@V?$allocator@UOption@CCustomMenu@@@std@@@std@@@std@@QAEAAPAUOption@CCustomMenu@@XZ ; std::_Vector_alloc<std::_Vec_base_types<CCustomMenu::Option,std::allocator<CCustomMenu::Option> > >::_Myend
	mov	esi, eax
	mov	ecx, DWORD PTR _this$[ebp]
	call	?_Myfirst@?$_Vector_alloc@U?$_Vec_base_types@UOption@CCustomMenu@@V?$allocator@UOption@CCustomMenu@@@std@@@std@@@std@@QAEAAPAUOption@CCustomMenu@@XZ ; std::_Vector_alloc<std::_Vec_base_types<CCustomMenu::Option,std::allocator<CCustomMenu::Option> > >::_Myfirst
	mov	ecx, DWORD PTR [esi]
	sub	ecx, DWORD PTR [eax]
	sar	ecx, 5
	push	ecx
	mov	ecx, DWORD PTR _this$[ebp]
	call	?_Myfirst@?$_Vector_alloc@U?$_Vec_base_types@UOption@CCustomMenu@@V?$allocator@UOption@CCustomMenu@@@std@@@std@@@std@@QAEAAPAUOption@CCustomMenu@@XZ ; std::_Vector_alloc<std::_Vec_base_types<CCustomMenu::Option,std::allocator<CCustomMenu::Option> > >::_Myfirst
	mov	edx, DWORD PTR [eax]
	push	edx
	mov	ecx, DWORD PTR _this$[ebp]
	call	?_Getal@?$_Vector_alloc@U?$_Vec_base_types@UOption@CCustomMenu@@V?$allocator@UOption@CCustomMenu@@@std@@@std@@@std@@QAEAAU?$_Wrap_alloc@V?$allocator@UOption@CCustomMenu@@@std@@@2@XZ ; std::_Vector_alloc<std::_Vec_base_types<CCustomMenu::Option,std::allocator<CCustomMenu::Option> > >::_Getal
	mov	ecx, eax
	call	?deallocate@?$_Wrap_alloc@V?$allocator@UOption@CCustomMenu@@@std@@@std@@QAEXPAUOption@CCustomMenu@@I@Z ; std::_Wrap_alloc<std::allocator<CCustomMenu::Option> >::deallocate

; 1642 : 				this->_Myend() - this->_Myfirst());
; 1643 : 			this->_Myfirst() = pointer();

	mov	ecx, DWORD PTR _this$[ebp]
	call	?_Myfirst@?$_Vector_alloc@U?$_Vec_base_types@UOption@CCustomMenu@@V?$allocator@UOption@CCustomMenu@@@std@@@std@@@std@@QAEAAPAUOption@CCustomMenu@@XZ ; std::_Vector_alloc<std::_Vec_base_types<CCustomMenu::Option,std::allocator<CCustomMenu::Option> > >::_Myfirst
	mov	DWORD PTR [eax], 0

; 1644 : 			this->_Mylast() = pointer();

	mov	ecx, DWORD PTR _this$[ebp]
	call	?_Mylast@?$_Vector_alloc@U?$_Vec_base_types@UOption@CCustomMenu@@V?$allocator@UOption@CCustomMenu@@@std@@@std@@@std@@QAEAAPAUOption@CCustomMenu@@XZ ; std::_Vector_alloc<std::_Vec_base_types<CCustomMenu::Option,std::allocator<CCustomMenu::Option> > >::_Mylast
	mov	DWORD PTR [eax], 0

; 1645 : 			this->_Myend() = pointer();

	mov	ecx, DWORD PTR _this$[ebp]
	call	?_Myend@?$_Vector_alloc@U?$_Vec_base_types@UOption@CCustomMenu@@V?$allocator@UOption@CCustomMenu@@@std@@@std@@@std@@QAEAAPAUOption@CCustomMenu@@XZ ; std::_Vector_alloc<std::_Vec_base_types<CCustomMenu::Option,std::allocator<CCustomMenu::Option> > >::_Myend
	mov	DWORD PTR [eax], 0
$LN1@Tidy:

; 1646 : 			}
; 1647 : 		}

	pop	edi
	pop	esi
	pop	ebx
	add	esp, 204				; 000000ccH
	cmp	ebp, esp
	call	__RTC_CheckEsp
	mov	esp, ebp
	pop	ebp
	ret	0
?_Tidy@?$vector@UOption@CCustomMenu@@V?$allocator@UOption@CCustomMenu@@@std@@@std@@IAEXXZ ENDP ; std::vector<CCustomMenu::Option,std::allocator<CCustomMenu::Option> >::_Tidy
_TEXT	ENDS
; Function compile flags: /Odtp /RTCsu /ZI
; File c:\program files (x86)\microsoft visual studio 14.0\vc\include\vector
;	COMDAT ?_Reserve@?$vector@UOption@CCustomMenu@@V?$allocator@UOption@CCustomMenu@@@std@@@std@@IAEXI@Z
_TEXT	SEGMENT
_this$ = -8						; size = 4
__Count$ = 8						; size = 4
?_Reserve@?$vector@UOption@CCustomMenu@@V?$allocator@UOption@CCustomMenu@@@std@@@std@@IAEXI@Z PROC ; std::vector<CCustomMenu::Option,std::allocator<CCustomMenu::Option> >::_Reserve, COMDAT
; _this$ = ecx

; 1626 : 		{	// ensure room for _Count new elements, grow exponentially

	push	ebp
	mov	ebp, esp
	sub	esp, 204				; 000000ccH
	push	ebx
	push	esi
	push	edi
	push	ecx
	lea	edi, DWORD PTR [ebp-204]
	mov	ecx, 51					; 00000033H
	mov	eax, -858993460				; ccccccccH
	rep stosd
	pop	ecx
	mov	DWORD PTR _this$[ebp], ecx

; 1627 : 		if (_Unused_capacity() < _Count)

	mov	ecx, DWORD PTR _this$[ebp]
	call	?_Unused_capacity@?$vector@UOption@CCustomMenu@@V?$allocator@UOption@CCustomMenu@@@std@@@std@@QBEIXZ ; std::vector<CCustomMenu::Option,std::allocator<CCustomMenu::Option> >::_Unused_capacity
	cmp	eax, DWORD PTR __Count$[ebp]
	jae	SHORT $LN4@Reserve

; 1628 : 			{	// need more room, try to get it
; 1629 : 			if (max_size() - size() < _Count)

	mov	ecx, DWORD PTR _this$[ebp]
	call	?max_size@?$vector@UOption@CCustomMenu@@V?$allocator@UOption@CCustomMenu@@@std@@@std@@QBEIXZ ; std::vector<CCustomMenu::Option,std::allocator<CCustomMenu::Option> >::max_size
	mov	esi, eax
	mov	ecx, DWORD PTR _this$[ebp]
	call	?size@?$vector@UOption@CCustomMenu@@V?$allocator@UOption@CCustomMenu@@@std@@@std@@QBEIXZ ; std::vector<CCustomMenu::Option,std::allocator<CCustomMenu::Option> >::size
	sub	esi, eax
	cmp	esi, DWORD PTR __Count$[ebp]
	jae	SHORT $LN3@Reserve

; 1630 : 				_Xlen();

	mov	ecx, DWORD PTR _this$[ebp]
	call	?_Xlen@?$vector@UOption@CCustomMenu@@V?$allocator@UOption@CCustomMenu@@@std@@@std@@IBEXXZ ; std::vector<CCustomMenu::Option,std::allocator<CCustomMenu::Option> >::_Xlen
$LN3@Reserve:

; 1631 : 			_Reallocate(_Grow_to(size() + _Count));

	mov	ecx, DWORD PTR _this$[ebp]
	call	?size@?$vector@UOption@CCustomMenu@@V?$allocator@UOption@CCustomMenu@@@std@@@std@@QBEIXZ ; std::vector<CCustomMenu::Option,std::allocator<CCustomMenu::Option> >::size
	add	eax, DWORD PTR __Count$[ebp]
	push	eax
	mov	ecx, DWORD PTR _this$[ebp]
	call	?_Grow_to@?$vector@UOption@CCustomMenu@@V?$allocator@UOption@CCustomMenu@@@std@@@std@@IBEII@Z ; std::vector<CCustomMenu::Option,std::allocator<CCustomMenu::Option> >::_Grow_to
	push	eax
	mov	ecx, DWORD PTR _this$[ebp]
	call	?_Reallocate@?$vector@UOption@CCustomMenu@@V?$allocator@UOption@CCustomMenu@@@std@@@std@@IAEXI@Z ; std::vector<CCustomMenu::Option,std::allocator<CCustomMenu::Option> >::_Reallocate
$LN4@Reserve:

; 1632 : 			}
; 1633 : 		}

	pop	edi
	pop	esi
	pop	ebx
	add	esp, 204				; 000000ccH
	cmp	ebp, esp
	call	__RTC_CheckEsp
	mov	esp, ebp
	pop	ebp
	ret	4
?_Reserve@?$vector@UOption@CCustomMenu@@V?$allocator@UOption@CCustomMenu@@@std@@@std@@IAEXI@Z ENDP ; std::vector<CCustomMenu::Option,std::allocator<CCustomMenu::Option> >::_Reserve
_TEXT	ENDS
; Function compile flags: /Odtp /RTCsu /ZI
; File c:\program files (x86)\microsoft visual studio 14.0\vc\include\vector
;	COMDAT ?_Reallocate@?$vector@UOption@CCustomMenu@@V?$allocator@UOption@CCustomMenu@@@std@@@std@@IAEXI@Z
_TEXT	SEGMENT
__Size$ = -48						; size = 4
__Ptr$ = -36						; size = 4
_this$ = -24						; size = 4
__$EHRec$ = -16						; size = 16
__Count$ = 8						; size = 4
?_Reallocate@?$vector@UOption@CCustomMenu@@V?$allocator@UOption@CCustomMenu@@@std@@@std@@IAEXI@Z PROC ; std::vector<CCustomMenu::Option,std::allocator<CCustomMenu::Option> >::_Reallocate, COMDAT
; _this$ = ecx

; 1601 : 		{	// move to array of exactly _Count elements

	push	ebp
	mov	ebp, esp
	push	-1
	push	__ehhandler$?_Reallocate@?$vector@UOption@CCustomMenu@@V?$allocator@UOption@CCustomMenu@@@std@@@std@@IAEXI@Z
	mov	eax, DWORD PTR fs:0
	push	eax
	push	ecx
	sub	esp, 228				; 000000e4H
	push	ebx
	push	esi
	push	edi
	push	ecx
	lea	edi, DWORD PTR [ebp-244]
	mov	ecx, 57					; 00000039H
	mov	eax, -858993460				; ccccccccH
	rep stosd
	pop	ecx
	mov	eax, DWORD PTR ___security_cookie
	xor	eax, ebp
	push	eax
	lea	eax, DWORD PTR __$EHRec$[ebp+4]
	mov	DWORD PTR fs:0, eax
	mov	DWORD PTR __$EHRec$[ebp], esp
	mov	DWORD PTR _this$[ebp], ecx

; 1602 : 		pointer _Ptr = this->_Getal().allocate(_Count);

	mov	eax, DWORD PTR __Count$[ebp]
	push	eax
	mov	ecx, DWORD PTR _this$[ebp]
	call	?_Getal@?$_Vector_alloc@U?$_Vec_base_types@UOption@CCustomMenu@@V?$allocator@UOption@CCustomMenu@@@std@@@std@@@std@@QAEAAU?$_Wrap_alloc@V?$allocator@UOption@CCustomMenu@@@std@@@2@XZ ; std::_Vector_alloc<std::_Vec_base_types<CCustomMenu::Option,std::allocator<CCustomMenu::Option> > >::_Getal
	mov	ecx, eax
	call	?allocate@?$_Wrap_alloc@V?$allocator@UOption@CCustomMenu@@@std@@@std@@QAEPAUOption@CCustomMenu@@I@Z ; std::_Wrap_alloc<std::allocator<CCustomMenu::Option> >::allocate
	mov	DWORD PTR __Ptr$[ebp], eax

; 1603 : 
; 1604 : 		_TRY_BEGIN

	mov	DWORD PTR __$EHRec$[ebp+12], 0

; 1605 : 		_Umove(this->_Myfirst(), this->_Mylast(), _Ptr);

	mov	eax, DWORD PTR __Ptr$[ebp]
	push	eax
	mov	ecx, DWORD PTR _this$[ebp]
	call	?_Mylast@?$_Vector_alloc@U?$_Vec_base_types@UOption@CCustomMenu@@V?$allocator@UOption@CCustomMenu@@@std@@@std@@@std@@QAEAAPAUOption@CCustomMenu@@XZ ; std::_Vector_alloc<std::_Vec_base_types<CCustomMenu::Option,std::allocator<CCustomMenu::Option> > >::_Mylast
	mov	ecx, DWORD PTR [eax]
	push	ecx
	mov	ecx, DWORD PTR _this$[ebp]
	call	?_Myfirst@?$_Vector_alloc@U?$_Vec_base_types@UOption@CCustomMenu@@V?$allocator@UOption@CCustomMenu@@@std@@@std@@@std@@QAEAAPAUOption@CCustomMenu@@XZ ; std::_Vector_alloc<std::_Vec_base_types<CCustomMenu::Option,std::allocator<CCustomMenu::Option> > >::_Myfirst
	mov	edx, DWORD PTR [eax]
	push	edx
	mov	ecx, DWORD PTR _this$[ebp]
	call	??$_Umove@PAUOption@CCustomMenu@@@?$vector@UOption@CCustomMenu@@V?$allocator@UOption@CCustomMenu@@@std@@@std@@IAEPAUOption@CCustomMenu@@PAU23@00@Z ; std::vector<CCustomMenu::Option,std::allocator<CCustomMenu::Option> >::_Umove<CCustomMenu::Option *>
	jmp	SHORT $LN5@Reallocate
__catch$?_Reallocate@?$vector@UOption@CCustomMenu@@V?$allocator@UOption@CCustomMenu@@@std@@@std@@IAEXI@Z$0:

; 1606 : 		_CATCH_ALL
; 1607 : 		this->_Getal().deallocate(_Ptr, _Count);

	mov	eax, DWORD PTR __Count$[ebp]
	push	eax
	mov	ecx, DWORD PTR __Ptr$[ebp]
	push	ecx
	mov	ecx, DWORD PTR _this$[ebp]
	call	?_Getal@?$_Vector_alloc@U?$_Vec_base_types@UOption@CCustomMenu@@V?$allocator@UOption@CCustomMenu@@@std@@@std@@@std@@QAEAAU?$_Wrap_alloc@V?$allocator@UOption@CCustomMenu@@@std@@@2@XZ ; std::_Vector_alloc<std::_Vec_base_types<CCustomMenu::Option,std::allocator<CCustomMenu::Option> > >::_Getal
	mov	ecx, eax
	call	?deallocate@?$_Wrap_alloc@V?$allocator@UOption@CCustomMenu@@@std@@@std@@QAEXPAUOption@CCustomMenu@@I@Z ; std::_Wrap_alloc<std::allocator<CCustomMenu::Option> >::deallocate

; 1608 : 		_RERAISE;

	push	0
	push	0
	call	__CxxThrowException@8

; 1609 : 		_CATCH_END

	mov	eax, $LN8@Reallocate
	ret	0
$LN5@Reallocate:
	mov	DWORD PTR __$EHRec$[ebp+12], -1
	jmp	SHORT __tryend$?_Reallocate@?$vector@UOption@CCustomMenu@@V?$allocator@UOption@CCustomMenu@@@std@@@std@@IAEXI@Z$1
$LN8@Reallocate:
	mov	DWORD PTR __$EHRec$[ebp+12], -1
__tryend$?_Reallocate@?$vector@UOption@CCustomMenu@@V?$allocator@UOption@CCustomMenu@@@std@@@std@@IAEXI@Z$1:

; 1610 : 
; 1611 : 		size_type _Size = size();

	mov	ecx, DWORD PTR _this$[ebp]
	call	?size@?$vector@UOption@CCustomMenu@@V?$allocator@UOption@CCustomMenu@@@std@@@std@@QBEIXZ ; std::vector<CCustomMenu::Option,std::allocator<CCustomMenu::Option> >::size
	mov	DWORD PTR __Size$[ebp], eax

; 1612 : 		if (this->_Myfirst() != pointer())

	mov	ecx, DWORD PTR _this$[ebp]
	call	?_Myfirst@?$_Vector_alloc@U?$_Vec_base_types@UOption@CCustomMenu@@V?$allocator@UOption@CCustomMenu@@@std@@@std@@@std@@QAEAAPAUOption@CCustomMenu@@XZ ; std::_Vector_alloc<std::_Vec_base_types<CCustomMenu::Option,std::allocator<CCustomMenu::Option> > >::_Myfirst
	cmp	DWORD PTR [eax], 0
	je	SHORT $LN3@Reallocate

; 1613 : 			{	// destroy and deallocate old array
; 1614 : 			_Destroy(this->_Myfirst(), this->_Mylast());

	mov	ecx, DWORD PTR _this$[ebp]
	call	?_Mylast@?$_Vector_alloc@U?$_Vec_base_types@UOption@CCustomMenu@@V?$allocator@UOption@CCustomMenu@@@std@@@std@@@std@@QAEAAPAUOption@CCustomMenu@@XZ ; std::_Vector_alloc<std::_Vec_base_types<CCustomMenu::Option,std::allocator<CCustomMenu::Option> > >::_Mylast
	mov	eax, DWORD PTR [eax]
	push	eax
	mov	ecx, DWORD PTR _this$[ebp]
	call	?_Myfirst@?$_Vector_alloc@U?$_Vec_base_types@UOption@CCustomMenu@@V?$allocator@UOption@CCustomMenu@@@std@@@std@@@std@@QAEAAPAUOption@CCustomMenu@@XZ ; std::_Vector_alloc<std::_Vec_base_types<CCustomMenu::Option,std::allocator<CCustomMenu::Option> > >::_Myfirst
	mov	ecx, DWORD PTR [eax]
	push	ecx
	mov	ecx, DWORD PTR _this$[ebp]
	call	?_Destroy@?$vector@UOption@CCustomMenu@@V?$allocator@UOption@CCustomMenu@@@std@@@std@@IAEXPAUOption@CCustomMenu@@0@Z ; std::vector<CCustomMenu::Option,std::allocator<CCustomMenu::Option> >::_Destroy

; 1615 : 			this->_Getal().deallocate(this->_Myfirst(),

	mov	ecx, DWORD PTR _this$[ebp]
	call	?_Myfirst@?$_Vector_alloc@U?$_Vec_base_types@UOption@CCustomMenu@@V?$allocator@UOption@CCustomMenu@@@std@@@std@@@std@@QAEAAPAUOption@CCustomMenu@@XZ ; std::_Vector_alloc<std::_Vec_base_types<CCustomMenu::Option,std::allocator<CCustomMenu::Option> > >::_Myfirst
	mov	esi, eax
	mov	ecx, DWORD PTR _this$[ebp]
	call	?_Myend@?$_Vector_alloc@U?$_Vec_base_types@UOption@CCustomMenu@@V?$allocator@UOption@CCustomMenu@@@std@@@std@@@std@@QAEAAPAUOption@CCustomMenu@@XZ ; std::_Vector_alloc<std::_Vec_base_types<CCustomMenu::Option,std::allocator<CCustomMenu::Option> > >::_Myend
	mov	eax, DWORD PTR [eax]
	sub	eax, DWORD PTR [esi]
	sar	eax, 5
	push	eax
	mov	ecx, DWORD PTR _this$[ebp]
	call	?_Myfirst@?$_Vector_alloc@U?$_Vec_base_types@UOption@CCustomMenu@@V?$allocator@UOption@CCustomMenu@@@std@@@std@@@std@@QAEAAPAUOption@CCustomMenu@@XZ ; std::_Vector_alloc<std::_Vec_base_types<CCustomMenu::Option,std::allocator<CCustomMenu::Option> > >::_Myfirst
	mov	ecx, DWORD PTR [eax]
	push	ecx
	mov	ecx, DWORD PTR _this$[ebp]
	call	?_Getal@?$_Vector_alloc@U?$_Vec_base_types@UOption@CCustomMenu@@V?$allocator@UOption@CCustomMenu@@@std@@@std@@@std@@QAEAAU?$_Wrap_alloc@V?$allocator@UOption@CCustomMenu@@@std@@@2@XZ ; std::_Vector_alloc<std::_Vec_base_types<CCustomMenu::Option,std::allocator<CCustomMenu::Option> > >::_Getal
	mov	ecx, eax
	call	?deallocate@?$_Wrap_alloc@V?$allocator@UOption@CCustomMenu@@@std@@@std@@QAEXPAUOption@CCustomMenu@@I@Z ; std::_Wrap_alloc<std::allocator<CCustomMenu::Option> >::deallocate
$LN3@Reallocate:

; 1616 : 				this->_Myend() - this->_Myfirst());
; 1617 : 			}
; 1618 : 
; 1619 : 		this->_Orphan_all();

	mov	ecx, DWORD PTR _this$[ebp]
	call	?_Orphan_all@?$_Vector_alloc@U?$_Vec_base_types@UOption@CCustomMenu@@V?$allocator@UOption@CCustomMenu@@@std@@@std@@@std@@QAEXXZ ; std::_Vector_alloc<std::_Vec_base_types<CCustomMenu::Option,std::allocator<CCustomMenu::Option> > >::_Orphan_all

; 1620 : 		this->_Myend() = _Ptr + _Count;

	mov	esi, DWORD PTR __Count$[ebp]
	shl	esi, 5
	add	esi, DWORD PTR __Ptr$[ebp]
	mov	ecx, DWORD PTR _this$[ebp]
	call	?_Myend@?$_Vector_alloc@U?$_Vec_base_types@UOption@CCustomMenu@@V?$allocator@UOption@CCustomMenu@@@std@@@std@@@std@@QAEAAPAUOption@CCustomMenu@@XZ ; std::_Vector_alloc<std::_Vec_base_types<CCustomMenu::Option,std::allocator<CCustomMenu::Option> > >::_Myend
	mov	DWORD PTR [eax], esi

; 1621 : 		this->_Mylast() = _Ptr + _Size;

	mov	esi, DWORD PTR __Size$[ebp]
	shl	esi, 5
	add	esi, DWORD PTR __Ptr$[ebp]
	mov	ecx, DWORD PTR _this$[ebp]
	call	?_Mylast@?$_Vector_alloc@U?$_Vec_base_types@UOption@CCustomMenu@@V?$allocator@UOption@CCustomMenu@@@std@@@std@@@std@@QAEAAPAUOption@CCustomMenu@@XZ ; std::_Vector_alloc<std::_Vec_base_types<CCustomMenu::Option,std::allocator<CCustomMenu::Option> > >::_Mylast
	mov	DWORD PTR [eax], esi

; 1622 : 		this->_Myfirst() = _Ptr;

	mov	ecx, DWORD PTR _this$[ebp]
	call	?_Myfirst@?$_Vector_alloc@U?$_Vec_base_types@UOption@CCustomMenu@@V?$allocator@UOption@CCustomMenu@@@std@@@std@@@std@@QAEAAPAUOption@CCustomMenu@@XZ ; std::_Vector_alloc<std::_Vec_base_types<CCustomMenu::Option,std::allocator<CCustomMenu::Option> > >::_Myfirst
	mov	ecx, DWORD PTR __Ptr$[ebp]
	mov	DWORD PTR [eax], ecx
$LN4@Reallocate:

; 1623 : 		}

	mov	ecx, DWORD PTR __$EHRec$[ebp+4]
	mov	DWORD PTR fs:0, ecx
	pop	ecx
	pop	edi
	pop	esi
	pop	ebx
	add	esp, 244				; 000000f4H
	cmp	ebp, esp
	call	__RTC_CheckEsp
	mov	esp, ebp
	pop	ebp
	ret	4
_TEXT	ENDS
;	COMDAT text$x
text$x	SEGMENT
__ehhandler$?_Reallocate@?$vector@UOption@CCustomMenu@@V?$allocator@UOption@CCustomMenu@@@std@@@std@@IAEXI@Z:
	mov	edx, DWORD PTR [esp+8]
	lea	eax, DWORD PTR [edx+12]
	mov	ecx, DWORD PTR [edx-248]
	xor	ecx, eax
	call	@__security_check_cookie@4
	mov	eax, OFFSET __ehfuncinfo$?_Reallocate@?$vector@UOption@CCustomMenu@@V?$allocator@UOption@CCustomMenu@@@std@@@std@@IAEXI@Z
	jmp	___CxxFrameHandler3
text$x	ENDS
?_Reallocate@?$vector@UOption@CCustomMenu@@V?$allocator@UOption@CCustomMenu@@@std@@@std@@IAEXI@Z ENDP ; std::vector<CCustomMenu::Option,std::allocator<CCustomMenu::Option> >::_Reallocate
; Function compile flags: /Odtp /RTCsu /ZI
; File c:\program files (x86)\microsoft visual studio 14.0\vc\include\vector
;	COMDAT ?_Inside@?$vector@UOption@CCustomMenu@@V?$allocator@UOption@CCustomMenu@@@std@@@std@@IBE_NPBUOption@CCustomMenu@@@Z
_TEXT	SEGMENT
tv82 = -208						; size = 4
_this$ = -8						; size = 4
__Ptr$ = 8						; size = 4
?_Inside@?$vector@UOption@CCustomMenu@@V?$allocator@UOption@CCustomMenu@@@std@@@std@@IBE_NPBUOption@CCustomMenu@@@Z PROC ; std::vector<CCustomMenu::Option,std::allocator<CCustomMenu::Option> >::_Inside, COMDAT
; _this$ = ecx

; 1596 : 		{	// test if _Ptr points inside vector

	push	ebp
	mov	ebp, esp
	sub	esp, 208				; 000000d0H
	push	ebx
	push	esi
	push	edi
	push	ecx
	lea	edi, DWORD PTR [ebp-208]
	mov	ecx, 52					; 00000034H
	mov	eax, -858993460				; ccccccccH
	rep stosd
	pop	ecx
	mov	DWORD PTR _this$[ebp], ecx

; 1597 : 		return (_Ptr < _Unfancy(this->_Mylast()) && _Unfancy(this->_Myfirst()) <= _Ptr);

	mov	ecx, DWORD PTR _this$[ebp]
	call	?_Mylast@?$_Vector_alloc@U?$_Vec_base_types@UOption@CCustomMenu@@V?$allocator@UOption@CCustomMenu@@@std@@@std@@@std@@QBEABQAUOption@CCustomMenu@@XZ ; std::_Vector_alloc<std::_Vec_base_types<CCustomMenu::Option,std::allocator<CCustomMenu::Option> > >::_Mylast
	mov	eax, DWORD PTR [eax]
	push	eax
	call	??$_Unfancy@UOption@CCustomMenu@@@std@@YAPAUOption@CCustomMenu@@PAU12@@Z ; std::_Unfancy<CCustomMenu::Option>
	add	esp, 4
	cmp	DWORD PTR __Ptr$[ebp], eax
	jae	SHORT $LN3@Inside
	mov	ecx, DWORD PTR _this$[ebp]
	call	?_Myfirst@?$_Vector_alloc@U?$_Vec_base_types@UOption@CCustomMenu@@V?$allocator@UOption@CCustomMenu@@@std@@@std@@@std@@QBEABQAUOption@CCustomMenu@@XZ ; std::_Vector_alloc<std::_Vec_base_types<CCustomMenu::Option,std::allocator<CCustomMenu::Option> > >::_Myfirst
	mov	ecx, DWORD PTR [eax]
	push	ecx
	call	??$_Unfancy@UOption@CCustomMenu@@@std@@YAPAUOption@CCustomMenu@@PAU12@@Z ; std::_Unfancy<CCustomMenu::Option>
	add	esp, 4
	cmp	eax, DWORD PTR __Ptr$[ebp]
	ja	SHORT $LN3@Inside
	mov	DWORD PTR tv82[ebp], 1
	jmp	SHORT $LN4@Inside
$LN3@Inside:
	mov	DWORD PTR tv82[ebp], 0
$LN4@Inside:
	mov	al, BYTE PTR tv82[ebp]

; 1598 : 		}

	pop	edi
	pop	esi
	pop	ebx
	add	esp, 208				; 000000d0H
	cmp	ebp, esp
	call	__RTC_CheckEsp
	mov	esp, ebp
	pop	ebp
	ret	4
?_Inside@?$vector@UOption@CCustomMenu@@V?$allocator@UOption@CCustomMenu@@@std@@@std@@IBE_NPBUOption@CCustomMenu@@@Z ENDP ; std::vector<CCustomMenu::Option,std::allocator<CCustomMenu::Option> >::_Inside
_TEXT	ENDS
; Function compile flags: /Odtp /RTCsu /ZI
; File c:\program files (x86)\microsoft visual studio 14.0\vc\include\vector
;	COMDAT ?_Grow_to@?$vector@UOption@CCustomMenu@@V?$allocator@UOption@CCustomMenu@@@std@@@std@@IBEII@Z
_TEXT	SEGMENT
tv73 = -220						; size = 4
__Capacity$ = -20					; size = 4
_this$ = -8						; size = 4
__Count$ = 8						; size = 4
?_Grow_to@?$vector@UOption@CCustomMenu@@V?$allocator@UOption@CCustomMenu@@@std@@@std@@IBEII@Z PROC ; std::vector<CCustomMenu::Option,std::allocator<CCustomMenu::Option> >::_Grow_to, COMDAT
; _this$ = ecx

; 1585 : 		{	// grow by 50% or at least to _Count

	push	ebp
	mov	ebp, esp
	sub	esp, 220				; 000000dcH
	push	ebx
	push	esi
	push	edi
	push	ecx
	lea	edi, DWORD PTR [ebp-220]
	mov	ecx, 55					; 00000037H
	mov	eax, -858993460				; ccccccccH
	rep stosd
	pop	ecx
	mov	DWORD PTR _this$[ebp], ecx

; 1586 : 		size_type _Capacity = capacity();

	mov	ecx, DWORD PTR _this$[ebp]
	call	?capacity@?$vector@UOption@CCustomMenu@@V?$allocator@UOption@CCustomMenu@@@std@@@std@@QBEIXZ ; std::vector<CCustomMenu::Option,std::allocator<CCustomMenu::Option> >::capacity
	mov	DWORD PTR __Capacity$[ebp], eax

; 1587 : 
; 1588 : 		_Capacity = max_size() - _Capacity / 2 < _Capacity

	mov	ecx, DWORD PTR _this$[ebp]
	call	?max_size@?$vector@UOption@CCustomMenu@@V?$allocator@UOption@CCustomMenu@@@std@@@std@@QBEIXZ ; std::vector<CCustomMenu::Option,std::allocator<CCustomMenu::Option> >::max_size
	mov	ecx, DWORD PTR __Capacity$[ebp]
	shr	ecx, 1
	sub	eax, ecx
	cmp	eax, DWORD PTR __Capacity$[ebp]
	jae	SHORT $LN4@Grow_to
	mov	DWORD PTR tv73[ebp], 0
	jmp	SHORT $LN5@Grow_to
$LN4@Grow_to:
	mov	edx, DWORD PTR __Capacity$[ebp]
	shr	edx, 1
	add	edx, DWORD PTR __Capacity$[ebp]
	mov	DWORD PTR tv73[ebp], edx
$LN5@Grow_to:
	mov	eax, DWORD PTR tv73[ebp]
	mov	DWORD PTR __Capacity$[ebp], eax

; 1589 : 			? 0 : _Capacity + _Capacity / 2;	// try to grow by 50%
; 1590 : 		if (_Capacity < _Count)

	mov	eax, DWORD PTR __Capacity$[ebp]
	cmp	eax, DWORD PTR __Count$[ebp]
	jae	SHORT $LN2@Grow_to

; 1591 : 			_Capacity = _Count;

	mov	eax, DWORD PTR __Count$[ebp]
	mov	DWORD PTR __Capacity$[ebp], eax
$LN2@Grow_to:

; 1592 : 		return (_Capacity);

	mov	eax, DWORD PTR __Capacity$[ebp]

; 1593 : 		}

	pop	edi
	pop	esi
	pop	ebx
	add	esp, 220				; 000000dcH
	cmp	ebp, esp
	call	__RTC_CheckEsp
	mov	esp, ebp
	pop	ebp
	ret	4
?_Grow_to@?$vector@UOption@CCustomMenu@@V?$allocator@UOption@CCustomMenu@@@std@@@std@@IBEII@Z ENDP ; std::vector<CCustomMenu::Option,std::allocator<CCustomMenu::Option> >::_Grow_to
_TEXT	ENDS
; Function compile flags: /Odtp /RTCsu /ZI
; File c:\program files (x86)\microsoft visual studio 14.0\vc\include\vector
;	COMDAT ?_Destroy@?$vector@UOption@CCustomMenu@@V?$allocator@UOption@CCustomMenu@@@std@@@std@@IAEXPAUOption@CCustomMenu@@0@Z
_TEXT	SEGMENT
_this$ = -8						; size = 4
__First$ = 8						; size = 4
__Last$ = 12						; size = 4
?_Destroy@?$vector@UOption@CCustomMenu@@V?$allocator@UOption@CCustomMenu@@@std@@@std@@IAEXPAUOption@CCustomMenu@@0@Z PROC ; std::vector<CCustomMenu::Option,std::allocator<CCustomMenu::Option> >::_Destroy, COMDAT
; _this$ = ecx

; 1580 : 		{	// destroy [_First, _Last) using allocator

	push	ebp
	mov	ebp, esp
	sub	esp, 204				; 000000ccH
	push	ebx
	push	esi
	push	edi
	push	ecx
	lea	edi, DWORD PTR [ebp-204]
	mov	ecx, 51					; 00000033H
	mov	eax, -858993460				; ccccccccH
	rep stosd
	pop	ecx
	mov	DWORD PTR _this$[ebp], ecx

; 1581 : 		_Destroy_range(_First, _Last, this->_Getal());

	mov	ecx, DWORD PTR _this$[ebp]
	call	?_Getal@?$_Vector_alloc@U?$_Vec_base_types@UOption@CCustomMenu@@V?$allocator@UOption@CCustomMenu@@@std@@@std@@@std@@QAEAAU?$_Wrap_alloc@V?$allocator@UOption@CCustomMenu@@@std@@@2@XZ ; std::_Vector_alloc<std::_Vec_base_types<CCustomMenu::Option,std::allocator<CCustomMenu::Option> > >::_Getal
	push	eax
	mov	eax, DWORD PTR __Last$[ebp]
	push	eax
	mov	ecx, DWORD PTR __First$[ebp]
	push	ecx
	call	??$_Destroy_range@V?$allocator@UOption@CCustomMenu@@@std@@PAUOption@CCustomMenu@@@std@@YAXPAUOption@CCustomMenu@@0AAU?$_Wrap_alloc@V?$allocator@UOption@CCustomMenu@@@std@@@0@@Z ; std::_Destroy_range<std::allocator<CCustomMenu::Option>,CCustomMenu::Option *>
	add	esp, 12					; 0000000cH

; 1582 : 		}

	pop	edi
	pop	esi
	pop	ebx
	add	esp, 204				; 000000ccH
	cmp	ebp, esp
	call	__RTC_CheckEsp
	mov	esp, ebp
	pop	ebp
	ret	8
?_Destroy@?$vector@UOption@CCustomMenu@@V?$allocator@UOption@CCustomMenu@@@std@@@std@@IAEXPAUOption@CCustomMenu@@0@Z ENDP ; std::vector<CCustomMenu::Option,std::allocator<CCustomMenu::Option> >::_Destroy
_TEXT	ENDS
; Function compile flags: /Odtp /RTCsu /ZI
; File c:\program files (x86)\microsoft visual studio 14.0\vc\include\vector
;	COMDAT ?push_back@?$vector@UOption@CCustomMenu@@V?$allocator@UOption@CCustomMenu@@@std@@@std@@QAEXABUOption@CCustomMenu@@@Z
_TEXT	SEGMENT
tv231 = -220						; size = 4
tv176 = -220						; size = 4
__Idx$1 = -20						; size = 4
_this$ = -8						; size = 4
__Val$ = 8						; size = 4
?push_back@?$vector@UOption@CCustomMenu@@V?$allocator@UOption@CCustomMenu@@@std@@@std@@QAEXABUOption@CCustomMenu@@@Z PROC ; std::vector<CCustomMenu::Option,std::allocator<CCustomMenu::Option> >::push_back, COMDAT
; _this$ = ecx

; 1276 : 		{	// insert element at end

	push	ebp
	mov	ebp, esp
	sub	esp, 220				; 000000dcH
	push	ebx
	push	esi
	push	edi
	push	ecx
	lea	edi, DWORD PTR [ebp-220]
	mov	ecx, 55					; 00000037H
	mov	eax, -858993460				; ccccccccH
	rep stosd
	pop	ecx
	mov	DWORD PTR _this$[ebp], ecx

; 1277 : 		if (_Inside(_STD addressof(_Val)))

	mov	eax, DWORD PTR __Val$[ebp]
	push	eax
	call	??$addressof@$$CBUOption@CCustomMenu@@@std@@YAPBUOption@CCustomMenu@@ABU12@@Z ; std::addressof<CCustomMenu::Option const >
	add	esp, 4
	push	eax
	mov	ecx, DWORD PTR _this$[ebp]
	call	?_Inside@?$vector@UOption@CCustomMenu@@V?$allocator@UOption@CCustomMenu@@@std@@@std@@IBE_NPBUOption@CCustomMenu@@@Z ; std::vector<CCustomMenu::Option,std::allocator<CCustomMenu::Option> >::_Inside
	movzx	ecx, al
	test	ecx, ecx
	je	$LN2@push_back

; 1278 : 			{	// push back an element
; 1279 : 			size_type _Idx = _STD addressof(_Val) - _Unfancy(this->_Myfirst());

	mov	eax, DWORD PTR __Val$[ebp]
	push	eax
	call	??$addressof@$$CBUOption@CCustomMenu@@@std@@YAPBUOption@CCustomMenu@@ABU12@@Z ; std::addressof<CCustomMenu::Option const >
	add	esp, 4
	mov	esi, eax
	mov	ecx, DWORD PTR _this$[ebp]
	call	?_Myfirst@?$_Vector_alloc@U?$_Vec_base_types@UOption@CCustomMenu@@V?$allocator@UOption@CCustomMenu@@@std@@@std@@@std@@QAEAAPAUOption@CCustomMenu@@XZ ; std::_Vector_alloc<std::_Vec_base_types<CCustomMenu::Option,std::allocator<CCustomMenu::Option> > >::_Myfirst
	mov	ecx, DWORD PTR [eax]
	push	ecx
	call	??$_Unfancy@UOption@CCustomMenu@@@std@@YAPAUOption@CCustomMenu@@PAU12@@Z ; std::_Unfancy<CCustomMenu::Option>
	add	esp, 4
	sub	esi, eax
	sar	esi, 5
	mov	DWORD PTR __Idx$1[ebp], esi

; 1280 : 			if (this->_Mylast() == this->_Myend())

	mov	ecx, DWORD PTR _this$[ebp]
	call	?_Mylast@?$_Vector_alloc@U?$_Vec_base_types@UOption@CCustomMenu@@V?$allocator@UOption@CCustomMenu@@@std@@@std@@@std@@QAEAAPAUOption@CCustomMenu@@XZ ; std::_Vector_alloc<std::_Vec_base_types<CCustomMenu::Option,std::allocator<CCustomMenu::Option> > >::_Mylast
	mov	esi, eax
	mov	ecx, DWORD PTR _this$[ebp]
	call	?_Myend@?$_Vector_alloc@U?$_Vec_base_types@UOption@CCustomMenu@@V?$allocator@UOption@CCustomMenu@@@std@@@std@@@std@@QAEAAPAUOption@CCustomMenu@@XZ ; std::_Vector_alloc<std::_Vec_base_types<CCustomMenu::Option,std::allocator<CCustomMenu::Option> > >::_Myend
	mov	ecx, DWORD PTR [esi]
	cmp	ecx, DWORD PTR [eax]
	jne	SHORT $LN4@push_back

; 1281 : 				_Reserve(1);

	push	1
	mov	ecx, DWORD PTR _this$[ebp]
	call	?_Reserve@?$vector@UOption@CCustomMenu@@V?$allocator@UOption@CCustomMenu@@@std@@@std@@IAEXI@Z ; std::vector<CCustomMenu::Option,std::allocator<CCustomMenu::Option> >::_Reserve
$LN4@push_back:

; 1282 : 			_Orphan_range(this->_Mylast(), this->_Mylast());

	mov	ecx, DWORD PTR _this$[ebp]
	call	?_Mylast@?$_Vector_alloc@U?$_Vec_base_types@UOption@CCustomMenu@@V?$allocator@UOption@CCustomMenu@@@std@@@std@@@std@@QAEAAPAUOption@CCustomMenu@@XZ ; std::_Vector_alloc<std::_Vec_base_types<CCustomMenu::Option,std::allocator<CCustomMenu::Option> > >::_Mylast
	mov	eax, DWORD PTR [eax]
	push	eax
	mov	ecx, DWORD PTR _this$[ebp]
	call	?_Mylast@?$_Vector_alloc@U?$_Vec_base_types@UOption@CCustomMenu@@V?$allocator@UOption@CCustomMenu@@@std@@@std@@@std@@QAEAAPAUOption@CCustomMenu@@XZ ; std::_Vector_alloc<std::_Vec_base_types<CCustomMenu::Option,std::allocator<CCustomMenu::Option> > >::_Mylast
	mov	ecx, DWORD PTR [eax]
	push	ecx
	mov	ecx, DWORD PTR _this$[ebp]
	call	?_Orphan_range@?$vector@UOption@CCustomMenu@@V?$allocator@UOption@CCustomMenu@@@std@@@std@@IBEXPAUOption@CCustomMenu@@0@Z ; std::vector<CCustomMenu::Option,std::allocator<CCustomMenu::Option> >::_Orphan_range

; 1283 : 			this->_Getal().construct(_Unfancy(this->_Mylast()),

	mov	ecx, DWORD PTR _this$[ebp]
	call	?_Myfirst@?$_Vector_alloc@U?$_Vec_base_types@UOption@CCustomMenu@@V?$allocator@UOption@CCustomMenu@@@std@@@std@@@std@@QAEAAPAUOption@CCustomMenu@@XZ ; std::_Vector_alloc<std::_Vec_base_types<CCustomMenu::Option,std::allocator<CCustomMenu::Option> > >::_Myfirst
	mov	ecx, DWORD PTR __Idx$1[ebp]
	shl	ecx, 5
	add	ecx, DWORD PTR [eax]
	push	ecx
	mov	ecx, DWORD PTR _this$[ebp]
	call	?_Mylast@?$_Vector_alloc@U?$_Vec_base_types@UOption@CCustomMenu@@V?$allocator@UOption@CCustomMenu@@@std@@@std@@@std@@QAEAAPAUOption@CCustomMenu@@XZ ; std::_Vector_alloc<std::_Vec_base_types<CCustomMenu::Option,std::allocator<CCustomMenu::Option> > >::_Mylast
	mov	edx, DWORD PTR [eax]
	push	edx
	call	??$_Unfancy@UOption@CCustomMenu@@@std@@YAPAUOption@CCustomMenu@@PAU12@@Z ; std::_Unfancy<CCustomMenu::Option>
	add	esp, 4
	push	eax
	mov	ecx, DWORD PTR _this$[ebp]
	call	?_Getal@?$_Vector_alloc@U?$_Vec_base_types@UOption@CCustomMenu@@V?$allocator@UOption@CCustomMenu@@@std@@@std@@@std@@QAEAAU?$_Wrap_alloc@V?$allocator@UOption@CCustomMenu@@@std@@@2@XZ ; std::_Vector_alloc<std::_Vec_base_types<CCustomMenu::Option,std::allocator<CCustomMenu::Option> > >::_Getal
	mov	ecx, eax
	call	??$construct@UOption@CCustomMenu@@AAU12@@?$_Wrap_alloc@V?$allocator@UOption@CCustomMenu@@@std@@@std@@QAEXPAUOption@CCustomMenu@@AAU23@@Z ; std::_Wrap_alloc<std::allocator<CCustomMenu::Option> >::construct<CCustomMenu::Option,CCustomMenu::Option &>

; 1284 : 				this->_Myfirst()[_Idx]);
; 1285 : 			++this->_Mylast();

	mov	ecx, DWORD PTR _this$[ebp]
	call	?_Mylast@?$_Vector_alloc@U?$_Vec_base_types@UOption@CCustomMenu@@V?$allocator@UOption@CCustomMenu@@@std@@@std@@@std@@QAEAAPAUOption@CCustomMenu@@XZ ; std::_Vector_alloc<std::_Vec_base_types<CCustomMenu::Option,std::allocator<CCustomMenu::Option> > >::_Mylast
	mov	DWORD PTR tv176[ebp], eax
	mov	eax, DWORD PTR tv176[ebp]
	mov	ecx, DWORD PTR [eax]
	add	ecx, 32					; 00000020H
	mov	edx, DWORD PTR tv176[ebp]
	mov	DWORD PTR [edx], ecx

; 1286 : 			}
; 1287 : 		else

	jmp	$LN1@push_back
$LN2@push_back:

; 1288 : 			{	// push back a non-element
; 1289 : 			if (this->_Mylast() == this->_Myend())

	mov	ecx, DWORD PTR _this$[ebp]
	call	?_Mylast@?$_Vector_alloc@U?$_Vec_base_types@UOption@CCustomMenu@@V?$allocator@UOption@CCustomMenu@@@std@@@std@@@std@@QAEAAPAUOption@CCustomMenu@@XZ ; std::_Vector_alloc<std::_Vec_base_types<CCustomMenu::Option,std::allocator<CCustomMenu::Option> > >::_Mylast
	mov	esi, eax
	mov	ecx, DWORD PTR _this$[ebp]
	call	?_Myend@?$_Vector_alloc@U?$_Vec_base_types@UOption@CCustomMenu@@V?$allocator@UOption@CCustomMenu@@@std@@@std@@@std@@QAEAAPAUOption@CCustomMenu@@XZ ; std::_Vector_alloc<std::_Vec_base_types<CCustomMenu::Option,std::allocator<CCustomMenu::Option> > >::_Myend
	mov	ecx, DWORD PTR [esi]
	cmp	ecx, DWORD PTR [eax]
	jne	SHORT $LN5@push_back

; 1290 : 				_Reserve(1);

	push	1
	mov	ecx, DWORD PTR _this$[ebp]
	call	?_Reserve@?$vector@UOption@CCustomMenu@@V?$allocator@UOption@CCustomMenu@@@std@@@std@@IAEXI@Z ; std::vector<CCustomMenu::Option,std::allocator<CCustomMenu::Option> >::_Reserve
$LN5@push_back:

; 1291 : 			_Orphan_range(this->_Mylast(), this->_Mylast());

	mov	ecx, DWORD PTR _this$[ebp]
	call	?_Mylast@?$_Vector_alloc@U?$_Vec_base_types@UOption@CCustomMenu@@V?$allocator@UOption@CCustomMenu@@@std@@@std@@@std@@QAEAAPAUOption@CCustomMenu@@XZ ; std::_Vector_alloc<std::_Vec_base_types<CCustomMenu::Option,std::allocator<CCustomMenu::Option> > >::_Mylast
	mov	eax, DWORD PTR [eax]
	push	eax
	mov	ecx, DWORD PTR _this$[ebp]
	call	?_Mylast@?$_Vector_alloc@U?$_Vec_base_types@UOption@CCustomMenu@@V?$allocator@UOption@CCustomMenu@@@std@@@std@@@std@@QAEAAPAUOption@CCustomMenu@@XZ ; std::_Vector_alloc<std::_Vec_base_types<CCustomMenu::Option,std::allocator<CCustomMenu::Option> > >::_Mylast
	mov	ecx, DWORD PTR [eax]
	push	ecx
	mov	ecx, DWORD PTR _this$[ebp]
	call	?_Orphan_range@?$vector@UOption@CCustomMenu@@V?$allocator@UOption@CCustomMenu@@@std@@@std@@IBEXPAUOption@CCustomMenu@@0@Z ; std::vector<CCustomMenu::Option,std::allocator<CCustomMenu::Option> >::_Orphan_range

; 1292 : 			this->_Getal().construct(_Unfancy(this->_Mylast()),

	mov	eax, DWORD PTR __Val$[ebp]
	push	eax
	mov	ecx, DWORD PTR _this$[ebp]
	call	?_Mylast@?$_Vector_alloc@U?$_Vec_base_types@UOption@CCustomMenu@@V?$allocator@UOption@CCustomMenu@@@std@@@std@@@std@@QAEAAPAUOption@CCustomMenu@@XZ ; std::_Vector_alloc<std::_Vec_base_types<CCustomMenu::Option,std::allocator<CCustomMenu::Option> > >::_Mylast
	mov	ecx, DWORD PTR [eax]
	push	ecx
	call	??$_Unfancy@UOption@CCustomMenu@@@std@@YAPAUOption@CCustomMenu@@PAU12@@Z ; std::_Unfancy<CCustomMenu::Option>
	add	esp, 4
	push	eax
	mov	ecx, DWORD PTR _this$[ebp]
	call	?_Getal@?$_Vector_alloc@U?$_Vec_base_types@UOption@CCustomMenu@@V?$allocator@UOption@CCustomMenu@@@std@@@std@@@std@@QAEAAU?$_Wrap_alloc@V?$allocator@UOption@CCustomMenu@@@std@@@2@XZ ; std::_Vector_alloc<std::_Vec_base_types<CCustomMenu::Option,std::allocator<CCustomMenu::Option> > >::_Getal
	mov	ecx, eax
	call	??$construct@UOption@CCustomMenu@@ABU12@@?$_Wrap_alloc@V?$allocator@UOption@CCustomMenu@@@std@@@std@@QAEXPAUOption@CCustomMenu@@ABU23@@Z ; std::_Wrap_alloc<std::allocator<CCustomMenu::Option> >::construct<CCustomMenu::Option,CCustomMenu::Option const &>

; 1293 : 				_Val);
; 1294 : 			++this->_Mylast();

	mov	ecx, DWORD PTR _this$[ebp]
	call	?_Mylast@?$_Vector_alloc@U?$_Vec_base_types@UOption@CCustomMenu@@V?$allocator@UOption@CCustomMenu@@@std@@@std@@@std@@QAEAAPAUOption@CCustomMenu@@XZ ; std::_Vector_alloc<std::_Vec_base_types<CCustomMenu::Option,std::allocator<CCustomMenu::Option> > >::_Mylast
	mov	DWORD PTR tv231[ebp], eax
	mov	eax, DWORD PTR tv231[ebp]
	mov	ecx, DWORD PTR [eax]
	add	ecx, 32					; 00000020H
	mov	edx, DWORD PTR tv231[ebp]
	mov	DWORD PTR [edx], ecx
$LN1@push_back:

; 1295 : 			}
; 1296 : 		}

	pop	edi
	pop	esi
	pop	ebx
	add	esp, 220				; 000000dcH
	cmp	ebp, esp
	call	__RTC_CheckEsp
	mov	esp, ebp
	pop	ebp
	ret	4
?push_back@?$vector@UOption@CCustomMenu@@V?$allocator@UOption@CCustomMenu@@@std@@@std@@QAEXABUOption@CCustomMenu@@@Z ENDP ; std::vector<CCustomMenu::Option,std::allocator<CCustomMenu::Option> >::push_back
_TEXT	ENDS
; Function compile flags: /Odtp /RTCsu /ZI
; File c:\program files (x86)\microsoft visual studio 14.0\vc\include\vector
;	COMDAT ?max_size@?$vector@UOption@CCustomMenu@@V?$allocator@UOption@CCustomMenu@@@std@@@std@@QBEIXZ
_TEXT	SEGMENT
$T1 = -209						; size = 1
_this$ = -8						; size = 4
?max_size@?$vector@UOption@CCustomMenu@@V?$allocator@UOption@CCustomMenu@@@std@@@std@@QBEIXZ PROC ; std::vector<CCustomMenu::Option,std::allocator<CCustomMenu::Option> >::max_size, COMDAT
; _this$ = ecx

; 1184 : 		{	// return maximum possible length of sequence

	push	ebp
	mov	ebp, esp
	sub	esp, 216				; 000000d8H
	push	ebx
	push	esi
	push	edi
	push	ecx
	lea	edi, DWORD PTR [ebp-216]
	mov	ecx, 54					; 00000036H
	mov	eax, -858993460				; ccccccccH
	rep stosd
	pop	ecx
	mov	DWORD PTR _this$[ebp], ecx

; 1185 : 		return (this->_Getal().max_size());

	movzx	eax, BYTE PTR $T1[ebp]
	push	eax
	mov	ecx, DWORD PTR _this$[ebp]
	call	?_Getal@?$_Vector_alloc@U?$_Vec_base_types@UOption@CCustomMenu@@V?$allocator@UOption@CCustomMenu@@@std@@@std@@@std@@QBEABU?$_Wrap_alloc@V?$allocator@UOption@CCustomMenu@@@std@@@2@XZ ; std::_Vector_alloc<std::_Vec_base_types<CCustomMenu::Option,std::allocator<CCustomMenu::Option> > >::_Getal
	mov	ecx, eax
	call	?max_size@?$_Wrap_alloc@V?$allocator@UOption@CCustomMenu@@@std@@@std@@QBEIU_Nil@2@@Z ; std::_Wrap_alloc<std::allocator<CCustomMenu::Option> >::max_size

; 1186 : 		}

	pop	edi
	pop	esi
	pop	ebx
	add	esp, 216				; 000000d8H
	cmp	ebp, esp
	call	__RTC_CheckEsp
	mov	esp, ebp
	pop	ebp
	ret	0
?max_size@?$vector@UOption@CCustomMenu@@V?$allocator@UOption@CCustomMenu@@@std@@@std@@QBEIXZ ENDP ; std::vector<CCustomMenu::Option,std::allocator<CCustomMenu::Option> >::max_size
_TEXT	ENDS
; Function compile flags: /Odtp /RTCsu /ZI
; File c:\program files (x86)\microsoft visual studio 14.0\vc\include\vector
;	COMDAT ?size@?$vector@UOption@CCustomMenu@@V?$allocator@UOption@CCustomMenu@@@std@@@std@@QBEIXZ
_TEXT	SEGMENT
_this$ = -8						; size = 4
?size@?$vector@UOption@CCustomMenu@@V?$allocator@UOption@CCustomMenu@@@std@@@std@@QBEIXZ PROC ; std::vector<CCustomMenu::Option,std::allocator<CCustomMenu::Option> >::size, COMDAT
; _this$ = ecx

; 1179 : 		{	// return length of sequence

	push	ebp
	mov	ebp, esp
	sub	esp, 204				; 000000ccH
	push	ebx
	push	esi
	push	edi
	push	ecx
	lea	edi, DWORD PTR [ebp-204]
	mov	ecx, 51					; 00000033H
	mov	eax, -858993460				; ccccccccH
	rep stosd
	pop	ecx
	mov	DWORD PTR _this$[ebp], ecx

; 1180 : 		return (this->_Mylast() - this->_Myfirst());

	mov	ecx, DWORD PTR _this$[ebp]
	call	?_Mylast@?$_Vector_alloc@U?$_Vec_base_types@UOption@CCustomMenu@@V?$allocator@UOption@CCustomMenu@@@std@@@std@@@std@@QBEABQAUOption@CCustomMenu@@XZ ; std::_Vector_alloc<std::_Vec_base_types<CCustomMenu::Option,std::allocator<CCustomMenu::Option> > >::_Mylast
	mov	esi, eax
	mov	ecx, DWORD PTR _this$[ebp]
	call	?_Myfirst@?$_Vector_alloc@U?$_Vec_base_types@UOption@CCustomMenu@@V?$allocator@UOption@CCustomMenu@@@std@@@std@@@std@@QBEABQAUOption@CCustomMenu@@XZ ; std::_Vector_alloc<std::_Vec_base_types<CCustomMenu::Option,std::allocator<CCustomMenu::Option> > >::_Myfirst
	mov	ecx, DWORD PTR [esi]
	sub	ecx, DWORD PTR [eax]
	sar	ecx, 5
	mov	eax, ecx

; 1181 : 		}

	pop	edi
	pop	esi
	pop	ebx
	add	esp, 204				; 000000ccH
	cmp	ebp, esp
	call	__RTC_CheckEsp
	mov	esp, ebp
	pop	ebp
	ret	0
?size@?$vector@UOption@CCustomMenu@@V?$allocator@UOption@CCustomMenu@@@std@@@std@@QBEIXZ ENDP ; std::vector<CCustomMenu::Option,std::allocator<CCustomMenu::Option> >::size
_TEXT	ENDS
; Function compile flags: /Odtp /RTCsu /ZI
; File c:\program files (x86)\microsoft visual studio 14.0\vc\include\vector
;	COMDAT ?end@?$vector@UOption@CCustomMenu@@V?$allocator@UOption@CCustomMenu@@@std@@@std@@QAE?AV?$_Vector_iterator@V?$_Vector_val@U?$_Simple_types@UOption@CCustomMenu@@@std@@@std@@@2@XZ
_TEXT	SEGMENT
_this$ = -20						; size = 4
__$EHRec$ = -12						; size = 12
___$ReturnUdt$ = 8					; size = 4
?end@?$vector@UOption@CCustomMenu@@V?$allocator@UOption@CCustomMenu@@@std@@@std@@QAE?AV?$_Vector_iterator@V?$_Vector_val@U?$_Simple_types@UOption@CCustomMenu@@@std@@@std@@@2@XZ PROC ; std::vector<CCustomMenu::Option,std::allocator<CCustomMenu::Option> >::end, COMDAT
; _this$ = ecx

; 1067 : 		{	// return iterator for end of mutable sequence

	push	ebp
	mov	ebp, esp
	push	-1
	push	__ehhandler$?end@?$vector@UOption@CCustomMenu@@V?$allocator@UOption@CCustomMenu@@@std@@@std@@QAE?AV?$_Vector_iterator@V?$_Vector_val@U?$_Simple_types@UOption@CCustomMenu@@@std@@@std@@@2@XZ
	mov	eax, DWORD PTR fs:0
	push	eax
	sub	esp, 204				; 000000ccH
	push	ebx
	push	esi
	push	edi
	push	ecx
	lea	edi, DWORD PTR [ebp-216]
	mov	ecx, 51					; 00000033H
	mov	eax, -858993460				; ccccccccH
	rep stosd
	pop	ecx
	mov	eax, DWORD PTR ___security_cookie
	xor	eax, ebp
	push	eax
	lea	eax, DWORD PTR __$EHRec$[ebp]
	mov	DWORD PTR fs:0, eax
	mov	DWORD PTR _this$[ebp], ecx

; 1068 : 		return (iterator(this->_Mylast(), &this->_Get_data()));

	mov	ecx, DWORD PTR _this$[ebp]
	call	?_Get_data@?$_Vector_alloc@U?$_Vec_base_types@UOption@CCustomMenu@@V?$allocator@UOption@CCustomMenu@@@std@@@std@@@std@@QAEAAV?$_Vector_val@U?$_Simple_types@UOption@CCustomMenu@@@std@@@2@XZ ; std::_Vector_alloc<std::_Vec_base_types<CCustomMenu::Option,std::allocator<CCustomMenu::Option> > >::_Get_data
	push	eax
	mov	ecx, DWORD PTR _this$[ebp]
	call	?_Mylast@?$_Vector_alloc@U?$_Vec_base_types@UOption@CCustomMenu@@V?$allocator@UOption@CCustomMenu@@@std@@@std@@@std@@QAEAAPAUOption@CCustomMenu@@XZ ; std::_Vector_alloc<std::_Vec_base_types<CCustomMenu::Option,std::allocator<CCustomMenu::Option> > >::_Mylast
	mov	eax, DWORD PTR [eax]
	push	eax
	mov	ecx, DWORD PTR ___$ReturnUdt$[ebp]
	call	??0?$_Vector_iterator@V?$_Vector_val@U?$_Simple_types@UOption@CCustomMenu@@@std@@@std@@@std@@QAE@PAUOption@CCustomMenu@@PBU_Container_base12@1@@Z ; std::_Vector_iterator<std::_Vector_val<std::_Simple_types<CCustomMenu::Option> > >::_Vector_iterator<std::_Vector_val<std::_Simple_types<CCustomMenu::Option> > >
	mov	eax, DWORD PTR ___$ReturnUdt$[ebp]

; 1069 : 		}

	mov	ecx, DWORD PTR __$EHRec$[ebp]
	mov	DWORD PTR fs:0, ecx
	pop	ecx
	pop	edi
	pop	esi
	pop	ebx
	add	esp, 216				; 000000d8H
	cmp	ebp, esp
	call	__RTC_CheckEsp
	mov	esp, ebp
	pop	ebp
	ret	4
_TEXT	ENDS
;	COMDAT text$x
text$x	SEGMENT
__ehhandler$?end@?$vector@UOption@CCustomMenu@@V?$allocator@UOption@CCustomMenu@@@std@@@std@@QAE?AV?$_Vector_iterator@V?$_Vector_val@U?$_Simple_types@UOption@CCustomMenu@@@std@@@std@@@2@XZ:
	mov	edx, DWORD PTR [esp+8]
	lea	eax, DWORD PTR [edx+12]
	mov	ecx, DWORD PTR [edx-220]
	xor	ecx, eax
	call	@__security_check_cookie@4
	mov	eax, OFFSET __ehfuncinfo$?end@?$vector@UOption@CCustomMenu@@V?$allocator@UOption@CCustomMenu@@@std@@@std@@QAE?AV?$_Vector_iterator@V?$_Vector_val@U?$_Simple_types@UOption@CCustomMenu@@@std@@@std@@@2@XZ
	jmp	___CxxFrameHandler3
text$x	ENDS
?end@?$vector@UOption@CCustomMenu@@V?$allocator@UOption@CCustomMenu@@@std@@@std@@QAE?AV?$_Vector_iterator@V?$_Vector_val@U?$_Simple_types@UOption@CCustomMenu@@@std@@@std@@@2@XZ ENDP ; std::vector<CCustomMenu::Option,std::allocator<CCustomMenu::Option> >::end
; Function compile flags: /Odtp /RTCsu /ZI
; File c:\program files (x86)\microsoft visual studio 14.0\vc\include\vector
;	COMDAT ?begin@?$vector@UOption@CCustomMenu@@V?$allocator@UOption@CCustomMenu@@@std@@@std@@QAE?AV?$_Vector_iterator@V?$_Vector_val@U?$_Simple_types@UOption@CCustomMenu@@@std@@@std@@@2@XZ
_TEXT	SEGMENT
_this$ = -20						; size = 4
__$EHRec$ = -12						; size = 12
___$ReturnUdt$ = 8					; size = 4
?begin@?$vector@UOption@CCustomMenu@@V?$allocator@UOption@CCustomMenu@@@std@@@std@@QAE?AV?$_Vector_iterator@V?$_Vector_val@U?$_Simple_types@UOption@CCustomMenu@@@std@@@std@@@2@XZ PROC ; std::vector<CCustomMenu::Option,std::allocator<CCustomMenu::Option> >::begin, COMDAT
; _this$ = ecx

; 1057 : 		{	// return iterator for beginning of mutable sequence

	push	ebp
	mov	ebp, esp
	push	-1
	push	__ehhandler$?begin@?$vector@UOption@CCustomMenu@@V?$allocator@UOption@CCustomMenu@@@std@@@std@@QAE?AV?$_Vector_iterator@V?$_Vector_val@U?$_Simple_types@UOption@CCustomMenu@@@std@@@std@@@2@XZ
	mov	eax, DWORD PTR fs:0
	push	eax
	sub	esp, 204				; 000000ccH
	push	ebx
	push	esi
	push	edi
	push	ecx
	lea	edi, DWORD PTR [ebp-216]
	mov	ecx, 51					; 00000033H
	mov	eax, -858993460				; ccccccccH
	rep stosd
	pop	ecx
	mov	eax, DWORD PTR ___security_cookie
	xor	eax, ebp
	push	eax
	lea	eax, DWORD PTR __$EHRec$[ebp]
	mov	DWORD PTR fs:0, eax
	mov	DWORD PTR _this$[ebp], ecx

; 1058 : 		return (iterator(this->_Myfirst(), &this->_Get_data()));

	mov	ecx, DWORD PTR _this$[ebp]
	call	?_Get_data@?$_Vector_alloc@U?$_Vec_base_types@UOption@CCustomMenu@@V?$allocator@UOption@CCustomMenu@@@std@@@std@@@std@@QAEAAV?$_Vector_val@U?$_Simple_types@UOption@CCustomMenu@@@std@@@2@XZ ; std::_Vector_alloc<std::_Vec_base_types<CCustomMenu::Option,std::allocator<CCustomMenu::Option> > >::_Get_data
	push	eax
	mov	ecx, DWORD PTR _this$[ebp]
	call	?_Myfirst@?$_Vector_alloc@U?$_Vec_base_types@UOption@CCustomMenu@@V?$allocator@UOption@CCustomMenu@@@std@@@std@@@std@@QAEAAPAUOption@CCustomMenu@@XZ ; std::_Vector_alloc<std::_Vec_base_types<CCustomMenu::Option,std::allocator<CCustomMenu::Option> > >::_Myfirst
	mov	eax, DWORD PTR [eax]
	push	eax
	mov	ecx, DWORD PTR ___$ReturnUdt$[ebp]
	call	??0?$_Vector_iterator@V?$_Vector_val@U?$_Simple_types@UOption@CCustomMenu@@@std@@@std@@@std@@QAE@PAUOption@CCustomMenu@@PBU_Container_base12@1@@Z ; std::_Vector_iterator<std::_Vector_val<std::_Simple_types<CCustomMenu::Option> > >::_Vector_iterator<std::_Vector_val<std::_Simple_types<CCustomMenu::Option> > >
	mov	eax, DWORD PTR ___$ReturnUdt$[ebp]

; 1059 : 		}

	mov	ecx, DWORD PTR __$EHRec$[ebp]
	mov	DWORD PTR fs:0, ecx
	pop	ecx
	pop	edi
	pop	esi
	pop	ebx
	add	esp, 216				; 000000d8H
	cmp	ebp, esp
	call	__RTC_CheckEsp
	mov	esp, ebp
	pop	ebp
	ret	4
_TEXT	ENDS
;	COMDAT text$x
text$x	SEGMENT
__ehhandler$?begin@?$vector@UOption@CCustomMenu@@V?$allocator@UOption@CCustomMenu@@@std@@@std@@QAE?AV?$_Vector_iterator@V?$_Vector_val@U?$_Simple_types@UOption@CCustomMenu@@@std@@@std@@@2@XZ:
	mov	edx, DWORD PTR [esp+8]
	lea	eax, DWORD PTR [edx+12]
	mov	ecx, DWORD PTR [edx-220]
	xor	ecx, eax
	call	@__security_check_cookie@4
	mov	eax, OFFSET __ehfuncinfo$?begin@?$vector@UOption@CCustomMenu@@V?$allocator@UOption@CCustomMenu@@@std@@@std@@QAE?AV?$_Vector_iterator@V?$_Vector_val@U?$_Simple_types@UOption@CCustomMenu@@@std@@@std@@@2@XZ
	jmp	___CxxFrameHandler3
text$x	ENDS
?begin@?$vector@UOption@CCustomMenu@@V?$allocator@UOption@CCustomMenu@@@std@@@std@@QAE?AV?$_Vector_iterator@V?$_Vector_val@U?$_Simple_types@UOption@CCustomMenu@@@std@@@std@@@2@XZ ENDP ; std::vector<CCustomMenu::Option,std::allocator<CCustomMenu::Option> >::begin
; Function compile flags: /Odtp /RTCsu /ZI
; File c:\program files (x86)\microsoft visual studio 14.0\vc\include\vector
;	COMDAT ?_Unused_capacity@?$vector@UOption@CCustomMenu@@V?$allocator@UOption@CCustomMenu@@@std@@@std@@QBEIXZ
_TEXT	SEGMENT
_this$ = -8						; size = 4
?_Unused_capacity@?$vector@UOption@CCustomMenu@@V?$allocator@UOption@CCustomMenu@@@std@@@std@@QBEIXZ PROC ; std::vector<CCustomMenu::Option,std::allocator<CCustomMenu::Option> >::_Unused_capacity, COMDAT
; _this$ = ecx

; 1047 : 		{	// micro-optimization for capacity() - size()

	push	ebp
	mov	ebp, esp
	sub	esp, 204				; 000000ccH
	push	ebx
	push	esi
	push	edi
	push	ecx
	lea	edi, DWORD PTR [ebp-204]
	mov	ecx, 51					; 00000033H
	mov	eax, -858993460				; ccccccccH
	rep stosd
	pop	ecx
	mov	DWORD PTR _this$[ebp], ecx

; 1048 : 		return (this->_Myend() - this->_Mylast());

	mov	ecx, DWORD PTR _this$[ebp]
	call	?_Myend@?$_Vector_alloc@U?$_Vec_base_types@UOption@CCustomMenu@@V?$allocator@UOption@CCustomMenu@@@std@@@std@@@std@@QBEABQAUOption@CCustomMenu@@XZ ; std::_Vector_alloc<std::_Vec_base_types<CCustomMenu::Option,std::allocator<CCustomMenu::Option> > >::_Myend
	mov	esi, eax
	mov	ecx, DWORD PTR _this$[ebp]
	call	?_Mylast@?$_Vector_alloc@U?$_Vec_base_types@UOption@CCustomMenu@@V?$allocator@UOption@CCustomMenu@@@std@@@std@@@std@@QBEABQAUOption@CCustomMenu@@XZ ; std::_Vector_alloc<std::_Vec_base_types<CCustomMenu::Option,std::allocator<CCustomMenu::Option> > >::_Mylast
	mov	ecx, DWORD PTR [esi]
	sub	ecx, DWORD PTR [eax]
	sar	ecx, 5
	mov	eax, ecx

; 1049 : 		}

	pop	edi
	pop	esi
	pop	ebx
	add	esp, 204				; 000000ccH
	cmp	ebp, esp
	call	__RTC_CheckEsp
	mov	esp, ebp
	pop	ebp
	ret	0
?_Unused_capacity@?$vector@UOption@CCustomMenu@@V?$allocator@UOption@CCustomMenu@@@std@@@std@@QBEIXZ ENDP ; std::vector<CCustomMenu::Option,std::allocator<CCustomMenu::Option> >::_Unused_capacity
_TEXT	ENDS
; Function compile flags: /Odtp /RTCsu /ZI
; File c:\program files (x86)\microsoft visual studio 14.0\vc\include\vector
;	COMDAT ?capacity@?$vector@UOption@CCustomMenu@@V?$allocator@UOption@CCustomMenu@@@std@@@std@@QBEIXZ
_TEXT	SEGMENT
_this$ = -8						; size = 4
?capacity@?$vector@UOption@CCustomMenu@@V?$allocator@UOption@CCustomMenu@@@std@@@std@@QBEIXZ PROC ; std::vector<CCustomMenu::Option,std::allocator<CCustomMenu::Option> >::capacity, COMDAT
; _this$ = ecx

; 1042 : 		{	// return current length of allocated storage

	push	ebp
	mov	ebp, esp
	sub	esp, 204				; 000000ccH
	push	ebx
	push	esi
	push	edi
	push	ecx
	lea	edi, DWORD PTR [ebp-204]
	mov	ecx, 51					; 00000033H
	mov	eax, -858993460				; ccccccccH
	rep stosd
	pop	ecx
	mov	DWORD PTR _this$[ebp], ecx

; 1043 : 		return (this->_Myend() - this->_Myfirst());

	mov	ecx, DWORD PTR _this$[ebp]
	call	?_Myend@?$_Vector_alloc@U?$_Vec_base_types@UOption@CCustomMenu@@V?$allocator@UOption@CCustomMenu@@@std@@@std@@@std@@QBEABQAUOption@CCustomMenu@@XZ ; std::_Vector_alloc<std::_Vec_base_types<CCustomMenu::Option,std::allocator<CCustomMenu::Option> > >::_Myend
	mov	esi, eax
	mov	ecx, DWORD PTR _this$[ebp]
	call	?_Myfirst@?$_Vector_alloc@U?$_Vec_base_types@UOption@CCustomMenu@@V?$allocator@UOption@CCustomMenu@@@std@@@std@@@std@@QBEABQAUOption@CCustomMenu@@XZ ; std::_Vector_alloc<std::_Vec_base_types<CCustomMenu::Option,std::allocator<CCustomMenu::Option> > >::_Myfirst
	mov	ecx, DWORD PTR [esi]
	sub	ecx, DWORD PTR [eax]
	sar	ecx, 5
	mov	eax, ecx

; 1044 : 		}

	pop	edi
	pop	esi
	pop	ebx
	add	esp, 204				; 000000ccH
	cmp	ebp, esp
	call	__RTC_CheckEsp
	mov	esp, ebp
	pop	ebp
	ret	0
?capacity@?$vector@UOption@CCustomMenu@@V?$allocator@UOption@CCustomMenu@@@std@@@std@@QBEIXZ ENDP ; std::vector<CCustomMenu::Option,std::allocator<CCustomMenu::Option> >::capacity
_TEXT	ENDS
; Function compile flags: /Odtp /RTCsu /ZI
; File c:\program files (x86)\microsoft visual studio 14.0\vc\include\vector
;	COMDAT ??1?$vector@UOption@CCustomMenu@@V?$allocator@UOption@CCustomMenu@@@std@@@std@@QAE@XZ
_TEXT	SEGMENT
_this$ = -20						; size = 4
__$EHRec$ = -12						; size = 12
??1?$vector@UOption@CCustomMenu@@V?$allocator@UOption@CCustomMenu@@@std@@@std@@QAE@XZ PROC ; std::vector<CCustomMenu::Option,std::allocator<CCustomMenu::Option> >::~vector<CCustomMenu::Option,std::allocator<CCustomMenu::Option> >, COMDAT
; _this$ = ecx

; 975  : 		{	// destroy the object

	push	ebp
	mov	ebp, esp
	push	-1
	push	__ehhandler$??1?$vector@UOption@CCustomMenu@@V?$allocator@UOption@CCustomMenu@@@std@@@std@@QAE@XZ
	mov	eax, DWORD PTR fs:0
	push	eax
	sub	esp, 204				; 000000ccH
	push	ebx
	push	esi
	push	edi
	push	ecx
	lea	edi, DWORD PTR [ebp-216]
	mov	ecx, 51					; 00000033H
	mov	eax, -858993460				; ccccccccH
	rep stosd
	pop	ecx
	mov	eax, DWORD PTR ___security_cookie
	xor	eax, ebp
	push	eax
	lea	eax, DWORD PTR __$EHRec$[ebp]
	mov	DWORD PTR fs:0, eax
	mov	DWORD PTR _this$[ebp], ecx

; 976  : 		_Tidy();

	mov	ecx, DWORD PTR _this$[ebp]
	call	?_Tidy@?$vector@UOption@CCustomMenu@@V?$allocator@UOption@CCustomMenu@@@std@@@std@@IAEXXZ ; std::vector<CCustomMenu::Option,std::allocator<CCustomMenu::Option> >::_Tidy

; 977  : 		}

	mov	ecx, DWORD PTR _this$[ebp]
	call	??1?$_Vector_alloc@U?$_Vec_base_types@UOption@CCustomMenu@@V?$allocator@UOption@CCustomMenu@@@std@@@std@@@std@@QAE@XZ ; std::_Vector_alloc<std::_Vec_base_types<CCustomMenu::Option,std::allocator<CCustomMenu::Option> > >::~_Vector_alloc<std::_Vec_base_types<CCustomMenu::Option,std::allocator<CCustomMenu::Option> > >
	mov	ecx, DWORD PTR __$EHRec$[ebp]
	mov	DWORD PTR fs:0, ecx
	pop	ecx
	pop	edi
	pop	esi
	pop	ebx
	add	esp, 216				; 000000d8H
	cmp	ebp, esp
	call	__RTC_CheckEsp
	mov	esp, ebp
	pop	ebp
	ret	0
_TEXT	ENDS
;	COMDAT text$x
text$x	SEGMENT
__ehhandler$??1?$vector@UOption@CCustomMenu@@V?$allocator@UOption@CCustomMenu@@@std@@@std@@QAE@XZ:
	mov	edx, DWORD PTR [esp+8]
	lea	eax, DWORD PTR [edx+12]
	mov	ecx, DWORD PTR [edx-220]
	xor	ecx, eax
	call	@__security_check_cookie@4
	mov	eax, OFFSET __ehfuncinfo$??1?$vector@UOption@CCustomMenu@@V?$allocator@UOption@CCustomMenu@@@std@@@std@@QAE@XZ
	jmp	___CxxFrameHandler3
text$x	ENDS
??1?$vector@UOption@CCustomMenu@@V?$allocator@UOption@CCustomMenu@@@std@@@std@@QAE@XZ ENDP ; std::vector<CCustomMenu::Option,std::allocator<CCustomMenu::Option> >::~vector<CCustomMenu::Option,std::allocator<CCustomMenu::Option> >
; Function compile flags: /Odtp /RTCsu /ZI
; File c:\program files (x86)\microsoft visual studio 14.0\vc\include\vector
;	COMDAT ??0?$vector@UOption@CCustomMenu@@V?$allocator@UOption@CCustomMenu@@@std@@@std@@QAE@XZ
_TEXT	SEGMENT
_this$ = -20						; size = 4
__$EHRec$ = -12						; size = 12
??0?$vector@UOption@CCustomMenu@@V?$allocator@UOption@CCustomMenu@@@std@@@std@@QAE@XZ PROC ; std::vector<CCustomMenu::Option,std::allocator<CCustomMenu::Option> >::vector<CCustomMenu::Option,std::allocator<CCustomMenu::Option> >, COMDAT
; _this$ = ecx

; 707  : 		{	// construct empty vector

	push	ebp
	mov	ebp, esp
	push	-1
	push	__ehhandler$??0?$vector@UOption@CCustomMenu@@V?$allocator@UOption@CCustomMenu@@@std@@@std@@QAE@XZ
	mov	eax, DWORD PTR fs:0
	push	eax
	sub	esp, 204				; 000000ccH
	push	ebx
	push	esi
	push	edi
	push	ecx
	lea	edi, DWORD PTR [ebp-216]
	mov	ecx, 51					; 00000033H
	mov	eax, -858993460				; ccccccccH
	rep stosd
	pop	ecx
	mov	eax, DWORD PTR ___security_cookie
	xor	eax, ebp
	push	eax
	lea	eax, DWORD PTR __$EHRec$[ebp]
	mov	DWORD PTR fs:0, eax
	mov	DWORD PTR _this$[ebp], ecx

; 706  : 		: _Mybase()

	mov	ecx, DWORD PTR _this$[ebp]
	call	??0?$_Vector_alloc@U?$_Vec_base_types@UOption@CCustomMenu@@V?$allocator@UOption@CCustomMenu@@@std@@@std@@@std@@QAE@XZ ; std::_Vector_alloc<std::_Vec_base_types<CCustomMenu::Option,std::allocator<CCustomMenu::Option> > >::_Vector_alloc<std::_Vec_base_types<CCustomMenu::Option,std::allocator<CCustomMenu::Option> > >

; 708  : 		}

	mov	eax, DWORD PTR _this$[ebp]
	mov	ecx, DWORD PTR __$EHRec$[ebp]
	mov	DWORD PTR fs:0, ecx
	pop	ecx
	pop	edi
	pop	esi
	pop	ebx
	add	esp, 216				; 000000d8H
	cmp	ebp, esp
	call	__RTC_CheckEsp
	mov	esp, ebp
	pop	ebp
	ret	0
_TEXT	ENDS
;	COMDAT text$x
text$x	SEGMENT
__ehhandler$??0?$vector@UOption@CCustomMenu@@V?$allocator@UOption@CCustomMenu@@@std@@@std@@QAE@XZ:
	mov	edx, DWORD PTR [esp+8]
	lea	eax, DWORD PTR [edx+12]
	mov	ecx, DWORD PTR [edx-220]
	xor	ecx, eax
	call	@__security_check_cookie@4
	mov	eax, OFFSET __ehfuncinfo$??0?$vector@UOption@CCustomMenu@@V?$allocator@UOption@CCustomMenu@@@std@@@std@@QAE@XZ
	jmp	___CxxFrameHandler3
text$x	ENDS
??0?$vector@UOption@CCustomMenu@@V?$allocator@UOption@CCustomMenu@@@std@@@std@@QAE@XZ ENDP ; std::vector<CCustomMenu::Option,std::allocator<CCustomMenu::Option> >::vector<CCustomMenu::Option,std::allocator<CCustomMenu::Option> >
; Function compile flags: /Odtp /RTCsu /ZI
;	COMDAT ??1?$_Compressed_pair@U?$_Wrap_alloc@V?$allocator@UOption@CCustomMenu@@@std@@@std@@V?$_Vector_val@U?$_Simple_types@UOption@CCustomMenu@@@std@@@2@$00@std@@QAE@XZ
_TEXT	SEGMENT
_this$ = -8						; size = 4
??1?$_Compressed_pair@U?$_Wrap_alloc@V?$allocator@UOption@CCustomMenu@@@std@@@std@@V?$_Vector_val@U?$_Simple_types@UOption@CCustomMenu@@@std@@@2@$00@std@@QAE@XZ PROC ; std::_Compressed_pair<std::_Wrap_alloc<std::allocator<CCustomMenu::Option> >,std::_Vector_val<std::_Simple_types<CCustomMenu::Option> >,1>::~_Compressed_pair<std::_Wrap_alloc<std::allocator<CCustomMenu::Option> >,std::_Vector_val<std::_Simple_types<CCustomMenu::Option> >,1>, COMDAT
; _this$ = ecx
	push	ebp
	mov	ebp, esp
	sub	esp, 204				; 000000ccH
	push	ebx
	push	esi
	push	edi
	push	ecx
	lea	edi, DWORD PTR [ebp-204]
	mov	ecx, 51					; 00000033H
	mov	eax, -858993460				; ccccccccH
	rep stosd
	pop	ecx
	mov	DWORD PTR _this$[ebp], ecx
	mov	ecx, DWORD PTR _this$[ebp]
	call	??1?$_Vector_val@U?$_Simple_types@UOption@CCustomMenu@@@std@@@std@@QAE@XZ
	pop	edi
	pop	esi
	pop	ebx
	add	esp, 204				; 000000ccH
	cmp	ebp, esp
	call	__RTC_CheckEsp
	mov	esp, ebp
	pop	ebp
	ret	0
??1?$_Compressed_pair@U?$_Wrap_alloc@V?$allocator@UOption@CCustomMenu@@@std@@@std@@V?$_Vector_val@U?$_Simple_types@UOption@CCustomMenu@@@std@@@2@$00@std@@QAE@XZ ENDP ; std::_Compressed_pair<std::_Wrap_alloc<std::allocator<CCustomMenu::Option> >,std::_Vector_val<std::_Simple_types<CCustomMenu::Option> >,1>::~_Compressed_pair<std::_Wrap_alloc<std::allocator<CCustomMenu::Option> >,std::_Vector_val<std::_Simple_types<CCustomMenu::Option> >,1>
_TEXT	ENDS
; Function compile flags: /Odtp /RTCsu /ZI
; File c:\program files (x86)\microsoft visual studio 14.0\vc\include\xutility
;	COMDAT ?_Get_second@?$_Compressed_pair@U?$_Wrap_alloc@V?$allocator@UOption@CCustomMenu@@@std@@@std@@V?$_Vector_val@U?$_Simple_types@UOption@CCustomMenu@@@std@@@2@$00@std@@QBEABV?$_Vector_val@U?$_Simple_types@UOption@CCustomMenu@@@std@@@2@XZ
_TEXT	SEGMENT
_this$ = -8						; size = 4
?_Get_second@?$_Compressed_pair@U?$_Wrap_alloc@V?$allocator@UOption@CCustomMenu@@@std@@@std@@V?$_Vector_val@U?$_Simple_types@UOption@CCustomMenu@@@std@@@2@$00@std@@QBEABV?$_Vector_val@U?$_Simple_types@UOption@CCustomMenu@@@std@@@2@XZ PROC ; std::_Compressed_pair<std::_Wrap_alloc<std::allocator<CCustomMenu::Option> >,std::_Vector_val<std::_Simple_types<CCustomMenu::Option> >,1>::_Get_second, COMDAT
; _this$ = ecx

; 319  : 		{	// return const reference to second

	push	ebp
	mov	ebp, esp
	sub	esp, 204				; 000000ccH
	push	ebx
	push	esi
	push	edi
	push	ecx
	lea	edi, DWORD PTR [ebp-204]
	mov	ecx, 51					; 00000033H
	mov	eax, -858993460				; ccccccccH
	rep stosd
	pop	ecx
	mov	DWORD PTR _this$[ebp], ecx

; 320  : 		return (_Myval2);

	mov	eax, DWORD PTR _this$[ebp]

; 321  : 		}

	pop	edi
	pop	esi
	pop	ebx
	mov	esp, ebp
	pop	ebp
	ret	0
?_Get_second@?$_Compressed_pair@U?$_Wrap_alloc@V?$allocator@UOption@CCustomMenu@@@std@@@std@@V?$_Vector_val@U?$_Simple_types@UOption@CCustomMenu@@@std@@@2@$00@std@@QBEABV?$_Vector_val@U?$_Simple_types@UOption@CCustomMenu@@@std@@@2@XZ ENDP ; std::_Compressed_pair<std::_Wrap_alloc<std::allocator<CCustomMenu::Option> >,std::_Vector_val<std::_Simple_types<CCustomMenu::Option> >,1>::_Get_second
_TEXT	ENDS
; Function compile flags: /Odtp /RTCsu /ZI
; File c:\program files (x86)\microsoft visual studio 14.0\vc\include\xutility
;	COMDAT ?_Get_second@?$_Compressed_pair@U?$_Wrap_alloc@V?$allocator@UOption@CCustomMenu@@@std@@@std@@V?$_Vector_val@U?$_Simple_types@UOption@CCustomMenu@@@std@@@2@$00@std@@QAEAAV?$_Vector_val@U?$_Simple_types@UOption@CCustomMenu@@@std@@@2@XZ
_TEXT	SEGMENT
_this$ = -8						; size = 4
?_Get_second@?$_Compressed_pair@U?$_Wrap_alloc@V?$allocator@UOption@CCustomMenu@@@std@@@std@@V?$_Vector_val@U?$_Simple_types@UOption@CCustomMenu@@@std@@@2@$00@std@@QAEAAV?$_Vector_val@U?$_Simple_types@UOption@CCustomMenu@@@std@@@2@XZ PROC ; std::_Compressed_pair<std::_Wrap_alloc<std::allocator<CCustomMenu::Option> >,std::_Vector_val<std::_Simple_types<CCustomMenu::Option> >,1>::_Get_second, COMDAT
; _this$ = ecx

; 314  : 		{	// return reference to second

	push	ebp
	mov	ebp, esp
	sub	esp, 204				; 000000ccH
	push	ebx
	push	esi
	push	edi
	push	ecx
	lea	edi, DWORD PTR [ebp-204]
	mov	ecx, 51					; 00000033H
	mov	eax, -858993460				; ccccccccH
	rep stosd
	pop	ecx
	mov	DWORD PTR _this$[ebp], ecx

; 315  : 		return (_Myval2);

	mov	eax, DWORD PTR _this$[ebp]

; 316  : 		}

	pop	edi
	pop	esi
	pop	ebx
	mov	esp, ebp
	pop	ebp
	ret	0
?_Get_second@?$_Compressed_pair@U?$_Wrap_alloc@V?$allocator@UOption@CCustomMenu@@@std@@@std@@V?$_Vector_val@U?$_Simple_types@UOption@CCustomMenu@@@std@@@2@$00@std@@QAEAAV?$_Vector_val@U?$_Simple_types@UOption@CCustomMenu@@@std@@@2@XZ ENDP ; std::_Compressed_pair<std::_Wrap_alloc<std::allocator<CCustomMenu::Option> >,std::_Vector_val<std::_Simple_types<CCustomMenu::Option> >,1>::_Get_second
_TEXT	ENDS
; Function compile flags: /Odtp /RTCsu /ZI
; File c:\program files (x86)\microsoft visual studio 14.0\vc\include\xutility
;	COMDAT ?_Get_first@?$_Compressed_pair@U?$_Wrap_alloc@V?$allocator@UOption@CCustomMenu@@@std@@@std@@V?$_Vector_val@U?$_Simple_types@UOption@CCustomMenu@@@std@@@2@$00@std@@QBEABU?$_Wrap_alloc@V?$allocator@UOption@CCustomMenu@@@std@@@2@XZ
_TEXT	SEGMENT
_this$ = -8						; size = 4
?_Get_first@?$_Compressed_pair@U?$_Wrap_alloc@V?$allocator@UOption@CCustomMenu@@@std@@@std@@V?$_Vector_val@U?$_Simple_types@UOption@CCustomMenu@@@std@@@2@$00@std@@QBEABU?$_Wrap_alloc@V?$allocator@UOption@CCustomMenu@@@std@@@2@XZ PROC ; std::_Compressed_pair<std::_Wrap_alloc<std::allocator<CCustomMenu::Option> >,std::_Vector_val<std::_Simple_types<CCustomMenu::Option> >,1>::_Get_first, COMDAT
; _this$ = ecx

; 299  : 		{	// return const reference to first

	push	ebp
	mov	ebp, esp
	sub	esp, 204				; 000000ccH
	push	ebx
	push	esi
	push	edi
	push	ecx
	lea	edi, DWORD PTR [ebp-204]
	mov	ecx, 51					; 00000033H
	mov	eax, -858993460				; ccccccccH
	rep stosd
	pop	ecx
	mov	DWORD PTR _this$[ebp], ecx

; 300  : 		return (*this);

	mov	eax, DWORD PTR _this$[ebp]

; 301  : 		}

	pop	edi
	pop	esi
	pop	ebx
	mov	esp, ebp
	pop	ebp
	ret	0
?_Get_first@?$_Compressed_pair@U?$_Wrap_alloc@V?$allocator@UOption@CCustomMenu@@@std@@@std@@V?$_Vector_val@U?$_Simple_types@UOption@CCustomMenu@@@std@@@2@$00@std@@QBEABU?$_Wrap_alloc@V?$allocator@UOption@CCustomMenu@@@std@@@2@XZ ENDP ; std::_Compressed_pair<std::_Wrap_alloc<std::allocator<CCustomMenu::Option> >,std::_Vector_val<std::_Simple_types<CCustomMenu::Option> >,1>::_Get_first
_TEXT	ENDS
; Function compile flags: /Odtp /RTCsu /ZI
; File c:\program files (x86)\microsoft visual studio 14.0\vc\include\xutility
;	COMDAT ?_Get_first@?$_Compressed_pair@U?$_Wrap_alloc@V?$allocator@UOption@CCustomMenu@@@std@@@std@@V?$_Vector_val@U?$_Simple_types@UOption@CCustomMenu@@@std@@@2@$00@std@@QAEAAU?$_Wrap_alloc@V?$allocator@UOption@CCustomMenu@@@std@@@2@XZ
_TEXT	SEGMENT
_this$ = -8						; size = 4
?_Get_first@?$_Compressed_pair@U?$_Wrap_alloc@V?$allocator@UOption@CCustomMenu@@@std@@@std@@V?$_Vector_val@U?$_Simple_types@UOption@CCustomMenu@@@std@@@2@$00@std@@QAEAAU?$_Wrap_alloc@V?$allocator@UOption@CCustomMenu@@@std@@@2@XZ PROC ; std::_Compressed_pair<std::_Wrap_alloc<std::allocator<CCustomMenu::Option> >,std::_Vector_val<std::_Simple_types<CCustomMenu::Option> >,1>::_Get_first, COMDAT
; _this$ = ecx

; 294  : 		{	// return reference to first

	push	ebp
	mov	ebp, esp
	sub	esp, 204				; 000000ccH
	push	ebx
	push	esi
	push	edi
	push	ecx
	lea	edi, DWORD PTR [ebp-204]
	mov	ecx, 51					; 00000033H
	mov	eax, -858993460				; ccccccccH
	rep stosd
	pop	ecx
	mov	DWORD PTR _this$[ebp], ecx

; 295  : 		return (*this);

	mov	eax, DWORD PTR _this$[ebp]

; 296  : 		}

	pop	edi
	pop	esi
	pop	ebx
	mov	esp, ebp
	pop	ebp
	ret	0
?_Get_first@?$_Compressed_pair@U?$_Wrap_alloc@V?$allocator@UOption@CCustomMenu@@@std@@@std@@V?$_Vector_val@U?$_Simple_types@UOption@CCustomMenu@@@std@@@2@$00@std@@QAEAAU?$_Wrap_alloc@V?$allocator@UOption@CCustomMenu@@@std@@@2@XZ ENDP ; std::_Compressed_pair<std::_Wrap_alloc<std::allocator<CCustomMenu::Option> >,std::_Vector_val<std::_Simple_types<CCustomMenu::Option> >,1>::_Get_first
_TEXT	ENDS
; Function compile flags: /Odtp /RTCsu /ZI
;	COMDAT ??1?$_Vector_val@U?$_Simple_types@UOption@CCustomMenu@@@std@@@std@@QAE@XZ
_TEXT	SEGMENT
_this$ = -8						; size = 4
??1?$_Vector_val@U?$_Simple_types@UOption@CCustomMenu@@@std@@@std@@QAE@XZ PROC ; std::_Vector_val<std::_Simple_types<CCustomMenu::Option> >::~_Vector_val<std::_Simple_types<CCustomMenu::Option> >, COMDAT
; _this$ = ecx
	push	ebp
	mov	ebp, esp
	sub	esp, 204				; 000000ccH
	push	ebx
	push	esi
	push	edi
	push	ecx
	lea	edi, DWORD PTR [ebp-204]
	mov	ecx, 51					; 00000033H
	mov	eax, -858993460				; ccccccccH
	rep stosd
	pop	ecx
	mov	DWORD PTR _this$[ebp], ecx
	mov	ecx, DWORD PTR _this$[ebp]
	call	??1_Container_base12@std@@QAE@XZ	; std::_Container_base12::~_Container_base12
	pop	edi
	pop	esi
	pop	ebx
	add	esp, 204				; 000000ccH
	cmp	ebp, esp
	call	__RTC_CheckEsp
	mov	esp, ebp
	pop	ebp
	ret	0
??1?$_Vector_val@U?$_Simple_types@UOption@CCustomMenu@@@std@@@std@@QAE@XZ ENDP ; std::_Vector_val<std::_Simple_types<CCustomMenu::Option> >::~_Vector_val<std::_Simple_types<CCustomMenu::Option> >
_TEXT	ENDS
; Function compile flags: /Odtp /RTCsu /ZI
; File c:\program files (x86)\microsoft visual studio 14.0\vc\include\vector
;	COMDAT ??0?$_Vector_val@U?$_Simple_types@UOption@CCustomMenu@@@std@@@std@@QAE@XZ
_TEXT	SEGMENT
_this$ = -8						; size = 4
??0?$_Vector_val@U?$_Simple_types@UOption@CCustomMenu@@@std@@@std@@QAE@XZ PROC ; std::_Vector_val<std::_Simple_types<CCustomMenu::Option> >::_Vector_val<std::_Simple_types<CCustomMenu::Option> >, COMDAT
; _this$ = ecx

; 488  : 		{	// initialize values

	push	ebp
	mov	ebp, esp
	sub	esp, 204				; 000000ccH
	push	ebx
	push	esi
	push	edi
	push	ecx
	lea	edi, DWORD PTR [ebp-204]
	mov	ecx, 51					; 00000033H
	mov	eax, -858993460				; ccccccccH
	rep stosd
	pop	ecx
	mov	DWORD PTR _this$[ebp], ecx
	mov	ecx, DWORD PTR _this$[ebp]
	call	??0_Container_base12@std@@QAE@XZ	; std::_Container_base12::_Container_base12

; 485  : 		: _Myfirst(),

	mov	eax, DWORD PTR _this$[ebp]
	mov	DWORD PTR [eax+4], 0

; 486  : 		_Mylast(),

	mov	eax, DWORD PTR _this$[ebp]
	mov	DWORD PTR [eax+8], 0

; 487  : 		_Myend()

	mov	eax, DWORD PTR _this$[ebp]
	mov	DWORD PTR [eax+12], 0

; 489  : 		}

	mov	eax, DWORD PTR _this$[ebp]
	pop	edi
	pop	esi
	pop	ebx
	add	esp, 204				; 000000ccH
	cmp	ebp, esp
	call	__RTC_CheckEsp
	mov	esp, ebp
	pop	ebp
	ret	0
??0?$_Vector_val@U?$_Simple_types@UOption@CCustomMenu@@@std@@@std@@QAE@XZ ENDP ; std::_Vector_val<std::_Simple_types<CCustomMenu::Option> >::_Vector_val<std::_Simple_types<CCustomMenu::Option> >
_TEXT	ENDS
; Function compile flags: /Odtp /RTCsu /ZI
; File c:\program files (x86)\microsoft visual studio 14.0\vc\include\vector
;	COMDAT ?_Myend@?$_Vector_alloc@U?$_Vec_base_types@UOption@CCustomMenu@@V?$allocator@UOption@CCustomMenu@@@std@@@std@@@std@@QBEABQAUOption@CCustomMenu@@XZ
_TEXT	SEGMENT
_this$ = -8						; size = 4
?_Myend@?$_Vector_alloc@U?$_Vec_base_types@UOption@CCustomMenu@@V?$allocator@UOption@CCustomMenu@@@std@@@std@@@std@@QBEABQAUOption@CCustomMenu@@XZ PROC ; std::_Vector_alloc<std::_Vec_base_types<CCustomMenu::Option,std::allocator<CCustomMenu::Option> > >::_Myend, COMDAT
; _this$ = ecx

; 667  : 		{	// return const reference to _Myend

	push	ebp
	mov	ebp, esp
	sub	esp, 204				; 000000ccH
	push	ebx
	push	esi
	push	edi
	push	ecx
	lea	edi, DWORD PTR [ebp-204]
	mov	ecx, 51					; 00000033H
	mov	eax, -858993460				; ccccccccH
	rep stosd
	pop	ecx
	mov	DWORD PTR _this$[ebp], ecx

; 668  : 		return (_Get_data()._Myend);

	mov	ecx, DWORD PTR _this$[ebp]
	call	?_Get_data@?$_Vector_alloc@U?$_Vec_base_types@UOption@CCustomMenu@@V?$allocator@UOption@CCustomMenu@@@std@@@std@@@std@@QBEABV?$_Vector_val@U?$_Simple_types@UOption@CCustomMenu@@@std@@@2@XZ ; std::_Vector_alloc<std::_Vec_base_types<CCustomMenu::Option,std::allocator<CCustomMenu::Option> > >::_Get_data
	add	eax, 12					; 0000000cH

; 669  : 		}

	pop	edi
	pop	esi
	pop	ebx
	add	esp, 204				; 000000ccH
	cmp	ebp, esp
	call	__RTC_CheckEsp
	mov	esp, ebp
	pop	ebp
	ret	0
?_Myend@?$_Vector_alloc@U?$_Vec_base_types@UOption@CCustomMenu@@V?$allocator@UOption@CCustomMenu@@@std@@@std@@@std@@QBEABQAUOption@CCustomMenu@@XZ ENDP ; std::_Vector_alloc<std::_Vec_base_types<CCustomMenu::Option,std::allocator<CCustomMenu::Option> > >::_Myend
_TEXT	ENDS
; Function compile flags: /Odtp /RTCsu /ZI
; File c:\program files (x86)\microsoft visual studio 14.0\vc\include\vector
;	COMDAT ?_Myend@?$_Vector_alloc@U?$_Vec_base_types@UOption@CCustomMenu@@V?$allocator@UOption@CCustomMenu@@@std@@@std@@@std@@QAEAAPAUOption@CCustomMenu@@XZ
_TEXT	SEGMENT
_this$ = -8						; size = 4
?_Myend@?$_Vector_alloc@U?$_Vec_base_types@UOption@CCustomMenu@@V?$allocator@UOption@CCustomMenu@@@std@@@std@@@std@@QAEAAPAUOption@CCustomMenu@@XZ PROC ; std::_Vector_alloc<std::_Vec_base_types<CCustomMenu::Option,std::allocator<CCustomMenu::Option> > >::_Myend, COMDAT
; _this$ = ecx

; 662  : 		{	// return reference to _Myend

	push	ebp
	mov	ebp, esp
	sub	esp, 204				; 000000ccH
	push	ebx
	push	esi
	push	edi
	push	ecx
	lea	edi, DWORD PTR [ebp-204]
	mov	ecx, 51					; 00000033H
	mov	eax, -858993460				; ccccccccH
	rep stosd
	pop	ecx
	mov	DWORD PTR _this$[ebp], ecx

; 663  : 		return (_Get_data()._Myend);

	mov	ecx, DWORD PTR _this$[ebp]
	call	?_Get_data@?$_Vector_alloc@U?$_Vec_base_types@UOption@CCustomMenu@@V?$allocator@UOption@CCustomMenu@@@std@@@std@@@std@@QAEAAV?$_Vector_val@U?$_Simple_types@UOption@CCustomMenu@@@std@@@2@XZ ; std::_Vector_alloc<std::_Vec_base_types<CCustomMenu::Option,std::allocator<CCustomMenu::Option> > >::_Get_data
	add	eax, 12					; 0000000cH

; 664  : 		}

	pop	edi
	pop	esi
	pop	ebx
	add	esp, 204				; 000000ccH
	cmp	ebp, esp
	call	__RTC_CheckEsp
	mov	esp, ebp
	pop	ebp
	ret	0
?_Myend@?$_Vector_alloc@U?$_Vec_base_types@UOption@CCustomMenu@@V?$allocator@UOption@CCustomMenu@@@std@@@std@@@std@@QAEAAPAUOption@CCustomMenu@@XZ ENDP ; std::_Vector_alloc<std::_Vec_base_types<CCustomMenu::Option,std::allocator<CCustomMenu::Option> > >::_Myend
_TEXT	ENDS
; Function compile flags: /Odtp /RTCsu /ZI
; File c:\program files (x86)\microsoft visual studio 14.0\vc\include\vector
;	COMDAT ?_Mylast@?$_Vector_alloc@U?$_Vec_base_types@UOption@CCustomMenu@@V?$allocator@UOption@CCustomMenu@@@std@@@std@@@std@@QBEABQAUOption@CCustomMenu@@XZ
_TEXT	SEGMENT
_this$ = -8						; size = 4
?_Mylast@?$_Vector_alloc@U?$_Vec_base_types@UOption@CCustomMenu@@V?$allocator@UOption@CCustomMenu@@@std@@@std@@@std@@QBEABQAUOption@CCustomMenu@@XZ PROC ; std::_Vector_alloc<std::_Vec_base_types<CCustomMenu::Option,std::allocator<CCustomMenu::Option> > >::_Mylast, COMDAT
; _this$ = ecx

; 657  : 		{	// return const reference to _Mylast

	push	ebp
	mov	ebp, esp
	sub	esp, 204				; 000000ccH
	push	ebx
	push	esi
	push	edi
	push	ecx
	lea	edi, DWORD PTR [ebp-204]
	mov	ecx, 51					; 00000033H
	mov	eax, -858993460				; ccccccccH
	rep stosd
	pop	ecx
	mov	DWORD PTR _this$[ebp], ecx

; 658  : 		return (_Get_data()._Mylast);

	mov	ecx, DWORD PTR _this$[ebp]
	call	?_Get_data@?$_Vector_alloc@U?$_Vec_base_types@UOption@CCustomMenu@@V?$allocator@UOption@CCustomMenu@@@std@@@std@@@std@@QBEABV?$_Vector_val@U?$_Simple_types@UOption@CCustomMenu@@@std@@@2@XZ ; std::_Vector_alloc<std::_Vec_base_types<CCustomMenu::Option,std::allocator<CCustomMenu::Option> > >::_Get_data
	add	eax, 8

; 659  : 		}

	pop	edi
	pop	esi
	pop	ebx
	add	esp, 204				; 000000ccH
	cmp	ebp, esp
	call	__RTC_CheckEsp
	mov	esp, ebp
	pop	ebp
	ret	0
?_Mylast@?$_Vector_alloc@U?$_Vec_base_types@UOption@CCustomMenu@@V?$allocator@UOption@CCustomMenu@@@std@@@std@@@std@@QBEABQAUOption@CCustomMenu@@XZ ENDP ; std::_Vector_alloc<std::_Vec_base_types<CCustomMenu::Option,std::allocator<CCustomMenu::Option> > >::_Mylast
_TEXT	ENDS
; Function compile flags: /Odtp /RTCsu /ZI
; File c:\program files (x86)\microsoft visual studio 14.0\vc\include\vector
;	COMDAT ?_Mylast@?$_Vector_alloc@U?$_Vec_base_types@UOption@CCustomMenu@@V?$allocator@UOption@CCustomMenu@@@std@@@std@@@std@@QAEAAPAUOption@CCustomMenu@@XZ
_TEXT	SEGMENT
_this$ = -8						; size = 4
?_Mylast@?$_Vector_alloc@U?$_Vec_base_types@UOption@CCustomMenu@@V?$allocator@UOption@CCustomMenu@@@std@@@std@@@std@@QAEAAPAUOption@CCustomMenu@@XZ PROC ; std::_Vector_alloc<std::_Vec_base_types<CCustomMenu::Option,std::allocator<CCustomMenu::Option> > >::_Mylast, COMDAT
; _this$ = ecx

; 652  : 		{	// return reference to _Mylast

	push	ebp
	mov	ebp, esp
	sub	esp, 204				; 000000ccH
	push	ebx
	push	esi
	push	edi
	push	ecx
	lea	edi, DWORD PTR [ebp-204]
	mov	ecx, 51					; 00000033H
	mov	eax, -858993460				; ccccccccH
	rep stosd
	pop	ecx
	mov	DWORD PTR _this$[ebp], ecx

; 653  : 		return (_Get_data()._Mylast);

	mov	ecx, DWORD PTR _this$[ebp]
	call	?_Get_data@?$_Vector_alloc@U?$_Vec_base_types@UOption@CCustomMenu@@V?$allocator@UOption@CCustomMenu@@@std@@@std@@@std@@QAEAAV?$_Vector_val@U?$_Simple_types@UOption@CCustomMenu@@@std@@@2@XZ ; std::_Vector_alloc<std::_Vec_base_types<CCustomMenu::Option,std::allocator<CCustomMenu::Option> > >::_Get_data
	add	eax, 8

; 654  : 		}

	pop	edi
	pop	esi
	pop	ebx
	add	esp, 204				; 000000ccH
	cmp	ebp, esp
	call	__RTC_CheckEsp
	mov	esp, ebp
	pop	ebp
	ret	0
?_Mylast@?$_Vector_alloc@U?$_Vec_base_types@UOption@CCustomMenu@@V?$allocator@UOption@CCustomMenu@@@std@@@std@@@std@@QAEAAPAUOption@CCustomMenu@@XZ ENDP ; std::_Vector_alloc<std::_Vec_base_types<CCustomMenu::Option,std::allocator<CCustomMenu::Option> > >::_Mylast
_TEXT	ENDS
; Function compile flags: /Odtp /RTCsu /ZI
; File c:\program files (x86)\microsoft visual studio 14.0\vc\include\vector
;	COMDAT ?_Myfirst@?$_Vector_alloc@U?$_Vec_base_types@UOption@CCustomMenu@@V?$allocator@UOption@CCustomMenu@@@std@@@std@@@std@@QBEABQAUOption@CCustomMenu@@XZ
_TEXT	SEGMENT
_this$ = -8						; size = 4
?_Myfirst@?$_Vector_alloc@U?$_Vec_base_types@UOption@CCustomMenu@@V?$allocator@UOption@CCustomMenu@@@std@@@std@@@std@@QBEABQAUOption@CCustomMenu@@XZ PROC ; std::_Vector_alloc<std::_Vec_base_types<CCustomMenu::Option,std::allocator<CCustomMenu::Option> > >::_Myfirst, COMDAT
; _this$ = ecx

; 647  : 		{	// return const reference to _Myfirst

	push	ebp
	mov	ebp, esp
	sub	esp, 204				; 000000ccH
	push	ebx
	push	esi
	push	edi
	push	ecx
	lea	edi, DWORD PTR [ebp-204]
	mov	ecx, 51					; 00000033H
	mov	eax, -858993460				; ccccccccH
	rep stosd
	pop	ecx
	mov	DWORD PTR _this$[ebp], ecx

; 648  : 		return (_Get_data()._Myfirst);

	mov	ecx, DWORD PTR _this$[ebp]
	call	?_Get_data@?$_Vector_alloc@U?$_Vec_base_types@UOption@CCustomMenu@@V?$allocator@UOption@CCustomMenu@@@std@@@std@@@std@@QBEABV?$_Vector_val@U?$_Simple_types@UOption@CCustomMenu@@@std@@@2@XZ ; std::_Vector_alloc<std::_Vec_base_types<CCustomMenu::Option,std::allocator<CCustomMenu::Option> > >::_Get_data
	add	eax, 4

; 649  : 		}

	pop	edi
	pop	esi
	pop	ebx
	add	esp, 204				; 000000ccH
	cmp	ebp, esp
	call	__RTC_CheckEsp
	mov	esp, ebp
	pop	ebp
	ret	0
?_Myfirst@?$_Vector_alloc@U?$_Vec_base_types@UOption@CCustomMenu@@V?$allocator@UOption@CCustomMenu@@@std@@@std@@@std@@QBEABQAUOption@CCustomMenu@@XZ ENDP ; std::_Vector_alloc<std::_Vec_base_types<CCustomMenu::Option,std::allocator<CCustomMenu::Option> > >::_Myfirst
_TEXT	ENDS
; Function compile flags: /Odtp /RTCsu /ZI
; File c:\program files (x86)\microsoft visual studio 14.0\vc\include\vector
;	COMDAT ?_Myfirst@?$_Vector_alloc@U?$_Vec_base_types@UOption@CCustomMenu@@V?$allocator@UOption@CCustomMenu@@@std@@@std@@@std@@QAEAAPAUOption@CCustomMenu@@XZ
_TEXT	SEGMENT
_this$ = -8						; size = 4
?_Myfirst@?$_Vector_alloc@U?$_Vec_base_types@UOption@CCustomMenu@@V?$allocator@UOption@CCustomMenu@@@std@@@std@@@std@@QAEAAPAUOption@CCustomMenu@@XZ PROC ; std::_Vector_alloc<std::_Vec_base_types<CCustomMenu::Option,std::allocator<CCustomMenu::Option> > >::_Myfirst, COMDAT
; _this$ = ecx

; 642  : 		{	// return reference to _Myfirst

	push	ebp
	mov	ebp, esp
	sub	esp, 204				; 000000ccH
	push	ebx
	push	esi
	push	edi
	push	ecx
	lea	edi, DWORD PTR [ebp-204]
	mov	ecx, 51					; 00000033H
	mov	eax, -858993460				; ccccccccH
	rep stosd
	pop	ecx
	mov	DWORD PTR _this$[ebp], ecx

; 643  : 		return (_Get_data()._Myfirst);

	mov	ecx, DWORD PTR _this$[ebp]
	call	?_Get_data@?$_Vector_alloc@U?$_Vec_base_types@UOption@CCustomMenu@@V?$allocator@UOption@CCustomMenu@@@std@@@std@@@std@@QAEAAV?$_Vector_val@U?$_Simple_types@UOption@CCustomMenu@@@std@@@2@XZ ; std::_Vector_alloc<std::_Vec_base_types<CCustomMenu::Option,std::allocator<CCustomMenu::Option> > >::_Get_data
	add	eax, 4

; 644  : 		}

	pop	edi
	pop	esi
	pop	ebx
	add	esp, 204				; 000000ccH
	cmp	ebp, esp
	call	__RTC_CheckEsp
	mov	esp, ebp
	pop	ebp
	ret	0
?_Myfirst@?$_Vector_alloc@U?$_Vec_base_types@UOption@CCustomMenu@@V?$allocator@UOption@CCustomMenu@@@std@@@std@@@std@@QAEAAPAUOption@CCustomMenu@@XZ ENDP ; std::_Vector_alloc<std::_Vec_base_types<CCustomMenu::Option,std::allocator<CCustomMenu::Option> > >::_Myfirst
_TEXT	ENDS
; Function compile flags: /Odtp /RTCsu /ZI
; File c:\program files (x86)\microsoft visual studio 14.0\vc\include\vector
;	COMDAT ?_Get_data@?$_Vector_alloc@U?$_Vec_base_types@UOption@CCustomMenu@@V?$allocator@UOption@CCustomMenu@@@std@@@std@@@std@@QBEABV?$_Vector_val@U?$_Simple_types@UOption@CCustomMenu@@@std@@@2@XZ
_TEXT	SEGMENT
_this$ = -8						; size = 4
?_Get_data@?$_Vector_alloc@U?$_Vec_base_types@UOption@CCustomMenu@@V?$allocator@UOption@CCustomMenu@@@std@@@std@@@std@@QBEABV?$_Vector_val@U?$_Simple_types@UOption@CCustomMenu@@@std@@@2@XZ PROC ; std::_Vector_alloc<std::_Vec_base_types<CCustomMenu::Option,std::allocator<CCustomMenu::Option> > >::_Get_data, COMDAT
; _this$ = ecx

; 637  : 		{	// return const reference to _Vector_val

	push	ebp
	mov	ebp, esp
	sub	esp, 204				; 000000ccH
	push	ebx
	push	esi
	push	edi
	push	ecx
	lea	edi, DWORD PTR [ebp-204]
	mov	ecx, 51					; 00000033H
	mov	eax, -858993460				; ccccccccH
	rep stosd
	pop	ecx
	mov	DWORD PTR _this$[ebp], ecx

; 638  : 		return (_Mypair._Get_second());

	mov	ecx, DWORD PTR _this$[ebp]
	call	?_Get_second@?$_Compressed_pair@U?$_Wrap_alloc@V?$allocator@UOption@CCustomMenu@@@std@@@std@@V?$_Vector_val@U?$_Simple_types@UOption@CCustomMenu@@@std@@@2@$00@std@@QBEABV?$_Vector_val@U?$_Simple_types@UOption@CCustomMenu@@@std@@@2@XZ ; std::_Compressed_pair<std::_Wrap_alloc<std::allocator<CCustomMenu::Option> >,std::_Vector_val<std::_Simple_types<CCustomMenu::Option> >,1>::_Get_second

; 639  : 		}

	pop	edi
	pop	esi
	pop	ebx
	add	esp, 204				; 000000ccH
	cmp	ebp, esp
	call	__RTC_CheckEsp
	mov	esp, ebp
	pop	ebp
	ret	0
?_Get_data@?$_Vector_alloc@U?$_Vec_base_types@UOption@CCustomMenu@@V?$allocator@UOption@CCustomMenu@@@std@@@std@@@std@@QBEABV?$_Vector_val@U?$_Simple_types@UOption@CCustomMenu@@@std@@@2@XZ ENDP ; std::_Vector_alloc<std::_Vec_base_types<CCustomMenu::Option,std::allocator<CCustomMenu::Option> > >::_Get_data
_TEXT	ENDS
; Function compile flags: /Odtp /RTCsu /ZI
; File c:\program files (x86)\microsoft visual studio 14.0\vc\include\vector
;	COMDAT ?_Get_data@?$_Vector_alloc@U?$_Vec_base_types@UOption@CCustomMenu@@V?$allocator@UOption@CCustomMenu@@@std@@@std@@@std@@QAEAAV?$_Vector_val@U?$_Simple_types@UOption@CCustomMenu@@@std@@@2@XZ
_TEXT	SEGMENT
_this$ = -8						; size = 4
?_Get_data@?$_Vector_alloc@U?$_Vec_base_types@UOption@CCustomMenu@@V?$allocator@UOption@CCustomMenu@@@std@@@std@@@std@@QAEAAV?$_Vector_val@U?$_Simple_types@UOption@CCustomMenu@@@std@@@2@XZ PROC ; std::_Vector_alloc<std::_Vec_base_types<CCustomMenu::Option,std::allocator<CCustomMenu::Option> > >::_Get_data, COMDAT
; _this$ = ecx

; 632  : 		{	// return reference to _Vector_val

	push	ebp
	mov	ebp, esp
	sub	esp, 204				; 000000ccH
	push	ebx
	push	esi
	push	edi
	push	ecx
	lea	edi, DWORD PTR [ebp-204]
	mov	ecx, 51					; 00000033H
	mov	eax, -858993460				; ccccccccH
	rep stosd
	pop	ecx
	mov	DWORD PTR _this$[ebp], ecx

; 633  : 		return (_Mypair._Get_second());

	mov	ecx, DWORD PTR _this$[ebp]
	call	?_Get_second@?$_Compressed_pair@U?$_Wrap_alloc@V?$allocator@UOption@CCustomMenu@@@std@@@std@@V?$_Vector_val@U?$_Simple_types@UOption@CCustomMenu@@@std@@@2@$00@std@@QAEAAV?$_Vector_val@U?$_Simple_types@UOption@CCustomMenu@@@std@@@2@XZ ; std::_Compressed_pair<std::_Wrap_alloc<std::allocator<CCustomMenu::Option> >,std::_Vector_val<std::_Simple_types<CCustomMenu::Option> >,1>::_Get_second

; 634  : 		}

	pop	edi
	pop	esi
	pop	ebx
	add	esp, 204				; 000000ccH
	cmp	ebp, esp
	call	__RTC_CheckEsp
	mov	esp, ebp
	pop	ebp
	ret	0
?_Get_data@?$_Vector_alloc@U?$_Vec_base_types@UOption@CCustomMenu@@V?$allocator@UOption@CCustomMenu@@@std@@@std@@@std@@QAEAAV?$_Vector_val@U?$_Simple_types@UOption@CCustomMenu@@@std@@@2@XZ ENDP ; std::_Vector_alloc<std::_Vec_base_types<CCustomMenu::Option,std::allocator<CCustomMenu::Option> > >::_Get_data
_TEXT	ENDS
; Function compile flags: /Odtp /RTCsu /ZI
; File c:\program files (x86)\microsoft visual studio 14.0\vc\include\vector
;	COMDAT ?_Getal@?$_Vector_alloc@U?$_Vec_base_types@UOption@CCustomMenu@@V?$allocator@UOption@CCustomMenu@@@std@@@std@@@std@@QBEABU?$_Wrap_alloc@V?$allocator@UOption@CCustomMenu@@@std@@@2@XZ
_TEXT	SEGMENT
_this$ = -8						; size = 4
?_Getal@?$_Vector_alloc@U?$_Vec_base_types@UOption@CCustomMenu@@V?$allocator@UOption@CCustomMenu@@@std@@@std@@@std@@QBEABU?$_Wrap_alloc@V?$allocator@UOption@CCustomMenu@@@std@@@2@XZ PROC ; std::_Vector_alloc<std::_Vec_base_types<CCustomMenu::Option,std::allocator<CCustomMenu::Option> > >::_Getal, COMDAT
; _this$ = ecx

; 627  : 		{	// return const reference to allocator

	push	ebp
	mov	ebp, esp
	sub	esp, 204				; 000000ccH
	push	ebx
	push	esi
	push	edi
	push	ecx
	lea	edi, DWORD PTR [ebp-204]
	mov	ecx, 51					; 00000033H
	mov	eax, -858993460				; ccccccccH
	rep stosd
	pop	ecx
	mov	DWORD PTR _this$[ebp], ecx

; 628  : 		return (_Mypair._Get_first());

	mov	ecx, DWORD PTR _this$[ebp]
	call	?_Get_first@?$_Compressed_pair@U?$_Wrap_alloc@V?$allocator@UOption@CCustomMenu@@@std@@@std@@V?$_Vector_val@U?$_Simple_types@UOption@CCustomMenu@@@std@@@2@$00@std@@QBEABU?$_Wrap_alloc@V?$allocator@UOption@CCustomMenu@@@std@@@2@XZ ; std::_Compressed_pair<std::_Wrap_alloc<std::allocator<CCustomMenu::Option> >,std::_Vector_val<std::_Simple_types<CCustomMenu::Option> >,1>::_Get_first

; 629  : 		}

	pop	edi
	pop	esi
	pop	ebx
	add	esp, 204				; 000000ccH
	cmp	ebp, esp
	call	__RTC_CheckEsp
	mov	esp, ebp
	pop	ebp
	ret	0
?_Getal@?$_Vector_alloc@U?$_Vec_base_types@UOption@CCustomMenu@@V?$allocator@UOption@CCustomMenu@@@std@@@std@@@std@@QBEABU?$_Wrap_alloc@V?$allocator@UOption@CCustomMenu@@@std@@@2@XZ ENDP ; std::_Vector_alloc<std::_Vec_base_types<CCustomMenu::Option,std::allocator<CCustomMenu::Option> > >::_Getal
_TEXT	ENDS
; Function compile flags: /Odtp /RTCsu /ZI
; File c:\program files (x86)\microsoft visual studio 14.0\vc\include\vector
;	COMDAT ?_Getal@?$_Vector_alloc@U?$_Vec_base_types@UOption@CCustomMenu@@V?$allocator@UOption@CCustomMenu@@@std@@@std@@@std@@QAEAAU?$_Wrap_alloc@V?$allocator@UOption@CCustomMenu@@@std@@@2@XZ
_TEXT	SEGMENT
_this$ = -8						; size = 4
?_Getal@?$_Vector_alloc@U?$_Vec_base_types@UOption@CCustomMenu@@V?$allocator@UOption@CCustomMenu@@@std@@@std@@@std@@QAEAAU?$_Wrap_alloc@V?$allocator@UOption@CCustomMenu@@@std@@@2@XZ PROC ; std::_Vector_alloc<std::_Vec_base_types<CCustomMenu::Option,std::allocator<CCustomMenu::Option> > >::_Getal, COMDAT
; _this$ = ecx

; 622  : 		{	// return reference to allocator

	push	ebp
	mov	ebp, esp
	sub	esp, 204				; 000000ccH
	push	ebx
	push	esi
	push	edi
	push	ecx
	lea	edi, DWORD PTR [ebp-204]
	mov	ecx, 51					; 00000033H
	mov	eax, -858993460				; ccccccccH
	rep stosd
	pop	ecx
	mov	DWORD PTR _this$[ebp], ecx

; 623  : 		return (_Mypair._Get_first());

	mov	ecx, DWORD PTR _this$[ebp]
	call	?_Get_first@?$_Compressed_pair@U?$_Wrap_alloc@V?$allocator@UOption@CCustomMenu@@@std@@@std@@V?$_Vector_val@U?$_Simple_types@UOption@CCustomMenu@@@std@@@2@$00@std@@QAEAAU?$_Wrap_alloc@V?$allocator@UOption@CCustomMenu@@@std@@@2@XZ ; std::_Compressed_pair<std::_Wrap_alloc<std::allocator<CCustomMenu::Option> >,std::_Vector_val<std::_Simple_types<CCustomMenu::Option> >,1>::_Get_first

; 624  : 		}

	pop	edi
	pop	esi
	pop	ebx
	add	esp, 204				; 000000ccH
	cmp	ebp, esp
	call	__RTC_CheckEsp
	mov	esp, ebp
	pop	ebp
	ret	0
?_Getal@?$_Vector_alloc@U?$_Vec_base_types@UOption@CCustomMenu@@V?$allocator@UOption@CCustomMenu@@@std@@@std@@@std@@QAEAAU?$_Wrap_alloc@V?$allocator@UOption@CCustomMenu@@@std@@@2@XZ ENDP ; std::_Vector_alloc<std::_Vec_base_types<CCustomMenu::Option,std::allocator<CCustomMenu::Option> > >::_Getal
_TEXT	ENDS
; Function compile flags: /Odtp /RTCsu /ZI
; File c:\program files (x86)\microsoft visual studio 14.0\vc\include\vector
;	COMDAT ?_Orphan_all@?$_Vector_alloc@U?$_Vec_base_types@UOption@CCustomMenu@@V?$allocator@UOption@CCustomMenu@@@std@@@std@@@std@@QAEXXZ
_TEXT	SEGMENT
_this$ = -8						; size = 4
?_Orphan_all@?$_Vector_alloc@U?$_Vec_base_types@UOption@CCustomMenu@@V?$allocator@UOption@CCustomMenu@@@std@@@std@@@std@@QAEXXZ PROC ; std::_Vector_alloc<std::_Vec_base_types<CCustomMenu::Option,std::allocator<CCustomMenu::Option> > >::_Orphan_all, COMDAT
; _this$ = ecx

; 612  : 		{	// orphan all iterators

	push	ebp
	mov	ebp, esp
	sub	esp, 204				; 000000ccH
	push	ebx
	push	esi
	push	edi
	push	ecx
	lea	edi, DWORD PTR [ebp-204]
	mov	ecx, 51					; 00000033H
	mov	eax, -858993460				; ccccccccH
	rep stosd
	pop	ecx
	mov	DWORD PTR _this$[ebp], ecx

; 613  : 		_Get_data()._Orphan_all();

	mov	ecx, DWORD PTR _this$[ebp]
	call	?_Get_data@?$_Vector_alloc@U?$_Vec_base_types@UOption@CCustomMenu@@V?$allocator@UOption@CCustomMenu@@@std@@@std@@@std@@QAEAAV?$_Vector_val@U?$_Simple_types@UOption@CCustomMenu@@@std@@@2@XZ ; std::_Vector_alloc<std::_Vec_base_types<CCustomMenu::Option,std::allocator<CCustomMenu::Option> > >::_Get_data
	mov	ecx, eax
	call	?_Orphan_all@_Container_base12@std@@QAEXXZ ; std::_Container_base12::_Orphan_all

; 614  : 		}

	pop	edi
	pop	esi
	pop	ebx
	add	esp, 204				; 000000ccH
	cmp	ebp, esp
	call	__RTC_CheckEsp
	mov	esp, ebp
	pop	ebp
	ret	0
?_Orphan_all@?$_Vector_alloc@U?$_Vec_base_types@UOption@CCustomMenu@@V?$allocator@UOption@CCustomMenu@@@std@@@std@@@std@@QAEXXZ ENDP ; std::_Vector_alloc<std::_Vec_base_types<CCustomMenu::Option,std::allocator<CCustomMenu::Option> > >::_Orphan_all
_TEXT	ENDS
; Function compile flags: /Odtp /RTCsu /ZI
; File c:\program files (x86)\microsoft visual studio 14.0\vc\include\vector
;	COMDAT ?_Myproxy@?$_Vector_alloc@U?$_Vec_base_types@UOption@CCustomMenu@@V?$allocator@UOption@CCustomMenu@@@std@@@std@@@std@@QAEAAPAU_Container_proxy@2@XZ
_TEXT	SEGMENT
_this$ = -8						; size = 4
?_Myproxy@?$_Vector_alloc@U?$_Vec_base_types@UOption@CCustomMenu@@V?$allocator@UOption@CCustomMenu@@@std@@@std@@@std@@QAEAAPAU_Container_proxy@2@XZ PROC ; std::_Vector_alloc<std::_Vec_base_types<CCustomMenu::Option,std::allocator<CCustomMenu::Option> > >::_Myproxy, COMDAT
; _this$ = ecx

; 601  : 		{	// return reference to _Myproxy

	push	ebp
	mov	ebp, esp
	sub	esp, 204				; 000000ccH
	push	ebx
	push	esi
	push	edi
	push	ecx
	lea	edi, DWORD PTR [ebp-204]
	mov	ecx, 51					; 00000033H
	mov	eax, -858993460				; ccccccccH
	rep stosd
	pop	ecx
	mov	DWORD PTR _this$[ebp], ecx

; 602  : 		return (_Get_data()._Myproxy);

	mov	ecx, DWORD PTR _this$[ebp]
	call	?_Get_data@?$_Vector_alloc@U?$_Vec_base_types@UOption@CCustomMenu@@V?$allocator@UOption@CCustomMenu@@@std@@@std@@@std@@QAEAAV?$_Vector_val@U?$_Simple_types@UOption@CCustomMenu@@@std@@@2@XZ ; std::_Vector_alloc<std::_Vec_base_types<CCustomMenu::Option,std::allocator<CCustomMenu::Option> > >::_Get_data

; 603  : 		}

	pop	edi
	pop	esi
	pop	ebx
	add	esp, 204				; 000000ccH
	cmp	ebp, esp
	call	__RTC_CheckEsp
	mov	esp, ebp
	pop	ebp
	ret	0
?_Myproxy@?$_Vector_alloc@U?$_Vec_base_types@UOption@CCustomMenu@@V?$allocator@UOption@CCustomMenu@@@std@@@std@@@std@@QAEAAPAU_Container_proxy@2@XZ ENDP ; std::_Vector_alloc<std::_Vec_base_types<CCustomMenu::Option,std::allocator<CCustomMenu::Option> > >::_Myproxy
_TEXT	ENDS
; Function compile flags: /Odtp /RTCsu /ZI
; File c:\program files (x86)\microsoft visual studio 14.0\vc\include\vector
;	COMDAT ?_Getpfirst@?$_Vector_alloc@U?$_Vec_base_types@UOption@CCustomMenu@@V?$allocator@UOption@CCustomMenu@@@std@@@std@@@std@@QBEPAPAU_Iterator_base12@2@XZ
_TEXT	SEGMENT
_this$ = -8						; size = 4
?_Getpfirst@?$_Vector_alloc@U?$_Vec_base_types@UOption@CCustomMenu@@V?$allocator@UOption@CCustomMenu@@@std@@@std@@@std@@QBEPAPAU_Iterator_base12@2@XZ PROC ; std::_Vector_alloc<std::_Vec_base_types<CCustomMenu::Option,std::allocator<CCustomMenu::Option> > >::_Getpfirst, COMDAT
; _this$ = ecx

; 596  : 		{	// get address of iterator chain

	push	ebp
	mov	ebp, esp
	sub	esp, 204				; 000000ccH
	push	ebx
	push	esi
	push	edi
	push	ecx
	lea	edi, DWORD PTR [ebp-204]
	mov	ecx, 51					; 00000033H
	mov	eax, -858993460				; ccccccccH
	rep stosd
	pop	ecx
	mov	DWORD PTR _this$[ebp], ecx

; 597  : 		return (_Get_data()._Getpfirst());

	mov	ecx, DWORD PTR _this$[ebp]
	call	?_Get_data@?$_Vector_alloc@U?$_Vec_base_types@UOption@CCustomMenu@@V?$allocator@UOption@CCustomMenu@@@std@@@std@@@std@@QBEABV?$_Vector_val@U?$_Simple_types@UOption@CCustomMenu@@@std@@@2@XZ ; std::_Vector_alloc<std::_Vec_base_types<CCustomMenu::Option,std::allocator<CCustomMenu::Option> > >::_Get_data
	mov	ecx, eax
	call	?_Getpfirst@_Container_base12@std@@QBEPAPAU_Iterator_base12@2@XZ ; std::_Container_base12::_Getpfirst

; 598  : 		}

	pop	edi
	pop	esi
	pop	ebx
	add	esp, 204				; 000000ccH
	cmp	ebp, esp
	call	__RTC_CheckEsp
	mov	esp, ebp
	pop	ebp
	ret	0
?_Getpfirst@?$_Vector_alloc@U?$_Vec_base_types@UOption@CCustomMenu@@V?$allocator@UOption@CCustomMenu@@@std@@@std@@@std@@QBEPAPAU_Iterator_base12@2@XZ ENDP ; std::_Vector_alloc<std::_Vec_base_types<CCustomMenu::Option,std::allocator<CCustomMenu::Option> > >::_Getpfirst
_TEXT	ENDS
; Function compile flags: /Odtp /RTCsu /ZI
; File c:\program files (x86)\microsoft visual studio 14.0\vc\include\vector
;	COMDAT ?_Free_proxy@?$_Vector_alloc@U?$_Vec_base_types@UOption@CCustomMenu@@V?$allocator@UOption@CCustomMenu@@@std@@@std@@@std@@QAEXXZ
_TEXT	SEGMENT
__Alproxy$ = -17					; size = 1
_this$ = -8						; size = 4
?_Free_proxy@?$_Vector_alloc@U?$_Vec_base_types@UOption@CCustomMenu@@V?$allocator@UOption@CCustomMenu@@@std@@@std@@@std@@QAEXXZ PROC ; std::_Vector_alloc<std::_Vec_base_types<CCustomMenu::Option,std::allocator<CCustomMenu::Option> > >::_Free_proxy, COMDAT
; _this$ = ecx

; 586  : 		{	// destroy proxy

	push	ebp
	mov	ebp, esp
	sub	esp, 216				; 000000d8H
	push	ebx
	push	esi
	push	edi
	push	ecx
	lea	edi, DWORD PTR [ebp-216]
	mov	ecx, 54					; 00000036H
	mov	eax, -858993460				; ccccccccH
	rep stosd
	pop	ecx
	mov	DWORD PTR _this$[ebp], ecx

; 587  : 		typename _Alty::template rebind<_Container_proxy>::other
; 588  : 			_Alproxy(_Getal());

	mov	ecx, DWORD PTR _this$[ebp]
	call	?_Getal@?$_Vector_alloc@U?$_Vec_base_types@UOption@CCustomMenu@@V?$allocator@UOption@CCustomMenu@@@std@@@std@@@std@@QAEAAU?$_Wrap_alloc@V?$allocator@UOption@CCustomMenu@@@std@@@2@XZ ; std::_Vector_alloc<std::_Vec_base_types<CCustomMenu::Option,std::allocator<CCustomMenu::Option> > >::_Getal
	push	eax
	lea	ecx, DWORD PTR __Alproxy$[ebp]
	call	??$?0AAU?$_Wrap_alloc@V?$allocator@UOption@CCustomMenu@@@std@@@std@@@?$_Wrap_alloc@V?$allocator@U_Container_proxy@std@@@std@@@std@@QAE@AAU?$_Wrap_alloc@V?$allocator@UOption@CCustomMenu@@@std@@@1@@Z ; std::_Wrap_alloc<std::allocator<std::_Container_proxy> >::_Wrap_alloc<std::allocator<std::_Container_proxy> ><std::_Wrap_alloc<std::allocator<CCustomMenu::Option> > &>

; 589  : 		_Orphan_all();

	mov	ecx, DWORD PTR _this$[ebp]
	call	?_Orphan_all@?$_Vector_alloc@U?$_Vec_base_types@UOption@CCustomMenu@@V?$allocator@UOption@CCustomMenu@@@std@@@std@@@std@@QAEXXZ ; std::_Vector_alloc<std::_Vec_base_types<CCustomMenu::Option,std::allocator<CCustomMenu::Option> > >::_Orphan_all

; 590  : 		_Alproxy.destroy(_Myproxy());

	mov	ecx, DWORD PTR _this$[ebp]
	call	?_Myproxy@?$_Vector_alloc@U?$_Vec_base_types@UOption@CCustomMenu@@V?$allocator@UOption@CCustomMenu@@@std@@@std@@@std@@QAEAAPAU_Container_proxy@2@XZ ; std::_Vector_alloc<std::_Vec_base_types<CCustomMenu::Option,std::allocator<CCustomMenu::Option> > >::_Myproxy
	mov	eax, DWORD PTR [eax]
	push	eax
	lea	ecx, DWORD PTR __Alproxy$[ebp]
	call	??$destroy@U_Container_proxy@std@@@?$_Wrap_alloc@V?$allocator@U_Container_proxy@std@@@std@@@std@@QAEXPAU_Container_proxy@1@@Z ; std::_Wrap_alloc<std::allocator<std::_Container_proxy> >::destroy<std::_Container_proxy>

; 591  : 		_Alproxy.deallocate(_Alproxy.address(*_Myproxy()), 1);

	push	1
	mov	ecx, DWORD PTR _this$[ebp]
	call	?_Myproxy@?$_Vector_alloc@U?$_Vec_base_types@UOption@CCustomMenu@@V?$allocator@UOption@CCustomMenu@@@std@@@std@@@std@@QAEAAPAU_Container_proxy@2@XZ ; std::_Vector_alloc<std::_Vec_base_types<CCustomMenu::Option,std::allocator<CCustomMenu::Option> > >::_Myproxy
	mov	eax, DWORD PTR [eax]
	push	eax
	lea	ecx, DWORD PTR __Alproxy$[ebp]
	call	?address@?$_Wrap_alloc@V?$allocator@U_Container_proxy@std@@@std@@@std@@QBEPAU_Container_proxy@2@AAU32@@Z ; std::_Wrap_alloc<std::allocator<std::_Container_proxy> >::address
	push	eax
	lea	ecx, DWORD PTR __Alproxy$[ebp]
	call	?deallocate@?$_Wrap_alloc@V?$allocator@U_Container_proxy@std@@@std@@@std@@QAEXPAU_Container_proxy@2@I@Z ; std::_Wrap_alloc<std::allocator<std::_Container_proxy> >::deallocate

; 592  : 		_Myproxy() = 0;

	mov	ecx, DWORD PTR _this$[ebp]
	call	?_Myproxy@?$_Vector_alloc@U?$_Vec_base_types@UOption@CCustomMenu@@V?$allocator@UOption@CCustomMenu@@@std@@@std@@@std@@QAEAAPAU_Container_proxy@2@XZ ; std::_Vector_alloc<std::_Vec_base_types<CCustomMenu::Option,std::allocator<CCustomMenu::Option> > >::_Myproxy
	mov	DWORD PTR [eax], 0

; 593  : 		}

	push	edx
	mov	ecx, ebp
	push	eax
	lea	edx, DWORD PTR $LN5@Free_proxy
	call	@_RTC_CheckStackVars@8
	pop	eax
	pop	edx
	pop	edi
	pop	esi
	pop	ebx
	add	esp, 216				; 000000d8H
	cmp	ebp, esp
	call	__RTC_CheckEsp
	mov	esp, ebp
	pop	ebp
	ret	0
$LN5@Free_proxy:
	DD	1
	DD	$LN4@Free_proxy
$LN4@Free_proxy:
	DD	-17					; ffffffefH
	DD	1
	DD	$LN3@Free_proxy
$LN3@Free_proxy:
	DB	95					; 0000005fH
	DB	65					; 00000041H
	DB	108					; 0000006cH
	DB	112					; 00000070H
	DB	114					; 00000072H
	DB	111					; 0000006fH
	DB	120					; 00000078H
	DB	121					; 00000079H
	DB	0
?_Free_proxy@?$_Vector_alloc@U?$_Vec_base_types@UOption@CCustomMenu@@V?$allocator@UOption@CCustomMenu@@@std@@@std@@@std@@QAEXXZ ENDP ; std::_Vector_alloc<std::_Vec_base_types<CCustomMenu::Option,std::allocator<CCustomMenu::Option> > >::_Free_proxy
_TEXT	ENDS
; Function compile flags: /Odtp /RTCsu /ZI
; File c:\program files (x86)\microsoft visual studio 14.0\vc\include\vector
;	COMDAT ?_Alloc_proxy@?$_Vector_alloc@U?$_Vec_base_types@UOption@CCustomMenu@@V?$allocator@UOption@CCustomMenu@@@std@@@std@@@std@@QAEXXZ
_TEXT	SEGMENT
$T1 = -228						; size = 8
__Alproxy$ = -17					; size = 1
_this$ = -8						; size = 4
?_Alloc_proxy@?$_Vector_alloc@U?$_Vec_base_types@UOption@CCustomMenu@@V?$allocator@UOption@CCustomMenu@@@std@@@std@@@std@@QAEXXZ PROC ; std::_Vector_alloc<std::_Vec_base_types<CCustomMenu::Option,std::allocator<CCustomMenu::Option> > >::_Alloc_proxy, COMDAT
; _this$ = ecx

; 577  : 		{	// construct proxy

	push	ebp
	mov	ebp, esp
	sub	esp, 232				; 000000e8H
	push	ebx
	push	esi
	push	edi
	push	ecx
	lea	edi, DWORD PTR [ebp-232]
	mov	ecx, 58					; 0000003aH
	mov	eax, -858993460				; ccccccccH
	rep stosd
	pop	ecx
	mov	DWORD PTR _this$[ebp], ecx

; 578  : 		typename _Alty::template rebind<_Container_proxy>::other
; 579  : 			_Alproxy(_Getal());

	mov	ecx, DWORD PTR _this$[ebp]
	call	?_Getal@?$_Vector_alloc@U?$_Vec_base_types@UOption@CCustomMenu@@V?$allocator@UOption@CCustomMenu@@@std@@@std@@@std@@QAEAAU?$_Wrap_alloc@V?$allocator@UOption@CCustomMenu@@@std@@@2@XZ ; std::_Vector_alloc<std::_Vec_base_types<CCustomMenu::Option,std::allocator<CCustomMenu::Option> > >::_Getal
	push	eax
	lea	ecx, DWORD PTR __Alproxy$[ebp]
	call	??$?0AAU?$_Wrap_alloc@V?$allocator@UOption@CCustomMenu@@@std@@@std@@@?$_Wrap_alloc@V?$allocator@U_Container_proxy@std@@@std@@@std@@QAE@AAU?$_Wrap_alloc@V?$allocator@UOption@CCustomMenu@@@std@@@1@@Z ; std::_Wrap_alloc<std::allocator<std::_Container_proxy> >::_Wrap_alloc<std::allocator<std::_Container_proxy> ><std::_Wrap_alloc<std::allocator<CCustomMenu::Option> > &>

; 580  : 		_Myproxy() = _Unfancy(_Alproxy.allocate(1));

	push	1
	lea	ecx, DWORD PTR __Alproxy$[ebp]
	call	?allocate@?$_Wrap_alloc@V?$allocator@U_Container_proxy@std@@@std@@@std@@QAEPAU_Container_proxy@2@I@Z ; std::_Wrap_alloc<std::allocator<std::_Container_proxy> >::allocate
	push	eax
	call	??$_Unfancy@U_Container_proxy@std@@@std@@YAPAU_Container_proxy@0@PAU10@@Z ; std::_Unfancy<std::_Container_proxy>
	add	esp, 4
	mov	esi, eax
	mov	ecx, DWORD PTR _this$[ebp]
	call	?_Myproxy@?$_Vector_alloc@U?$_Vec_base_types@UOption@CCustomMenu@@V?$allocator@UOption@CCustomMenu@@@std@@@std@@@std@@QAEAAPAU_Container_proxy@2@XZ ; std::_Vector_alloc<std::_Vec_base_types<CCustomMenu::Option,std::allocator<CCustomMenu::Option> > >::_Myproxy
	mov	DWORD PTR [eax], esi

; 581  : 		_Alproxy.construct(_Myproxy(), _Container_proxy());

	lea	ecx, DWORD PTR $T1[ebp]
	call	??0_Container_proxy@std@@QAE@XZ		; std::_Container_proxy::_Container_proxy
	push	eax
	mov	ecx, DWORD PTR _this$[ebp]
	call	?_Myproxy@?$_Vector_alloc@U?$_Vec_base_types@UOption@CCustomMenu@@V?$allocator@UOption@CCustomMenu@@@std@@@std@@@std@@QAEAAPAU_Container_proxy@2@XZ ; std::_Vector_alloc<std::_Vec_base_types<CCustomMenu::Option,std::allocator<CCustomMenu::Option> > >::_Myproxy
	mov	eax, DWORD PTR [eax]
	push	eax
	lea	ecx, DWORD PTR __Alproxy$[ebp]
	call	??$construct@U_Container_proxy@std@@U12@@?$_Wrap_alloc@V?$allocator@U_Container_proxy@std@@@std@@@std@@QAEXPAU_Container_proxy@1@$$QAU21@@Z ; std::_Wrap_alloc<std::allocator<std::_Container_proxy> >::construct<std::_Container_proxy,std::_Container_proxy>

; 582  : 		_Myproxy()->_Mycont = &_Get_data();

	mov	ecx, DWORD PTR _this$[ebp]
	call	?_Get_data@?$_Vector_alloc@U?$_Vec_base_types@UOption@CCustomMenu@@V?$allocator@UOption@CCustomMenu@@@std@@@std@@@std@@QAEAAV?$_Vector_val@U?$_Simple_types@UOption@CCustomMenu@@@std@@@2@XZ ; std::_Vector_alloc<std::_Vec_base_types<CCustomMenu::Option,std::allocator<CCustomMenu::Option> > >::_Get_data
	mov	esi, eax
	mov	ecx, DWORD PTR _this$[ebp]
	call	?_Myproxy@?$_Vector_alloc@U?$_Vec_base_types@UOption@CCustomMenu@@V?$allocator@UOption@CCustomMenu@@@std@@@std@@@std@@QAEAAPAU_Container_proxy@2@XZ ; std::_Vector_alloc<std::_Vec_base_types<CCustomMenu::Option,std::allocator<CCustomMenu::Option> > >::_Myproxy
	mov	eax, DWORD PTR [eax]
	mov	DWORD PTR [eax], esi

; 583  : 		}

	push	edx
	mov	ecx, ebp
	push	eax
	lea	edx, DWORD PTR $LN5@Alloc_prox
	call	@_RTC_CheckStackVars@8
	pop	eax
	pop	edx
	pop	edi
	pop	esi
	pop	ebx
	add	esp, 232				; 000000e8H
	cmp	ebp, esp
	call	__RTC_CheckEsp
	mov	esp, ebp
	pop	ebp
	ret	0
	npad	3
$LN5@Alloc_prox:
	DD	1
	DD	$LN4@Alloc_prox
$LN4@Alloc_prox:
	DD	-17					; ffffffefH
	DD	1
	DD	$LN3@Alloc_prox
$LN3@Alloc_prox:
	DB	95					; 0000005fH
	DB	65					; 00000041H
	DB	108					; 0000006cH
	DB	112					; 00000070H
	DB	114					; 00000072H
	DB	111					; 0000006fH
	DB	120					; 00000078H
	DB	121					; 00000079H
	DB	0
?_Alloc_proxy@?$_Vector_alloc@U?$_Vec_base_types@UOption@CCustomMenu@@V?$allocator@UOption@CCustomMenu@@@std@@@std@@@std@@QAEXXZ ENDP ; std::_Vector_alloc<std::_Vec_base_types<CCustomMenu::Option,std::allocator<CCustomMenu::Option> > >::_Alloc_proxy
_TEXT	ENDS
; Function compile flags: /Odtp /RTCsu /ZI
; File c:\program files (x86)\microsoft visual studio 14.0\vc\include\vector
;	COMDAT ??1?$_Vector_alloc@U?$_Vec_base_types@UOption@CCustomMenu@@V?$allocator@UOption@CCustomMenu@@@std@@@std@@@std@@QAE@XZ
_TEXT	SEGMENT
_this$ = -20						; size = 4
__$EHRec$ = -12						; size = 12
??1?$_Vector_alloc@U?$_Vec_base_types@UOption@CCustomMenu@@V?$allocator@UOption@CCustomMenu@@@std@@@std@@@std@@QAE@XZ PROC ; std::_Vector_alloc<std::_Vec_base_types<CCustomMenu::Option,std::allocator<CCustomMenu::Option> > >::~_Vector_alloc<std::_Vec_base_types<CCustomMenu::Option,std::allocator<CCustomMenu::Option> > >, COMDAT
; _this$ = ecx

; 558  : 		{	// destroy proxy

	push	ebp
	mov	ebp, esp
	push	-1
	push	__ehhandler$??1?$_Vector_alloc@U?$_Vec_base_types@UOption@CCustomMenu@@V?$allocator@UOption@CCustomMenu@@@std@@@std@@@std@@QAE@XZ
	mov	eax, DWORD PTR fs:0
	push	eax
	sub	esp, 204				; 000000ccH
	push	ebx
	push	esi
	push	edi
	push	ecx
	lea	edi, DWORD PTR [ebp-216]
	mov	ecx, 51					; 00000033H
	mov	eax, -858993460				; ccccccccH
	rep stosd
	pop	ecx
	mov	eax, DWORD PTR ___security_cookie
	xor	eax, ebp
	push	eax
	lea	eax, DWORD PTR __$EHRec$[ebp]
	mov	DWORD PTR fs:0, eax
	mov	DWORD PTR _this$[ebp], ecx

; 559  : 		_Free_proxy();

	mov	ecx, DWORD PTR _this$[ebp]
	call	?_Free_proxy@?$_Vector_alloc@U?$_Vec_base_types@UOption@CCustomMenu@@V?$allocator@UOption@CCustomMenu@@@std@@@std@@@std@@QAEXXZ ; std::_Vector_alloc<std::_Vec_base_types<CCustomMenu::Option,std::allocator<CCustomMenu::Option> > >::_Free_proxy

; 560  : 		}

	mov	ecx, DWORD PTR _this$[ebp]
	call	??1?$_Compressed_pair@U?$_Wrap_alloc@V?$allocator@UOption@CCustomMenu@@@std@@@std@@V?$_Vector_val@U?$_Simple_types@UOption@CCustomMenu@@@std@@@2@$00@std@@QAE@XZ
	mov	ecx, DWORD PTR __$EHRec$[ebp]
	mov	DWORD PTR fs:0, ecx
	pop	ecx
	pop	edi
	pop	esi
	pop	ebx
	add	esp, 216				; 000000d8H
	cmp	ebp, esp
	call	__RTC_CheckEsp
	mov	esp, ebp
	pop	ebp
	ret	0
_TEXT	ENDS
;	COMDAT text$x
text$x	SEGMENT
__ehhandler$??1?$_Vector_alloc@U?$_Vec_base_types@UOption@CCustomMenu@@V?$allocator@UOption@CCustomMenu@@@std@@@std@@@std@@QAE@XZ:
	mov	edx, DWORD PTR [esp+8]
	lea	eax, DWORD PTR [edx+12]
	mov	ecx, DWORD PTR [edx-220]
	xor	ecx, eax
	call	@__security_check_cookie@4
	mov	eax, OFFSET __ehfuncinfo$??1?$_Vector_alloc@U?$_Vec_base_types@UOption@CCustomMenu@@V?$allocator@UOption@CCustomMenu@@@std@@@std@@@std@@QAE@XZ
	jmp	___CxxFrameHandler3
text$x	ENDS
??1?$_Vector_alloc@U?$_Vec_base_types@UOption@CCustomMenu@@V?$allocator@UOption@CCustomMenu@@@std@@@std@@@std@@QAE@XZ ENDP ; std::_Vector_alloc<std::_Vec_base_types<CCustomMenu::Option,std::allocator<CCustomMenu::Option> > >::~_Vector_alloc<std::_Vec_base_types<CCustomMenu::Option,std::allocator<CCustomMenu::Option> > >
; Function compile flags: /Odtp /RTCsu /ZI
; File c:\program files (x86)\microsoft visual studio 14.0\vc\include\vector
;	COMDAT ??0?$_Vector_alloc@U?$_Vec_base_types@UOption@CCustomMenu@@V?$allocator@UOption@CCustomMenu@@@std@@@std@@@std@@QAE@XZ
_TEXT	SEGMENT
$T2 = -221						; size = 1
_this$ = -20						; size = 4
__$EHRec$ = -12						; size = 12
??0?$_Vector_alloc@U?$_Vec_base_types@UOption@CCustomMenu@@V?$allocator@UOption@CCustomMenu@@@std@@@std@@@std@@QAE@XZ PROC ; std::_Vector_alloc<std::_Vec_base_types<CCustomMenu::Option,std::allocator<CCustomMenu::Option> > >::_Vector_alloc<std::_Vec_base_types<CCustomMenu::Option,std::allocator<CCustomMenu::Option> > >, COMDAT
; _this$ = ecx

; 544  : 		{	// default construct allocator

	push	ebp
	mov	ebp, esp
	push	-1
	push	__ehhandler$??0?$_Vector_alloc@U?$_Vec_base_types@UOption@CCustomMenu@@V?$allocator@UOption@CCustomMenu@@@std@@@std@@@std@@QAE@XZ
	mov	eax, DWORD PTR fs:0
	push	eax
	sub	esp, 216				; 000000d8H
	push	ebx
	push	esi
	push	edi
	push	ecx
	lea	edi, DWORD PTR [ebp-228]
	mov	ecx, 54					; 00000036H
	mov	eax, -858993460				; ccccccccH
	rep stosd
	pop	ecx
	mov	eax, DWORD PTR ___security_cookie
	xor	eax, ebp
	push	eax
	lea	eax, DWORD PTR __$EHRec$[ebp]
	mov	DWORD PTR fs:0, eax
	mov	DWORD PTR _this$[ebp], ecx

; 543  : 		: _Mypair(_Zero_then_variadic_args_t())

	movzx	eax, BYTE PTR $T2[ebp]
	push	eax
	mov	ecx, DWORD PTR _this$[ebp]
	call	??$?0$$V@?$_Compressed_pair@U?$_Wrap_alloc@V?$allocator@UOption@CCustomMenu@@@std@@@std@@V?$_Vector_val@U?$_Simple_types@UOption@CCustomMenu@@@std@@@2@$00@std@@QAE@U_Zero_then_variadic_args_t@1@@Z ; std::_Compressed_pair<std::_Wrap_alloc<std::allocator<CCustomMenu::Option> >,std::_Vector_val<std::_Simple_types<CCustomMenu::Option> >,1>::_Compressed_pair<std::_Wrap_alloc<std::allocator<CCustomMenu::Option> >,std::_Vector_val<std::_Simple_types<CCustomMenu::Option> >,1><>
	mov	DWORD PTR __$EHRec$[ebp+8], 0

; 545  : 		_Alloc_proxy();

	mov	ecx, DWORD PTR _this$[ebp]
	call	?_Alloc_proxy@?$_Vector_alloc@U?$_Vec_base_types@UOption@CCustomMenu@@V?$allocator@UOption@CCustomMenu@@@std@@@std@@@std@@QAEXXZ ; std::_Vector_alloc<std::_Vec_base_types<CCustomMenu::Option,std::allocator<CCustomMenu::Option> > >::_Alloc_proxy

; 546  : 		}

	mov	DWORD PTR __$EHRec$[ebp+8], -1
	mov	eax, DWORD PTR _this$[ebp]
	mov	ecx, DWORD PTR __$EHRec$[ebp]
	mov	DWORD PTR fs:0, ecx
	pop	ecx
	pop	edi
	pop	esi
	pop	ebx
	add	esp, 228				; 000000e4H
	cmp	ebp, esp
	call	__RTC_CheckEsp
	mov	esp, ebp
	pop	ebp
	ret	0
_TEXT	ENDS
;	COMDAT text$x
text$x	SEGMENT
__unwindfunclet$??0?$_Vector_alloc@U?$_Vec_base_types@UOption@CCustomMenu@@V?$allocator@UOption@CCustomMenu@@@std@@@std@@@std@@QAE@XZ$0:
	mov	ecx, DWORD PTR _this$[ebp]
	jmp	??1?$_Compressed_pair@U?$_Wrap_alloc@V?$allocator@UOption@CCustomMenu@@@std@@@std@@V?$_Vector_val@U?$_Simple_types@UOption@CCustomMenu@@@std@@@2@$00@std@@QAE@XZ
__ehhandler$??0?$_Vector_alloc@U?$_Vec_base_types@UOption@CCustomMenu@@V?$allocator@UOption@CCustomMenu@@@std@@@std@@@std@@QAE@XZ:
	mov	edx, DWORD PTR [esp+8]
	lea	eax, DWORD PTR [edx+12]
	mov	ecx, DWORD PTR [edx-232]
	xor	ecx, eax
	call	@__security_check_cookie@4
	mov	eax, OFFSET __ehfuncinfo$??0?$_Vector_alloc@U?$_Vec_base_types@UOption@CCustomMenu@@V?$allocator@UOption@CCustomMenu@@@std@@@std@@@std@@QAE@XZ
	jmp	___CxxFrameHandler3
text$x	ENDS
??0?$_Vector_alloc@U?$_Vec_base_types@UOption@CCustomMenu@@V?$allocator@UOption@CCustomMenu@@@std@@@std@@@std@@QAE@XZ ENDP ; std::_Vector_alloc<std::_Vec_base_types<CCustomMenu::Option,std::allocator<CCustomMenu::Option> > >::_Vector_alloc<std::_Vec_base_types<CCustomMenu::Option,std::allocator<CCustomMenu::Option> > >
; Function compile flags: /Odtp /RTCsu /ZI
; File c:\program files (x86)\microsoft visual studio 14.0\vc\include\xmemory0
;	COMDAT ?max_size@?$_Wrap_alloc@V?$allocator@UOption@CCustomMenu@@@std@@@std@@QBEIU_Nil@2@@Z
_TEXT	SEGMENT
_this$ = -8						; size = 4
___formal$ = 8						; size = 1
?max_size@?$_Wrap_alloc@V?$allocator@UOption@CCustomMenu@@@std@@@std@@QBEIU_Nil@2@@Z PROC ; std::_Wrap_alloc<std::allocator<CCustomMenu::Option> >::max_size, COMDAT
; _this$ = ecx

; 1007 : 		{	// get maximum size

	push	ebp
	mov	ebp, esp
	sub	esp, 204				; 000000ccH
	push	ebx
	push	esi
	push	edi
	push	ecx
	lea	edi, DWORD PTR [ebp-204]
	mov	ecx, 51					; 00000033H
	mov	eax, -858993460				; ccccccccH
	rep stosd
	pop	ecx
	mov	DWORD PTR _this$[ebp], ecx

; 1008 : 		return (_Mytraits::max_size(*this));

	mov	eax, DWORD PTR _this$[ebp]
	push	eax
	call	?max_size@?$allocator_traits@V?$allocator@UOption@CCustomMenu@@@std@@@std@@SAIABV?$allocator@UOption@CCustomMenu@@@2@@Z ; std::allocator_traits<std::allocator<CCustomMenu::Option> >::max_size
	add	esp, 4

; 1009 : 		}

	pop	edi
	pop	esi
	pop	ebx
	add	esp, 204				; 000000ccH
	cmp	ebp, esp
	call	__RTC_CheckEsp
	mov	esp, ebp
	pop	ebp
	ret	4
?max_size@?$_Wrap_alloc@V?$allocator@UOption@CCustomMenu@@@std@@@std@@QBEIU_Nil@2@@Z ENDP ; std::_Wrap_alloc<std::allocator<CCustomMenu::Option> >::max_size
_TEXT	ENDS
; Function compile flags: /Odtp /RTCsu /ZI
; File c:\program files (x86)\microsoft visual studio 14.0\vc\include\xmemory0
;	COMDAT ?deallocate@?$_Wrap_alloc@V?$allocator@UOption@CCustomMenu@@@std@@@std@@QAEXPAUOption@CCustomMenu@@I@Z
_TEXT	SEGMENT
_this$ = -8						; size = 4
__Ptr$ = 8						; size = 4
__Count$ = 12						; size = 4
?deallocate@?$_Wrap_alloc@V?$allocator@UOption@CCustomMenu@@@std@@@std@@QAEXPAUOption@CCustomMenu@@I@Z PROC ; std::_Wrap_alloc<std::allocator<CCustomMenu::Option> >::deallocate, COMDAT
; _this$ = ecx

; 986  : 		{	// deallocate object at _Ptr, ignore size

	push	ebp
	mov	ebp, esp
	sub	esp, 204				; 000000ccH
	push	ebx
	push	esi
	push	edi
	push	ecx
	lea	edi, DWORD PTR [ebp-204]
	mov	ecx, 51					; 00000033H
	mov	eax, -858993460				; ccccccccH
	rep stosd
	pop	ecx
	mov	DWORD PTR _this$[ebp], ecx

; 987  : 		_Mybase::deallocate(_Ptr, _Count);

	mov	eax, DWORD PTR __Count$[ebp]
	push	eax
	mov	ecx, DWORD PTR __Ptr$[ebp]
	push	ecx
	mov	ecx, DWORD PTR _this$[ebp]
	call	?deallocate@?$allocator@UOption@CCustomMenu@@@std@@QAEXPAUOption@CCustomMenu@@I@Z ; std::allocator<CCustomMenu::Option>::deallocate

; 988  : 		}

	pop	edi
	pop	esi
	pop	ebx
	add	esp, 204				; 000000ccH
	cmp	ebp, esp
	call	__RTC_CheckEsp
	mov	esp, ebp
	pop	ebp
	ret	8
?deallocate@?$_Wrap_alloc@V?$allocator@UOption@CCustomMenu@@@std@@@std@@QAEXPAUOption@CCustomMenu@@I@Z ENDP ; std::_Wrap_alloc<std::allocator<CCustomMenu::Option> >::deallocate
_TEXT	ENDS
; Function compile flags: /Odtp /RTCsu /ZI
; File c:\program files (x86)\microsoft visual studio 14.0\vc\include\xmemory0
;	COMDAT ?allocate@?$_Wrap_alloc@V?$allocator@UOption@CCustomMenu@@@std@@@std@@QAEPAUOption@CCustomMenu@@I@Z
_TEXT	SEGMENT
_this$ = -8						; size = 4
__Count$ = 8						; size = 4
?allocate@?$_Wrap_alloc@V?$allocator@UOption@CCustomMenu@@@std@@@std@@QAEPAUOption@CCustomMenu@@I@Z PROC ; std::_Wrap_alloc<std::allocator<CCustomMenu::Option> >::allocate, COMDAT
; _this$ = ecx

; 975  : 		{	// allocate array of _Count elements

	push	ebp
	mov	ebp, esp
	sub	esp, 204				; 000000ccH
	push	ebx
	push	esi
	push	edi
	push	ecx
	lea	edi, DWORD PTR [ebp-204]
	mov	ecx, 51					; 00000033H
	mov	eax, -858993460				; ccccccccH
	rep stosd
	pop	ecx
	mov	DWORD PTR _this$[ebp], ecx

; 976  : 		return (_Mybase::allocate(_Count));

	mov	eax, DWORD PTR __Count$[ebp]
	push	eax
	mov	ecx, DWORD PTR _this$[ebp]
	call	?allocate@?$allocator@UOption@CCustomMenu@@@std@@QAEPAUOption@CCustomMenu@@I@Z ; std::allocator<CCustomMenu::Option>::allocate

; 977  : 		}

	pop	edi
	pop	esi
	pop	ebx
	add	esp, 204				; 000000ccH
	cmp	ebp, esp
	call	__RTC_CheckEsp
	mov	esp, ebp
	pop	ebp
	ret	4
?allocate@?$_Wrap_alloc@V?$allocator@UOption@CCustomMenu@@@std@@@std@@QAEPAUOption@CCustomMenu@@I@Z ENDP ; std::_Wrap_alloc<std::allocator<CCustomMenu::Option> >::allocate
_TEXT	ENDS
; Function compile flags: /Odtp /RTCsu /ZI
; File c:\program files (x86)\microsoft visual studio 14.0\vc\include\xmemory0
;	COMDAT ??0?$_Wrap_alloc@V?$allocator@UOption@CCustomMenu@@@std@@@std@@QAE@XZ
_TEXT	SEGMENT
_this$ = -8						; size = 4
??0?$_Wrap_alloc@V?$allocator@UOption@CCustomMenu@@@std@@@std@@QAE@XZ PROC ; std::_Wrap_alloc<std::allocator<CCustomMenu::Option> >::_Wrap_alloc<std::allocator<CCustomMenu::Option> >, COMDAT
; _this$ = ecx

; 936  : 		{	// construct default allocator (do nothing)

	push	ebp
	mov	ebp, esp
	sub	esp, 204				; 000000ccH
	push	ebx
	push	esi
	push	edi
	push	ecx
	lea	edi, DWORD PTR [ebp-204]
	mov	ecx, 51					; 00000033H
	mov	eax, -858993460				; ccccccccH
	rep stosd
	pop	ecx
	mov	DWORD PTR _this$[ebp], ecx

; 935  : 		: _Mybase()

	mov	ecx, DWORD PTR _this$[ebp]
	call	??0?$allocator@UOption@CCustomMenu@@@std@@QAE@XZ ; std::allocator<CCustomMenu::Option>::allocator<CCustomMenu::Option>

; 937  : 		}

	mov	eax, DWORD PTR _this$[ebp]
	pop	edi
	pop	esi
	pop	ebx
	add	esp, 204				; 000000ccH
	cmp	ebp, esp
	call	__RTC_CheckEsp
	mov	esp, ebp
	pop	ebp
	ret	0
??0?$_Wrap_alloc@V?$allocator@UOption@CCustomMenu@@@std@@@std@@QAE@XZ ENDP ; std::_Wrap_alloc<std::allocator<CCustomMenu::Option> >::_Wrap_alloc<std::allocator<CCustomMenu::Option> >
_TEXT	ENDS
; Function compile flags: /Odtp /RTCsu /ZI
; File c:\program files (x86)\microsoft visual studio 14.0\vc\include\xmemory0
;	COMDAT ?max_size@?$allocator_traits@V?$allocator@UOption@CCustomMenu@@@std@@@std@@SAIABV?$allocator@UOption@CCustomMenu@@@2@@Z
_TEXT	SEGMENT
__Al$ = 8						; size = 4
?max_size@?$allocator_traits@V?$allocator@UOption@CCustomMenu@@@std@@@std@@SAIABV?$allocator@UOption@CCustomMenu@@@2@@Z PROC ; std::allocator_traits<std::allocator<CCustomMenu::Option> >::max_size, COMDAT

; 868  : 		{	// get maximum size

	push	ebp
	mov	ebp, esp
	sub	esp, 192				; 000000c0H
	push	ebx
	push	esi
	push	edi
	lea	edi, DWORD PTR [ebp-192]
	mov	ecx, 48					; 00000030H
	mov	eax, -858993460				; ccccccccH
	rep stosd

; 869  : 		return (_Al.max_size());

	mov	ecx, DWORD PTR __Al$[ebp]
	call	?max_size@?$allocator@UOption@CCustomMenu@@@std@@QBEIXZ ; std::allocator<CCustomMenu::Option>::max_size

; 870  : 		}

	pop	edi
	pop	esi
	pop	ebx
	add	esp, 192				; 000000c0H
	cmp	ebp, esp
	call	__RTC_CheckEsp
	mov	esp, ebp
	pop	ebp
	ret	0
?max_size@?$allocator_traits@V?$allocator@UOption@CCustomMenu@@@std@@@std@@SAIABV?$allocator@UOption@CCustomMenu@@@2@@Z ENDP ; std::allocator_traits<std::allocator<CCustomMenu::Option> >::max_size
_TEXT	ENDS
; Function compile flags: /Odtp /RTCsu /ZI
; File c:\program files (x86)\microsoft visual studio 14.0\vc\include\xmemory0
;	COMDAT ?max_size@?$allocator@UOption@CCustomMenu@@@std@@QBEIXZ
_TEXT	SEGMENT
_this$ = -8						; size = 4
?max_size@?$allocator@UOption@CCustomMenu@@@std@@QBEIXZ PROC ; std::allocator<CCustomMenu::Option>::max_size, COMDAT
; _this$ = ecx

; 748  : 		{	// estimate maximum array size

	push	ebp
	mov	ebp, esp
	sub	esp, 204				; 000000ccH
	push	ebx
	push	esi
	push	edi
	push	ecx
	lea	edi, DWORD PTR [ebp-204]
	mov	ecx, 51					; 00000033H
	mov	eax, -858993460				; ccccccccH
	rep stosd
	pop	ecx
	mov	DWORD PTR _this$[ebp], ecx

; 749  : 		return ((size_t)(-1) / sizeof (_Ty));

	mov	eax, 134217727				; 07ffffffH

; 750  : 		}

	pop	edi
	pop	esi
	pop	ebx
	mov	esp, ebp
	pop	ebp
	ret	0
?max_size@?$allocator@UOption@CCustomMenu@@@std@@QBEIXZ ENDP ; std::allocator<CCustomMenu::Option>::max_size
_TEXT	ENDS
; Function compile flags: /Odtp /RTCsu /ZI
; File c:\program files (x86)\microsoft visual studio 14.0\vc\include\xmemory0
;	COMDAT ?allocate@?$allocator@UOption@CCustomMenu@@@std@@QAEPAUOption@CCustomMenu@@I@Z
_TEXT	SEGMENT
_this$ = -8						; size = 4
__Count$ = 8						; size = 4
?allocate@?$allocator@UOption@CCustomMenu@@@std@@QAEPAUOption@CCustomMenu@@I@Z PROC ; std::allocator<CCustomMenu::Option>::allocate, COMDAT
; _this$ = ecx

; 724  : 		{	// allocate array of _Count elements

	push	ebp
	mov	ebp, esp
	sub	esp, 204				; 000000ccH
	push	ebx
	push	esi
	push	edi
	push	ecx
	lea	edi, DWORD PTR [ebp-204]
	mov	ecx, 51					; 00000033H
	mov	eax, -858993460				; ccccccccH
	rep stosd
	pop	ecx
	mov	DWORD PTR _this$[ebp], ecx

; 725  : 		return (static_cast<pointer>(_Allocate(_Count, sizeof (_Ty))));

	push	1
	push	32					; 00000020H
	mov	eax, DWORD PTR __Count$[ebp]
	push	eax
	call	?_Allocate@std@@YAPAXII_N@Z		; std::_Allocate
	add	esp, 12					; 0000000cH

; 726  : 		}

	pop	edi
	pop	esi
	pop	ebx
	add	esp, 204				; 000000ccH
	cmp	ebp, esp
	call	__RTC_CheckEsp
	mov	esp, ebp
	pop	ebp
	ret	4
?allocate@?$allocator@UOption@CCustomMenu@@@std@@QAEPAUOption@CCustomMenu@@I@Z ENDP ; std::allocator<CCustomMenu::Option>::allocate
_TEXT	ENDS
; Function compile flags: /Odtp /RTCsu /ZI
; File c:\program files (x86)\microsoft visual studio 14.0\vc\include\xmemory0
;	COMDAT ?deallocate@?$allocator@UOption@CCustomMenu@@@std@@QAEXPAUOption@CCustomMenu@@I@Z
_TEXT	SEGMENT
_this$ = -8						; size = 4
__Ptr$ = 8						; size = 4
__Count$ = 12						; size = 4
?deallocate@?$allocator@UOption@CCustomMenu@@@std@@QAEXPAUOption@CCustomMenu@@I@Z PROC ; std::allocator<CCustomMenu::Option>::deallocate, COMDAT
; _this$ = ecx

; 719  : 		{	// deallocate object at _Ptr

	push	ebp
	mov	ebp, esp
	sub	esp, 204				; 000000ccH
	push	ebx
	push	esi
	push	edi
	push	ecx
	lea	edi, DWORD PTR [ebp-204]
	mov	ecx, 51					; 00000033H
	mov	eax, -858993460				; ccccccccH
	rep stosd
	pop	ecx
	mov	DWORD PTR _this$[ebp], ecx

; 720  : 		_Deallocate(_Ptr, _Count, sizeof (_Ty));

	push	32					; 00000020H
	mov	eax, DWORD PTR __Count$[ebp]
	push	eax
	mov	ecx, DWORD PTR __Ptr$[ebp]
	push	ecx
	call	?_Deallocate@std@@YAXPAXII@Z		; std::_Deallocate
	add	esp, 12					; 0000000cH

; 721  : 		}

	pop	edi
	pop	esi
	pop	ebx
	add	esp, 204				; 000000ccH
	cmp	ebp, esp
	call	__RTC_CheckEsp
	mov	esp, ebp
	pop	ebp
	ret	8
?deallocate@?$allocator@UOption@CCustomMenu@@@std@@QAEXPAUOption@CCustomMenu@@I@Z ENDP ; std::allocator<CCustomMenu::Option>::deallocate
_TEXT	ENDS
; Function compile flags: /Odtp /RTCsu /ZI
; File c:\program files (x86)\microsoft visual studio 14.0\vc\include\xmemory0
;	COMDAT ??0?$allocator@UOption@CCustomMenu@@@std@@QAE@XZ
_TEXT	SEGMENT
_this$ = -8						; size = 4
??0?$allocator@UOption@CCustomMenu@@@std@@QAE@XZ PROC	; std::allocator<CCustomMenu::Option>::allocator<CCustomMenu::Option>, COMDAT
; _this$ = ecx

; 699  : 	allocator() _THROW0()

	push	ebp
	mov	ebp, esp
	sub	esp, 204				; 000000ccH
	push	ebx
	push	esi
	push	edi
	push	ecx
	lea	edi, DWORD PTR [ebp-204]
	mov	ecx, 51					; 00000033H
	mov	eax, -858993460				; ccccccccH
	rep stosd
	pop	ecx
	mov	DWORD PTR _this$[ebp], ecx

; 700  : 		{	// construct default allocator (do nothing)
; 701  : 		}

	mov	eax, DWORD PTR _this$[ebp]
	pop	edi
	pop	esi
	pop	ebx
	mov	esp, ebp
	pop	ebp
	ret	0
??0?$allocator@UOption@CCustomMenu@@@std@@QAE@XZ ENDP	; std::allocator<CCustomMenu::Option>::allocator<CCustomMenu::Option>
_TEXT	ENDS
; Function compile flags: /Odtp /RTCsu /ZI
;	COMDAT ??_GOption@CCustomMenu@@QAEPAXI@Z
_TEXT	SEGMENT
_this$ = -8						; size = 4
___flags$ = 8						; size = 4
??_GOption@CCustomMenu@@QAEPAXI@Z PROC			; CCustomMenu::Option::`scalar deleting destructor', COMDAT
; _this$ = ecx
	push	ebp
	mov	ebp, esp
	sub	esp, 204				; 000000ccH
	push	ebx
	push	esi
	push	edi
	push	ecx
	lea	edi, DWORD PTR [ebp-204]
	mov	ecx, 51					; 00000033H
	mov	eax, -858993460				; ccccccccH
	rep stosd
	pop	ecx
	mov	DWORD PTR _this$[ebp], ecx
	mov	ecx, DWORD PTR _this$[ebp]
	call	??1Option@CCustomMenu@@QAE@XZ
	mov	eax, DWORD PTR ___flags$[ebp]
	and	eax, 1
	je	SHORT $LN2@scalar
	push	32					; 00000020H
	mov	eax, DWORD PTR _this$[ebp]
	push	eax
	call	??3@YAXPAXI@Z				; operator delete
	add	esp, 8
$LN2@scalar:
	mov	eax, DWORD PTR _this$[ebp]
	pop	edi
	pop	esi
	pop	ebx
	add	esp, 204				; 000000ccH
	cmp	ebp, esp
	call	__RTC_CheckEsp
	mov	esp, ebp
	pop	ebp
	ret	4
??_GOption@CCustomMenu@@QAEPAXI@Z ENDP			; CCustomMenu::Option::`scalar deleting destructor'
_TEXT	ENDS
; Function compile flags: /Odtp /RTCsu /ZI
;	COMDAT ??4Option@CCustomMenu@@QAEAAU01@$$QAU01@@Z
_TEXT	SEGMENT
_this$ = -8						; size = 4
___that$ = 8						; size = 4
??4Option@CCustomMenu@@QAEAAU01@$$QAU01@@Z PROC		; CCustomMenu::Option::operator=, COMDAT
; _this$ = ecx
	push	ebp
	mov	ebp, esp
	sub	esp, 204				; 000000ccH
	push	ebx
	push	esi
	push	edi
	push	ecx
	lea	edi, DWORD PTR [ebp-204]
	mov	ecx, 51					; 00000033H
	mov	eax, -858993460				; ccccccccH
	rep stosd
	pop	ecx
	mov	DWORD PTR _this$[ebp], ecx
	mov	eax, DWORD PTR _this$[ebp]
	mov	ecx, DWORD PTR ___that$[ebp]
	mov	dl, BYTE PTR [ecx]
	mov	BYTE PTR [eax], dl
	mov	eax, DWORD PTR ___that$[ebp]
	add	eax, 4
	push	eax
	mov	ecx, DWORD PTR _this$[ebp]
	add	ecx, 4
	call	??4?$basic_string@DU?$char_traits@D@std@@V?$allocator@D@2@@std@@QAEAAV01@$$QAV01@@Z ; std::basic_string<char,std::char_traits<char>,std::allocator<char> >::operator=
	mov	eax, DWORD PTR _this$[ebp]
	pop	edi
	pop	esi
	pop	ebx
	add	esp, 204				; 000000ccH
	cmp	ebp, esp
	call	__RTC_CheckEsp
	mov	esp, ebp
	pop	ebp
	ret	4
??4Option@CCustomMenu@@QAEAAU01@$$QAU01@@Z ENDP		; CCustomMenu::Option::operator=
_TEXT	ENDS
; Function compile flags: /Odtp /RTCsu /ZI
;	COMDAT ??0Option@CCustomMenu@@QAE@$$QAU01@@Z
_TEXT	SEGMENT
_this$ = -8						; size = 4
___that$ = 8						; size = 4
??0Option@CCustomMenu@@QAE@$$QAU01@@Z PROC		; CCustomMenu::Option::Option, COMDAT
; _this$ = ecx
	push	ebp
	mov	ebp, esp
	sub	esp, 204				; 000000ccH
	push	ebx
	push	esi
	push	edi
	push	ecx
	lea	edi, DWORD PTR [ebp-204]
	mov	ecx, 51					; 00000033H
	mov	eax, -858993460				; ccccccccH
	rep stosd
	pop	ecx
	mov	DWORD PTR _this$[ebp], ecx
	mov	eax, DWORD PTR _this$[ebp]
	mov	ecx, DWORD PTR ___that$[ebp]
	mov	dl, BYTE PTR [ecx]
	mov	BYTE PTR [eax], dl
	mov	eax, DWORD PTR ___that$[ebp]
	add	eax, 4
	push	eax
	mov	ecx, DWORD PTR _this$[ebp]
	add	ecx, 4
	call	??0?$basic_string@DU?$char_traits@D@std@@V?$allocator@D@2@@std@@QAE@$$QAV01@@Z ; std::basic_string<char,std::char_traits<char>,std::allocator<char> >::basic_string<char,std::char_traits<char>,std::allocator<char> >
	mov	eax, DWORD PTR _this$[ebp]
	pop	edi
	pop	esi
	pop	ebx
	add	esp, 204				; 000000ccH
	cmp	ebp, esp
	call	__RTC_CheckEsp
	mov	esp, ebp
	pop	ebp
	ret	4
??0Option@CCustomMenu@@QAE@$$QAU01@@Z ENDP		; CCustomMenu::Option::Option
_TEXT	ENDS
; Function compile flags: /Odtp /RTCsu /ZI
;	COMDAT ??0Option@CCustomMenu@@QAE@ABU01@@Z
_TEXT	SEGMENT
_this$ = -8						; size = 4
___that$ = 8						; size = 4
??0Option@CCustomMenu@@QAE@ABU01@@Z PROC		; CCustomMenu::Option::Option, COMDAT
; _this$ = ecx
	push	ebp
	mov	ebp, esp
	sub	esp, 204				; 000000ccH
	push	ebx
	push	esi
	push	edi
	push	ecx
	lea	edi, DWORD PTR [ebp-204]
	mov	ecx, 51					; 00000033H
	mov	eax, -858993460				; ccccccccH
	rep stosd
	pop	ecx
	mov	DWORD PTR _this$[ebp], ecx
	mov	eax, DWORD PTR _this$[ebp]
	mov	ecx, DWORD PTR ___that$[ebp]
	mov	dl, BYTE PTR [ecx]
	mov	BYTE PTR [eax], dl
	mov	eax, DWORD PTR ___that$[ebp]
	add	eax, 4
	push	eax
	mov	ecx, DWORD PTR _this$[ebp]
	add	ecx, 4
	call	??0?$basic_string@DU?$char_traits@D@std@@V?$allocator@D@2@@std@@QAE@ABV01@@Z ; std::basic_string<char,std::char_traits<char>,std::allocator<char> >::basic_string<char,std::char_traits<char>,std::allocator<char> >
	mov	eax, DWORD PTR _this$[ebp]
	pop	edi
	pop	esi
	pop	ebx
	add	esp, 204				; 000000ccH
	cmp	ebp, esp
	call	__RTC_CheckEsp
	mov	esp, ebp
	pop	ebp
	ret	4
??0Option@CCustomMenu@@QAE@ABU01@@Z ENDP		; CCustomMenu::Option::Option
_TEXT	ENDS
; Function compile flags: /Odtp /RTCsu /ZI
;	COMDAT ??1Option@CCustomMenu@@QAE@XZ
_TEXT	SEGMENT
_this$ = -8						; size = 4
??1Option@CCustomMenu@@QAE@XZ PROC			; CCustomMenu::Option::~Option, COMDAT
; _this$ = ecx
	push	ebp
	mov	ebp, esp
	sub	esp, 204				; 000000ccH
	push	ebx
	push	esi
	push	edi
	push	ecx
	lea	edi, DWORD PTR [ebp-204]
	mov	ecx, 51					; 00000033H
	mov	eax, -858993460				; ccccccccH
	rep stosd
	pop	ecx
	mov	DWORD PTR _this$[ebp], ecx
	mov	ecx, DWORD PTR _this$[ebp]
	add	ecx, 4
	call	??1?$basic_string@DU?$char_traits@D@std@@V?$allocator@D@2@@std@@QAE@XZ ; std::basic_string<char,std::char_traits<char>,std::allocator<char> >::~basic_string<char,std::char_traits<char>,std::allocator<char> >
	pop	edi
	pop	esi
	pop	ebx
	add	esp, 204				; 000000ccH
	cmp	ebp, esp
	call	__RTC_CheckEsp
	mov	esp, ebp
	pop	ebp
	ret	0
??1Option@CCustomMenu@@QAE@XZ ENDP			; CCustomMenu::Option::~Option
_TEXT	ENDS
; Function compile flags: /Odtp /RTCsu /ZI
;	COMDAT ??0Option@CCustomMenu@@QAE@XZ
_TEXT	SEGMENT
_this$ = -8						; size = 4
??0Option@CCustomMenu@@QAE@XZ PROC			; CCustomMenu::Option::Option, COMDAT
; _this$ = ecx
	push	ebp
	mov	ebp, esp
	sub	esp, 204				; 000000ccH
	push	ebx
	push	esi
	push	edi
	push	ecx
	lea	edi, DWORD PTR [ebp-204]
	mov	ecx, 51					; 00000033H
	mov	eax, -858993460				; ccccccccH
	rep stosd
	pop	ecx
	mov	DWORD PTR _this$[ebp], ecx
	mov	ecx, DWORD PTR _this$[ebp]
	add	ecx, 4
	call	??0?$basic_string@DU?$char_traits@D@std@@V?$allocator@D@2@@std@@QAE@XZ ; std::basic_string<char,std::char_traits<char>,std::allocator<char> >::basic_string<char,std::char_traits<char>,std::allocator<char> >
	mov	eax, DWORD PTR _this$[ebp]
	pop	edi
	pop	esi
	pop	ebx
	add	esp, 204				; 000000ccH
	cmp	ebp, esp
	call	__RTC_CheckEsp
	mov	esp, ebp
	pop	ebp
	ret	0
??0Option@CCustomMenu@@QAE@XZ ENDP			; CCustomMenu::Option::Option
_TEXT	ENDS
; Function compile flags: /Odtp /RTCsu /ZI
; File s:\chris\onedrive - uat\c++ programming ii\pete_final\pete_final\custommenu.h
;	COMDAT ??MOption@CCustomMenu@@QBE_NABU01@@Z
_TEXT	SEGMENT
tv69 = -208						; size = 4
_this$ = -8						; size = 4
_rightSide$ = 8						; size = 4
??MOption@CCustomMenu@@QBE_NABU01@@Z PROC		; CCustomMenu::Option::operator<, COMDAT
; _this$ = ecx

; 25   : 		{

	push	ebp
	mov	ebp, esp
	sub	esp, 208				; 000000d0H
	push	ebx
	push	esi
	push	edi
	push	ecx
	lea	edi, DWORD PTR [ebp-208]
	mov	ecx, 52					; 00000034H
	mov	eax, -858993460				; ccccccccH
	rep stosd
	pop	ecx
	mov	DWORD PTR _this$[ebp], ecx

; 26   : 			return this->letter < rightSide.letter;

	mov	eax, DWORD PTR _this$[ebp]
	movsx	ecx, BYTE PTR [eax]
	mov	edx, DWORD PTR _rightSide$[ebp]
	movsx	eax, BYTE PTR [edx]
	cmp	ecx, eax
	jge	SHORT $LN3@operator
	mov	DWORD PTR tv69[ebp], 1
	jmp	SHORT $LN4@operator
$LN3@operator:
	mov	DWORD PTR tv69[ebp], 0
$LN4@operator:
	mov	al, BYTE PTR tv69[ebp]

; 27   : 		}

	pop	edi
	pop	esi
	pop	ebx
	mov	esp, ebp
	pop	ebp
	ret	4
??MOption@CCustomMenu@@QBE_NABU01@@Z ENDP		; CCustomMenu::Option::operator<
_TEXT	ENDS
; Function compile flags: /Odtp /RTCsu /ZI
; File s:\chris\onedrive - uat\c++ programming ii\pete_final\pete_final\custommenu.h
;	COMDAT ??8Option@CCustomMenu@@QBE_NABD@Z
_TEXT	SEGMENT
tv68 = -208						; size = 4
_this$ = -8						; size = 4
_rightSide$ = 8						; size = 4
??8Option@CCustomMenu@@QBE_NABD@Z PROC			; CCustomMenu::Option::operator==, COMDAT
; _this$ = ecx

; 20   : 		{

	push	ebp
	mov	ebp, esp
	sub	esp, 208				; 000000d0H
	push	ebx
	push	esi
	push	edi
	push	ecx
	lea	edi, DWORD PTR [ebp-208]
	mov	ecx, 52					; 00000034H
	mov	eax, -858993460				; ccccccccH
	rep stosd
	pop	ecx
	mov	DWORD PTR _this$[ebp], ecx

; 21   : 			return this->letter == rightSide;

	mov	eax, DWORD PTR _this$[ebp]
	movsx	ecx, BYTE PTR [eax]
	mov	edx, DWORD PTR _rightSide$[ebp]
	movsx	eax, BYTE PTR [edx]
	cmp	ecx, eax
	jne	SHORT $LN3@operator
	mov	DWORD PTR tv68[ebp], 1
	jmp	SHORT $LN4@operator
$LN3@operator:
	mov	DWORD PTR tv68[ebp], 0
$LN4@operator:
	mov	al, BYTE PTR tv68[ebp]

; 22   : 		}

	pop	edi
	pop	esi
	pop	ebx
	mov	esp, ebp
	pop	ebp
	ret	4
??8Option@CCustomMenu@@QBE_NABD@Z ENDP			; CCustomMenu::Option::operator==
_TEXT	ENDS
; Function compile flags: /Odtp /RTCsu /ZI
; File c:\program files (x86)\microsoft visual studio 14.0\vc\include\xstring
;	COMDAT ?_Xran@?$basic_string@DU?$char_traits@D@std@@V?$allocator@D@2@@std@@QBEXXZ
_TEXT	SEGMENT
_this$ = -8						; size = 4
?_Xran@?$basic_string@DU?$char_traits@D@std@@V?$allocator@D@2@@std@@QBEXXZ PROC ; std::basic_string<char,std::char_traits<char>,std::allocator<char> >::_Xran, COMDAT
; _this$ = ecx

; 2282 : 		{	// report an out_of_range error

	push	ebp
	mov	ebp, esp
	sub	esp, 204				; 000000ccH
	push	ebx
	push	esi
	push	edi
	push	ecx
	lea	edi, DWORD PTR [ebp-204]
	mov	ecx, 51					; 00000033H
	mov	eax, -858993460				; ccccccccH
	rep stosd
	pop	ecx
	mov	DWORD PTR _this$[ebp], ecx

; 2283 : 		_Xout_of_range("invalid string position");

	mov	esi, esp
	push	OFFSET ??_C@_0BI@CFPLBAOH@invalid?5string?5position?$AA@
	call	DWORD PTR __imp_?_Xout_of_range@std@@YAXPBD@Z
	cmp	esi, esp
	call	__RTC_CheckEsp
$LN2@Xran:

; 2284 : 		}

	pop	edi
	pop	esi
	pop	ebx
	add	esp, 204				; 000000ccH
	cmp	ebp, esp
	call	__RTC_CheckEsp
	mov	esp, ebp
	pop	ebp
	ret	0
?_Xran@?$basic_string@DU?$char_traits@D@std@@V?$allocator@D@2@@std@@QBEXXZ ENDP ; std::basic_string<char,std::char_traits<char>,std::allocator<char> >::_Xran
_TEXT	ENDS
; Function compile flags: /Odtp /RTCsu /ZI
; File c:\program files (x86)\microsoft visual studio 14.0\vc\include\xstring
;	COMDAT ?_Check_offset@?$basic_string@DU?$char_traits@D@std@@V?$allocator@D@2@@std@@QBEXI@Z
_TEXT	SEGMENT
_this$ = -8						; size = 4
__Off$ = 8						; size = 4
?_Check_offset@?$basic_string@DU?$char_traits@D@std@@V?$allocator@D@2@@std@@QBEXI@Z PROC ; std::basic_string<char,std::char_traits<char>,std::allocator<char> >::_Check_offset, COMDAT
; _this$ = ecx

; 2270 : 		{	// checks whether _Off is in the bounds of [0, this->size()]

	push	ebp
	mov	ebp, esp
	sub	esp, 204				; 000000ccH
	push	ebx
	push	esi
	push	edi
	push	ecx
	lea	edi, DWORD PTR [ebp-204]
	mov	ecx, 51					; 00000033H
	mov	eax, -858993460				; ccccccccH
	rep stosd
	pop	ecx
	mov	DWORD PTR _this$[ebp], ecx

; 2271 : 		if (this->_Mysize() < _Off)

	mov	ecx, DWORD PTR _this$[ebp]
	call	?_Mysize@?$_String_alloc@U?$_String_base_types@DV?$allocator@D@std@@@std@@@std@@QBEABIXZ ; std::_String_alloc<std::_String_base_types<char,std::allocator<char> > >::_Mysize
	mov	eax, DWORD PTR [eax]
	cmp	eax, DWORD PTR __Off$[ebp]
	jae	SHORT $LN3@Check_offs

; 2272 : 			_Xran();

	mov	ecx, DWORD PTR _this$[ebp]
	call	?_Xran@?$basic_string@DU?$char_traits@D@std@@V?$allocator@D@2@@std@@QBEXXZ ; std::basic_string<char,std::char_traits<char>,std::allocator<char> >::_Xran
$LN3@Check_offs:

; 2273 : 		}

	pop	edi
	pop	esi
	pop	ebx
	add	esp, 204				; 000000ccH
	cmp	ebp, esp
	call	__RTC_CheckEsp
	mov	esp, ebp
	pop	ebp
	ret	4
?_Check_offset@?$basic_string@DU?$char_traits@D@std@@V?$allocator@D@2@@std@@QBEXI@Z ENDP ; std::basic_string<char,std::char_traits<char>,std::allocator<char> >::_Check_offset
_TEXT	ENDS
; Function compile flags: /Odtp /RTCsu /ZI
; File c:\program files (x86)\microsoft visual studio 14.0\vc\include\xstring
;	COMDAT ?_Xlen@?$basic_string@DU?$char_traits@D@std@@V?$allocator@D@2@@std@@QBEXXZ
_TEXT	SEGMENT
_this$ = -8						; size = 4
?_Xlen@?$basic_string@DU?$char_traits@D@std@@V?$allocator@D@2@@std@@QBEXXZ PROC ; std::basic_string<char,std::char_traits<char>,std::allocator<char> >::_Xlen, COMDAT
; _this$ = ecx

; 2265 : 		{	// report a length_error

	push	ebp
	mov	ebp, esp
	sub	esp, 204				; 000000ccH
	push	ebx
	push	esi
	push	edi
	push	ecx
	lea	edi, DWORD PTR [ebp-204]
	mov	ecx, 51					; 00000033H
	mov	eax, -858993460				; ccccccccH
	rep stosd
	pop	ecx
	mov	DWORD PTR _this$[ebp], ecx

; 2266 : 		_Xlength_error("string too long");

	mov	esi, esp
	push	OFFSET ??_C@_0BA@JFNIOLAK@string?5too?5long?$AA@
	call	DWORD PTR __imp_?_Xlength_error@std@@YAXPBD@Z
	cmp	esi, esp
	call	__RTC_CheckEsp
$LN2@Xlen:

; 2267 : 		}

	pop	edi
	pop	esi
	pop	ebx
	add	esp, 204				; 000000ccH
	cmp	ebp, esp
	call	__RTC_CheckEsp
	mov	esp, ebp
	pop	ebp
	ret	0
?_Xlen@?$basic_string@DU?$char_traits@D@std@@V?$allocator@D@2@@std@@QBEXXZ ENDP ; std::basic_string<char,std::char_traits<char>,std::allocator<char> >::_Xlen
_TEXT	ENDS
; Function compile flags: /Odtp /RTCsu /ZI
; File c:\program files (x86)\microsoft visual studio 14.0\vc\include\xstring
;	COMDAT ?_Tidy@?$basic_string@DU?$char_traits@D@std@@V?$allocator@D@2@@std@@QAEX_NI@Z
_TEXT	SEGMENT
__Ptr$1 = -20						; size = 4
_this$ = -8						; size = 4
__Built$ = 8						; size = 1
__Newsize$ = 12						; size = 4
?_Tidy@?$basic_string@DU?$char_traits@D@std@@V?$allocator@D@2@@std@@QAEX_NI@Z PROC ; std::basic_string<char,std::char_traits<char>,std::allocator<char> >::_Tidy, COMDAT
; _this$ = ecx

; 2248 : 		{	// initialize buffer, deallocating any storage

	push	ebp
	mov	ebp, esp
	sub	esp, 216				; 000000d8H
	push	ebx
	push	esi
	push	edi
	push	ecx
	lea	edi, DWORD PTR [ebp-216]
	mov	ecx, 54					; 00000036H
	mov	eax, -858993460				; ccccccccH
	rep stosd
	pop	ecx
	mov	DWORD PTR _this$[ebp], ecx

; 2249 : 		if (!_Built)

	movzx	eax, BYTE PTR __Built$[ebp]
	test	eax, eax
	jne	SHORT $LN2@Tidy
	jmp	$LN3@Tidy
$LN2@Tidy:

; 2250 : 			;
; 2251 : 		else if (this->_BUF_SIZE <= this->_Myres())

	mov	ecx, DWORD PTR _this$[ebp]
	call	?_Myres@?$_String_alloc@U?$_String_base_types@DV?$allocator@D@std@@@std@@@std@@QAEAAIXZ ; std::_String_alloc<std::_String_base_types<char,std::allocator<char> > >::_Myres
	cmp	DWORD PTR [eax], 16			; 00000010H
	jb	SHORT $LN3@Tidy

; 2252 : 			{	// copy any leftovers to small buffer and deallocate
; 2253 : 			pointer _Ptr = this->_Bx()._Ptr;

	mov	ecx, DWORD PTR _this$[ebp]
	call	?_Bx@?$_String_alloc@U?$_String_base_types@DV?$allocator@D@std@@@std@@@std@@QAEAAT_Bxty@?$_String_val@U?$_Simple_types@D@std@@@2@XZ ; std::_String_alloc<std::_String_base_types<char,std::allocator<char> > >::_Bx
	mov	eax, DWORD PTR [eax]
	mov	DWORD PTR __Ptr$1[ebp], eax

; 2254 : 			this->_Getal().destroy(_STD addressof(this->_Bx()._Ptr));

	mov	ecx, DWORD PTR _this$[ebp]
	call	?_Bx@?$_String_alloc@U?$_String_base_types@DV?$allocator@D@std@@@std@@@std@@QAEAAT_Bxty@?$_String_val@U?$_Simple_types@D@std@@@2@XZ ; std::_String_alloc<std::_String_base_types<char,std::allocator<char> > >::_Bx
	push	eax
	call	??$addressof@PAD@std@@YAPAPADAAPAD@Z	; std::addressof<char *>
	add	esp, 4
	push	eax
	mov	ecx, DWORD PTR _this$[ebp]
	call	?_Getal@?$_String_alloc@U?$_String_base_types@DV?$allocator@D@std@@@std@@@std@@QAEAAU?$_Wrap_alloc@V?$allocator@D@std@@@2@XZ ; std::_String_alloc<std::_String_base_types<char,std::allocator<char> > >::_Getal
	mov	ecx, eax
	call	??$destroy@PAD@?$_Wrap_alloc@V?$allocator@D@std@@@std@@QAEXPAPAD@Z ; std::_Wrap_alloc<std::allocator<char> >::destroy<char *>

; 2255 : 			if (0 < _Newsize)

	cmp	DWORD PTR __Newsize$[ebp], 0
	jbe	SHORT $LN5@Tidy

; 2256 : 				_Traits::copy(this->_Bx()._Buf,

	mov	eax, DWORD PTR __Newsize$[ebp]
	push	eax
	mov	ecx, DWORD PTR __Ptr$1[ebp]
	push	ecx
	call	??$_Unfancy@D@std@@YAPADPAD@Z		; std::_Unfancy<char>
	add	esp, 4
	push	eax
	mov	ecx, DWORD PTR _this$[ebp]
	call	?_Bx@?$_String_alloc@U?$_String_base_types@DV?$allocator@D@std@@@std@@@std@@QAEAAT_Bxty@?$_String_val@U?$_Simple_types@D@std@@@2@XZ ; std::_String_alloc<std::_String_base_types<char,std::allocator<char> > >::_Bx
	push	eax
	call	?copy@?$char_traits@D@std@@SAPADPADPBDI@Z ; std::char_traits<char>::copy
	add	esp, 12					; 0000000cH
$LN5@Tidy:

; 2257 : 					_Unfancy(_Ptr), _Newsize);
; 2258 : 			this->_Getal().deallocate(_Ptr, this->_Myres() + 1);

	mov	ecx, DWORD PTR _this$[ebp]
	call	?_Myres@?$_String_alloc@U?$_String_base_types@DV?$allocator@D@std@@@std@@@std@@QAEAAIXZ ; std::_String_alloc<std::_String_base_types<char,std::allocator<char> > >::_Myres
	mov	eax, DWORD PTR [eax]
	add	eax, 1
	push	eax
	mov	ecx, DWORD PTR __Ptr$1[ebp]
	push	ecx
	mov	ecx, DWORD PTR _this$[ebp]
	call	?_Getal@?$_String_alloc@U?$_String_base_types@DV?$allocator@D@std@@@std@@@std@@QAEAAU?$_Wrap_alloc@V?$allocator@D@std@@@2@XZ ; std::_String_alloc<std::_String_base_types<char,std::allocator<char> > >::_Getal
	mov	ecx, eax
	call	?deallocate@?$_Wrap_alloc@V?$allocator@D@std@@@std@@QAEXPADI@Z ; std::_Wrap_alloc<std::allocator<char> >::deallocate
$LN3@Tidy:

; 2259 : 			}
; 2260 : 		this->_Myres() = this->_BUF_SIZE - 1;

	mov	ecx, DWORD PTR _this$[ebp]
	call	?_Myres@?$_String_alloc@U?$_String_base_types@DV?$allocator@D@std@@@std@@@std@@QAEAAIXZ ; std::_String_alloc<std::_String_base_types<char,std::allocator<char> > >::_Myres
	mov	DWORD PTR [eax], 15			; 0000000fH

; 2261 : 		_Eos(_Newsize);

	mov	eax, DWORD PTR __Newsize$[ebp]
	push	eax
	mov	ecx, DWORD PTR _this$[ebp]
	call	?_Eos@?$basic_string@DU?$char_traits@D@std@@V?$allocator@D@2@@std@@QAEXI@Z ; std::basic_string<char,std::char_traits<char>,std::allocator<char> >::_Eos

; 2262 : 		}

	pop	edi
	pop	esi
	pop	ebx
	add	esp, 216				; 000000d8H
	cmp	ebp, esp
	call	__RTC_CheckEsp
	mov	esp, ebp
	pop	ebp
	ret	8
?_Tidy@?$basic_string@DU?$char_traits@D@std@@V?$allocator@D@2@@std@@QAEX_NI@Z ENDP ; std::basic_string<char,std::char_traits<char>,std::allocator<char> >::_Tidy
_TEXT	ENDS
; Function compile flags: /Odtp /RTCsu /ZI
; File c:\program files (x86)\microsoft visual studio 14.0\vc\include\xstring
;	COMDAT ?_Inside@?$basic_string@DU?$char_traits@D@std@@V?$allocator@D@2@@std@@QAE_NPBD@Z
_TEXT	SEGMENT
_this$ = -8						; size = 4
__Ptr$ = 8						; size = 4
?_Inside@?$basic_string@DU?$char_traits@D@std@@V?$allocator@D@2@@std@@QAE_NPBD@Z PROC ; std::basic_string<char,std::char_traits<char>,std::allocator<char> >::_Inside, COMDAT
; _this$ = ecx

; 2238 : 		{	// test if _Ptr points inside string

	push	ebp
	mov	ebp, esp
	sub	esp, 204				; 000000ccH
	push	ebx
	push	esi
	push	edi
	push	ecx
	lea	edi, DWORD PTR [ebp-204]
	mov	ecx, 51					; 00000033H
	mov	eax, -858993460				; ccccccccH
	rep stosd
	pop	ecx
	mov	DWORD PTR _this$[ebp], ecx

; 2239 : 		if (_Ptr == nullptr_t{} || _Ptr < this->_Myptr()
; 2240 : 			|| this->_Myptr() + this->_Mysize() <= _Ptr)

	cmp	DWORD PTR __Ptr$[ebp], 0
	je	SHORT $LN4@Inside
	mov	ecx, DWORD PTR _this$[ebp]
	call	?_Myptr@?$_String_alloc@U?$_String_base_types@DV?$allocator@D@std@@@std@@@std@@QAEPADXZ ; std::_String_alloc<std::_String_base_types<char,std::allocator<char> > >::_Myptr
	cmp	DWORD PTR __Ptr$[ebp], eax
	jb	SHORT $LN4@Inside
	mov	ecx, DWORD PTR _this$[ebp]
	call	?_Myptr@?$_String_alloc@U?$_String_base_types@DV?$allocator@D@std@@@std@@@std@@QAEPADXZ ; std::_String_alloc<std::_String_base_types<char,std::allocator<char> > >::_Myptr
	mov	esi, eax
	mov	ecx, DWORD PTR _this$[ebp]
	call	?_Mysize@?$_String_alloc@U?$_String_base_types@DV?$allocator@D@std@@@std@@@std@@QAEAAIXZ ; std::_String_alloc<std::_String_base_types<char,std::allocator<char> > >::_Mysize
	add	esi, DWORD PTR [eax]
	cmp	esi, DWORD PTR __Ptr$[ebp]
	ja	SHORT $LN2@Inside
$LN4@Inside:

; 2241 : 			return (false);	// don't ask

	xor	al, al
	jmp	SHORT $LN1@Inside

; 2242 : 		else

	jmp	SHORT $LN1@Inside
$LN2@Inside:

; 2243 : 			return (true);

	mov	al, 1
$LN1@Inside:

; 2244 : 		}

	pop	edi
	pop	esi
	pop	ebx
	add	esp, 204				; 000000ccH
	cmp	ebp, esp
	call	__RTC_CheckEsp
	mov	esp, ebp
	pop	ebp
	ret	4
?_Inside@?$basic_string@DU?$char_traits@D@std@@V?$allocator@D@2@@std@@QAE_NPBD@Z ENDP ; std::basic_string<char,std::char_traits<char>,std::allocator<char> >::_Inside
_TEXT	ENDS
; Function compile flags: /Odtp /RTCsu /ZI
; File c:\program files (x86)\microsoft visual studio 14.0\vc\include\xstring
;	COMDAT ?_Grow@?$basic_string@DU?$char_traits@D@std@@V?$allocator@D@2@@std@@QAE_NI_N@Z
_TEXT	SEGMENT
tv140 = -208						; size = 4
tv133 = -208						; size = 4
_this$ = -8						; size = 4
__Newsize$ = 8						; size = 4
__Trim$ = 12						; size = 1
?_Grow@?$basic_string@DU?$char_traits@D@std@@V?$allocator@D@2@@std@@QAE_NI_N@Z PROC ; std::basic_string<char,std::char_traits<char>,std::allocator<char> >::_Grow, COMDAT
; _this$ = ecx

; 2224 : 		{	// ensure buffer is big enough, trim to size if _Trim is true

	push	ebp
	mov	ebp, esp
	sub	esp, 208				; 000000d0H
	push	ebx
	push	esi
	push	edi
	push	ecx
	lea	edi, DWORD PTR [ebp-208]
	mov	ecx, 52					; 00000034H
	mov	eax, -858993460				; ccccccccH
	rep stosd
	pop	ecx
	mov	DWORD PTR _this$[ebp], ecx

; 2225 : 		if (max_size() < _Newsize)

	mov	ecx, DWORD PTR _this$[ebp]
	call	?max_size@?$basic_string@DU?$char_traits@D@std@@V?$allocator@D@2@@std@@QBEIXZ ; std::basic_string<char,std::char_traits<char>,std::allocator<char> >::max_size
	cmp	eax, DWORD PTR __Newsize$[ebp]
	jae	SHORT $LN2@Grow

; 2226 : 			_Xlen();	// result too long

	mov	ecx, DWORD PTR _this$[ebp]
	call	?_Xlen@?$basic_string@DU?$char_traits@D@std@@V?$allocator@D@2@@std@@QBEXXZ ; std::basic_string<char,std::char_traits<char>,std::allocator<char> >::_Xlen
$LN2@Grow:

; 2227 : 		if (this->_Myres() < _Newsize)

	mov	ecx, DWORD PTR _this$[ebp]
	call	?_Myres@?$_String_alloc@U?$_String_base_types@DV?$allocator@D@std@@@std@@@std@@QAEAAIXZ ; std::_String_alloc<std::_String_base_types<char,std::allocator<char> > >::_Myres
	mov	eax, DWORD PTR [eax]
	cmp	eax, DWORD PTR __Newsize$[ebp]
	jae	SHORT $LN3@Grow

; 2228 : 			_Copy(_Newsize, this->_Mysize());	// reallocate to grow

	mov	ecx, DWORD PTR _this$[ebp]
	call	?_Mysize@?$_String_alloc@U?$_String_base_types@DV?$allocator@D@std@@@std@@@std@@QAEAAIXZ ; std::_String_alloc<std::_String_base_types<char,std::allocator<char> > >::_Mysize
	mov	eax, DWORD PTR [eax]
	push	eax
	mov	ecx, DWORD PTR __Newsize$[ebp]
	push	ecx
	mov	ecx, DWORD PTR _this$[ebp]
	call	?_Copy@?$basic_string@DU?$char_traits@D@std@@V?$allocator@D@2@@std@@QAEXII@Z ; std::basic_string<char,std::char_traits<char>,std::allocator<char> >::_Copy
	jmp	SHORT $LN4@Grow
$LN3@Grow:

; 2229 : 		else if (_Trim && _Newsize < this->_BUF_SIZE)

	movzx	eax, BYTE PTR __Trim$[ebp]
	test	eax, eax
	je	SHORT $LN5@Grow
	cmp	DWORD PTR __Newsize$[ebp], 16		; 00000010H
	jae	SHORT $LN5@Grow

; 2230 : 			_Tidy(true,	// copy and deallocate if trimming to small string

	mov	ecx, DWORD PTR _this$[ebp]
	call	?_Mysize@?$_String_alloc@U?$_String_base_types@DV?$allocator@D@std@@@std@@@std@@QAEAAIXZ ; std::_String_alloc<std::_String_base_types<char,std::allocator<char> > >::_Mysize
	mov	ecx, DWORD PTR __Newsize$[ebp]
	cmp	ecx, DWORD PTR [eax]
	jae	SHORT $LN9@Grow
	mov	edx, DWORD PTR __Newsize$[ebp]
	mov	DWORD PTR tv133[ebp], edx
	jmp	SHORT $LN10@Grow
$LN9@Grow:
	mov	ecx, DWORD PTR _this$[ebp]
	call	?_Mysize@?$_String_alloc@U?$_String_base_types@DV?$allocator@D@std@@@std@@@std@@QAEAAIXZ ; std::_String_alloc<std::_String_base_types<char,std::allocator<char> > >::_Mysize
	mov	eax, DWORD PTR [eax]
	mov	DWORD PTR tv133[ebp], eax
$LN10@Grow:
	mov	ecx, DWORD PTR tv133[ebp]
	push	ecx
	push	1
	mov	ecx, DWORD PTR _this$[ebp]
	call	?_Tidy@?$basic_string@DU?$char_traits@D@std@@V?$allocator@D@2@@std@@QAEX_NI@Z ; std::basic_string<char,std::char_traits<char>,std::allocator<char> >::_Tidy
	jmp	SHORT $LN4@Grow
$LN5@Grow:

; 2231 : 				_Newsize < this->_Mysize() ? _Newsize : this->_Mysize());
; 2232 : 		else if (_Newsize == 0)

	cmp	DWORD PTR __Newsize$[ebp], 0
	jne	SHORT $LN4@Grow

; 2233 : 			_Eos(0);	// new size is zero, just null terminate

	push	0
	mov	ecx, DWORD PTR _this$[ebp]
	call	?_Eos@?$basic_string@DU?$char_traits@D@std@@V?$allocator@D@2@@std@@QAEXI@Z ; std::basic_string<char,std::char_traits<char>,std::allocator<char> >::_Eos
$LN4@Grow:

; 2234 : 		return (0 < _Newsize);	// return true only if more work to do

	cmp	DWORD PTR __Newsize$[ebp], 0
	jbe	SHORT $LN11@Grow
	mov	DWORD PTR tv140[ebp], 1
	jmp	SHORT $LN12@Grow
$LN11@Grow:
	mov	DWORD PTR tv140[ebp], 0
$LN12@Grow:
	mov	al, BYTE PTR tv140[ebp]
$LN8@Grow:

; 2235 : 		}

	pop	edi
	pop	esi
	pop	ebx
	add	esp, 208				; 000000d0H
	cmp	ebp, esp
	call	__RTC_CheckEsp
	mov	esp, ebp
	pop	ebp
	ret	8
?_Grow@?$basic_string@DU?$char_traits@D@std@@V?$allocator@D@2@@std@@QAE_NI_N@Z ENDP ; std::basic_string<char,std::char_traits<char>,std::allocator<char> >::_Grow
_TEXT	ENDS
; Function compile flags: /Odtp /RTCsu /ZI
; File c:\program files (x86)\microsoft visual studio 14.0\vc\include\xstring
;	COMDAT ?_Eos@?$basic_string@DU?$char_traits@D@std@@V?$allocator@D@2@@std@@QAEXI@Z
_TEXT	SEGMENT
$T1 = -221						; size = 1
__Dx$ = -20						; size = 4
_this$ = -8						; size = 4
__Newsize$ = 8						; size = 4
?_Eos@?$basic_string@DU?$char_traits@D@std@@V?$allocator@D@2@@std@@QAEXI@Z PROC ; std::basic_string<char,std::char_traits<char>,std::allocator<char> >::_Eos, COMDAT
; _this$ = ecx

; 2217 : 		{	// set new length and null terminator

	push	ebp
	mov	ebp, esp
	sub	esp, 228				; 000000e4H
	push	ebx
	push	esi
	push	edi
	push	ecx
	lea	edi, DWORD PTR [ebp-228]
	mov	ecx, 57					; 00000039H
	mov	eax, -858993460				; ccccccccH
	rep stosd
	pop	ecx
	mov	DWORD PTR _this$[ebp], ecx

; 2218 : 		auto& _Dx = this->_Get_data();

	mov	ecx, DWORD PTR _this$[ebp]
	call	?_Get_data@?$_String_alloc@U?$_String_base_types@DV?$allocator@D@std@@@std@@@std@@QAEAAV?$_String_val@U?$_Simple_types@D@std@@@2@XZ ; std::_String_alloc<std::_String_base_types<char,std::allocator<char> > >::_Get_data
	mov	DWORD PTR __Dx$[ebp], eax

; 2219 : 		_Traits::assign(_Dx._Myptr()[_Dx._Mysize = _Newsize], _Elem());

	mov	BYTE PTR $T1[ebp], 0
	mov	eax, DWORD PTR __Dx$[ebp]
	mov	ecx, DWORD PTR __Newsize$[ebp]
	mov	DWORD PTR [eax+20], ecx
	lea	edx, DWORD PTR $T1[ebp]
	push	edx
	mov	ecx, DWORD PTR __Dx$[ebp]
	call	?_Myptr@?$_String_val@U?$_Simple_types@D@std@@@std@@QAEPADXZ ; std::_String_val<std::_Simple_types<char> >::_Myptr
	add	eax, DWORD PTR __Newsize$[ebp]
	push	eax
	call	?assign@?$char_traits@D@std@@SAXAADABD@Z ; std::char_traits<char>::assign
	add	esp, 8

; 2220 : 		}

	pop	edi
	pop	esi
	pop	ebx
	add	esp, 228				; 000000e4H
	cmp	ebp, esp
	call	__RTC_CheckEsp
	mov	esp, ebp
	pop	ebp
	ret	4
?_Eos@?$basic_string@DU?$char_traits@D@std@@V?$allocator@D@2@@std@@QAEXI@Z ENDP ; std::basic_string<char,std::char_traits<char>,std::allocator<char> >::_Eos
_TEXT	ENDS
; Function compile flags: /Odtp /RTCsu /ZI
; File c:\program files (x86)\microsoft visual studio 14.0\vc\include\xstring
;	COMDAT ?_Copy@?$basic_string@DU?$char_traits@D@std@@V?$allocator@D@2@@std@@QAEXII@Z
_TEXT	SEGMENT
tv217 = -248						; size = 4
tv216 = -248						; size = 4
__Ptr$ = -48						; size = 4
__Newres$ = -36						; size = 4
_this$ = -24						; size = 4
__$EHRec$ = -16						; size = 16
__Newsize$ = 8						; size = 4
__Oldlen$ = 12						; size = 4
?_Copy@?$basic_string@DU?$char_traits@D@std@@V?$allocator@D@2@@std@@QAEXII@Z PROC ; std::basic_string<char,std::char_traits<char>,std::allocator<char> >::_Copy, COMDAT
; _this$ = ecx

; 2182 : 		{	// copy _Oldlen elements to newly allocated buffer

	push	ebp
	mov	ebp, esp
	push	-1
	push	__ehhandler$?_Copy@?$basic_string@DU?$char_traits@D@std@@V?$allocator@D@2@@std@@QAEXII@Z
	mov	eax, DWORD PTR fs:0
	push	eax
	push	ecx
	sub	esp, 232				; 000000e8H
	push	ebx
	push	esi
	push	edi
	push	ecx
	lea	edi, DWORD PTR [ebp-248]
	mov	ecx, 58					; 0000003aH
	mov	eax, -858993460				; ccccccccH
	rep stosd
	pop	ecx
	mov	eax, DWORD PTR ___security_cookie
	xor	eax, ebp
	push	eax
	lea	eax, DWORD PTR __$EHRec$[ebp+4]
	mov	DWORD PTR fs:0, eax
	mov	DWORD PTR __$EHRec$[ebp], esp
	mov	DWORD PTR _this$[ebp], ecx

; 2183 : 		size_type _Newres = _Newsize | this->_ALLOC_MASK;

	mov	eax, DWORD PTR __Newsize$[ebp]
	or	eax, 15					; 0000000fH
	mov	DWORD PTR __Newres$[ebp], eax

; 2184 : 		if (max_size() < _Newres)

	mov	ecx, DWORD PTR _this$[ebp]
	call	?max_size@?$basic_string@DU?$char_traits@D@std@@V?$allocator@D@2@@std@@QBEIXZ ; std::basic_string<char,std::char_traits<char>,std::allocator<char> >::max_size
	cmp	eax, DWORD PTR __Newres$[ebp]
	jae	SHORT $LN2@Copy

; 2185 : 			_Newres = _Newsize;	// undo roundup if too big

	mov	eax, DWORD PTR __Newsize$[ebp]
	mov	DWORD PTR __Newres$[ebp], eax
	jmp	SHORT $LN3@Copy
$LN2@Copy:

; 2186 : 		else if (this->_Myres() / 2 <= _Newres / 3)

	mov	eax, DWORD PTR __Newres$[ebp]
	xor	edx, edx
	mov	ecx, 3
	div	ecx
	mov	esi, eax
	mov	ecx, DWORD PTR _this$[ebp]
	call	?_Myres@?$_String_alloc@U?$_String_base_types@DV?$allocator@D@std@@@std@@@std@@QAEAAIXZ ; std::_String_alloc<std::_String_base_types<char,std::allocator<char> > >::_Myres
	mov	edx, DWORD PTR [eax]
	shr	edx, 1
	cmp	edx, esi
	ja	SHORT $LN4@Copy
	jmp	SHORT $LN3@Copy
$LN4@Copy:

; 2187 : 			;
; 2188 : 		else if (this->_Myres() <= max_size() - this->_Myres() / 2)

	mov	ecx, DWORD PTR _this$[ebp]
	call	?_Myres@?$_String_alloc@U?$_String_base_types@DV?$allocator@D@std@@@std@@@std@@QAEAAIXZ ; std::_String_alloc<std::_String_base_types<char,std::allocator<char> > >::_Myres
	mov	esi, DWORD PTR [eax]
	shr	esi, 1
	mov	ecx, DWORD PTR _this$[ebp]
	call	?max_size@?$basic_string@DU?$char_traits@D@std@@V?$allocator@D@2@@std@@QBEIXZ ; std::basic_string<char,std::char_traits<char>,std::allocator<char> >::max_size
	mov	edi, eax
	sub	edi, esi
	mov	ecx, DWORD PTR _this$[ebp]
	call	?_Myres@?$_String_alloc@U?$_String_base_types@DV?$allocator@D@std@@@std@@@std@@QAEAAIXZ ; std::_String_alloc<std::_String_base_types<char,std::allocator<char> > >::_Myres
	cmp	DWORD PTR [eax], edi
	ja	SHORT $LN6@Copy

; 2189 : 			_Newres = this->_Myres()

	mov	ecx, DWORD PTR _this$[ebp]
	call	?_Myres@?$_String_alloc@U?$_String_base_types@DV?$allocator@D@std@@@std@@@std@@QAEAAIXZ ; std::_String_alloc<std::_String_base_types<char,std::allocator<char> > >::_Myres
	mov	esi, DWORD PTR [eax]
	shr	esi, 1
	mov	ecx, DWORD PTR _this$[ebp]
	call	?_Myres@?$_String_alloc@U?$_String_base_types@DV?$allocator@D@std@@@std@@@std@@QAEAAIXZ ; std::_String_alloc<std::_String_base_types<char,std::allocator<char> > >::_Myres
	add	esi, DWORD PTR [eax]
	mov	DWORD PTR __Newres$[ebp], esi

; 2190 : 				+ this->_Myres() / 2;	// grow exponentially if possible
; 2191 : 		else

	jmp	SHORT $LN3@Copy
$LN6@Copy:

; 2192 : 			_Newres = max_size();	// settle for max_size()

	mov	ecx, DWORD PTR _this$[ebp]
	call	?max_size@?$basic_string@DU?$char_traits@D@std@@V?$allocator@D@2@@std@@QBEIXZ ; std::basic_string<char,std::char_traits<char>,std::allocator<char> >::max_size
	mov	DWORD PTR __Newres$[ebp], eax
$LN3@Copy:

; 2193 : 
; 2194 : 		pointer _Ptr;
; 2195 : 		_TRY_BEGIN

	mov	DWORD PTR __$EHRec$[ebp+12], 0

; 2196 : 			_Ptr = this->_Getal().allocate(_Newres + 1);

	mov	eax, DWORD PTR __Newres$[ebp]
	add	eax, 1
	push	eax
	mov	ecx, DWORD PTR _this$[ebp]
	call	?_Getal@?$_String_alloc@U?$_String_base_types@DV?$allocator@D@std@@@std@@@std@@QAEAAU?$_Wrap_alloc@V?$allocator@D@std@@@2@XZ ; std::_String_alloc<std::_String_base_types<char,std::allocator<char> > >::_Getal
	mov	ecx, eax
	call	?allocate@?$_Wrap_alloc@V?$allocator@D@std@@@std@@QAEPADI@Z ; std::_Wrap_alloc<std::allocator<char> >::allocate
	mov	DWORD PTR tv216[ebp], eax
	mov	ecx, DWORD PTR tv216[ebp]
	mov	DWORD PTR __Ptr$[ebp], ecx
	jmp	SHORT $LN12@Copy
__catch$?_Copy@?$basic_string@DU?$char_traits@D@std@@V?$allocator@D@2@@std@@QAEXII@Z$0:

; 2197 : 		_CATCH_ALL

	mov	DWORD PTR __$EHRec$[ebp], esp

; 2198 : 			_Newres = _Newsize;	// allocation failed, undo roundup and retry

	mov	eax, DWORD PTR __Newsize$[ebp]
	mov	DWORD PTR __Newres$[ebp], eax

; 2199 : 			_TRY_BEGIN

	mov	BYTE PTR __$EHRec$[ebp+12], 2

; 2200 : 				_Ptr = this->_Getal().allocate(_Newres + 1);

	mov	eax, DWORD PTR __Newres$[ebp]
	add	eax, 1
	push	eax
	mov	ecx, DWORD PTR _this$[ebp]
	call	?_Getal@?$_String_alloc@U?$_String_base_types@DV?$allocator@D@std@@@std@@@std@@QAEAAU?$_Wrap_alloc@V?$allocator@D@std@@@2@XZ ; std::_String_alloc<std::_String_base_types<char,std::allocator<char> > >::_Getal
	mov	ecx, eax
	call	?allocate@?$_Wrap_alloc@V?$allocator@D@std@@@std@@QAEPADI@Z ; std::_Wrap_alloc<std::allocator<char> >::allocate
	mov	DWORD PTR tv217[ebp], eax
	mov	ecx, DWORD PTR tv217[ebp]
	mov	DWORD PTR __Ptr$[ebp], ecx
	jmp	SHORT $LN14@Copy
__catch$?_Copy@?$basic_string@DU?$char_traits@D@std@@V?$allocator@D@2@@std@@QAEXII@Z$1:

; 2201 : 			_CATCH_ALL
; 2202 : 			_Tidy(true);	// failed again, discard storage and reraise

	push	0
	push	1
	mov	ecx, DWORD PTR _this$[ebp]
	call	?_Tidy@?$basic_string@DU?$char_traits@D@std@@V?$allocator@D@2@@std@@QAEX_NI@Z ; std::basic_string<char,std::char_traits<char>,std::allocator<char> >::_Tidy

; 2203 : 			_RERAISE;

	push	0
	push	0
	call	__CxxThrowException@8

; 2204 : 			_CATCH_END

	mov	eax, $LN17@Copy
	ret	0
$LN14@Copy:
	mov	DWORD PTR __$EHRec$[ebp+12], 1
	jmp	SHORT __tryend$?_Copy@?$basic_string@DU?$char_traits@D@std@@V?$allocator@D@2@@std@@QAEXII@Z$2
$LN17@Copy:
	mov	DWORD PTR __$EHRec$[ebp+12], 1
__tryend$?_Copy@?$basic_string@DU?$char_traits@D@std@@V?$allocator@D@2@@std@@QAEXII@Z$2:

; 2205 : 		_CATCH_END

	mov	eax, $LN19@Copy
	ret	0
$LN12@Copy:
	mov	DWORD PTR __$EHRec$[ebp+12], -1
	jmp	SHORT __tryend$?_Copy@?$basic_string@DU?$char_traits@D@std@@V?$allocator@D@2@@std@@QAEXII@Z$3
$LN19@Copy:
	mov	DWORD PTR __$EHRec$[ebp+12], -1
__tryend$?_Copy@?$basic_string@DU?$char_traits@D@std@@V?$allocator@D@2@@std@@QAEXII@Z$3:

; 2206 : 
; 2207 : 		if (0 < _Oldlen)

	cmp	DWORD PTR __Oldlen$[ebp], 0
	jbe	SHORT $LN10@Copy

; 2208 : 			_Traits::copy(_Unfancy(_Ptr), this->_Myptr(),

	mov	eax, DWORD PTR __Oldlen$[ebp]
	push	eax
	mov	ecx, DWORD PTR _this$[ebp]
	call	?_Myptr@?$_String_alloc@U?$_String_base_types@DV?$allocator@D@std@@@std@@@std@@QAEPADXZ ; std::_String_alloc<std::_String_base_types<char,std::allocator<char> > >::_Myptr
	push	eax
	mov	ecx, DWORD PTR __Ptr$[ebp]
	push	ecx
	call	??$_Unfancy@D@std@@YAPADPAD@Z		; std::_Unfancy<char>
	add	esp, 4
	push	eax
	call	?copy@?$char_traits@D@std@@SAPADPADPBDI@Z ; std::char_traits<char>::copy
	add	esp, 12					; 0000000cH
$LN10@Copy:

; 2209 : 				_Oldlen);	// copy existing elements
; 2210 : 		_Tidy(true);

	push	0
	push	1
	mov	ecx, DWORD PTR _this$[ebp]
	call	?_Tidy@?$basic_string@DU?$char_traits@D@std@@V?$allocator@D@2@@std@@QAEX_NI@Z ; std::basic_string<char,std::char_traits<char>,std::allocator<char> >::_Tidy

; 2211 : 		this->_Getal().construct(_STD addressof(this->_Bx()._Ptr), _Ptr);

	lea	eax, DWORD PTR __Ptr$[ebp]
	push	eax
	mov	ecx, DWORD PTR _this$[ebp]
	call	?_Bx@?$_String_alloc@U?$_String_base_types@DV?$allocator@D@std@@@std@@@std@@QAEAAT_Bxty@?$_String_val@U?$_Simple_types@D@std@@@2@XZ ; std::_String_alloc<std::_String_base_types<char,std::allocator<char> > >::_Bx
	push	eax
	call	??$addressof@PAD@std@@YAPAPADAAPAD@Z	; std::addressof<char *>
	add	esp, 4
	push	eax
	mov	ecx, DWORD PTR _this$[ebp]
	call	?_Getal@?$_String_alloc@U?$_String_base_types@DV?$allocator@D@std@@@std@@@std@@QAEAAU?$_Wrap_alloc@V?$allocator@D@std@@@2@XZ ; std::_String_alloc<std::_String_base_types<char,std::allocator<char> > >::_Getal
	mov	ecx, eax
	call	??$construct@PADAAPAD@?$_Wrap_alloc@V?$allocator@D@std@@@std@@QAEXPAPADAAPAD@Z ; std::_Wrap_alloc<std::allocator<char> >::construct<char *,char * &>

; 2212 : 		this->_Myres() = _Newres;

	mov	ecx, DWORD PTR _this$[ebp]
	call	?_Myres@?$_String_alloc@U?$_String_base_types@DV?$allocator@D@std@@@std@@@std@@QAEAAIXZ ; std::_String_alloc<std::_String_base_types<char,std::allocator<char> > >::_Myres
	mov	ecx, DWORD PTR __Newres$[ebp]
	mov	DWORD PTR [eax], ecx

; 2213 : 		_Eos(_Oldlen);

	mov	eax, DWORD PTR __Oldlen$[ebp]
	push	eax
	mov	ecx, DWORD PTR _this$[ebp]
	call	?_Eos@?$basic_string@DU?$char_traits@D@std@@V?$allocator@D@2@@std@@QAEXI@Z ; std::basic_string<char,std::char_traits<char>,std::allocator<char> >::_Eos
$LN11@Copy:

; 2214 : 		}

	push	edx
	mov	ecx, ebp
	push	eax
	lea	edx, DWORD PTR $LN23@Copy
	call	@_RTC_CheckStackVars@8
	pop	eax
	pop	edx
	mov	ecx, DWORD PTR __$EHRec$[ebp+4]
	mov	DWORD PTR fs:0, ecx
	pop	ecx
	pop	edi
	pop	esi
	pop	ebx
	add	esp, 248				; 000000f8H
	cmp	ebp, esp
	call	__RTC_CheckEsp
	mov	esp, ebp
	pop	ebp
	ret	8
	npad	3
$LN23@Copy:
	DD	1
	DD	$LN22@Copy
$LN22@Copy:
	DD	-48					; ffffffd0H
	DD	4
	DD	$LN20@Copy
$LN20@Copy:
	DB	95					; 0000005fH
	DB	80					; 00000050H
	DB	116					; 00000074H
	DB	114					; 00000072H
	DB	0
_TEXT	ENDS
;	COMDAT text$x
text$x	SEGMENT
__ehhandler$?_Copy@?$basic_string@DU?$char_traits@D@std@@V?$allocator@D@2@@std@@QAEXII@Z:
	mov	edx, DWORD PTR [esp+8]
	lea	eax, DWORD PTR [edx+12]
	mov	ecx, DWORD PTR [edx-252]
	xor	ecx, eax
	call	@__security_check_cookie@4
	mov	eax, OFFSET __ehfuncinfo$?_Copy@?$basic_string@DU?$char_traits@D@std@@V?$allocator@D@2@@std@@QAEXII@Z
	jmp	___CxxFrameHandler3
text$x	ENDS
?_Copy@?$basic_string@DU?$char_traits@D@std@@V?$allocator@D@2@@std@@QAEXII@Z ENDP ; std::basic_string<char,std::char_traits<char>,std::allocator<char> >::_Copy
; Function compile flags: /Odtp /RTCsu /ZI
; File c:\program files (x86)\microsoft visual studio 14.0\vc\include\xstring
;	COMDAT ?_Clamp_suffix_size@?$basic_string@DU?$char_traits@D@std@@V?$allocator@D@2@@std@@QBEIII@Z
_TEXT	SEGMENT
__Max_effective_size$ = -20				; size = 4
_this$ = -8						; size = 4
__Off$ = 8						; size = 4
__Size$ = 12						; size = 4
?_Clamp_suffix_size@?$basic_string@DU?$char_traits@D@std@@V?$allocator@D@2@@std@@QBEIII@Z PROC ; std::basic_string<char,std::char_traits<char>,std::allocator<char> >::_Clamp_suffix_size, COMDAT
; _this$ = ecx

; 2111 : 		{	// trims _Size to the longest it can be assuming a string starting at _Off

	push	ebp
	mov	ebp, esp
	sub	esp, 216				; 000000d8H
	push	ebx
	push	esi
	push	edi
	push	ecx
	lea	edi, DWORD PTR [ebp-216]
	mov	ecx, 54					; 00000036H
	mov	eax, -858993460				; ccccccccH
	rep stosd
	pop	ecx
	mov	DWORD PTR _this$[ebp], ecx

; 2112 : 		const size_type _Max_effective_size = this->_Mysize() - _Off;

	mov	ecx, DWORD PTR _this$[ebp]
	call	?_Mysize@?$_String_alloc@U?$_String_base_types@DV?$allocator@D@std@@@std@@@std@@QBEABIXZ ; std::_String_alloc<std::_String_base_types<char,std::allocator<char> > >::_Mysize
	mov	eax, DWORD PTR [eax]
	sub	eax, DWORD PTR __Off$[ebp]
	mov	DWORD PTR __Max_effective_size$[ebp], eax

; 2113 : 		if (_Size <= _Max_effective_size)

	mov	eax, DWORD PTR __Size$[ebp]
	cmp	eax, DWORD PTR __Max_effective_size$[ebp]
	ja	SHORT $LN2@Clamp_suff

; 2114 : 			return (_Size);

	mov	eax, DWORD PTR __Size$[ebp]
	jmp	SHORT $LN1@Clamp_suff

; 2115 : 		else

	jmp	SHORT $LN1@Clamp_suff
$LN2@Clamp_suff:

; 2116 : 			return (_Max_effective_size);

	mov	eax, DWORD PTR __Max_effective_size$[ebp]
$LN1@Clamp_suff:

; 2117 : 		}

	pop	edi
	pop	esi
	pop	ebx
	add	esp, 216				; 000000d8H
	cmp	ebp, esp
	call	__RTC_CheckEsp
	mov	esp, ebp
	pop	ebp
	ret	8
?_Clamp_suffix_size@?$basic_string@DU?$char_traits@D@std@@V?$allocator@D@2@@std@@QBEIII@Z ENDP ; std::basic_string<char,std::char_traits<char>,std::allocator<char> >::_Clamp_suffix_size
_TEXT	ENDS
; Function compile flags: /Odtp /RTCsu /ZI
; File c:\program files (x86)\microsoft visual studio 14.0\vc\include\xstring
;	COMDAT ?max_size@?$basic_string@DU?$char_traits@D@std@@V?$allocator@D@2@@std@@QBEIXZ
_TEXT	SEGMENT
tv75 = -232						; size = 4
$T1 = -221						; size = 1
__Num$ = -20						; size = 4
_this$ = -8						; size = 4
?max_size@?$basic_string@DU?$char_traits@D@std@@V?$allocator@D@2@@std@@QBEIXZ PROC ; std::basic_string<char,std::char_traits<char>,std::allocator<char> >::max_size, COMDAT
; _this$ = ecx

; 1769 : 		{	// return maximum possible length of sequence

	push	ebp
	mov	ebp, esp
	sub	esp, 232				; 000000e8H
	push	ebx
	push	esi
	push	edi
	push	ecx
	lea	edi, DWORD PTR [ebp-232]
	mov	ecx, 58					; 0000003aH
	mov	eax, -858993460				; ccccccccH
	rep stosd
	pop	ecx
	mov	DWORD PTR _this$[ebp], ecx

; 1770 : 		const size_type _Num = this->_Getal().max_size();

	movzx	eax, BYTE PTR $T1[ebp]
	push	eax
	mov	ecx, DWORD PTR _this$[ebp]
	call	?_Getal@?$_String_alloc@U?$_String_base_types@DV?$allocator@D@std@@@std@@@std@@QBEABU?$_Wrap_alloc@V?$allocator@D@std@@@2@XZ ; std::_String_alloc<std::_String_base_types<char,std::allocator<char> > >::_Getal
	mov	ecx, eax
	call	?max_size@?$_Wrap_alloc@V?$allocator@D@std@@@std@@QBEIU_Nil@2@@Z ; std::_Wrap_alloc<std::allocator<char> >::max_size
	mov	DWORD PTR __Num$[ebp], eax

; 1771 : 		return (_Num <= 1 ? 1 : _Num - 1);

	cmp	DWORD PTR __Num$[ebp], 1
	ja	SHORT $LN3@max_size
	mov	DWORD PTR tv75[ebp], 1
	jmp	SHORT $LN4@max_size
$LN3@max_size:
	mov	eax, DWORD PTR __Num$[ebp]
	sub	eax, 1
	mov	DWORD PTR tv75[ebp], eax
$LN4@max_size:
	mov	eax, DWORD PTR tv75[ebp]

; 1772 : 		}

	pop	edi
	pop	esi
	pop	ebx
	add	esp, 232				; 000000e8H
	cmp	ebp, esp
	call	__RTC_CheckEsp
	mov	esp, ebp
	pop	ebp
	ret	0
?max_size@?$basic_string@DU?$char_traits@D@std@@V?$allocator@D@2@@std@@QBEIXZ ENDP ; std::basic_string<char,std::char_traits<char>,std::allocator<char> >::max_size
_TEXT	ENDS
; Function compile flags: /Odtp /RTCsu /ZI
; File c:\program files (x86)\microsoft visual studio 14.0\vc\include\xstring
;	COMDAT ?size@?$basic_string@DU?$char_traits@D@std@@V?$allocator@D@2@@std@@QBEIXZ
_TEXT	SEGMENT
_this$ = -8						; size = 4
?size@?$basic_string@DU?$char_traits@D@std@@V?$allocator@D@2@@std@@QBEIXZ PROC ; std::basic_string<char,std::char_traits<char>,std::allocator<char> >::size, COMDAT
; _this$ = ecx

; 1764 : 		{	// return length of sequence

	push	ebp
	mov	ebp, esp
	sub	esp, 204				; 000000ccH
	push	ebx
	push	esi
	push	edi
	push	ecx
	lea	edi, DWORD PTR [ebp-204]
	mov	ecx, 51					; 00000033H
	mov	eax, -858993460				; ccccccccH
	rep stosd
	pop	ecx
	mov	DWORD PTR _this$[ebp], ecx

; 1765 : 		return (this->_Mysize());

	mov	ecx, DWORD PTR _this$[ebp]
	call	?_Mysize@?$_String_alloc@U?$_String_base_types@DV?$allocator@D@std@@@std@@@std@@QBEABIXZ ; std::_String_alloc<std::_String_base_types<char,std::allocator<char> > >::_Mysize
	mov	eax, DWORD PTR [eax]

; 1766 : 		}

	pop	edi
	pop	esi
	pop	ebx
	add	esp, 204				; 000000ccH
	cmp	ebp, esp
	call	__RTC_CheckEsp
	mov	esp, ebp
	pop	ebp
	ret	0
?size@?$basic_string@DU?$char_traits@D@std@@V?$allocator@D@2@@std@@QBEIXZ ENDP ; std::basic_string<char,std::char_traits<char>,std::allocator<char> >::size
_TEXT	ENDS
; Function compile flags: /Odtp /RTCsu /ZI
; File c:\program files (x86)\microsoft visual studio 14.0\vc\include\xstring
;	COMDAT ?c_str@?$basic_string@DU?$char_traits@D@std@@V?$allocator@D@2@@std@@QBEPBDXZ
_TEXT	SEGMENT
_this$ = -20						; size = 4
__$EHRec$ = -12						; size = 12
?c_str@?$basic_string@DU?$char_traits@D@std@@V?$allocator@D@2@@std@@QBEPBDXZ PROC ; std::basic_string<char,std::char_traits<char>,std::allocator<char> >::c_str, COMDAT
; _this$ = ecx

; 1742 : 		{	// return pointer to null-terminated nonmutable array

	push	ebp
	mov	ebp, esp
	push	-1
	push	__ehhandler$?c_str@?$basic_string@DU?$char_traits@D@std@@V?$allocator@D@2@@std@@QBEPBDXZ
	mov	eax, DWORD PTR fs:0
	push	eax
	sub	esp, 204				; 000000ccH
	push	ebx
	push	esi
	push	edi
	push	ecx
	lea	edi, DWORD PTR [ebp-216]
	mov	ecx, 51					; 00000033H
	mov	eax, -858993460				; ccccccccH
	rep stosd
	pop	ecx
	mov	eax, DWORD PTR ___security_cookie
	xor	eax, ebp
	push	eax
	lea	eax, DWORD PTR __$EHRec$[ebp]
	mov	DWORD PTR fs:0, eax
	mov	DWORD PTR _this$[ebp], ecx

; 1743 : 		return (this->_Myptr());

	mov	ecx, DWORD PTR _this$[ebp]
	call	?_Myptr@?$_String_alloc@U?$_String_base_types@DV?$allocator@D@std@@@std@@@std@@QBEPBDXZ ; std::_String_alloc<std::_String_base_types<char,std::allocator<char> > >::_Myptr

; 1744 : 		}

	mov	ecx, DWORD PTR __$EHRec$[ebp]
	mov	DWORD PTR fs:0, ecx
	pop	ecx
	pop	edi
	pop	esi
	pop	ebx
	add	esp, 216				; 000000d8H
	cmp	ebp, esp
	call	__RTC_CheckEsp
	mov	esp, ebp
	pop	ebp
	ret	0
_TEXT	ENDS
;	COMDAT text$x
text$x	SEGMENT
__ehhandler$?c_str@?$basic_string@DU?$char_traits@D@std@@V?$allocator@D@2@@std@@QBEPBDXZ:
	mov	edx, DWORD PTR [esp+8]
	lea	eax, DWORD PTR [edx+12]
	mov	ecx, DWORD PTR [edx-220]
	xor	ecx, eax
	call	@__security_check_cookie@4
	mov	eax, OFFSET __ehfuncinfo$?c_str@?$basic_string@DU?$char_traits@D@std@@V?$allocator@D@2@@std@@QBEPBDXZ
	jmp	___CxxFrameHandler3
text$x	ENDS
?c_str@?$basic_string@DU?$char_traits@D@std@@V?$allocator@D@2@@std@@QBEPBDXZ ENDP ; std::basic_string<char,std::char_traits<char>,std::allocator<char> >::c_str
; Function compile flags: /Odtp /RTCsu /ZI
; File c:\program files (x86)\microsoft visual studio 14.0\vc\include\xstring
;	COMDAT ?end@?$basic_string@DU?$char_traits@D@std@@V?$allocator@D@2@@std@@QAE?AV?$_String_iterator@V?$_String_val@U?$_Simple_types@D@std@@@std@@@2@XZ
_TEXT	SEGMENT
__Mydata$ = -32						; size = 4
_this$ = -20						; size = 4
__$EHRec$ = -12						; size = 12
___$ReturnUdt$ = 8					; size = 4
?end@?$basic_string@DU?$char_traits@D@std@@V?$allocator@D@2@@std@@QAE?AV?$_String_iterator@V?$_String_val@U?$_Simple_types@D@std@@@std@@@2@XZ PROC ; std::basic_string<char,std::char_traits<char>,std::allocator<char> >::end, COMDAT
; _this$ = ecx

; 1606 : 		{	// return iterator for end of mutable sequence

	push	ebp
	mov	ebp, esp
	push	-1
	push	__ehhandler$?end@?$basic_string@DU?$char_traits@D@std@@V?$allocator@D@2@@std@@QAE?AV?$_String_iterator@V?$_String_val@U?$_Simple_types@D@std@@@std@@@2@XZ
	mov	eax, DWORD PTR fs:0
	push	eax
	sub	esp, 216				; 000000d8H
	push	ebx
	push	esi
	push	edi
	push	ecx
	lea	edi, DWORD PTR [ebp-228]
	mov	ecx, 54					; 00000036H
	mov	eax, -858993460				; ccccccccH
	rep stosd
	pop	ecx
	mov	eax, DWORD PTR ___security_cookie
	xor	eax, ebp
	push	eax
	lea	eax, DWORD PTR __$EHRec$[ebp]
	mov	DWORD PTR fs:0, eax
	mov	DWORD PTR _this$[ebp], ecx

; 1607 : 		auto _Mydata = &this->_Get_data();

	mov	ecx, DWORD PTR _this$[ebp]
	call	?_Get_data@?$_String_alloc@U?$_String_base_types@DV?$allocator@D@std@@@std@@@std@@QAEAAV?$_String_val@U?$_Simple_types@D@std@@@2@XZ ; std::_String_alloc<std::_String_base_types<char,std::allocator<char> > >::_Get_data
	mov	DWORD PTR __Mydata$[ebp], eax

; 1608 : 		return (iterator(this->_Getal().address(*_Mydata->_Myptr()) + _Mydata->_Mysize, _Mydata));

	mov	eax, DWORD PTR __Mydata$[ebp]
	push	eax
	mov	ecx, DWORD PTR __Mydata$[ebp]
	call	?_Myptr@?$_String_val@U?$_Simple_types@D@std@@@std@@QAEPADXZ ; std::_String_val<std::_Simple_types<char> >::_Myptr
	push	eax
	mov	ecx, DWORD PTR _this$[ebp]
	call	?_Getal@?$_String_alloc@U?$_String_base_types@DV?$allocator@D@std@@@std@@@std@@QAEAAU?$_Wrap_alloc@V?$allocator@D@std@@@2@XZ ; std::_String_alloc<std::_String_base_types<char,std::allocator<char> > >::_Getal
	mov	ecx, eax
	call	?address@?$_Wrap_alloc@V?$allocator@D@std@@@std@@QBEPADAAD@Z ; std::_Wrap_alloc<std::allocator<char> >::address
	mov	ecx, DWORD PTR __Mydata$[ebp]
	add	eax, DWORD PTR [ecx+20]
	push	eax
	mov	ecx, DWORD PTR ___$ReturnUdt$[ebp]
	call	??0?$_String_iterator@V?$_String_val@U?$_Simple_types@D@std@@@std@@@std@@QAE@PADPBU_Container_base12@1@@Z ; std::_String_iterator<std::_String_val<std::_Simple_types<char> > >::_String_iterator<std::_String_val<std::_Simple_types<char> > >
	mov	eax, DWORD PTR ___$ReturnUdt$[ebp]

; 1609 : 		}

	mov	ecx, DWORD PTR __$EHRec$[ebp]
	mov	DWORD PTR fs:0, ecx
	pop	ecx
	pop	edi
	pop	esi
	pop	ebx
	add	esp, 228				; 000000e4H
	cmp	ebp, esp
	call	__RTC_CheckEsp
	mov	esp, ebp
	pop	ebp
	ret	4
_TEXT	ENDS
;	COMDAT text$x
text$x	SEGMENT
__ehhandler$?end@?$basic_string@DU?$char_traits@D@std@@V?$allocator@D@2@@std@@QAE?AV?$_String_iterator@V?$_String_val@U?$_Simple_types@D@std@@@std@@@2@XZ:
	mov	edx, DWORD PTR [esp+8]
	lea	eax, DWORD PTR [edx+12]
	mov	ecx, DWORD PTR [edx-232]
	xor	ecx, eax
	call	@__security_check_cookie@4
	mov	eax, OFFSET __ehfuncinfo$?end@?$basic_string@DU?$char_traits@D@std@@V?$allocator@D@2@@std@@QAE?AV?$_String_iterator@V?$_String_val@U?$_Simple_types@D@std@@@std@@@2@XZ
	jmp	___CxxFrameHandler3
text$x	ENDS
?end@?$basic_string@DU?$char_traits@D@std@@V?$allocator@D@2@@std@@QAE?AV?$_String_iterator@V?$_String_val@U?$_Simple_types@D@std@@@std@@@2@XZ ENDP ; std::basic_string<char,std::char_traits<char>,std::allocator<char> >::end
; Function compile flags: /Odtp /RTCsu /ZI
; File c:\program files (x86)\microsoft visual studio 14.0\vc\include\xstring
;	COMDAT ?begin@?$basic_string@DU?$char_traits@D@std@@V?$allocator@D@2@@std@@QAE?AV?$_String_iterator@V?$_String_val@U?$_Simple_types@D@std@@@std@@@2@XZ
_TEXT	SEGMENT
__Mydata$ = -32						; size = 4
_this$ = -20						; size = 4
__$EHRec$ = -12						; size = 12
___$ReturnUdt$ = 8					; size = 4
?begin@?$basic_string@DU?$char_traits@D@std@@V?$allocator@D@2@@std@@QAE?AV?$_String_iterator@V?$_String_val@U?$_Simple_types@D@std@@@std@@@2@XZ PROC ; std::basic_string<char,std::char_traits<char>,std::allocator<char> >::begin, COMDAT
; _this$ = ecx

; 1594 : 		{	// return iterator for beginning of mutable sequence

	push	ebp
	mov	ebp, esp
	push	-1
	push	__ehhandler$?begin@?$basic_string@DU?$char_traits@D@std@@V?$allocator@D@2@@std@@QAE?AV?$_String_iterator@V?$_String_val@U?$_Simple_types@D@std@@@std@@@2@XZ
	mov	eax, DWORD PTR fs:0
	push	eax
	sub	esp, 216				; 000000d8H
	push	ebx
	push	esi
	push	edi
	push	ecx
	lea	edi, DWORD PTR [ebp-228]
	mov	ecx, 54					; 00000036H
	mov	eax, -858993460				; ccccccccH
	rep stosd
	pop	ecx
	mov	eax, DWORD PTR ___security_cookie
	xor	eax, ebp
	push	eax
	lea	eax, DWORD PTR __$EHRec$[ebp]
	mov	DWORD PTR fs:0, eax
	mov	DWORD PTR _this$[ebp], ecx

; 1595 : 		auto _Mydata = &this->_Get_data();

	mov	ecx, DWORD PTR _this$[ebp]
	call	?_Get_data@?$_String_alloc@U?$_String_base_types@DV?$allocator@D@std@@@std@@@std@@QAEAAV?$_String_val@U?$_Simple_types@D@std@@@2@XZ ; std::_String_alloc<std::_String_base_types<char,std::allocator<char> > >::_Get_data
	mov	DWORD PTR __Mydata$[ebp], eax

; 1596 : 		return (iterator(this->_Getal().address(*_Mydata->_Myptr()), _Mydata));

	mov	eax, DWORD PTR __Mydata$[ebp]
	push	eax
	mov	ecx, DWORD PTR __Mydata$[ebp]
	call	?_Myptr@?$_String_val@U?$_Simple_types@D@std@@@std@@QAEPADXZ ; std::_String_val<std::_Simple_types<char> >::_Myptr
	push	eax
	mov	ecx, DWORD PTR _this$[ebp]
	call	?_Getal@?$_String_alloc@U?$_String_base_types@DV?$allocator@D@std@@@std@@@std@@QAEAAU?$_Wrap_alloc@V?$allocator@D@std@@@2@XZ ; std::_String_alloc<std::_String_base_types<char,std::allocator<char> > >::_Getal
	mov	ecx, eax
	call	?address@?$_Wrap_alloc@V?$allocator@D@std@@@std@@QBEPADAAD@Z ; std::_Wrap_alloc<std::allocator<char> >::address
	push	eax
	mov	ecx, DWORD PTR ___$ReturnUdt$[ebp]
	call	??0?$_String_iterator@V?$_String_val@U?$_Simple_types@D@std@@@std@@@std@@QAE@PADPBU_Container_base12@1@@Z ; std::_String_iterator<std::_String_val<std::_Simple_types<char> > >::_String_iterator<std::_String_val<std::_Simple_types<char> > >
	mov	eax, DWORD PTR ___$ReturnUdt$[ebp]

; 1597 : 		}

	mov	ecx, DWORD PTR __$EHRec$[ebp]
	mov	DWORD PTR fs:0, ecx
	pop	ecx
	pop	edi
	pop	esi
	pop	ebx
	add	esp, 228				; 000000e4H
	cmp	ebp, esp
	call	__RTC_CheckEsp
	mov	esp, ebp
	pop	ebp
	ret	4
_TEXT	ENDS
;	COMDAT text$x
text$x	SEGMENT
__ehhandler$?begin@?$basic_string@DU?$char_traits@D@std@@V?$allocator@D@2@@std@@QAE?AV?$_String_iterator@V?$_String_val@U?$_Simple_types@D@std@@@std@@@2@XZ:
	mov	edx, DWORD PTR [esp+8]
	lea	eax, DWORD PTR [edx+12]
	mov	ecx, DWORD PTR [edx-232]
	xor	ecx, eax
	call	@__security_check_cookie@4
	mov	eax, OFFSET __ehfuncinfo$?begin@?$basic_string@DU?$char_traits@D@std@@V?$allocator@D@2@@std@@QAE?AV?$_String_iterator@V?$_String_val@U?$_Simple_types@D@std@@@std@@@2@XZ
	jmp	___CxxFrameHandler3
text$x	ENDS
?begin@?$basic_string@DU?$char_traits@D@std@@V?$allocator@D@2@@std@@QAE?AV?$_String_iterator@V?$_String_val@U?$_Simple_types@D@std@@@std@@@2@XZ ENDP ; std::basic_string<char,std::char_traits<char>,std::allocator<char> >::begin
; Function compile flags: /Odtp /RTCsu /ZI
; File c:\program files (x86)\microsoft visual studio 14.0\vc\include\xstring
;	COMDAT ?replace@?$basic_string@DU?$char_traits@D@std@@V?$allocator@D@2@@std@@QAEAAV12@V?$_String_const_iterator@V?$_String_val@U?$_Simple_types@D@std@@@std@@@2@0V?$_String_iterator@V?$_String_val@U?$_Simple_types@D@std@@@std@@@2@1@Z
_TEXT	SEGMENT
tv167 = -276						; size = 4
tv165 = -276						; size = 4
tv173 = -272						; size = 4
tv172 = -272						; size = 4
$T2 = -264						; size = 4
$T3 = -252						; size = 12
$T4 = -232						; size = 12
_this$ = -20						; size = 4
__$EHRec$ = -12						; size = 12
__First$ = 8						; size = 12
__Last$ = 20						; size = 12
__First2$ = 32						; size = 12
__Last2$ = 44						; size = 12
?replace@?$basic_string@DU?$char_traits@D@std@@V?$allocator@D@2@@std@@QAEAAV12@V?$_String_const_iterator@V?$_String_val@U?$_Simple_types@D@std@@@std@@@2@0V?$_String_iterator@V?$_String_val@U?$_Simple_types@D@std@@@std@@@2@1@Z PROC ; std::basic_string<char,std::char_traits<char>,std::allocator<char> >::replace, COMDAT
; _this$ = ecx

; 1584 : 		{	// replace [_First, _Last) with [_First2, _Last2), const_iterators

	push	ebp
	mov	ebp, esp
	push	-1
	push	__ehhandler$?replace@?$basic_string@DU?$char_traits@D@std@@V?$allocator@D@2@@std@@QAEAAV12@V?$_String_const_iterator@V?$_String_val@U?$_Simple_types@D@std@@@std@@@2@0V?$_String_iterator@V?$_String_val@U?$_Simple_types@D@std@@@std@@@2@1@Z
	mov	eax, DWORD PTR fs:0
	push	eax
	sub	esp, 264				; 00000108H
	push	ebx
	push	esi
	push	edi
	push	ecx
	lea	edi, DWORD PTR [ebp-276]
	mov	ecx, 66					; 00000042H
	mov	eax, -858993460				; ccccccccH
	rep stosd
	pop	ecx
	mov	eax, DWORD PTR ___security_cookie
	xor	eax, ebp
	push	eax
	lea	eax, DWORD PTR __$EHRec$[ebp]
	mov	DWORD PTR fs:0, eax
	mov	DWORD PTR _this$[ebp], ecx
	mov	DWORD PTR __$EHRec$[ebp+8], 3

; 1585 : 		if (_First2 == _Last2)

	lea	eax, DWORD PTR __Last2$[ebp]
	push	eax
	lea	ecx, DWORD PTR __First2$[ebp]
	call	??8?$_String_const_iterator@V?$_String_val@U?$_Simple_types@D@std@@@std@@@std@@QBE_NABV01@@Z ; std::_String_const_iterator<std::_String_val<std::_Simple_types<char> > >::operator==
	movzx	ecx, al
	test	ecx, ecx
	je	SHORT $LN2@replace

; 1586 : 			erase(_First - begin(), _Last - _First);

	lea	eax, DWORD PTR __First$[ebp]
	push	eax
	lea	ecx, DWORD PTR __Last$[ebp]
	call	??G?$_String_const_iterator@V?$_String_val@U?$_Simple_types@D@std@@@std@@@std@@QBEHABV01@@Z ; std::_String_const_iterator<std::_String_val<std::_Simple_types<char> > >::operator-
	push	eax
	lea	ecx, DWORD PTR $T4[ebp]
	push	ecx
	mov	ecx, DWORD PTR _this$[ebp]
	call	?begin@?$basic_string@DU?$char_traits@D@std@@V?$allocator@D@2@@std@@QAE?AV?$_String_iterator@V?$_String_val@U?$_Simple_types@D@std@@@std@@@2@XZ ; std::basic_string<char,std::char_traits<char>,std::allocator<char> >::begin
	mov	DWORD PTR tv172[ebp], eax
	mov	edx, DWORD PTR tv172[ebp]
	mov	DWORD PTR tv165[ebp], edx
	mov	BYTE PTR __$EHRec$[ebp+8], 4
	mov	eax, DWORD PTR tv165[ebp]
	push	eax
	lea	ecx, DWORD PTR __First$[ebp]
	call	??G?$_String_const_iterator@V?$_String_val@U?$_Simple_types@D@std@@@std@@@std@@QBEHABV01@@Z ; std::_String_const_iterator<std::_String_val<std::_Simple_types<char> > >::operator-
	push	eax
	mov	ecx, DWORD PTR _this$[ebp]
	call	?erase@?$basic_string@DU?$char_traits@D@std@@V?$allocator@D@2@@std@@QAEAAV12@II@Z ; std::basic_string<char,std::char_traits<char>,std::allocator<char> >::erase
	mov	BYTE PTR __$EHRec$[ebp+8], 3
	lea	ecx, DWORD PTR $T4[ebp]
	call	??1?$_String_iterator@V?$_String_val@U?$_Simple_types@D@std@@@std@@@std@@QAE@XZ

; 1587 : 		else

	jmp	SHORT $LN3@replace
$LN2@replace:

; 1588 : 			replace(_First - begin(), _Last - _First,

	lea	eax, DWORD PTR __First2$[ebp]
	push	eax
	lea	ecx, DWORD PTR __Last2$[ebp]
	call	??G?$_String_iterator@V?$_String_val@U?$_Simple_types@D@std@@@std@@@std@@QBEHABV?$_String_const_iterator@V?$_String_val@U?$_Simple_types@D@std@@@std@@@1@@Z ; std::_String_iterator<std::_String_val<std::_Simple_types<char> > >::operator-
	push	eax
	lea	ecx, DWORD PTR __First2$[ebp]
	call	??D?$_String_iterator@V?$_String_val@U?$_Simple_types@D@std@@@std@@@std@@QBEAADXZ ; std::_String_iterator<std::_String_val<std::_Simple_types<char> > >::operator*
	push	eax
	lea	ecx, DWORD PTR __First$[ebp]
	push	ecx
	lea	ecx, DWORD PTR __Last$[ebp]
	call	??G?$_String_const_iterator@V?$_String_val@U?$_Simple_types@D@std@@@std@@@std@@QBEHABV01@@Z ; std::_String_const_iterator<std::_String_val<std::_Simple_types<char> > >::operator-
	push	eax
	lea	edx, DWORD PTR $T3[ebp]
	push	edx
	mov	ecx, DWORD PTR _this$[ebp]
	call	?begin@?$basic_string@DU?$char_traits@D@std@@V?$allocator@D@2@@std@@QAE?AV?$_String_iterator@V?$_String_val@U?$_Simple_types@D@std@@@std@@@2@XZ ; std::basic_string<char,std::char_traits<char>,std::allocator<char> >::begin
	mov	DWORD PTR tv173[ebp], eax
	mov	eax, DWORD PTR tv173[ebp]
	mov	DWORD PTR tv167[ebp], eax
	mov	BYTE PTR __$EHRec$[ebp+8], 5
	mov	ecx, DWORD PTR tv167[ebp]
	push	ecx
	lea	ecx, DWORD PTR __First$[ebp]
	call	??G?$_String_const_iterator@V?$_String_val@U?$_Simple_types@D@std@@@std@@@std@@QBEHABV01@@Z ; std::_String_const_iterator<std::_String_val<std::_Simple_types<char> > >::operator-
	push	eax
	mov	ecx, DWORD PTR _this$[ebp]
	call	?replace@?$basic_string@DU?$char_traits@D@std@@V?$allocator@D@2@@std@@QAEAAV12@IIPBDI@Z ; std::basic_string<char,std::char_traits<char>,std::allocator<char> >::replace
	mov	BYTE PTR __$EHRec$[ebp+8], 3
	lea	ecx, DWORD PTR $T3[ebp]
	call	??1?$_String_iterator@V?$_String_val@U?$_Simple_types@D@std@@@std@@@std@@QAE@XZ
$LN3@replace:

; 1589 : 				&*_First2, _Last2 - _First2);
; 1590 : 		return (*this);

	mov	eax, DWORD PTR _this$[ebp]
	mov	DWORD PTR $T2[ebp], eax
	mov	BYTE PTR __$EHRec$[ebp+8], 2
	lea	ecx, DWORD PTR __First$[ebp]
	call	??1?$_String_const_iterator@V?$_String_val@U?$_Simple_types@D@std@@@std@@@std@@QAE@XZ
	mov	BYTE PTR __$EHRec$[ebp+8], 1
	lea	ecx, DWORD PTR __Last$[ebp]
	call	??1?$_String_const_iterator@V?$_String_val@U?$_Simple_types@D@std@@@std@@@std@@QAE@XZ
	mov	BYTE PTR __$EHRec$[ebp+8], 0
	lea	ecx, DWORD PTR __First2$[ebp]
	call	??1?$_String_iterator@V?$_String_val@U?$_Simple_types@D@std@@@std@@@std@@QAE@XZ
	mov	DWORD PTR __$EHRec$[ebp+8], -1
	lea	ecx, DWORD PTR __Last2$[ebp]
	call	??1?$_String_iterator@V?$_String_val@U?$_Simple_types@D@std@@@std@@@std@@QAE@XZ
	mov	eax, DWORD PTR $T2[ebp]

; 1591 : 		}

	mov	ecx, DWORD PTR __$EHRec$[ebp]
	mov	DWORD PTR fs:0, ecx
	pop	ecx
	pop	edi
	pop	esi
	pop	ebx
	add	esp, 276				; 00000114H
	cmp	ebp, esp
	call	__RTC_CheckEsp
	mov	esp, ebp
	pop	ebp
	ret	48					; 00000030H
_TEXT	ENDS
;	COMDAT text$x
text$x	SEGMENT
__unwindfunclet$?replace@?$basic_string@DU?$char_traits@D@std@@V?$allocator@D@2@@std@@QAEAAV12@V?$_String_const_iterator@V?$_String_val@U?$_Simple_types@D@std@@@std@@@2@0V?$_String_iterator@V?$_String_val@U?$_Simple_types@D@std@@@std@@@2@1@Z$0:
	lea	ecx, DWORD PTR __Last2$[ebp]
	jmp	??1?$_String_iterator@V?$_String_val@U?$_Simple_types@D@std@@@std@@@std@@QAE@XZ
__unwindfunclet$?replace@?$basic_string@DU?$char_traits@D@std@@V?$allocator@D@2@@std@@QAEAAV12@V?$_String_const_iterator@V?$_String_val@U?$_Simple_types@D@std@@@std@@@2@0V?$_String_iterator@V?$_String_val@U?$_Simple_types@D@std@@@std@@@2@1@Z$1:
	lea	ecx, DWORD PTR __First2$[ebp]
	jmp	??1?$_String_iterator@V?$_String_val@U?$_Simple_types@D@std@@@std@@@std@@QAE@XZ
__unwindfunclet$?replace@?$basic_string@DU?$char_traits@D@std@@V?$allocator@D@2@@std@@QAEAAV12@V?$_String_const_iterator@V?$_String_val@U?$_Simple_types@D@std@@@std@@@2@0V?$_String_iterator@V?$_String_val@U?$_Simple_types@D@std@@@std@@@2@1@Z$2:
	lea	ecx, DWORD PTR __Last$[ebp]
	jmp	??1?$_String_const_iterator@V?$_String_val@U?$_Simple_types@D@std@@@std@@@std@@QAE@XZ
__unwindfunclet$?replace@?$basic_string@DU?$char_traits@D@std@@V?$allocator@D@2@@std@@QAEAAV12@V?$_String_const_iterator@V?$_String_val@U?$_Simple_types@D@std@@@std@@@2@0V?$_String_iterator@V?$_String_val@U?$_Simple_types@D@std@@@std@@@2@1@Z$3:
	lea	ecx, DWORD PTR __First$[ebp]
	jmp	??1?$_String_const_iterator@V?$_String_val@U?$_Simple_types@D@std@@@std@@@std@@QAE@XZ
__unwindfunclet$?replace@?$basic_string@DU?$char_traits@D@std@@V?$allocator@D@2@@std@@QAEAAV12@V?$_String_const_iterator@V?$_String_val@U?$_Simple_types@D@std@@@std@@@2@0V?$_String_iterator@V?$_String_val@U?$_Simple_types@D@std@@@std@@@2@1@Z$4:
	lea	ecx, DWORD PTR $T4[ebp]
	jmp	??1?$_String_iterator@V?$_String_val@U?$_Simple_types@D@std@@@std@@@std@@QAE@XZ
__unwindfunclet$?replace@?$basic_string@DU?$char_traits@D@std@@V?$allocator@D@2@@std@@QAEAAV12@V?$_String_const_iterator@V?$_String_val@U?$_Simple_types@D@std@@@std@@@2@0V?$_String_iterator@V?$_String_val@U?$_Simple_types@D@std@@@std@@@2@1@Z$5:
	lea	ecx, DWORD PTR $T3[ebp]
	jmp	??1?$_String_iterator@V?$_String_val@U?$_Simple_types@D@std@@@std@@@std@@QAE@XZ
__ehhandler$?replace@?$basic_string@DU?$char_traits@D@std@@V?$allocator@D@2@@std@@QAEAAV12@V?$_String_const_iterator@V?$_String_val@U?$_Simple_types@D@std@@@std@@@2@0V?$_String_iterator@V?$_String_val@U?$_Simple_types@D@std@@@std@@@2@1@Z:
	mov	edx, DWORD PTR [esp+8]
	lea	eax, DWORD PTR [edx+12]
	mov	ecx, DWORD PTR [edx-280]
	xor	ecx, eax
	call	@__security_check_cookie@4
	mov	eax, OFFSET __ehfuncinfo$?replace@?$basic_string@DU?$char_traits@D@std@@V?$allocator@D@2@@std@@QAEAAV12@V?$_String_const_iterator@V?$_String_val@U?$_Simple_types@D@std@@@std@@@2@0V?$_String_iterator@V?$_String_val@U?$_Simple_types@D@std@@@std@@@2@1@Z
	jmp	___CxxFrameHandler3
text$x	ENDS
?replace@?$basic_string@DU?$char_traits@D@std@@V?$allocator@D@2@@std@@QAEAAV12@V?$_String_const_iterator@V?$_String_val@U?$_Simple_types@D@std@@@std@@@2@0V?$_String_iterator@V?$_String_val@U?$_Simple_types@D@std@@@std@@@2@1@Z ENDP ; std::basic_string<char,std::char_traits<char>,std::allocator<char> >::replace
; Function compile flags: /Odtp /RTCsu /ZI
; File c:\program files (x86)\microsoft visual studio 14.0\vc\include\xstring
;	COMDAT ?replace@?$basic_string@DU?$char_traits@D@std@@V?$allocator@D@2@@std@@QAEAAV12@IIPBDI@Z
_TEXT	SEGMENT
tv68 = -229						; size = 1
__Num$ = -32						; size = 4
__Nm$ = -20						; size = 4
_this$ = -8						; size = 4
__Off$ = 8						; size = 4
__N0$ = 12						; size = 4
__Ptr$ = 16						; size = 4
__Count$ = 20						; size = 4
?replace@?$basic_string@DU?$char_traits@D@std@@V?$allocator@D@2@@std@@QAEAAV12@IIPBDI@Z PROC ; std::basic_string<char,std::char_traits<char>,std::allocator<char> >::replace, COMDAT
; _this$ = ecx

; 1453 : 		{	// replace [_Off, _Off + _N0) with [_Ptr, _Ptr + _Count)

	push	ebp
	mov	ebp, esp
	sub	esp, 232				; 000000e8H
	push	ebx
	push	esi
	push	edi
	push	ecx
	lea	edi, DWORD PTR [ebp-232]
	mov	ecx, 58					; 0000003aH
	mov	eax, -858993460				; ccccccccH
	rep stosd
	pop	ecx
	mov	DWORD PTR _this$[ebp], ecx

; 1454 : 		_DEBUG_POINTER_IF(_Count != 0, _Ptr);

	cmp	DWORD PTR __Count$[ebp], 0
	je	SHORT $LN9@replace
	mov	BYTE PTR tv68[ebp], 1
	jmp	SHORT $LN10@replace
$LN9@replace:
	mov	BYTE PTR tv68[ebp], 0
$LN10@replace:
	push	1454					; 000005aeH
	push	OFFSET ??_C@_1IO@EADHKMNI@?$AAc?$AA?3?$AA?2?$AAp?$AAr?$AAo?$AAg?$AAr?$AAa?$AAm?$AA?5?$AAf?$AAi?$AAl?$AAe?$AAs?$AA?5?$AA?$CI?$AAx?$AA8?$AA6?$AA?$CJ?$AA?2?$AAm?$AAi?$AAc?$AAr?$AAo?$AAs?$AAo?$AAf?$AAt@
	mov	eax, DWORD PTR __Ptr$[ebp]
	push	eax
	movzx	ecx, BYTE PTR tv68[ebp]
	push	ecx
	call	??$_Debug_pointer_if@$$CBD@std@@YAX_NPBDPB_WI@Z ; std::_Debug_pointer_if<char const >
	add	esp, 16					; 00000010H

; 1455 : 		if (_Inside(_Ptr))

	mov	eax, DWORD PTR __Ptr$[ebp]
	push	eax
	mov	ecx, DWORD PTR _this$[ebp]
	call	?_Inside@?$basic_string@DU?$char_traits@D@std@@V?$allocator@D@2@@std@@QAE_NPBD@Z ; std::basic_string<char,std::char_traits<char>,std::allocator<char> >::_Inside
	movzx	ecx, al
	test	ecx, ecx
	je	SHORT $LN2@replace

; 1456 : 			return (replace(_Off, _N0, *this,

	mov	eax, DWORD PTR __Count$[ebp]
	push	eax
	mov	ecx, DWORD PTR _this$[ebp]
	call	?_Myptr@?$_String_alloc@U?$_String_base_types@DV?$allocator@D@std@@@std@@@std@@QAEPADXZ ; std::_String_alloc<std::_String_base_types<char,std::allocator<char> > >::_Myptr
	mov	ecx, DWORD PTR __Ptr$[ebp]
	sub	ecx, eax
	push	ecx
	mov	edx, DWORD PTR _this$[ebp]
	push	edx
	mov	eax, DWORD PTR __N0$[ebp]
	push	eax
	mov	ecx, DWORD PTR __Off$[ebp]
	push	ecx
	mov	ecx, DWORD PTR _this$[ebp]
	call	?replace@?$basic_string@DU?$char_traits@D@std@@V?$allocator@D@2@@std@@QAEAAV12@IIABV12@II@Z ; std::basic_string<char,std::char_traits<char>,std::allocator<char> >::replace
	jmp	$LN8@replace
$LN2@replace:

; 1457 : 				_Ptr - this->_Myptr(),
; 1458 : 				_Count));	// substring, replace carefully
; 1459 : 		_Check_offset(_Off);

	mov	eax, DWORD PTR __Off$[ebp]
	push	eax
	mov	ecx, DWORD PTR _this$[ebp]
	call	?_Check_offset@?$basic_string@DU?$char_traits@D@std@@V?$allocator@D@2@@std@@QBEXI@Z ; std::basic_string<char,std::char_traits<char>,std::allocator<char> >::_Check_offset

; 1460 : 		_N0 = _Clamp_suffix_size(_Off, _N0);

	mov	eax, DWORD PTR __N0$[ebp]
	push	eax
	mov	ecx, DWORD PTR __Off$[ebp]
	push	ecx
	mov	ecx, DWORD PTR _this$[ebp]
	call	?_Clamp_suffix_size@?$basic_string@DU?$char_traits@D@std@@V?$allocator@D@2@@std@@QBEIII@Z ; std::basic_string<char,std::char_traits<char>,std::allocator<char> >::_Clamp_suffix_size
	mov	DWORD PTR __N0$[ebp], eax

; 1461 : 		if (npos - _Count <= this->_Mysize() - _N0)

	or	esi, -1
	sub	esi, DWORD PTR __Count$[ebp]
	mov	ecx, DWORD PTR _this$[ebp]
	call	?_Mysize@?$_String_alloc@U?$_String_base_types@DV?$allocator@D@std@@@std@@@std@@QAEAAIXZ ; std::_String_alloc<std::_String_base_types<char,std::allocator<char> > >::_Mysize
	mov	eax, DWORD PTR [eax]
	sub	eax, DWORD PTR __N0$[ebp]
	cmp	esi, eax
	ja	SHORT $LN3@replace

; 1462 : 			_Xlen();	// result too long

	mov	ecx, DWORD PTR _this$[ebp]
	call	?_Xlen@?$basic_string@DU?$char_traits@D@std@@V?$allocator@D@2@@std@@QBEXXZ ; std::basic_string<char,std::char_traits<char>,std::allocator<char> >::_Xlen
$LN3@replace:

; 1463 : 		size_type _Nm = this->_Mysize() - _N0 - _Off;

	mov	ecx, DWORD PTR _this$[ebp]
	call	?_Mysize@?$_String_alloc@U?$_String_base_types@DV?$allocator@D@std@@@std@@@std@@QAEAAIXZ ; std::_String_alloc<std::_String_base_types<char,std::allocator<char> > >::_Mysize
	mov	eax, DWORD PTR [eax]
	sub	eax, DWORD PTR __N0$[ebp]
	sub	eax, DWORD PTR __Off$[ebp]
	mov	DWORD PTR __Nm$[ebp], eax

; 1464 : 
; 1465 : 		if (_Count < _N0)

	mov	eax, DWORD PTR __Count$[ebp]
	cmp	eax, DWORD PTR __N0$[ebp]
	jae	SHORT $LN4@replace

; 1466 : 			_Traits::move(this->_Myptr() + _Off + _Count,

	mov	eax, DWORD PTR __Nm$[ebp]
	push	eax
	mov	ecx, DWORD PTR _this$[ebp]
	call	?_Myptr@?$_String_alloc@U?$_String_base_types@DV?$allocator@D@std@@@std@@@std@@QAEPADXZ ; std::_String_alloc<std::_String_base_types<char,std::allocator<char> > >::_Myptr
	add	eax, DWORD PTR __Off$[ebp]
	add	eax, DWORD PTR __N0$[ebp]
	push	eax
	mov	ecx, DWORD PTR _this$[ebp]
	call	?_Myptr@?$_String_alloc@U?$_String_base_types@DV?$allocator@D@std@@@std@@@std@@QAEPADXZ ; std::_String_alloc<std::_String_base_types<char,std::allocator<char> > >::_Myptr
	add	eax, DWORD PTR __Off$[ebp]
	add	eax, DWORD PTR __Count$[ebp]
	push	eax
	call	?move@?$char_traits@D@std@@SAPADPADPBDI@Z ; std::char_traits<char>::move
	add	esp, 12					; 0000000cH
$LN4@replace:

; 1467 : 				this->_Myptr() + _Off + _N0,
; 1468 : 				_Nm);	// smaller hole, move tail up
; 1469 : 		const size_type _Num = this->_Mysize() + _Count - _N0;

	mov	ecx, DWORD PTR _this$[ebp]
	call	?_Mysize@?$_String_alloc@U?$_String_base_types@DV?$allocator@D@std@@@std@@@std@@QAEAAIXZ ; std::_String_alloc<std::_String_base_types<char,std::allocator<char> > >::_Mysize
	mov	eax, DWORD PTR [eax]
	add	eax, DWORD PTR __Count$[ebp]
	sub	eax, DWORD PTR __N0$[ebp]
	mov	DWORD PTR __Num$[ebp], eax

; 1470 : 		if ((0 < _Count || 0 < _N0)
; 1471 : 			&& _Grow(_Num))

	cmp	DWORD PTR __Count$[ebp], 0
	ja	SHORT $LN6@replace
	cmp	DWORD PTR __N0$[ebp], 0
	jbe	SHORT $LN5@replace
$LN6@replace:
	push	0
	mov	eax, DWORD PTR __Num$[ebp]
	push	eax
	mov	ecx, DWORD PTR _this$[ebp]
	call	?_Grow@?$basic_string@DU?$char_traits@D@std@@V?$allocator@D@2@@std@@QAE_NI_N@Z ; std::basic_string<char,std::char_traits<char>,std::allocator<char> >::_Grow
	movzx	ecx, al
	test	ecx, ecx
	je	SHORT $LN5@replace

; 1472 : 			{	// make room and rearrange
; 1473 : 			if (_N0 < _Count)

	mov	eax, DWORD PTR __N0$[ebp]
	cmp	eax, DWORD PTR __Count$[ebp]
	jae	SHORT $LN7@replace

; 1474 : 				_Traits::move(this->_Myptr() + _Off + _Count,

	mov	eax, DWORD PTR __Nm$[ebp]
	push	eax
	mov	ecx, DWORD PTR _this$[ebp]
	call	?_Myptr@?$_String_alloc@U?$_String_base_types@DV?$allocator@D@std@@@std@@@std@@QAEPADXZ ; std::_String_alloc<std::_String_base_types<char,std::allocator<char> > >::_Myptr
	add	eax, DWORD PTR __Off$[ebp]
	add	eax, DWORD PTR __N0$[ebp]
	push	eax
	mov	ecx, DWORD PTR _this$[ebp]
	call	?_Myptr@?$_String_alloc@U?$_String_base_types@DV?$allocator@D@std@@@std@@@std@@QAEPADXZ ; std::_String_alloc<std::_String_base_types<char,std::allocator<char> > >::_Myptr
	add	eax, DWORD PTR __Off$[ebp]
	add	eax, DWORD PTR __Count$[ebp]
	push	eax
	call	?move@?$char_traits@D@std@@SAPADPADPBDI@Z ; std::char_traits<char>::move
	add	esp, 12					; 0000000cH
$LN7@replace:

; 1475 : 					this->_Myptr() + _Off + _N0, _Nm);	// move tail down
; 1476 : 			_Traits::copy(this->_Myptr() + _Off, _Ptr, _Count);	// fill hole

	mov	eax, DWORD PTR __Count$[ebp]
	push	eax
	mov	ecx, DWORD PTR __Ptr$[ebp]
	push	ecx
	mov	ecx, DWORD PTR _this$[ebp]
	call	?_Myptr@?$_String_alloc@U?$_String_base_types@DV?$allocator@D@std@@@std@@@std@@QAEPADXZ ; std::_String_alloc<std::_String_base_types<char,std::allocator<char> > >::_Myptr
	add	eax, DWORD PTR __Off$[ebp]
	push	eax
	call	?copy@?$char_traits@D@std@@SAPADPADPBDI@Z ; std::char_traits<char>::copy
	add	esp, 12					; 0000000cH

; 1477 : 			_Eos(_Num);

	mov	eax, DWORD PTR __Num$[ebp]
	push	eax
	mov	ecx, DWORD PTR _this$[ebp]
	call	?_Eos@?$basic_string@DU?$char_traits@D@std@@V?$allocator@D@2@@std@@QAEXI@Z ; std::basic_string<char,std::char_traits<char>,std::allocator<char> >::_Eos
$LN5@replace:

; 1478 : 			}
; 1479 : 		return (*this);

	mov	eax, DWORD PTR _this$[ebp]
$LN8@replace:

; 1480 : 		}

	pop	edi
	pop	esi
	pop	ebx
	add	esp, 232				; 000000e8H
	cmp	ebp, esp
	call	__RTC_CheckEsp
	mov	esp, ebp
	pop	ebp
	ret	16					; 00000010H
?replace@?$basic_string@DU?$char_traits@D@std@@V?$allocator@D@2@@std@@QAEAAV12@IIPBDI@Z ENDP ; std::basic_string<char,std::char_traits<char>,std::allocator<char> >::replace
_TEXT	ENDS
; Function compile flags: /Odtp /RTCsu /ZI
; File c:\program files (x86)\microsoft visual studio 14.0\vc\include\xstring
;	COMDAT ?replace@?$basic_string@DU?$char_traits@D@std@@V?$allocator@D@2@@std@@QAEAAV12@IIABV12@II@Z
_TEXT	SEGMENT
__Newsize$ = -32					; size = 4
__Nm$ = -20						; size = 4
_this$ = -8						; size = 4
__Off$ = 8						; size = 4
__N0$ = 12						; size = 4
__Right$ = 16						; size = 4
__Roff$ = 20						; size = 4
__Count$ = 24						; size = 4
?replace@?$basic_string@DU?$char_traits@D@std@@V?$allocator@D@2@@std@@QAEAAV12@IIABV12@II@Z PROC ; std::basic_string<char,std::char_traits<char>,std::allocator<char> >::replace, COMDAT
; _this$ = ecx

; 1389 : 		{	// replace [_Off, _Off + _N0) with _Right [_Roff, _Roff + _Count)

	push	ebp
	mov	ebp, esp
	sub	esp, 228				; 000000e4H
	push	ebx
	push	esi
	push	edi
	push	ecx
	lea	edi, DWORD PTR [ebp-228]
	mov	ecx, 57					; 00000039H
	mov	eax, -858993460				; ccccccccH
	rep stosd
	pop	ecx
	mov	DWORD PTR _this$[ebp], ecx

; 1390 : 		_Check_offset(_Off);

	mov	eax, DWORD PTR __Off$[ebp]
	push	eax
	mov	ecx, DWORD PTR _this$[ebp]
	call	?_Check_offset@?$basic_string@DU?$char_traits@D@std@@V?$allocator@D@2@@std@@QBEXI@Z ; std::basic_string<char,std::char_traits<char>,std::allocator<char> >::_Check_offset

; 1391 : 		_Right._Check_offset(_Roff);

	mov	eax, DWORD PTR __Roff$[ebp]
	push	eax
	mov	ecx, DWORD PTR __Right$[ebp]
	call	?_Check_offset@?$basic_string@DU?$char_traits@D@std@@V?$allocator@D@2@@std@@QBEXI@Z ; std::basic_string<char,std::char_traits<char>,std::allocator<char> >::_Check_offset

; 1392 : 		_N0 = _Clamp_suffix_size(_Off, _N0);

	mov	eax, DWORD PTR __N0$[ebp]
	push	eax
	mov	ecx, DWORD PTR __Off$[ebp]
	push	ecx
	mov	ecx, DWORD PTR _this$[ebp]
	call	?_Clamp_suffix_size@?$basic_string@DU?$char_traits@D@std@@V?$allocator@D@2@@std@@QBEIII@Z ; std::basic_string<char,std::char_traits<char>,std::allocator<char> >::_Clamp_suffix_size
	mov	DWORD PTR __N0$[ebp], eax

; 1393 : 		_Count = _Right._Clamp_suffix_size(_Roff, _Count);

	mov	eax, DWORD PTR __Count$[ebp]
	push	eax
	mov	ecx, DWORD PTR __Roff$[ebp]
	push	ecx
	mov	ecx, DWORD PTR __Right$[ebp]
	call	?_Clamp_suffix_size@?$basic_string@DU?$char_traits@D@std@@V?$allocator@D@2@@std@@QBEIII@Z ; std::basic_string<char,std::char_traits<char>,std::allocator<char> >::_Clamp_suffix_size
	mov	DWORD PTR __Count$[ebp], eax

; 1394 : 		if (npos - _Count <= this->_Mysize() - _N0)

	or	esi, -1
	sub	esi, DWORD PTR __Count$[ebp]
	mov	ecx, DWORD PTR _this$[ebp]
	call	?_Mysize@?$_String_alloc@U?$_String_base_types@DV?$allocator@D@std@@@std@@@std@@QAEAAIXZ ; std::_String_alloc<std::_String_base_types<char,std::allocator<char> > >::_Mysize
	mov	eax, DWORD PTR [eax]
	sub	eax, DWORD PTR __N0$[ebp]
	cmp	esi, eax
	ja	SHORT $LN2@replace

; 1395 : 			_Xlen();	// result too long

	mov	ecx, DWORD PTR _this$[ebp]
	call	?_Xlen@?$basic_string@DU?$char_traits@D@std@@V?$allocator@D@2@@std@@QBEXXZ ; std::basic_string<char,std::char_traits<char>,std::allocator<char> >::_Xlen
$LN2@replace:

; 1396 : 
; 1397 : 		const size_type _Nm = this->_Mysize() - _N0 - _Off;	// length of kept tail

	mov	ecx, DWORD PTR _this$[ebp]
	call	?_Mysize@?$_String_alloc@U?$_String_base_types@DV?$allocator@D@std@@@std@@@std@@QAEAAIXZ ; std::_String_alloc<std::_String_base_types<char,std::allocator<char> > >::_Mysize
	mov	eax, DWORD PTR [eax]
	sub	eax, DWORD PTR __N0$[ebp]
	sub	eax, DWORD PTR __Off$[ebp]
	mov	DWORD PTR __Nm$[ebp], eax

; 1398 : 		const size_type _Newsize = this->_Mysize() + _Count - _N0;

	mov	ecx, DWORD PTR _this$[ebp]
	call	?_Mysize@?$_String_alloc@U?$_String_base_types@DV?$allocator@D@std@@@std@@@std@@QAEAAIXZ ; std::_String_alloc<std::_String_base_types<char,std::allocator<char> > >::_Mysize
	mov	eax, DWORD PTR [eax]
	add	eax, DWORD PTR __Count$[ebp]
	sub	eax, DWORD PTR __N0$[ebp]
	mov	DWORD PTR __Newsize$[ebp], eax

; 1399 : 		if (this->_Mysize() < _Newsize)

	mov	ecx, DWORD PTR _this$[ebp]
	call	?_Mysize@?$_String_alloc@U?$_String_base_types@DV?$allocator@D@std@@@std@@@std@@QAEAAIXZ ; std::_String_alloc<std::_String_base_types<char,std::allocator<char> > >::_Mysize
	mov	eax, DWORD PTR [eax]
	cmp	eax, DWORD PTR __Newsize$[ebp]
	jae	SHORT $LN3@replace

; 1400 : 			_Grow(_Newsize);

	push	0
	mov	eax, DWORD PTR __Newsize$[ebp]
	push	eax
	mov	ecx, DWORD PTR _this$[ebp]
	call	?_Grow@?$basic_string@DU?$char_traits@D@std@@V?$allocator@D@2@@std@@QAE_NI_N@Z ; std::basic_string<char,std::char_traits<char>,std::allocator<char> >::_Grow
$LN3@replace:

; 1401 : 
; 1402 : 		if (_Count == _N0)

	mov	eax, DWORD PTR __Count$[ebp]
	cmp	eax, DWORD PTR __N0$[ebp]
	jne	SHORT $LN4@replace

; 1403 : 			{	// only one movement required, so _Traits::move handles any overlap
; 1404 : 			_Traits::move(this->_Myptr() + _Off,

	mov	eax, DWORD PTR __Count$[ebp]
	push	eax
	mov	ecx, DWORD PTR __Right$[ebp]
	call	?_Myptr@?$_String_alloc@U?$_String_base_types@DV?$allocator@D@std@@@std@@@std@@QBEPBDXZ ; std::_String_alloc<std::_String_base_types<char,std::allocator<char> > >::_Myptr
	add	eax, DWORD PTR __Roff$[ebp]
	push	eax
	mov	ecx, DWORD PTR _this$[ebp]
	call	?_Myptr@?$_String_alloc@U?$_String_base_types@DV?$allocator@D@std@@@std@@@std@@QAEPADXZ ; std::_String_alloc<std::_String_base_types<char,std::allocator<char> > >::_Myptr
	add	eax, DWORD PTR __Off$[ebp]
	push	eax
	call	?move@?$char_traits@D@std@@SAPADPADPBDI@Z ; std::char_traits<char>::move
	add	esp, 12					; 0000000cH
	jmp	$LN5@replace
$LN4@replace:

; 1405 : 				_Right._Myptr() + _Roff, _Count);	// fill hole
; 1406 : 			}
; 1407 : 		else if (this != &_Right)

	mov	eax, DWORD PTR _this$[ebp]
	cmp	eax, DWORD PTR __Right$[ebp]
	je	SHORT $LN6@replace

; 1408 : 			{	// no overlap, just move down and copy in new stuff
; 1409 : 			_Traits::move(this->_Myptr() + _Off + _Count,

	mov	eax, DWORD PTR __Nm$[ebp]
	push	eax
	mov	ecx, DWORD PTR _this$[ebp]
	call	?_Myptr@?$_String_alloc@U?$_String_base_types@DV?$allocator@D@std@@@std@@@std@@QAEPADXZ ; std::_String_alloc<std::_String_base_types<char,std::allocator<char> > >::_Myptr
	add	eax, DWORD PTR __Off$[ebp]
	add	eax, DWORD PTR __N0$[ebp]
	push	eax
	mov	ecx, DWORD PTR _this$[ebp]
	call	?_Myptr@?$_String_alloc@U?$_String_base_types@DV?$allocator@D@std@@@std@@@std@@QAEPADXZ ; std::_String_alloc<std::_String_base_types<char,std::allocator<char> > >::_Myptr
	add	eax, DWORD PTR __Off$[ebp]
	add	eax, DWORD PTR __Count$[ebp]
	push	eax
	call	?move@?$char_traits@D@std@@SAPADPADPBDI@Z ; std::char_traits<char>::move
	add	esp, 12					; 0000000cH

; 1410 : 				this->_Myptr() + _Off + _N0, _Nm);	// empty hole
; 1411 : 			_Traits::copy(this->_Myptr() + _Off,

	mov	eax, DWORD PTR __Count$[ebp]
	push	eax
	mov	ecx, DWORD PTR __Right$[ebp]
	call	?_Myptr@?$_String_alloc@U?$_String_base_types@DV?$allocator@D@std@@@std@@@std@@QBEPBDXZ ; std::_String_alloc<std::_String_base_types<char,std::allocator<char> > >::_Myptr
	add	eax, DWORD PTR __Roff$[ebp]
	push	eax
	mov	ecx, DWORD PTR _this$[ebp]
	call	?_Myptr@?$_String_alloc@U?$_String_base_types@DV?$allocator@D@std@@@std@@@std@@QAEPADXZ ; std::_String_alloc<std::_String_base_types<char,std::allocator<char> > >::_Myptr
	add	eax, DWORD PTR __Off$[ebp]
	push	eax
	call	?copy@?$char_traits@D@std@@SAPADPADPBDI@Z ; std::char_traits<char>::copy
	add	esp, 12					; 0000000cH
	jmp	$LN5@replace
$LN6@replace:

; 1412 : 				_Right._Myptr() + _Roff, _Count);	// fill hole
; 1413 : 			}
; 1414 : 		else if (_Count < _N0)

	mov	eax, DWORD PTR __Count$[ebp]
	cmp	eax, DWORD PTR __N0$[ebp]
	jae	SHORT $LN8@replace

; 1415 : 			{	// hole doesn't get larger, just copy in substring
; 1416 : 			_Traits::move(this->_Myptr() + _Off,

	mov	eax, DWORD PTR __Count$[ebp]
	push	eax
	mov	ecx, DWORD PTR _this$[ebp]
	call	?_Myptr@?$_String_alloc@U?$_String_base_types@DV?$allocator@D@std@@@std@@@std@@QAEPADXZ ; std::_String_alloc<std::_String_base_types<char,std::allocator<char> > >::_Myptr
	add	eax, DWORD PTR __Roff$[ebp]
	push	eax
	mov	ecx, DWORD PTR _this$[ebp]
	call	?_Myptr@?$_String_alloc@U?$_String_base_types@DV?$allocator@D@std@@@std@@@std@@QAEPADXZ ; std::_String_alloc<std::_String_base_types<char,std::allocator<char> > >::_Myptr
	add	eax, DWORD PTR __Off$[ebp]
	push	eax
	call	?move@?$char_traits@D@std@@SAPADPADPBDI@Z ; std::char_traits<char>::move
	add	esp, 12					; 0000000cH

; 1417 : 				this->_Myptr() + _Roff, _Count);	// fill hole
; 1418 : 			_Traits::move(this->_Myptr() + _Off + _Count,

	mov	eax, DWORD PTR __Nm$[ebp]
	push	eax
	mov	ecx, DWORD PTR _this$[ebp]
	call	?_Myptr@?$_String_alloc@U?$_String_base_types@DV?$allocator@D@std@@@std@@@std@@QAEPADXZ ; std::_String_alloc<std::_String_base_types<char,std::allocator<char> > >::_Myptr
	add	eax, DWORD PTR __Off$[ebp]
	add	eax, DWORD PTR __N0$[ebp]
	push	eax
	mov	ecx, DWORD PTR _this$[ebp]
	call	?_Myptr@?$_String_alloc@U?$_String_base_types@DV?$allocator@D@std@@@std@@@std@@QAEPADXZ ; std::_String_alloc<std::_String_base_types<char,std::allocator<char> > >::_Myptr
	add	eax, DWORD PTR __Off$[ebp]
	add	eax, DWORD PTR __Count$[ebp]
	push	eax
	call	?move@?$char_traits@D@std@@SAPADPADPBDI@Z ; std::char_traits<char>::move
	add	esp, 12					; 0000000cH
	jmp	$LN5@replace
$LN8@replace:

; 1419 : 				this->_Myptr() + _Off + _N0, _Nm);	// move tail down
; 1420 : 			}
; 1421 : 		else if (_Roff <= _Off)

	mov	eax, DWORD PTR __Roff$[ebp]
	cmp	eax, DWORD PTR __Off$[ebp]
	ja	SHORT $LN10@replace

; 1422 : 			{	// hole gets larger, substring begins before hole
; 1423 : 			_Traits::move(this->_Myptr() + _Off + _Count,

	mov	eax, DWORD PTR __Nm$[ebp]
	push	eax
	mov	ecx, DWORD PTR _this$[ebp]
	call	?_Myptr@?$_String_alloc@U?$_String_base_types@DV?$allocator@D@std@@@std@@@std@@QAEPADXZ ; std::_String_alloc<std::_String_base_types<char,std::allocator<char> > >::_Myptr
	add	eax, DWORD PTR __Off$[ebp]
	add	eax, DWORD PTR __N0$[ebp]
	push	eax
	mov	ecx, DWORD PTR _this$[ebp]
	call	?_Myptr@?$_String_alloc@U?$_String_base_types@DV?$allocator@D@std@@@std@@@std@@QAEPADXZ ; std::_String_alloc<std::_String_base_types<char,std::allocator<char> > >::_Myptr
	add	eax, DWORD PTR __Off$[ebp]
	add	eax, DWORD PTR __Count$[ebp]
	push	eax
	call	?move@?$char_traits@D@std@@SAPADPADPBDI@Z ; std::char_traits<char>::move
	add	esp, 12					; 0000000cH

; 1424 : 				this->_Myptr() + _Off + _N0, _Nm);	// move tail down
; 1425 : 			_Traits::move(this->_Myptr() + _Off,

	mov	eax, DWORD PTR __Count$[ebp]
	push	eax
	mov	ecx, DWORD PTR _this$[ebp]
	call	?_Myptr@?$_String_alloc@U?$_String_base_types@DV?$allocator@D@std@@@std@@@std@@QAEPADXZ ; std::_String_alloc<std::_String_base_types<char,std::allocator<char> > >::_Myptr
	add	eax, DWORD PTR __Roff$[ebp]
	push	eax
	mov	ecx, DWORD PTR _this$[ebp]
	call	?_Myptr@?$_String_alloc@U?$_String_base_types@DV?$allocator@D@std@@@std@@@std@@QAEPADXZ ; std::_String_alloc<std::_String_base_types<char,std::allocator<char> > >::_Myptr
	add	eax, DWORD PTR __Off$[ebp]
	push	eax
	call	?move@?$char_traits@D@std@@SAPADPADPBDI@Z ; std::char_traits<char>::move
	add	esp, 12					; 0000000cH
	jmp	$LN5@replace
$LN10@replace:

; 1426 : 				this->_Myptr() + _Roff, _Count);	// fill hole
; 1427 : 			}
; 1428 : 		else if (_Off + _N0 <= _Roff)

	mov	eax, DWORD PTR __Off$[ebp]
	add	eax, DWORD PTR __N0$[ebp]
	cmp	eax, DWORD PTR __Roff$[ebp]
	ja	SHORT $LN12@replace

; 1429 : 			{	// hole gets larger, substring begins after hole
; 1430 : 			_Traits::move(this->_Myptr() + _Off + _Count,

	mov	eax, DWORD PTR __Nm$[ebp]
	push	eax
	mov	ecx, DWORD PTR _this$[ebp]
	call	?_Myptr@?$_String_alloc@U?$_String_base_types@DV?$allocator@D@std@@@std@@@std@@QAEPADXZ ; std::_String_alloc<std::_String_base_types<char,std::allocator<char> > >::_Myptr
	add	eax, DWORD PTR __Off$[ebp]
	add	eax, DWORD PTR __N0$[ebp]
	push	eax
	mov	ecx, DWORD PTR _this$[ebp]
	call	?_Myptr@?$_String_alloc@U?$_String_base_types@DV?$allocator@D@std@@@std@@@std@@QAEPADXZ ; std::_String_alloc<std::_String_base_types<char,std::allocator<char> > >::_Myptr
	add	eax, DWORD PTR __Off$[ebp]
	add	eax, DWORD PTR __Count$[ebp]
	push	eax
	call	?move@?$char_traits@D@std@@SAPADPADPBDI@Z ; std::char_traits<char>::move
	add	esp, 12					; 0000000cH

; 1431 : 				this->_Myptr() + _Off + _N0, _Nm);	// move tail down
; 1432 : 			_Traits::move(this->_Myptr() + _Off,

	mov	eax, DWORD PTR __Count$[ebp]
	push	eax
	mov	ecx, DWORD PTR _this$[ebp]
	call	?_Myptr@?$_String_alloc@U?$_String_base_types@DV?$allocator@D@std@@@std@@@std@@QAEPADXZ ; std::_String_alloc<std::_String_base_types<char,std::allocator<char> > >::_Myptr
	mov	ecx, DWORD PTR __Roff$[ebp]
	add	ecx, DWORD PTR __Count$[ebp]
	sub	ecx, DWORD PTR __N0$[ebp]
	add	eax, ecx
	push	eax
	mov	ecx, DWORD PTR _this$[ebp]
	call	?_Myptr@?$_String_alloc@U?$_String_base_types@DV?$allocator@D@std@@@std@@@std@@QAEPADXZ ; std::_String_alloc<std::_String_base_types<char,std::allocator<char> > >::_Myptr
	add	eax, DWORD PTR __Off$[ebp]
	push	eax
	call	?move@?$char_traits@D@std@@SAPADPADPBDI@Z ; std::char_traits<char>::move
	add	esp, 12					; 0000000cH

; 1433 : 				this->_Myptr() + (_Roff + _Count - _N0),
; 1434 : 				_Count);	// fill hole
; 1435 : 			}
; 1436 : 		else

	jmp	SHORT $LN5@replace
$LN12@replace:

; 1437 : 			{	// hole gets larger, substring begins in hole
; 1438 : 			_Traits::move(this->_Myptr() + _Off,

	mov	eax, DWORD PTR __N0$[ebp]
	push	eax
	mov	ecx, DWORD PTR _this$[ebp]
	call	?_Myptr@?$_String_alloc@U?$_String_base_types@DV?$allocator@D@std@@@std@@@std@@QAEPADXZ ; std::_String_alloc<std::_String_base_types<char,std::allocator<char> > >::_Myptr
	add	eax, DWORD PTR __Roff$[ebp]
	push	eax
	mov	ecx, DWORD PTR _this$[ebp]
	call	?_Myptr@?$_String_alloc@U?$_String_base_types@DV?$allocator@D@std@@@std@@@std@@QAEPADXZ ; std::_String_alloc<std::_String_base_types<char,std::allocator<char> > >::_Myptr
	add	eax, DWORD PTR __Off$[ebp]
	push	eax
	call	?move@?$char_traits@D@std@@SAPADPADPBDI@Z ; std::char_traits<char>::move
	add	esp, 12					; 0000000cH

; 1439 : 				this->_Myptr() + _Roff, _N0);	// fill old hole
; 1440 : 			_Traits::move(this->_Myptr() + _Off + _Count,

	mov	eax, DWORD PTR __Nm$[ebp]
	push	eax
	mov	ecx, DWORD PTR _this$[ebp]
	call	?_Myptr@?$_String_alloc@U?$_String_base_types@DV?$allocator@D@std@@@std@@@std@@QAEPADXZ ; std::_String_alloc<std::_String_base_types<char,std::allocator<char> > >::_Myptr
	add	eax, DWORD PTR __Off$[ebp]
	add	eax, DWORD PTR __N0$[ebp]
	push	eax
	mov	ecx, DWORD PTR _this$[ebp]
	call	?_Myptr@?$_String_alloc@U?$_String_base_types@DV?$allocator@D@std@@@std@@@std@@QAEPADXZ ; std::_String_alloc<std::_String_base_types<char,std::allocator<char> > >::_Myptr
	add	eax, DWORD PTR __Off$[ebp]
	add	eax, DWORD PTR __Count$[ebp]
	push	eax
	call	?move@?$char_traits@D@std@@SAPADPADPBDI@Z ; std::char_traits<char>::move
	add	esp, 12					; 0000000cH

; 1441 : 				this->_Myptr() + _Off + _N0, _Nm);	// move tail down
; 1442 : 			_Traits::move(this->_Myptr() + _Off + _N0,

	mov	eax, DWORD PTR __Count$[ebp]
	sub	eax, DWORD PTR __N0$[ebp]
	push	eax
	mov	ecx, DWORD PTR _this$[ebp]
	call	?_Myptr@?$_String_alloc@U?$_String_base_types@DV?$allocator@D@std@@@std@@@std@@QAEPADXZ ; std::_String_alloc<std::_String_base_types<char,std::allocator<char> > >::_Myptr
	add	eax, DWORD PTR __Roff$[ebp]
	add	eax, DWORD PTR __Count$[ebp]
	push	eax
	mov	ecx, DWORD PTR _this$[ebp]
	call	?_Myptr@?$_String_alloc@U?$_String_base_types@DV?$allocator@D@std@@@std@@@std@@QAEPADXZ ; std::_String_alloc<std::_String_base_types<char,std::allocator<char> > >::_Myptr
	add	eax, DWORD PTR __Off$[ebp]
	add	eax, DWORD PTR __N0$[ebp]
	push	eax
	call	?move@?$char_traits@D@std@@SAPADPADPBDI@Z ; std::char_traits<char>::move
	add	esp, 12					; 0000000cH
$LN5@replace:

; 1443 : 				this->_Myptr() + _Roff + _Count,
; 1444 : 				_Count - _N0);	// fill rest of new hole
; 1445 : 			}
; 1446 : 
; 1447 : 		_Eos(_Newsize);

	mov	eax, DWORD PTR __Newsize$[ebp]
	push	eax
	mov	ecx, DWORD PTR _this$[ebp]
	call	?_Eos@?$basic_string@DU?$char_traits@D@std@@V?$allocator@D@2@@std@@QAEXI@Z ; std::basic_string<char,std::char_traits<char>,std::allocator<char> >::_Eos

; 1448 : 		return (*this);

	mov	eax, DWORD PTR _this$[ebp]
$LN14@replace:

; 1449 : 		}

	pop	edi
	pop	esi
	pop	ebx
	add	esp, 228				; 000000e4H
	cmp	ebp, esp
	call	__RTC_CheckEsp
	mov	esp, ebp
	pop	ebp
	ret	20					; 00000014H
?replace@?$basic_string@DU?$char_traits@D@std@@V?$allocator@D@2@@std@@QAEAAV12@IIABV12@II@Z ENDP ; std::basic_string<char,std::char_traits<char>,std::allocator<char> >::replace
_TEXT	ENDS
; Function compile flags: /Odtp /RTCsu /ZI
; File c:\program files (x86)\microsoft visual studio 14.0\vc\include\xstring
;	COMDAT ?erase@?$basic_string@DU?$char_traits@D@std@@V?$allocator@D@2@@std@@QAEAAV12@II@Z
_TEXT	SEGMENT
__Newsize$1 = -32					; size = 4
__Ptr$2 = -20						; size = 4
_this$ = -8						; size = 4
__Off$ = 8						; size = 4
__Count$ = 12						; size = 4
?erase@?$basic_string@DU?$char_traits@D@std@@V?$allocator@D@2@@std@@QAEAAV12@II@Z PROC ; std::basic_string<char,std::char_traits<char>,std::allocator<char> >::erase, COMDAT
; _this$ = ecx

; 1347 : 		{	// erase elements [_Off, _Off + _Count)

	push	ebp
	mov	ebp, esp
	sub	esp, 228				; 000000e4H
	push	ebx
	push	esi
	push	edi
	push	ecx
	lea	edi, DWORD PTR [ebp-228]
	mov	ecx, 57					; 00000039H
	mov	eax, -858993460				; ccccccccH
	rep stosd
	pop	ecx
	mov	DWORD PTR _this$[ebp], ecx

; 1348 : 		_Check_offset(_Off);

	mov	eax, DWORD PTR __Off$[ebp]
	push	eax
	mov	ecx, DWORD PTR _this$[ebp]
	call	?_Check_offset@?$basic_string@DU?$char_traits@D@std@@V?$allocator@D@2@@std@@QBEXI@Z ; std::basic_string<char,std::char_traits<char>,std::allocator<char> >::_Check_offset

; 1349 : 		if (this->_Mysize() - _Off <= _Count)

	mov	ecx, DWORD PTR _this$[ebp]
	call	?_Mysize@?$_String_alloc@U?$_String_base_types@DV?$allocator@D@std@@@std@@@std@@QAEAAIXZ ; std::_String_alloc<std::_String_base_types<char,std::allocator<char> > >::_Mysize
	mov	eax, DWORD PTR [eax]
	sub	eax, DWORD PTR __Off$[ebp]
	cmp	eax, DWORD PTR __Count$[ebp]
	ja	SHORT $LN2@erase

; 1350 : 			_Eos(_Off);	// erase elements [_Off, ...)

	mov	eax, DWORD PTR __Off$[ebp]
	push	eax
	mov	ecx, DWORD PTR _this$[ebp]
	call	?_Eos@?$basic_string@DU?$char_traits@D@std@@V?$allocator@D@2@@std@@QAEXI@Z ; std::basic_string<char,std::char_traits<char>,std::allocator<char> >::_Eos
	jmp	SHORT $LN3@erase
$LN2@erase:

; 1351 : 		else if (0 < _Count)

	cmp	DWORD PTR __Count$[ebp], 0
	jbe	SHORT $LN3@erase

; 1352 : 			{	// move elements down
; 1353 : 			value_type *_Ptr = this->_Myptr() + _Off;

	mov	ecx, DWORD PTR _this$[ebp]
	call	?_Myptr@?$_String_alloc@U?$_String_base_types@DV?$allocator@D@std@@@std@@@std@@QAEPADXZ ; std::_String_alloc<std::_String_base_types<char,std::allocator<char> > >::_Myptr
	add	eax, DWORD PTR __Off$[ebp]
	mov	DWORD PTR __Ptr$2[ebp], eax

; 1354 : 			size_type _Newsize = this->_Mysize() - _Count;

	mov	ecx, DWORD PTR _this$[ebp]
	call	?_Mysize@?$_String_alloc@U?$_String_base_types@DV?$allocator@D@std@@@std@@@std@@QAEAAIXZ ; std::_String_alloc<std::_String_base_types<char,std::allocator<char> > >::_Mysize
	mov	eax, DWORD PTR [eax]
	sub	eax, DWORD PTR __Count$[ebp]
	mov	DWORD PTR __Newsize$1[ebp], eax

; 1355 : 			_Traits::move(_Ptr, _Ptr + _Count, _Newsize - _Off);

	mov	eax, DWORD PTR __Newsize$1[ebp]
	sub	eax, DWORD PTR __Off$[ebp]
	push	eax
	mov	ecx, DWORD PTR __Ptr$2[ebp]
	add	ecx, DWORD PTR __Count$[ebp]
	push	ecx
	mov	edx, DWORD PTR __Ptr$2[ebp]
	push	edx
	call	?move@?$char_traits@D@std@@SAPADPADPBDI@Z ; std::char_traits<char>::move
	add	esp, 12					; 0000000cH

; 1356 : 			_Eos(_Newsize);

	mov	eax, DWORD PTR __Newsize$1[ebp]
	push	eax
	mov	ecx, DWORD PTR _this$[ebp]
	call	?_Eos@?$basic_string@DU?$char_traits@D@std@@V?$allocator@D@2@@std@@QAEXI@Z ; std::basic_string<char,std::char_traits<char>,std::allocator<char> >::_Eos
$LN3@erase:

; 1357 : 			}
; 1358 : 		return (*this);

	mov	eax, DWORD PTR _this$[ebp]

; 1359 : 		}

	pop	edi
	pop	esi
	pop	ebx
	add	esp, 228				; 000000e4H
	cmp	ebp, esp
	call	__RTC_CheckEsp
	mov	esp, ebp
	pop	ebp
	ret	8
?erase@?$basic_string@DU?$char_traits@D@std@@V?$allocator@D@2@@std@@QAEAAV12@II@Z ENDP ; std::basic_string<char,std::char_traits<char>,std::allocator<char> >::erase
_TEXT	ENDS
; Function compile flags: /Odtp /RTCsu /ZI
; File c:\program files (x86)\microsoft visual studio 14.0\vc\include\xstring
;	COMDAT ?erase@?$basic_string@DU?$char_traits@D@std@@V?$allocator@D@2@@std@@QAEAAV12@I@Z
_TEXT	SEGMENT
_this$ = -8						; size = 4
__Off$ = 8						; size = 4
?erase@?$basic_string@DU?$char_traits@D@std@@V?$allocator@D@2@@std@@QAEAAV12@I@Z PROC ; std::basic_string<char,std::char_traits<char>,std::allocator<char> >::erase, COMDAT
; _this$ = ecx

; 1340 : 		{	// erase elements [_Off, ...)

	push	ebp
	mov	ebp, esp
	sub	esp, 204				; 000000ccH
	push	ebx
	push	esi
	push	edi
	push	ecx
	lea	edi, DWORD PTR [ebp-204]
	mov	ecx, 51					; 00000033H
	mov	eax, -858993460				; ccccccccH
	rep stosd
	pop	ecx
	mov	DWORD PTR _this$[ebp], ecx

; 1341 : 		_Check_offset(_Off);

	mov	eax, DWORD PTR __Off$[ebp]
	push	eax
	mov	ecx, DWORD PTR _this$[ebp]
	call	?_Check_offset@?$basic_string@DU?$char_traits@D@std@@V?$allocator@D@2@@std@@QBEXI@Z ; std::basic_string<char,std::char_traits<char>,std::allocator<char> >::_Check_offset

; 1342 : 		_Eos(_Off);

	mov	eax, DWORD PTR __Off$[ebp]
	push	eax
	mov	ecx, DWORD PTR _this$[ebp]
	call	?_Eos@?$basic_string@DU?$char_traits@D@std@@V?$allocator@D@2@@std@@QAEXI@Z ; std::basic_string<char,std::char_traits<char>,std::allocator<char> >::_Eos

; 1343 : 		return (*this);

	mov	eax, DWORD PTR _this$[ebp]

; 1344 : 		}

	pop	edi
	pop	esi
	pop	ebx
	add	esp, 204				; 000000ccH
	cmp	ebp, esp
	call	__RTC_CheckEsp
	mov	esp, ebp
	pop	ebp
	ret	4
?erase@?$basic_string@DU?$char_traits@D@std@@V?$allocator@D@2@@std@@QAEAAV12@I@Z ENDP ; std::basic_string<char,std::char_traits<char>,std::allocator<char> >::erase
_TEXT	ENDS
; Function compile flags: /Odtp /RTCsu /ZI
; File c:\program files (x86)\microsoft visual studio 14.0\vc\include\xstring
;	COMDAT ?assign@?$basic_string@DU?$char_traits@D@std@@V?$allocator@D@2@@std@@QAEAAV12@ABV12@II@Z
_TEXT	SEGMENT
_this$ = -8						; size = 4
__Right$ = 8						; size = 4
__Roff$ = 12						; size = 4
__Count$ = 16						; size = 4
?assign@?$basic_string@DU?$char_traits@D@std@@V?$allocator@D@2@@std@@QAEAAV12@ABV12@II@Z PROC ; std::basic_string<char,std::char_traits<char>,std::allocator<char> >::assign, COMDAT
; _this$ = ecx

; 1149 : 		{	// assign _Right [_Roff, _Roff + _Count)

	push	ebp
	mov	ebp, esp
	sub	esp, 204				; 000000ccH
	push	ebx
	push	esi
	push	edi
	push	ecx
	lea	edi, DWORD PTR [ebp-204]
	mov	ecx, 51					; 00000033H
	mov	eax, -858993460				; ccccccccH
	rep stosd
	pop	ecx
	mov	DWORD PTR _this$[ebp], ecx

; 1150 : 		_Right._Check_offset(_Roff);

	mov	eax, DWORD PTR __Roff$[ebp]
	push	eax
	mov	ecx, DWORD PTR __Right$[ebp]
	call	?_Check_offset@?$basic_string@DU?$char_traits@D@std@@V?$allocator@D@2@@std@@QBEXI@Z ; std::basic_string<char,std::char_traits<char>,std::allocator<char> >::_Check_offset

; 1151 : 		_Count = _Right._Clamp_suffix_size(_Roff, _Count);

	mov	eax, DWORD PTR __Count$[ebp]
	push	eax
	mov	ecx, DWORD PTR __Roff$[ebp]
	push	ecx
	mov	ecx, DWORD PTR __Right$[ebp]
	call	?_Clamp_suffix_size@?$basic_string@DU?$char_traits@D@std@@V?$allocator@D@2@@std@@QBEIII@Z ; std::basic_string<char,std::char_traits<char>,std::allocator<char> >::_Clamp_suffix_size
	mov	DWORD PTR __Count$[ebp], eax

; 1152 : 
; 1153 : 		if (this == &_Right)

	mov	eax, DWORD PTR _this$[ebp]
	cmp	eax, DWORD PTR __Right$[ebp]
	jne	SHORT $LN2@assign

; 1154 : 			erase((size_type)(_Roff + _Count)), erase(0, _Roff);	// substring

	mov	eax, DWORD PTR __Roff$[ebp]
	add	eax, DWORD PTR __Count$[ebp]
	push	eax
	mov	ecx, DWORD PTR _this$[ebp]
	call	?erase@?$basic_string@DU?$char_traits@D@std@@V?$allocator@D@2@@std@@QAEAAV12@I@Z ; std::basic_string<char,std::char_traits<char>,std::allocator<char> >::erase
	mov	ecx, DWORD PTR __Roff$[ebp]
	push	ecx
	push	0
	mov	ecx, DWORD PTR _this$[ebp]
	call	?erase@?$basic_string@DU?$char_traits@D@std@@V?$allocator@D@2@@std@@QAEAAV12@II@Z ; std::basic_string<char,std::char_traits<char>,std::allocator<char> >::erase
	jmp	SHORT $LN3@assign
$LN2@assign:

; 1155 : 		else if (_Grow(_Count))

	push	0
	mov	eax, DWORD PTR __Count$[ebp]
	push	eax
	mov	ecx, DWORD PTR _this$[ebp]
	call	?_Grow@?$basic_string@DU?$char_traits@D@std@@V?$allocator@D@2@@std@@QAE_NI_N@Z ; std::basic_string<char,std::char_traits<char>,std::allocator<char> >::_Grow
	movzx	ecx, al
	test	ecx, ecx
	je	SHORT $LN3@assign

; 1156 : 			{	// make room and assign new stuff
; 1157 : 			_Traits::copy(this->_Myptr(),

	mov	eax, DWORD PTR __Count$[ebp]
	push	eax
	mov	ecx, DWORD PTR __Right$[ebp]
	call	?_Myptr@?$_String_alloc@U?$_String_base_types@DV?$allocator@D@std@@@std@@@std@@QBEPBDXZ ; std::_String_alloc<std::_String_base_types<char,std::allocator<char> > >::_Myptr
	add	eax, DWORD PTR __Roff$[ebp]
	push	eax
	mov	ecx, DWORD PTR _this$[ebp]
	call	?_Myptr@?$_String_alloc@U?$_String_base_types@DV?$allocator@D@std@@@std@@@std@@QAEPADXZ ; std::_String_alloc<std::_String_base_types<char,std::allocator<char> > >::_Myptr
	push	eax
	call	?copy@?$char_traits@D@std@@SAPADPADPBDI@Z ; std::char_traits<char>::copy
	add	esp, 12					; 0000000cH

; 1158 : 				_Right._Myptr() + _Roff, _Count);
; 1159 : 			_Eos(_Count);

	mov	eax, DWORD PTR __Count$[ebp]
	push	eax
	mov	ecx, DWORD PTR _this$[ebp]
	call	?_Eos@?$basic_string@DU?$char_traits@D@std@@V?$allocator@D@2@@std@@QAEXI@Z ; std::basic_string<char,std::char_traits<char>,std::allocator<char> >::_Eos
$LN3@assign:

; 1160 : 			}
; 1161 : 		return (*this);

	mov	eax, DWORD PTR _this$[ebp]

; 1162 : 		}

	pop	edi
	pop	esi
	pop	ebx
	add	esp, 204				; 000000ccH
	cmp	ebp, esp
	call	__RTC_CheckEsp
	mov	esp, ebp
	pop	ebp
	ret	12					; 0000000cH
?assign@?$basic_string@DU?$char_traits@D@std@@V?$allocator@D@2@@std@@QAEAAV12@ABV12@II@Z ENDP ; std::basic_string<char,std::char_traits<char>,std::allocator<char> >::assign
_TEXT	ENDS
; Function compile flags: /Odtp /RTCsu /ZI
; File c:\program files (x86)\microsoft visual studio 14.0\vc\include\xstring
;	COMDAT ?assign@?$basic_string@DU?$char_traits@D@std@@V?$allocator@D@2@@std@@QAEAAV12@ABV12@@Z
_TEXT	SEGMENT
_this$ = -8						; size = 4
__Right$ = 8						; size = 4
?assign@?$basic_string@DU?$char_traits@D@std@@V?$allocator@D@2@@std@@QAEAAV12@ABV12@@Z PROC ; std::basic_string<char,std::char_traits<char>,std::allocator<char> >::assign, COMDAT
; _this$ = ecx

; 1143 : 		{	// assign _Right

	push	ebp
	mov	ebp, esp
	sub	esp, 204				; 000000ccH
	push	ebx
	push	esi
	push	edi
	push	ecx
	lea	edi, DWORD PTR [ebp-204]
	mov	ecx, 51					; 00000033H
	mov	eax, -858993460				; ccccccccH
	rep stosd
	pop	ecx
	mov	DWORD PTR _this$[ebp], ecx

; 1144 : 		return (assign(_Right, 0, npos));

	mov	eax, DWORD PTR ?npos@?$basic_string@DU?$char_traits@D@std@@V?$allocator@D@2@@std@@2IB ; std::basic_string<char,std::char_traits<char>,std::allocator<char> >::npos
	push	eax
	push	0
	mov	ecx, DWORD PTR __Right$[ebp]
	push	ecx
	mov	ecx, DWORD PTR _this$[ebp]
	call	?assign@?$basic_string@DU?$char_traits@D@std@@V?$allocator@D@2@@std@@QAEAAV12@ABV12@II@Z ; std::basic_string<char,std::char_traits<char>,std::allocator<char> >::assign

; 1145 : 		}

	pop	edi
	pop	esi
	pop	ebx
	add	esp, 204				; 000000ccH
	cmp	ebp, esp
	call	__RTC_CheckEsp
	mov	esp, ebp
	pop	ebp
	ret	4
?assign@?$basic_string@DU?$char_traits@D@std@@V?$allocator@D@2@@std@@QAEAAV12@ABV12@@Z ENDP ; std::basic_string<char,std::char_traits<char>,std::allocator<char> >::assign
_TEXT	ENDS
; Function compile flags: /Odtp /RTCsu /ZI
; File c:\program files (x86)\microsoft visual studio 14.0\vc\include\xstring
;	COMDAT ??4?$basic_string@DU?$char_traits@D@std@@V?$allocator@D@2@@std@@QAEAAV01@ABV01@@Z
_TEXT	SEGMENT
_this$ = -8						; size = 4
__Right$ = 8						; size = 4
??4?$basic_string@DU?$char_traits@D@std@@V?$allocator@D@2@@std@@QAEAAV01@ABV01@@Z PROC ; std::basic_string<char,std::char_traits<char>,std::allocator<char> >::operator=, COMDAT
; _this$ = ecx

; 1023 : 		{	// assign _Right

	push	ebp
	mov	ebp, esp
	sub	esp, 204				; 000000ccH
	push	ebx
	push	esi
	push	edi
	push	ecx
	lea	edi, DWORD PTR [ebp-204]
	mov	ecx, 51					; 00000033H
	mov	eax, -858993460				; ccccccccH
	rep stosd
	pop	ecx
	mov	DWORD PTR _this$[ebp], ecx

; 1024 : 		if (this != &_Right)

	mov	eax, DWORD PTR _this$[ebp]
	cmp	eax, DWORD PTR __Right$[ebp]
	je	SHORT $LN2@operator

; 1025 : 			{	// different, assign it
; 1026 : 			if (this->_Getal() != _Right._Getal()
; 1027 : 				&& _Alty::propagate_on_container_copy_assignment::value)

	mov	ecx, DWORD PTR __Right$[ebp]
	call	?_Getal@?$_String_alloc@U?$_String_base_types@DV?$allocator@D@std@@@std@@@std@@QBEABU?$_Wrap_alloc@V?$allocator@D@std@@@2@XZ ; std::_String_alloc<std::_String_base_types<char,std::allocator<char> > >::_Getal
	push	eax
	mov	ecx, DWORD PTR _this$[ebp]
	call	?_Getal@?$_String_alloc@U?$_String_base_types@DV?$allocator@D@std@@@std@@@std@@QAEAAU?$_Wrap_alloc@V?$allocator@D@std@@@2@XZ ; std::_String_alloc<std::_String_base_types<char,std::allocator<char> > >::_Getal
	push	eax
	call	??$?9V?$allocator@D@std@@V01@@std@@YA_NABU?$_Wrap_alloc@V?$allocator@D@std@@@0@0@Z ; std::operator!=<std::allocator<char>,std::allocator<char> >
	add	esp, 8
	movzx	eax, al
	test	eax, eax
	je	SHORT $LN3@operator
	xor	eax, eax
	je	SHORT $LN3@operator

; 1028 : 				{	// change allocator before copying
; 1029 : 				_Tidy(true);

	push	0
	push	1
	mov	ecx, DWORD PTR _this$[ebp]
	call	?_Tidy@?$basic_string@DU?$char_traits@D@std@@V?$allocator@D@2@@std@@QAEX_NI@Z ; std::basic_string<char,std::char_traits<char>,std::allocator<char> >::_Tidy

; 1030 : 				this->_Copy_alloc(_Right._Getal());

	mov	ecx, DWORD PTR __Right$[ebp]
	call	?_Getal@?$_String_alloc@U?$_String_base_types@DV?$allocator@D@std@@@std@@@std@@QBEABU?$_Wrap_alloc@V?$allocator@D@std@@@2@XZ ; std::_String_alloc<std::_String_base_types<char,std::allocator<char> > >::_Getal
	push	eax
	mov	ecx, DWORD PTR _this$[ebp]
	call	?_Copy_alloc@?$_String_alloc@U?$_String_base_types@DV?$allocator@D@std@@@std@@@std@@QAEXABU?$_Wrap_alloc@V?$allocator@D@std@@@2@@Z ; std::_String_alloc<std::_String_base_types<char,std::allocator<char> > >::_Copy_alloc
$LN3@operator:

; 1031 : 				}
; 1032 : 
; 1033 : 			assign(_Right);

	mov	eax, DWORD PTR __Right$[ebp]
	push	eax
	mov	ecx, DWORD PTR _this$[ebp]
	call	?assign@?$basic_string@DU?$char_traits@D@std@@V?$allocator@D@2@@std@@QAEAAV12@ABV12@@Z ; std::basic_string<char,std::char_traits<char>,std::allocator<char> >::assign
$LN2@operator:

; 1034 : 			}
; 1035 : 		return (*this);

	mov	eax, DWORD PTR _this$[ebp]

; 1036 : 		}

	pop	edi
	pop	esi
	pop	ebx
	add	esp, 204				; 000000ccH
	cmp	ebp, esp
	call	__RTC_CheckEsp
	mov	esp, ebp
	pop	ebp
	ret	4
??4?$basic_string@DU?$char_traits@D@std@@V?$allocator@D@2@@std@@QAEAAV01@ABV01@@Z ENDP ; std::basic_string<char,std::char_traits<char>,std::allocator<char> >::operator=
_TEXT	ENDS
; Function compile flags: /Odtp /RTCsu /ZI
; File c:\program files (x86)\microsoft visual studio 14.0\vc\include\xstring
;	COMDAT ??1?$basic_string@DU?$char_traits@D@std@@V?$allocator@D@2@@std@@QAE@XZ
_TEXT	SEGMENT
_this$ = -20						; size = 4
__$EHRec$ = -12						; size = 12
??1?$basic_string@DU?$char_traits@D@std@@V?$allocator@D@2@@std@@QAE@XZ PROC ; std::basic_string<char,std::char_traits<char>,std::allocator<char> >::~basic_string<char,std::char_traits<char>,std::allocator<char> >, COMDAT
; _this$ = ecx

; 1016 : 		{	// destroy the string

	push	ebp
	mov	ebp, esp
	push	-1
	push	__ehhandler$??1?$basic_string@DU?$char_traits@D@std@@V?$allocator@D@2@@std@@QAE@XZ
	mov	eax, DWORD PTR fs:0
	push	eax
	sub	esp, 204				; 000000ccH
	push	ebx
	push	esi
	push	edi
	push	ecx
	lea	edi, DWORD PTR [ebp-216]
	mov	ecx, 51					; 00000033H
	mov	eax, -858993460				; ccccccccH
	rep stosd
	pop	ecx
	mov	eax, DWORD PTR ___security_cookie
	xor	eax, ebp
	push	eax
	lea	eax, DWORD PTR __$EHRec$[ebp]
	mov	DWORD PTR fs:0, eax
	mov	DWORD PTR _this$[ebp], ecx

; 1017 : 		_Tidy(true);

	push	0
	push	1
	mov	ecx, DWORD PTR _this$[ebp]
	call	?_Tidy@?$basic_string@DU?$char_traits@D@std@@V?$allocator@D@2@@std@@QAEX_NI@Z ; std::basic_string<char,std::char_traits<char>,std::allocator<char> >::_Tidy

; 1018 : 		}

	mov	ecx, DWORD PTR _this$[ebp]
	call	??1?$_String_alloc@U?$_String_base_types@DV?$allocator@D@std@@@std@@@std@@QAE@XZ ; std::_String_alloc<std::_String_base_types<char,std::allocator<char> > >::~_String_alloc<std::_String_base_types<char,std::allocator<char> > >
	mov	ecx, DWORD PTR __$EHRec$[ebp]
	mov	DWORD PTR fs:0, ecx
	pop	ecx
	pop	edi
	pop	esi
	pop	ebx
	add	esp, 216				; 000000d8H
	cmp	ebp, esp
	call	__RTC_CheckEsp
	mov	esp, ebp
	pop	ebp
	ret	0
_TEXT	ENDS
;	COMDAT text$x
text$x	SEGMENT
__ehhandler$??1?$basic_string@DU?$char_traits@D@std@@V?$allocator@D@2@@std@@QAE@XZ:
	mov	edx, DWORD PTR [esp+8]
	lea	eax, DWORD PTR [edx+12]
	mov	ecx, DWORD PTR [edx-220]
	xor	ecx, eax
	call	@__security_check_cookie@4
	mov	eax, OFFSET __ehfuncinfo$??1?$basic_string@DU?$char_traits@D@std@@V?$allocator@D@2@@std@@QAE@XZ
	jmp	___CxxFrameHandler3
text$x	ENDS
??1?$basic_string@DU?$char_traits@D@std@@V?$allocator@D@2@@std@@QAE@XZ ENDP ; std::basic_string<char,std::char_traits<char>,std::allocator<char> >::~basic_string<char,std::char_traits<char>,std::allocator<char> >
; Function compile flags: /Odtp /RTCsu /ZI
; File c:\program files (x86)\microsoft visual studio 14.0\vc\include\xstring
;	COMDAT ?_Assign_rv@?$basic_string@DU?$char_traits@D@std@@V?$allocator@D@2@@std@@QAEX$$QAV12@@Z
_TEXT	SEGMENT
_this$ = -8						; size = 4
__Right$ = 8						; size = 4
?_Assign_rv@?$basic_string@DU?$char_traits@D@std@@V?$allocator@D@2@@std@@QAEX$$QAV12@@Z PROC ; std::basic_string<char,std::char_traits<char>,std::allocator<char> >::_Assign_rv, COMDAT
; _this$ = ecx

; 961  : 		{	// assign by moving _Right

	push	ebp
	mov	ebp, esp
	sub	esp, 204				; 000000ccH
	push	ebx
	push	esi
	push	edi
	push	ecx
	lea	edi, DWORD PTR [ebp-204]
	mov	ecx, 51					; 00000033H
	mov	eax, -858993460				; ccccccccH
	rep stosd
	pop	ecx
	mov	DWORD PTR _this$[ebp], ecx

; 962  : 		if (_Right._Myres() < this->_BUF_SIZE)

	mov	ecx, DWORD PTR __Right$[ebp]
	call	?_Myres@?$_String_alloc@U?$_String_base_types@DV?$allocator@D@std@@@std@@@std@@QAEAAIXZ ; std::_String_alloc<std::_String_base_types<char,std::allocator<char> > >::_Myres
	cmp	DWORD PTR [eax], 16			; 00000010H
	jae	SHORT $LN2@Assign_rv

; 963  : 			_Traits::move(this->_Bx()._Buf, _Right._Bx()._Buf,

	mov	ecx, DWORD PTR __Right$[ebp]
	call	?_Mysize@?$_String_alloc@U?$_String_base_types@DV?$allocator@D@std@@@std@@@std@@QAEAAIXZ ; std::_String_alloc<std::_String_base_types<char,std::allocator<char> > >::_Mysize
	mov	eax, DWORD PTR [eax]
	add	eax, 1
	push	eax
	mov	ecx, DWORD PTR __Right$[ebp]
	call	?_Bx@?$_String_alloc@U?$_String_base_types@DV?$allocator@D@std@@@std@@@std@@QAEAAT_Bxty@?$_String_val@U?$_Simple_types@D@std@@@2@XZ ; std::_String_alloc<std::_String_base_types<char,std::allocator<char> > >::_Bx
	push	eax
	mov	ecx, DWORD PTR _this$[ebp]
	call	?_Bx@?$_String_alloc@U?$_String_base_types@DV?$allocator@D@std@@@std@@@std@@QAEAAT_Bxty@?$_String_val@U?$_Simple_types@D@std@@@2@XZ ; std::_String_alloc<std::_String_base_types<char,std::allocator<char> > >::_Bx
	push	eax
	call	?move@?$char_traits@D@std@@SAPADPADPBDI@Z ; std::char_traits<char>::move
	add	esp, 12					; 0000000cH

; 964  : 				_Right._Mysize() + 1);
; 965  : 		else

	jmp	SHORT $LN3@Assign_rv
$LN2@Assign_rv:

; 966  : 			{	// copy pointer
; 967  : 			this->_Getal().construct(_STD addressof(this->_Bx()._Ptr), _Right._Bx()._Ptr);

	mov	ecx, DWORD PTR __Right$[ebp]
	call	?_Bx@?$_String_alloc@U?$_String_base_types@DV?$allocator@D@std@@@std@@@std@@QAEAAT_Bxty@?$_String_val@U?$_Simple_types@D@std@@@2@XZ ; std::_String_alloc<std::_String_base_types<char,std::allocator<char> > >::_Bx
	push	eax
	mov	ecx, DWORD PTR _this$[ebp]
	call	?_Bx@?$_String_alloc@U?$_String_base_types@DV?$allocator@D@std@@@std@@@std@@QAEAAT_Bxty@?$_String_val@U?$_Simple_types@D@std@@@2@XZ ; std::_String_alloc<std::_String_base_types<char,std::allocator<char> > >::_Bx
	push	eax
	call	??$addressof@PAD@std@@YAPAPADAAPAD@Z	; std::addressof<char *>
	add	esp, 4
	push	eax
	mov	ecx, DWORD PTR _this$[ebp]
	call	?_Getal@?$_String_alloc@U?$_String_base_types@DV?$allocator@D@std@@@std@@@std@@QAEAAU?$_Wrap_alloc@V?$allocator@D@std@@@2@XZ ; std::_String_alloc<std::_String_base_types<char,std::allocator<char> > >::_Getal
	mov	ecx, eax
	call	??$construct@PADAAPAD@?$_Wrap_alloc@V?$allocator@D@std@@@std@@QAEXPAPADAAPAD@Z ; std::_Wrap_alloc<std::allocator<char> >::construct<char *,char * &>

; 968  : 			_Right._Bx()._Ptr = pointer();

	mov	ecx, DWORD PTR __Right$[ebp]
	call	?_Bx@?$_String_alloc@U?$_String_base_types@DV?$allocator@D@std@@@std@@@std@@QAEAAT_Bxty@?$_String_val@U?$_Simple_types@D@std@@@2@XZ ; std::_String_alloc<std::_String_base_types<char,std::allocator<char> > >::_Bx
	mov	DWORD PTR [eax], 0
$LN3@Assign_rv:

; 969  : 			}
; 970  : 		this->_Mysize() = _Right._Mysize();

	mov	ecx, DWORD PTR __Right$[ebp]
	call	?_Mysize@?$_String_alloc@U?$_String_base_types@DV?$allocator@D@std@@@std@@@std@@QAEAAIXZ ; std::_String_alloc<std::_String_base_types<char,std::allocator<char> > >::_Mysize
	mov	esi, eax
	mov	ecx, DWORD PTR _this$[ebp]
	call	?_Mysize@?$_String_alloc@U?$_String_base_types@DV?$allocator@D@std@@@std@@@std@@QAEAAIXZ ; std::_String_alloc<std::_String_base_types<char,std::allocator<char> > >::_Mysize
	mov	ecx, DWORD PTR [esi]
	mov	DWORD PTR [eax], ecx

; 971  : 		this->_Myres() = _Right._Myres();

	mov	ecx, DWORD PTR __Right$[ebp]
	call	?_Myres@?$_String_alloc@U?$_String_base_types@DV?$allocator@D@std@@@std@@@std@@QAEAAIXZ ; std::_String_alloc<std::_String_base_types<char,std::allocator<char> > >::_Myres
	mov	esi, eax
	mov	ecx, DWORD PTR _this$[ebp]
	call	?_Myres@?$_String_alloc@U?$_String_base_types@DV?$allocator@D@std@@@std@@@std@@QAEAAIXZ ; std::_String_alloc<std::_String_base_types<char,std::allocator<char> > >::_Myres
	mov	ecx, DWORD PTR [esi]
	mov	DWORD PTR [eax], ecx

; 972  : 		_Right._Tidy();

	push	0
	push	0
	mov	ecx, DWORD PTR __Right$[ebp]
	call	?_Tidy@?$basic_string@DU?$char_traits@D@std@@V?$allocator@D@2@@std@@QAEX_NI@Z ; std::basic_string<char,std::char_traits<char>,std::allocator<char> >::_Tidy

; 973  : 		}

	pop	edi
	pop	esi
	pop	ebx
	add	esp, 204				; 000000ccH
	cmp	ebp, esp
	call	__RTC_CheckEsp
	mov	esp, ebp
	pop	ebp
	ret	4
?_Assign_rv@?$basic_string@DU?$char_traits@D@std@@V?$allocator@D@2@@std@@QAEX$$QAV12@@Z ENDP ; std::basic_string<char,std::char_traits<char>,std::allocator<char> >::_Assign_rv
_TEXT	ENDS
; Function compile flags: /Odtp /RTCsu /ZI
; File c:\program files (x86)\microsoft visual studio 14.0\vc\include\xstring
;	COMDAT ??4?$basic_string@DU?$char_traits@D@std@@V?$allocator@D@2@@std@@QAEAAV01@$$QAV01@@Z
_TEXT	SEGMENT
$T2 = -236						; size = 4
$T3 = -224						; size = 4
_this$ = -20						; size = 4
__$EHRec$ = -12						; size = 12
__Right$ = 8						; size = 4
??4?$basic_string@DU?$char_traits@D@std@@V?$allocator@D@2@@std@@QAEAAV01@$$QAV01@@Z PROC ; std::basic_string<char,std::char_traits<char>,std::allocator<char> >::operator=, COMDAT
; _this$ = ecx

; 928  : 		{	// assign by moving _Right

	push	ebp
	mov	ebp, esp
	push	-1
	push	__ehhandler$??4?$basic_string@DU?$char_traits@D@std@@V?$allocator@D@2@@std@@QAEAAV01@$$QAV01@@Z
	mov	eax, DWORD PTR fs:0
	push	eax
	sub	esp, 228				; 000000e4H
	push	ebx
	push	esi
	push	edi
	push	ecx
	lea	edi, DWORD PTR [ebp-240]
	mov	ecx, 57					; 00000039H
	mov	eax, -858993460				; ccccccccH
	rep stosd
	pop	ecx
	mov	eax, DWORD PTR ___security_cookie
	xor	eax, ebp
	push	eax
	lea	eax, DWORD PTR __$EHRec$[ebp]
	mov	DWORD PTR fs:0, eax
	mov	DWORD PTR _this$[ebp], ecx

; 929  : 		if (this != &_Right)

	mov	eax, DWORD PTR _this$[ebp]
	cmp	eax, DWORD PTR __Right$[ebp]
	je	$LN2@operator

; 930  : 			{	// different, assign it
; 931  : 			_Tidy(true);

	push	0
	push	1
	mov	ecx, DWORD PTR _this$[ebp]
	call	?_Tidy@?$basic_string@DU?$char_traits@D@std@@V?$allocator@D@2@@std@@QAEX_NI@Z ; std::basic_string<char,std::char_traits<char>,std::allocator<char> >::_Tidy

; 932  : 
; 933  : 			if (_Alty::propagate_on_container_move_assignment::value
; 934  : 				&& this->_Getal() != _Right._Getal())

	mov	eax, 1
	test	eax, eax
	je	SHORT $LN3@operator
	mov	ecx, DWORD PTR __Right$[ebp]
	call	?_Getal@?$_String_alloc@U?$_String_base_types@DV?$allocator@D@std@@@std@@@std@@QAEAAU?$_Wrap_alloc@V?$allocator@D@std@@@2@XZ ; std::_String_alloc<std::_String_base_types<char,std::allocator<char> > >::_Getal
	push	eax
	mov	ecx, DWORD PTR _this$[ebp]
	call	?_Getal@?$_String_alloc@U?$_String_base_types@DV?$allocator@D@std@@@std@@@std@@QAEAAU?$_Wrap_alloc@V?$allocator@D@std@@@2@XZ ; std::_String_alloc<std::_String_base_types<char,std::allocator<char> > >::_Getal
	push	eax
	call	??$?9V?$allocator@D@std@@V01@@std@@YA_NABU?$_Wrap_alloc@V?$allocator@D@std@@@0@0@Z ; std::operator!=<std::allocator<char>,std::allocator<char> >
	add	esp, 8
	movzx	eax, al
	test	eax, eax
	je	SHORT $LN3@operator

; 935  : 				this->_Move_alloc(_Right._Getal());

	mov	ecx, DWORD PTR __Right$[ebp]
	call	?_Getal@?$_String_alloc@U?$_String_base_types@DV?$allocator@D@std@@@std@@@std@@QAEAAU?$_Wrap_alloc@V?$allocator@D@std@@@2@XZ ; std::_String_alloc<std::_String_base_types<char,std::allocator<char> > >::_Getal
	push	eax
	mov	ecx, DWORD PTR _this$[ebp]
	call	?_Move_alloc@?$_String_alloc@U?$_String_base_types@DV?$allocator@D@std@@@std@@@std@@QAEXAAU?$_Wrap_alloc@V?$allocator@D@std@@@2@@Z ; std::_String_alloc<std::_String_base_types<char,std::allocator<char> > >::_Move_alloc
$LN3@operator:

; 936  : 
; 937  : 			if (this->_Getal() != _Right._Getal())

	mov	ecx, DWORD PTR __Right$[ebp]
	call	?_Getal@?$_String_alloc@U?$_String_base_types@DV?$allocator@D@std@@@std@@@std@@QAEAAU?$_Wrap_alloc@V?$allocator@D@std@@@2@XZ ; std::_String_alloc<std::_String_base_types<char,std::allocator<char> > >::_Getal
	push	eax
	mov	ecx, DWORD PTR _this$[ebp]
	call	?_Getal@?$_String_alloc@U?$_String_base_types@DV?$allocator@D@std@@@std@@@std@@QAEAAU?$_Wrap_alloc@V?$allocator@D@std@@@2@XZ ; std::_String_alloc<std::_String_base_types<char,std::allocator<char> > >::_Getal
	push	eax
	call	??$?9V?$allocator@D@std@@V01@@std@@YA_NABU?$_Wrap_alloc@V?$allocator@D@std@@@0@0@Z ; std::operator!=<std::allocator<char>,std::allocator<char> >
	add	esp, 8
	movzx	eax, al
	test	eax, eax
	je	SHORT $LN4@operator

; 938  : 				assign(_Right.begin(), _Right.end());

	sub	esp, 12					; 0000000cH
	mov	eax, esp
	mov	DWORD PTR $T3[ebp], esp
	push	eax
	mov	ecx, DWORD PTR __Right$[ebp]
	call	?end@?$basic_string@DU?$char_traits@D@std@@V?$allocator@D@2@@std@@QAE?AV?$_String_iterator@V?$_String_val@U?$_Simple_types@D@std@@@std@@@2@XZ ; std::basic_string<char,std::char_traits<char>,std::allocator<char> >::end
	sub	esp, 12					; 0000000cH
	mov	ecx, esp
	mov	DWORD PTR $T2[ebp], esp
	push	ecx
	mov	ecx, DWORD PTR __Right$[ebp]
	call	?begin@?$basic_string@DU?$char_traits@D@std@@V?$allocator@D@2@@std@@QAE?AV?$_String_iterator@V?$_String_val@U?$_Simple_types@D@std@@@std@@@2@XZ ; std::basic_string<char,std::char_traits<char>,std::allocator<char> >::begin
	mov	ecx, DWORD PTR _this$[ebp]
	call	??$assign@V?$_String_iterator@V?$_String_val@U?$_Simple_types@D@std@@@std@@@std@@@?$basic_string@DU?$char_traits@D@std@@V?$allocator@D@2@@std@@QAEAAV01@V?$_String_iterator@V?$_String_val@U?$_Simple_types@D@std@@@std@@@1@0@Z ; std::basic_string<char,std::char_traits<char>,std::allocator<char> >::assign<std::_String_iterator<std::_String_val<std::_Simple_types<char> > > >

; 939  : 			else

	jmp	SHORT $LN2@operator
$LN4@operator:

; 940  : 				_Assign_rv(_STD forward<_Myt>(_Right));

	mov	eax, DWORD PTR __Right$[ebp]
	push	eax
	call	??$forward@V?$basic_string@DU?$char_traits@D@std@@V?$allocator@D@2@@std@@@std@@YA$$QAV?$basic_string@DU?$char_traits@D@std@@V?$allocator@D@2@@0@AAV10@@Z ; std::forward<std::basic_string<char,std::char_traits<char>,std::allocator<char> > >
	add	esp, 4
	push	eax
	mov	ecx, DWORD PTR _this$[ebp]
	call	?_Assign_rv@?$basic_string@DU?$char_traits@D@std@@V?$allocator@D@2@@std@@QAEX$$QAV12@@Z ; std::basic_string<char,std::char_traits<char>,std::allocator<char> >::_Assign_rv
$LN2@operator:

; 941  : 			}
; 942  : 		return (*this);

	mov	eax, DWORD PTR _this$[ebp]

; 943  : 		}

	mov	ecx, DWORD PTR __$EHRec$[ebp]
	mov	DWORD PTR fs:0, ecx
	pop	ecx
	pop	edi
	pop	esi
	pop	ebx
	add	esp, 240				; 000000f0H
	cmp	ebp, esp
	call	__RTC_CheckEsp
	mov	esp, ebp
	pop	ebp
	ret	4
_TEXT	ENDS
;	COMDAT text$x
text$x	SEGMENT
__ehhandler$??4?$basic_string@DU?$char_traits@D@std@@V?$allocator@D@2@@std@@QAEAAV01@$$QAV01@@Z:
	mov	edx, DWORD PTR [esp+8]
	lea	eax, DWORD PTR [edx+12]
	mov	ecx, DWORD PTR [edx-244]
	xor	ecx, eax
	call	@__security_check_cookie@4
	mov	eax, OFFSET __ehfuncinfo$??4?$basic_string@DU?$char_traits@D@std@@V?$allocator@D@2@@std@@QAEAAV01@$$QAV01@@Z
	jmp	___CxxFrameHandler3
text$x	ENDS
??4?$basic_string@DU?$char_traits@D@std@@V?$allocator@D@2@@std@@QAEAAV01@$$QAV01@@Z ENDP ; std::basic_string<char,std::char_traits<char>,std::allocator<char> >::operator=
; Function compile flags: /Odtp /RTCsu /ZI
; File c:\program files (x86)\microsoft visual studio 14.0\vc\include\xstring
;	COMDAT ??0?$basic_string@DU?$char_traits@D@std@@V?$allocator@D@2@@std@@QAE@$$QAV01@@Z
_TEXT	SEGMENT
_this$ = -20						; size = 4
__$EHRec$ = -12						; size = 12
__Right$ = 8						; size = 4
??0?$basic_string@DU?$char_traits@D@std@@V?$allocator@D@2@@std@@QAE@$$QAV01@@Z PROC ; std::basic_string<char,std::char_traits<char>,std::allocator<char> >::basic_string<char,std::char_traits<char>,std::allocator<char> >, COMDAT
; _this$ = ecx

; 911  : 		{	// construct by moving _Right

	push	ebp
	mov	ebp, esp
	push	-1
	push	__ehhandler$??0?$basic_string@DU?$char_traits@D@std@@V?$allocator@D@2@@std@@QAE@$$QAV01@@Z
	mov	eax, DWORD PTR fs:0
	push	eax
	sub	esp, 204				; 000000ccH
	push	ebx
	push	esi
	push	edi
	push	ecx
	lea	edi, DWORD PTR [ebp-216]
	mov	ecx, 51					; 00000033H
	mov	eax, -858993460				; ccccccccH
	rep stosd
	pop	ecx
	mov	eax, DWORD PTR ___security_cookie
	xor	eax, ebp
	push	eax
	lea	eax, DWORD PTR __$EHRec$[ebp]
	mov	DWORD PTR fs:0, eax
	mov	DWORD PTR _this$[ebp], ecx

; 910  : 		: _Mybase(_STD move(_Right._Getal()))

	mov	ecx, DWORD PTR __Right$[ebp]
	call	?_Getal@?$_String_alloc@U?$_String_base_types@DV?$allocator@D@std@@@std@@@std@@QAEAAU?$_Wrap_alloc@V?$allocator@D@std@@@2@XZ ; std::_String_alloc<std::_String_base_types<char,std::allocator<char> > >::_Getal
	push	eax
	call	??$move@AAU?$_Wrap_alloc@V?$allocator@D@std@@@std@@@std@@YA$$QAU?$_Wrap_alloc@V?$allocator@D@std@@@0@AAU10@@Z ; std::move<std::_Wrap_alloc<std::allocator<char> > &>
	add	esp, 4
	push	eax
	mov	ecx, DWORD PTR _this$[ebp]
	call	??$?0U?$_Wrap_alloc@V?$allocator@D@std@@@std@@X@?$_String_alloc@U?$_String_base_types@DV?$allocator@D@std@@@std@@@std@@QAE@$$QAU?$_Wrap_alloc@V?$allocator@D@std@@@1@@Z ; std::_String_alloc<std::_String_base_types<char,std::allocator<char> > >::_String_alloc<std::_String_base_types<char,std::allocator<char> > ><std::_Wrap_alloc<std::allocator<char> >,void>

; 912  : 		_Tidy();

	push	0
	push	0
	mov	ecx, DWORD PTR _this$[ebp]
	call	?_Tidy@?$basic_string@DU?$char_traits@D@std@@V?$allocator@D@2@@std@@QAEX_NI@Z ; std::basic_string<char,std::char_traits<char>,std::allocator<char> >::_Tidy

; 913  : 		_Assign_rv(_STD forward<_Myt>(_Right));

	mov	eax, DWORD PTR __Right$[ebp]
	push	eax
	call	??$forward@V?$basic_string@DU?$char_traits@D@std@@V?$allocator@D@2@@std@@@std@@YA$$QAV?$basic_string@DU?$char_traits@D@std@@V?$allocator@D@2@@0@AAV10@@Z ; std::forward<std::basic_string<char,std::char_traits<char>,std::allocator<char> > >
	add	esp, 4
	push	eax
	mov	ecx, DWORD PTR _this$[ebp]
	call	?_Assign_rv@?$basic_string@DU?$char_traits@D@std@@V?$allocator@D@2@@std@@QAEX$$QAV12@@Z ; std::basic_string<char,std::char_traits<char>,std::allocator<char> >::_Assign_rv

; 914  : 		}

	mov	eax, DWORD PTR _this$[ebp]
	mov	ecx, DWORD PTR __$EHRec$[ebp]
	mov	DWORD PTR fs:0, ecx
	pop	ecx
	pop	edi
	pop	esi
	pop	ebx
	add	esp, 216				; 000000d8H
	cmp	ebp, esp
	call	__RTC_CheckEsp
	mov	esp, ebp
	pop	ebp
	ret	4
_TEXT	ENDS
;	COMDAT text$x
text$x	SEGMENT
__ehhandler$??0?$basic_string@DU?$char_traits@D@std@@V?$allocator@D@2@@std@@QAE@$$QAV01@@Z:
	mov	edx, DWORD PTR [esp+8]
	lea	eax, DWORD PTR [edx+12]
	mov	ecx, DWORD PTR [edx-220]
	xor	ecx, eax
	call	@__security_check_cookie@4
	mov	eax, OFFSET __ehfuncinfo$??0?$basic_string@DU?$char_traits@D@std@@V?$allocator@D@2@@std@@QAE@$$QAV01@@Z
	jmp	___CxxFrameHandler3
text$x	ENDS
??0?$basic_string@DU?$char_traits@D@std@@V?$allocator@D@2@@std@@QAE@$$QAV01@@Z ENDP ; std::basic_string<char,std::char_traits<char>,std::allocator<char> >::basic_string<char,std::char_traits<char>,std::allocator<char> >
; Function compile flags: /Odtp /RTCsu /ZI
; File c:\program files (x86)\microsoft visual studio 14.0\vc\include\xstring
;	COMDAT ??0?$basic_string@DU?$char_traits@D@std@@V?$allocator@D@2@@std@@QAE@XZ
_TEXT	SEGMENT
_this$ = -20						; size = 4
__$EHRec$ = -12						; size = 12
??0?$basic_string@DU?$char_traits@D@std@@V?$allocator@D@2@@std@@QAE@XZ PROC ; std::basic_string<char,std::char_traits<char>,std::allocator<char> >::basic_string<char,std::char_traits<char>,std::allocator<char> >, COMDAT
; _this$ = ecx

; 794  : 		{	// construct empty string

	push	ebp
	mov	ebp, esp
	push	-1
	push	__ehhandler$??0?$basic_string@DU?$char_traits@D@std@@V?$allocator@D@2@@std@@QAE@XZ
	mov	eax, DWORD PTR fs:0
	push	eax
	sub	esp, 204				; 000000ccH
	push	ebx
	push	esi
	push	edi
	push	ecx
	lea	edi, DWORD PTR [ebp-216]
	mov	ecx, 51					; 00000033H
	mov	eax, -858993460				; ccccccccH
	rep stosd
	pop	ecx
	mov	eax, DWORD PTR ___security_cookie
	xor	eax, ebp
	push	eax
	lea	eax, DWORD PTR __$EHRec$[ebp]
	mov	DWORD PTR fs:0, eax
	mov	DWORD PTR _this$[ebp], ecx

; 793  : 		: _Mybase()

	mov	ecx, DWORD PTR _this$[ebp]
	call	??0?$_String_alloc@U?$_String_base_types@DV?$allocator@D@std@@@std@@@std@@QAE@XZ ; std::_String_alloc<std::_String_base_types<char,std::allocator<char> > >::_String_alloc<std::_String_base_types<char,std::allocator<char> > >

; 795  : 		_Tidy();

	push	0
	push	0
	mov	ecx, DWORD PTR _this$[ebp]
	call	?_Tidy@?$basic_string@DU?$char_traits@D@std@@V?$allocator@D@2@@std@@QAEX_NI@Z ; std::basic_string<char,std::char_traits<char>,std::allocator<char> >::_Tidy

; 796  : 		}

	mov	eax, DWORD PTR _this$[ebp]
	mov	ecx, DWORD PTR __$EHRec$[ebp]
	mov	DWORD PTR fs:0, ecx
	pop	ecx
	pop	edi
	pop	esi
	pop	ebx
	add	esp, 216				; 000000d8H
	cmp	ebp, esp
	call	__RTC_CheckEsp
	mov	esp, ebp
	pop	ebp
	ret	0
_TEXT	ENDS
;	COMDAT text$x
text$x	SEGMENT
__ehhandler$??0?$basic_string@DU?$char_traits@D@std@@V?$allocator@D@2@@std@@QAE@XZ:
	mov	edx, DWORD PTR [esp+8]
	lea	eax, DWORD PTR [edx+12]
	mov	ecx, DWORD PTR [edx-220]
	xor	ecx, eax
	call	@__security_check_cookie@4
	mov	eax, OFFSET __ehfuncinfo$??0?$basic_string@DU?$char_traits@D@std@@V?$allocator@D@2@@std@@QAE@XZ
	jmp	___CxxFrameHandler3
text$x	ENDS
??0?$basic_string@DU?$char_traits@D@std@@V?$allocator@D@2@@std@@QAE@XZ ENDP ; std::basic_string<char,std::char_traits<char>,std::allocator<char> >::basic_string<char,std::char_traits<char>,std::allocator<char> >
; Function compile flags: /Odtp /RTCsu /ZI
; File c:\program files (x86)\microsoft visual studio 14.0\vc\include\xstring
;	COMDAT ??0?$basic_string@DU?$char_traits@D@std@@V?$allocator@D@2@@std@@QAE@ABV01@@Z
_TEXT	SEGMENT
$T2 = -233						; size = 1
$T3 = -221						; size = 1
_this$ = -20						; size = 4
__$EHRec$ = -12						; size = 12
__Right$ = 8						; size = 4
??0?$basic_string@DU?$char_traits@D@std@@V?$allocator@D@2@@std@@QAE@ABV01@@Z PROC ; std::basic_string<char,std::char_traits<char>,std::allocator<char> >::basic_string<char,std::char_traits<char>,std::allocator<char> >, COMDAT
; _this$ = ecx

; 780  : 		{	// construct by copying _Right

	push	ebp
	mov	ebp, esp
	push	-1
	push	__ehhandler$??0?$basic_string@DU?$char_traits@D@std@@V?$allocator@D@2@@std@@QAE@ABV01@@Z
	mov	eax, DWORD PTR fs:0
	push	eax
	sub	esp, 228				; 000000e4H
	push	ebx
	push	esi
	push	edi
	push	ecx
	lea	edi, DWORD PTR [ebp-240]
	mov	ecx, 57					; 00000039H
	mov	eax, -858993460				; ccccccccH
	rep stosd
	pop	ecx
	mov	eax, DWORD PTR ___security_cookie
	xor	eax, ebp
	push	eax
	lea	eax, DWORD PTR __$EHRec$[ebp]
	mov	DWORD PTR fs:0, eax
	mov	DWORD PTR _this$[ebp], ecx

; 777  : 		: _Mybase(_Right._Getal().select_on_container_copy_construction())

	movzx	eax, BYTE PTR $T3[ebp]
	push	eax
	lea	ecx, DWORD PTR $T2[ebp]
	push	ecx
	mov	ecx, DWORD PTR __Right$[ebp]
	call	?_Getal@?$_String_alloc@U?$_String_base_types@DV?$allocator@D@std@@@std@@@std@@QBEABU?$_Wrap_alloc@V?$allocator@D@std@@@2@XZ ; std::_String_alloc<std::_String_base_types<char,std::allocator<char> > >::_Getal
	mov	ecx, eax
	call	?select_on_container_copy_construction@?$_Wrap_alloc@V?$allocator@D@std@@@std@@QBE?AU12@U_Nil@2@@Z ; std::_Wrap_alloc<std::allocator<char> >::select_on_container_copy_construction
	push	eax
	mov	ecx, DWORD PTR _this$[ebp]
	call	??$?0U?$_Wrap_alloc@V?$allocator@D@std@@@std@@X@?$_String_alloc@U?$_String_base_types@DV?$allocator@D@std@@@std@@@std@@QAE@$$QAU?$_Wrap_alloc@V?$allocator@D@std@@@1@@Z ; std::_String_alloc<std::_String_base_types<char,std::allocator<char> > >::_String_alloc<std::_String_base_types<char,std::allocator<char> > ><std::_Wrap_alloc<std::allocator<char> >,void>
	mov	DWORD PTR __$EHRec$[ebp+8], 0

; 781  : 		_Tidy();

	push	0
	push	0
	mov	ecx, DWORD PTR _this$[ebp]
	call	?_Tidy@?$basic_string@DU?$char_traits@D@std@@V?$allocator@D@2@@std@@QAEX_NI@Z ; std::basic_string<char,std::char_traits<char>,std::allocator<char> >::_Tidy

; 782  : 		assign(_Right, 0, npos);

	mov	eax, DWORD PTR ?npos@?$basic_string@DU?$char_traits@D@std@@V?$allocator@D@2@@std@@2IB ; std::basic_string<char,std::char_traits<char>,std::allocator<char> >::npos
	push	eax
	push	0
	mov	ecx, DWORD PTR __Right$[ebp]
	push	ecx
	mov	ecx, DWORD PTR _this$[ebp]
	call	?assign@?$basic_string@DU?$char_traits@D@std@@V?$allocator@D@2@@std@@QAEAAV12@ABV12@II@Z ; std::basic_string<char,std::char_traits<char>,std::allocator<char> >::assign

; 783  : 		}

	mov	DWORD PTR __$EHRec$[ebp+8], -1
	mov	eax, DWORD PTR _this$[ebp]
	mov	ecx, DWORD PTR __$EHRec$[ebp]
	mov	DWORD PTR fs:0, ecx
	pop	ecx
	pop	edi
	pop	esi
	pop	ebx
	add	esp, 240				; 000000f0H
	cmp	ebp, esp
	call	__RTC_CheckEsp
	mov	esp, ebp
	pop	ebp
	ret	4
_TEXT	ENDS
;	COMDAT text$x
text$x	SEGMENT
__unwindfunclet$??0?$basic_string@DU?$char_traits@D@std@@V?$allocator@D@2@@std@@QAE@ABV01@@Z$0:
	mov	ecx, DWORD PTR _this$[ebp]
	jmp	??1?$_String_alloc@U?$_String_base_types@DV?$allocator@D@std@@@std@@@std@@QAE@XZ ; std::_String_alloc<std::_String_base_types<char,std::allocator<char> > >::~_String_alloc<std::_String_base_types<char,std::allocator<char> > >
__ehhandler$??0?$basic_string@DU?$char_traits@D@std@@V?$allocator@D@2@@std@@QAE@ABV01@@Z:
	mov	edx, DWORD PTR [esp+8]
	lea	eax, DWORD PTR [edx+12]
	mov	ecx, DWORD PTR [edx-244]
	xor	ecx, eax
	call	@__security_check_cookie@4
	mov	eax, OFFSET __ehfuncinfo$??0?$basic_string@DU?$char_traits@D@std@@V?$allocator@D@2@@std@@QAE@ABV01@@Z
	jmp	___CxxFrameHandler3
text$x	ENDS
??0?$basic_string@DU?$char_traits@D@std@@V?$allocator@D@2@@std@@QAE@ABV01@@Z ENDP ; std::basic_string<char,std::char_traits<char>,std::allocator<char> >::basic_string<char,std::char_traits<char>,std::allocator<char> >
; Function compile flags: /Odtp /RTCsu /ZI
;	COMDAT ??1?$_Compressed_pair@U?$_Wrap_alloc@V?$allocator@D@std@@@std@@V?$_String_val@U?$_Simple_types@D@std@@@2@$00@std@@QAE@XZ
_TEXT	SEGMENT
_this$ = -8						; size = 4
??1?$_Compressed_pair@U?$_Wrap_alloc@V?$allocator@D@std@@@std@@V?$_String_val@U?$_Simple_types@D@std@@@2@$00@std@@QAE@XZ PROC ; std::_Compressed_pair<std::_Wrap_alloc<std::allocator<char> >,std::_String_val<std::_Simple_types<char> >,1>::~_Compressed_pair<std::_Wrap_alloc<std::allocator<char> >,std::_String_val<std::_Simple_types<char> >,1>, COMDAT
; _this$ = ecx
	push	ebp
	mov	ebp, esp
	sub	esp, 204				; 000000ccH
	push	ebx
	push	esi
	push	edi
	push	ecx
	lea	edi, DWORD PTR [ebp-204]
	mov	ecx, 51					; 00000033H
	mov	eax, -858993460				; ccccccccH
	rep stosd
	pop	ecx
	mov	DWORD PTR _this$[ebp], ecx
	mov	ecx, DWORD PTR _this$[ebp]
	call	??1?$_String_val@U?$_Simple_types@D@std@@@std@@QAE@XZ
	pop	edi
	pop	esi
	pop	ebx
	add	esp, 204				; 000000ccH
	cmp	ebp, esp
	call	__RTC_CheckEsp
	mov	esp, ebp
	pop	ebp
	ret	0
??1?$_Compressed_pair@U?$_Wrap_alloc@V?$allocator@D@std@@@std@@V?$_String_val@U?$_Simple_types@D@std@@@2@$00@std@@QAE@XZ ENDP ; std::_Compressed_pair<std::_Wrap_alloc<std::allocator<char> >,std::_String_val<std::_Simple_types<char> >,1>::~_Compressed_pair<std::_Wrap_alloc<std::allocator<char> >,std::_String_val<std::_Simple_types<char> >,1>
_TEXT	ENDS
; Function compile flags: /Odtp /RTCsu /ZI
; File c:\program files (x86)\microsoft visual studio 14.0\vc\include\xutility
;	COMDAT ?_Get_second@?$_Compressed_pair@U?$_Wrap_alloc@V?$allocator@D@std@@@std@@V?$_String_val@U?$_Simple_types@D@std@@@2@$00@std@@QBEABV?$_String_val@U?$_Simple_types@D@std@@@2@XZ
_TEXT	SEGMENT
_this$ = -8						; size = 4
?_Get_second@?$_Compressed_pair@U?$_Wrap_alloc@V?$allocator@D@std@@@std@@V?$_String_val@U?$_Simple_types@D@std@@@2@$00@std@@QBEABV?$_String_val@U?$_Simple_types@D@std@@@2@XZ PROC ; std::_Compressed_pair<std::_Wrap_alloc<std::allocator<char> >,std::_String_val<std::_Simple_types<char> >,1>::_Get_second, COMDAT
; _this$ = ecx

; 319  : 		{	// return const reference to second

	push	ebp
	mov	ebp, esp
	sub	esp, 204				; 000000ccH
	push	ebx
	push	esi
	push	edi
	push	ecx
	lea	edi, DWORD PTR [ebp-204]
	mov	ecx, 51					; 00000033H
	mov	eax, -858993460				; ccccccccH
	rep stosd
	pop	ecx
	mov	DWORD PTR _this$[ebp], ecx

; 320  : 		return (_Myval2);

	mov	eax, DWORD PTR _this$[ebp]

; 321  : 		}

	pop	edi
	pop	esi
	pop	ebx
	mov	esp, ebp
	pop	ebp
	ret	0
?_Get_second@?$_Compressed_pair@U?$_Wrap_alloc@V?$allocator@D@std@@@std@@V?$_String_val@U?$_Simple_types@D@std@@@2@$00@std@@QBEABV?$_String_val@U?$_Simple_types@D@std@@@2@XZ ENDP ; std::_Compressed_pair<std::_Wrap_alloc<std::allocator<char> >,std::_String_val<std::_Simple_types<char> >,1>::_Get_second
_TEXT	ENDS
; Function compile flags: /Odtp /RTCsu /ZI
; File c:\program files (x86)\microsoft visual studio 14.0\vc\include\xutility
;	COMDAT ?_Get_second@?$_Compressed_pair@U?$_Wrap_alloc@V?$allocator@D@std@@@std@@V?$_String_val@U?$_Simple_types@D@std@@@2@$00@std@@QAEAAV?$_String_val@U?$_Simple_types@D@std@@@2@XZ
_TEXT	SEGMENT
_this$ = -8						; size = 4
?_Get_second@?$_Compressed_pair@U?$_Wrap_alloc@V?$allocator@D@std@@@std@@V?$_String_val@U?$_Simple_types@D@std@@@2@$00@std@@QAEAAV?$_String_val@U?$_Simple_types@D@std@@@2@XZ PROC ; std::_Compressed_pair<std::_Wrap_alloc<std::allocator<char> >,std::_String_val<std::_Simple_types<char> >,1>::_Get_second, COMDAT
; _this$ = ecx

; 314  : 		{	// return reference to second

	push	ebp
	mov	ebp, esp
	sub	esp, 204				; 000000ccH
	push	ebx
	push	esi
	push	edi
	push	ecx
	lea	edi, DWORD PTR [ebp-204]
	mov	ecx, 51					; 00000033H
	mov	eax, -858993460				; ccccccccH
	rep stosd
	pop	ecx
	mov	DWORD PTR _this$[ebp], ecx

; 315  : 		return (_Myval2);

	mov	eax, DWORD PTR _this$[ebp]

; 316  : 		}

	pop	edi
	pop	esi
	pop	ebx
	mov	esp, ebp
	pop	ebp
	ret	0
?_Get_second@?$_Compressed_pair@U?$_Wrap_alloc@V?$allocator@D@std@@@std@@V?$_String_val@U?$_Simple_types@D@std@@@2@$00@std@@QAEAAV?$_String_val@U?$_Simple_types@D@std@@@2@XZ ENDP ; std::_Compressed_pair<std::_Wrap_alloc<std::allocator<char> >,std::_String_val<std::_Simple_types<char> >,1>::_Get_second
_TEXT	ENDS
; Function compile flags: /Odtp /RTCsu /ZI
; File c:\program files (x86)\microsoft visual studio 14.0\vc\include\xutility
;	COMDAT ?_Get_first@?$_Compressed_pair@U?$_Wrap_alloc@V?$allocator@D@std@@@std@@V?$_String_val@U?$_Simple_types@D@std@@@2@$00@std@@QBEABU?$_Wrap_alloc@V?$allocator@D@std@@@2@XZ
_TEXT	SEGMENT
_this$ = -8						; size = 4
?_Get_first@?$_Compressed_pair@U?$_Wrap_alloc@V?$allocator@D@std@@@std@@V?$_String_val@U?$_Simple_types@D@std@@@2@$00@std@@QBEABU?$_Wrap_alloc@V?$allocator@D@std@@@2@XZ PROC ; std::_Compressed_pair<std::_Wrap_alloc<std::allocator<char> >,std::_String_val<std::_Simple_types<char> >,1>::_Get_first, COMDAT
; _this$ = ecx

; 299  : 		{	// return const reference to first

	push	ebp
	mov	ebp, esp
	sub	esp, 204				; 000000ccH
	push	ebx
	push	esi
	push	edi
	push	ecx
	lea	edi, DWORD PTR [ebp-204]
	mov	ecx, 51					; 00000033H
	mov	eax, -858993460				; ccccccccH
	rep stosd
	pop	ecx
	mov	DWORD PTR _this$[ebp], ecx

; 300  : 		return (*this);

	mov	eax, DWORD PTR _this$[ebp]

; 301  : 		}

	pop	edi
	pop	esi
	pop	ebx
	mov	esp, ebp
	pop	ebp
	ret	0
?_Get_first@?$_Compressed_pair@U?$_Wrap_alloc@V?$allocator@D@std@@@std@@V?$_String_val@U?$_Simple_types@D@std@@@2@$00@std@@QBEABU?$_Wrap_alloc@V?$allocator@D@std@@@2@XZ ENDP ; std::_Compressed_pair<std::_Wrap_alloc<std::allocator<char> >,std::_String_val<std::_Simple_types<char> >,1>::_Get_first
_TEXT	ENDS
; Function compile flags: /Odtp /RTCsu /ZI
; File c:\program files (x86)\microsoft visual studio 14.0\vc\include\xutility
;	COMDAT ?_Get_first@?$_Compressed_pair@U?$_Wrap_alloc@V?$allocator@D@std@@@std@@V?$_String_val@U?$_Simple_types@D@std@@@2@$00@std@@QAEAAU?$_Wrap_alloc@V?$allocator@D@std@@@2@XZ
_TEXT	SEGMENT
_this$ = -8						; size = 4
?_Get_first@?$_Compressed_pair@U?$_Wrap_alloc@V?$allocator@D@std@@@std@@V?$_String_val@U?$_Simple_types@D@std@@@2@$00@std@@QAEAAU?$_Wrap_alloc@V?$allocator@D@std@@@2@XZ PROC ; std::_Compressed_pair<std::_Wrap_alloc<std::allocator<char> >,std::_String_val<std::_Simple_types<char> >,1>::_Get_first, COMDAT
; _this$ = ecx

; 294  : 		{	// return reference to first

	push	ebp
	mov	ebp, esp
	sub	esp, 204				; 000000ccH
	push	ebx
	push	esi
	push	edi
	push	ecx
	lea	edi, DWORD PTR [ebp-204]
	mov	ecx, 51					; 00000033H
	mov	eax, -858993460				; ccccccccH
	rep stosd
	pop	ecx
	mov	DWORD PTR _this$[ebp], ecx

; 295  : 		return (*this);

	mov	eax, DWORD PTR _this$[ebp]

; 296  : 		}

	pop	edi
	pop	esi
	pop	ebx
	mov	esp, ebp
	pop	ebp
	ret	0
?_Get_first@?$_Compressed_pair@U?$_Wrap_alloc@V?$allocator@D@std@@@std@@V?$_String_val@U?$_Simple_types@D@std@@@2@$00@std@@QAEAAU?$_Wrap_alloc@V?$allocator@D@std@@@2@XZ ENDP ; std::_Compressed_pair<std::_Wrap_alloc<std::allocator<char> >,std::_String_val<std::_Simple_types<char> >,1>::_Get_first
_TEXT	ENDS
; Function compile flags: /Odtp /RTCsu /ZI
; File c:\program files (x86)\microsoft visual studio 14.0\vc\include\xstring
;	COMDAT ?_Myres@?$_String_alloc@U?$_String_base_types@DV?$allocator@D@std@@@std@@@std@@QAEAAIXZ
_TEXT	SEGMENT
_this$ = -8						; size = 4
?_Myres@?$_String_alloc@U?$_String_base_types@DV?$allocator@D@std@@@std@@@std@@QAEAAIXZ PROC ; std::_String_alloc<std::_String_base_types<char,std::allocator<char> > >::_Myres, COMDAT
; _this$ = ecx

; 733  : 		{	// return reference to _Myres

	push	ebp
	mov	ebp, esp
	sub	esp, 204				; 000000ccH
	push	ebx
	push	esi
	push	edi
	push	ecx
	lea	edi, DWORD PTR [ebp-204]
	mov	ecx, 51					; 00000033H
	mov	eax, -858993460				; ccccccccH
	rep stosd
	pop	ecx
	mov	DWORD PTR _this$[ebp], ecx

; 734  : 		return (_Get_data()._Myres);

	mov	ecx, DWORD PTR _this$[ebp]
	call	?_Get_data@?$_String_alloc@U?$_String_base_types@DV?$allocator@D@std@@@std@@@std@@QAEAAV?$_String_val@U?$_Simple_types@D@std@@@2@XZ ; std::_String_alloc<std::_String_base_types<char,std::allocator<char> > >::_Get_data
	add	eax, 24					; 00000018H

; 735  : 		}

	pop	edi
	pop	esi
	pop	ebx
	add	esp, 204				; 000000ccH
	cmp	ebp, esp
	call	__RTC_CheckEsp
	mov	esp, ebp
	pop	ebp
	ret	0
?_Myres@?$_String_alloc@U?$_String_base_types@DV?$allocator@D@std@@@std@@@std@@QAEAAIXZ ENDP ; std::_String_alloc<std::_String_base_types<char,std::allocator<char> > >::_Myres
_TEXT	ENDS
; Function compile flags: /Odtp /RTCsu /ZI
; File c:\program files (x86)\microsoft visual studio 14.0\vc\include\xstring
;	COMDAT ?_Mysize@?$_String_alloc@U?$_String_base_types@DV?$allocator@D@std@@@std@@@std@@QBEABIXZ
_TEXT	SEGMENT
_this$ = -8						; size = 4
?_Mysize@?$_String_alloc@U?$_String_base_types@DV?$allocator@D@std@@@std@@@std@@QBEABIXZ PROC ; std::_String_alloc<std::_String_base_types<char,std::allocator<char> > >::_Mysize, COMDAT
; _this$ = ecx

; 728  : 		{	// return const reference to _Mysize

	push	ebp
	mov	ebp, esp
	sub	esp, 204				; 000000ccH
	push	ebx
	push	esi
	push	edi
	push	ecx
	lea	edi, DWORD PTR [ebp-204]
	mov	ecx, 51					; 00000033H
	mov	eax, -858993460				; ccccccccH
	rep stosd
	pop	ecx
	mov	DWORD PTR _this$[ebp], ecx

; 729  : 		return (_Get_data()._Mysize);

	mov	ecx, DWORD PTR _this$[ebp]
	call	?_Get_data@?$_String_alloc@U?$_String_base_types@DV?$allocator@D@std@@@std@@@std@@QBEABV?$_String_val@U?$_Simple_types@D@std@@@2@XZ ; std::_String_alloc<std::_String_base_types<char,std::allocator<char> > >::_Get_data
	add	eax, 20					; 00000014H

; 730  : 		}

	pop	edi
	pop	esi
	pop	ebx
	add	esp, 204				; 000000ccH
	cmp	ebp, esp
	call	__RTC_CheckEsp
	mov	esp, ebp
	pop	ebp
	ret	0
?_Mysize@?$_String_alloc@U?$_String_base_types@DV?$allocator@D@std@@@std@@@std@@QBEABIXZ ENDP ; std::_String_alloc<std::_String_base_types<char,std::allocator<char> > >::_Mysize
_TEXT	ENDS
; Function compile flags: /Odtp /RTCsu /ZI
; File c:\program files (x86)\microsoft visual studio 14.0\vc\include\xstring
;	COMDAT ?_Mysize@?$_String_alloc@U?$_String_base_types@DV?$allocator@D@std@@@std@@@std@@QAEAAIXZ
_TEXT	SEGMENT
_this$ = -8						; size = 4
?_Mysize@?$_String_alloc@U?$_String_base_types@DV?$allocator@D@std@@@std@@@std@@QAEAAIXZ PROC ; std::_String_alloc<std::_String_base_types<char,std::allocator<char> > >::_Mysize, COMDAT
; _this$ = ecx

; 723  : 		{	// return reference to _Mysize

	push	ebp
	mov	ebp, esp
	sub	esp, 204				; 000000ccH
	push	ebx
	push	esi
	push	edi
	push	ecx
	lea	edi, DWORD PTR [ebp-204]
	mov	ecx, 51					; 00000033H
	mov	eax, -858993460				; ccccccccH
	rep stosd
	pop	ecx
	mov	DWORD PTR _this$[ebp], ecx

; 724  : 		return (_Get_data()._Mysize);

	mov	ecx, DWORD PTR _this$[ebp]
	call	?_Get_data@?$_String_alloc@U?$_String_base_types@DV?$allocator@D@std@@@std@@@std@@QAEAAV?$_String_val@U?$_Simple_types@D@std@@@2@XZ ; std::_String_alloc<std::_String_base_types<char,std::allocator<char> > >::_Get_data
	add	eax, 20					; 00000014H

; 725  : 		}

	pop	edi
	pop	esi
	pop	ebx
	add	esp, 204				; 000000ccH
	cmp	ebp, esp
	call	__RTC_CheckEsp
	mov	esp, ebp
	pop	ebp
	ret	0
?_Mysize@?$_String_alloc@U?$_String_base_types@DV?$allocator@D@std@@@std@@@std@@QAEAAIXZ ENDP ; std::_String_alloc<std::_String_base_types<char,std::allocator<char> > >::_Mysize
_TEXT	ENDS
; Function compile flags: /Odtp /RTCsu /ZI
; File c:\program files (x86)\microsoft visual studio 14.0\vc\include\xstring
;	COMDAT ?_Bx@?$_String_alloc@U?$_String_base_types@DV?$allocator@D@std@@@std@@@std@@QAEAAT_Bxty@?$_String_val@U?$_Simple_types@D@std@@@2@XZ
_TEXT	SEGMENT
_this$ = -8						; size = 4
?_Bx@?$_String_alloc@U?$_String_base_types@DV?$allocator@D@std@@@std@@@std@@QAEAAT_Bxty@?$_String_val@U?$_Simple_types@D@std@@@2@XZ PROC ; std::_String_alloc<std::_String_base_types<char,std::allocator<char> > >::_Bx, COMDAT
; _this$ = ecx

; 713  : 		{	// return reference to _Bx

	push	ebp
	mov	ebp, esp
	sub	esp, 204				; 000000ccH
	push	ebx
	push	esi
	push	edi
	push	ecx
	lea	edi, DWORD PTR [ebp-204]
	mov	ecx, 51					; 00000033H
	mov	eax, -858993460				; ccccccccH
	rep stosd
	pop	ecx
	mov	DWORD PTR _this$[ebp], ecx

; 714  : 		return (_Get_data()._Bx);

	mov	ecx, DWORD PTR _this$[ebp]
	call	?_Get_data@?$_String_alloc@U?$_String_base_types@DV?$allocator@D@std@@@std@@@std@@QAEAAV?$_String_val@U?$_Simple_types@D@std@@@2@XZ ; std::_String_alloc<std::_String_base_types<char,std::allocator<char> > >::_Get_data
	add	eax, 4

; 715  : 		}

	pop	edi
	pop	esi
	pop	ebx
	add	esp, 204				; 000000ccH
	cmp	ebp, esp
	call	__RTC_CheckEsp
	mov	esp, ebp
	pop	ebp
	ret	0
?_Bx@?$_String_alloc@U?$_String_base_types@DV?$allocator@D@std@@@std@@@std@@QAEAAT_Bxty@?$_String_val@U?$_Simple_types@D@std@@@2@XZ ENDP ; std::_String_alloc<std::_String_base_types<char,std::allocator<char> > >::_Bx
_TEXT	ENDS
; Function compile flags: /Odtp /RTCsu /ZI
; File c:\program files (x86)\microsoft visual studio 14.0\vc\include\xstring
;	COMDAT ?_Get_data@?$_String_alloc@U?$_String_base_types@DV?$allocator@D@std@@@std@@@std@@QBEABV?$_String_val@U?$_Simple_types@D@std@@@2@XZ
_TEXT	SEGMENT
_this$ = -8						; size = 4
?_Get_data@?$_String_alloc@U?$_String_base_types@DV?$allocator@D@std@@@std@@@std@@QBEABV?$_String_val@U?$_Simple_types@D@std@@@2@XZ PROC ; std::_String_alloc<std::_String_base_types<char,std::allocator<char> > >::_Get_data, COMDAT
; _this$ = ecx

; 706  : 		{	// return const reference to _String_val

	push	ebp
	mov	ebp, esp
	sub	esp, 204				; 000000ccH
	push	ebx
	push	esi
	push	edi
	push	ecx
	lea	edi, DWORD PTR [ebp-204]
	mov	ecx, 51					; 00000033H
	mov	eax, -858993460				; ccccccccH
	rep stosd
	pop	ecx
	mov	DWORD PTR _this$[ebp], ecx

; 707  : 		return (_Mypair._Get_second());

	mov	ecx, DWORD PTR _this$[ebp]
	call	?_Get_second@?$_Compressed_pair@U?$_Wrap_alloc@V?$allocator@D@std@@@std@@V?$_String_val@U?$_Simple_types@D@std@@@2@$00@std@@QBEABV?$_String_val@U?$_Simple_types@D@std@@@2@XZ ; std::_Compressed_pair<std::_Wrap_alloc<std::allocator<char> >,std::_String_val<std::_Simple_types<char> >,1>::_Get_second

; 708  : 		}

	pop	edi
	pop	esi
	pop	ebx
	add	esp, 204				; 000000ccH
	cmp	ebp, esp
	call	__RTC_CheckEsp
	mov	esp, ebp
	pop	ebp
	ret	0
?_Get_data@?$_String_alloc@U?$_String_base_types@DV?$allocator@D@std@@@std@@@std@@QBEABV?$_String_val@U?$_Simple_types@D@std@@@2@XZ ENDP ; std::_String_alloc<std::_String_base_types<char,std::allocator<char> > >::_Get_data
_TEXT	ENDS
; Function compile flags: /Odtp /RTCsu /ZI
; File c:\program files (x86)\microsoft visual studio 14.0\vc\include\xstring
;	COMDAT ?_Get_data@?$_String_alloc@U?$_String_base_types@DV?$allocator@D@std@@@std@@@std@@QAEAAV?$_String_val@U?$_Simple_types@D@std@@@2@XZ
_TEXT	SEGMENT
_this$ = -8						; size = 4
?_Get_data@?$_String_alloc@U?$_String_base_types@DV?$allocator@D@std@@@std@@@std@@QAEAAV?$_String_val@U?$_Simple_types@D@std@@@2@XZ PROC ; std::_String_alloc<std::_String_base_types<char,std::allocator<char> > >::_Get_data, COMDAT
; _this$ = ecx

; 701  : 		{	// return reference to _String_val

	push	ebp
	mov	ebp, esp
	sub	esp, 204				; 000000ccH
	push	ebx
	push	esi
	push	edi
	push	ecx
	lea	edi, DWORD PTR [ebp-204]
	mov	ecx, 51					; 00000033H
	mov	eax, -858993460				; ccccccccH
	rep stosd
	pop	ecx
	mov	DWORD PTR _this$[ebp], ecx

; 702  : 		return (_Mypair._Get_second());

	mov	ecx, DWORD PTR _this$[ebp]
	call	?_Get_second@?$_Compressed_pair@U?$_Wrap_alloc@V?$allocator@D@std@@@std@@V?$_String_val@U?$_Simple_types@D@std@@@2@$00@std@@QAEAAV?$_String_val@U?$_Simple_types@D@std@@@2@XZ ; std::_Compressed_pair<std::_Wrap_alloc<std::allocator<char> >,std::_String_val<std::_Simple_types<char> >,1>::_Get_second

; 703  : 		}

	pop	edi
	pop	esi
	pop	ebx
	add	esp, 204				; 000000ccH
	cmp	ebp, esp
	call	__RTC_CheckEsp
	mov	esp, ebp
	pop	ebp
	ret	0
?_Get_data@?$_String_alloc@U?$_String_base_types@DV?$allocator@D@std@@@std@@@std@@QAEAAV?$_String_val@U?$_Simple_types@D@std@@@2@XZ ENDP ; std::_String_alloc<std::_String_base_types<char,std::allocator<char> > >::_Get_data
_TEXT	ENDS
; Function compile flags: /Odtp /RTCsu /ZI
; File c:\program files (x86)\microsoft visual studio 14.0\vc\include\xstring
;	COMDAT ?_Getal@?$_String_alloc@U?$_String_base_types@DV?$allocator@D@std@@@std@@@std@@QBEABU?$_Wrap_alloc@V?$allocator@D@std@@@2@XZ
_TEXT	SEGMENT
_this$ = -8						; size = 4
?_Getal@?$_String_alloc@U?$_String_base_types@DV?$allocator@D@std@@@std@@@std@@QBEABU?$_Wrap_alloc@V?$allocator@D@std@@@2@XZ PROC ; std::_String_alloc<std::_String_base_types<char,std::allocator<char> > >::_Getal, COMDAT
; _this$ = ecx

; 696  : 		{	// return const reference to allocator

	push	ebp
	mov	ebp, esp
	sub	esp, 204				; 000000ccH
	push	ebx
	push	esi
	push	edi
	push	ecx
	lea	edi, DWORD PTR [ebp-204]
	mov	ecx, 51					; 00000033H
	mov	eax, -858993460				; ccccccccH
	rep stosd
	pop	ecx
	mov	DWORD PTR _this$[ebp], ecx

; 697  : 		return (_Mypair._Get_first());

	mov	ecx, DWORD PTR _this$[ebp]
	call	?_Get_first@?$_Compressed_pair@U?$_Wrap_alloc@V?$allocator@D@std@@@std@@V?$_String_val@U?$_Simple_types@D@std@@@2@$00@std@@QBEABU?$_Wrap_alloc@V?$allocator@D@std@@@2@XZ ; std::_Compressed_pair<std::_Wrap_alloc<std::allocator<char> >,std::_String_val<std::_Simple_types<char> >,1>::_Get_first

; 698  : 		}

	pop	edi
	pop	esi
	pop	ebx
	add	esp, 204				; 000000ccH
	cmp	ebp, esp
	call	__RTC_CheckEsp
	mov	esp, ebp
	pop	ebp
	ret	0
?_Getal@?$_String_alloc@U?$_String_base_types@DV?$allocator@D@std@@@std@@@std@@QBEABU?$_Wrap_alloc@V?$allocator@D@std@@@2@XZ ENDP ; std::_String_alloc<std::_String_base_types<char,std::allocator<char> > >::_Getal
_TEXT	ENDS
; Function compile flags: /Odtp /RTCsu /ZI
; File c:\program files (x86)\microsoft visual studio 14.0\vc\include\xstring
;	COMDAT ?_Getal@?$_String_alloc@U?$_String_base_types@DV?$allocator@D@std@@@std@@@std@@QAEAAU?$_Wrap_alloc@V?$allocator@D@std@@@2@XZ
_TEXT	SEGMENT
_this$ = -8						; size = 4
?_Getal@?$_String_alloc@U?$_String_base_types@DV?$allocator@D@std@@@std@@@std@@QAEAAU?$_Wrap_alloc@V?$allocator@D@std@@@2@XZ PROC ; std::_String_alloc<std::_String_base_types<char,std::allocator<char> > >::_Getal, COMDAT
; _this$ = ecx

; 691  : 		{	// return reference to allocator

	push	ebp
	mov	ebp, esp
	sub	esp, 204				; 000000ccH
	push	ebx
	push	esi
	push	edi
	push	ecx
	lea	edi, DWORD PTR [ebp-204]
	mov	ecx, 51					; 00000033H
	mov	eax, -858993460				; ccccccccH
	rep stosd
	pop	ecx
	mov	DWORD PTR _this$[ebp], ecx

; 692  : 		return (_Mypair._Get_first());

	mov	ecx, DWORD PTR _this$[ebp]
	call	?_Get_first@?$_Compressed_pair@U?$_Wrap_alloc@V?$allocator@D@std@@@std@@V?$_String_val@U?$_Simple_types@D@std@@@2@$00@std@@QAEAAU?$_Wrap_alloc@V?$allocator@D@std@@@2@XZ ; std::_Compressed_pair<std::_Wrap_alloc<std::allocator<char> >,std::_String_val<std::_Simple_types<char> >,1>::_Get_first

; 693  : 		}

	pop	edi
	pop	esi
	pop	ebx
	add	esp, 204				; 000000ccH
	cmp	ebp, esp
	call	__RTC_CheckEsp
	mov	esp, ebp
	pop	ebp
	ret	0
?_Getal@?$_String_alloc@U?$_String_base_types@DV?$allocator@D@std@@@std@@@std@@QAEAAU?$_Wrap_alloc@V?$allocator@D@std@@@2@XZ ENDP ; std::_String_alloc<std::_String_base_types<char,std::allocator<char> > >::_Getal
_TEXT	ENDS
; Function compile flags: /Odtp /RTCsu /ZI
; File c:\program files (x86)\microsoft visual studio 14.0\vc\include\xstring
;	COMDAT ?_Orphan_all@?$_String_alloc@U?$_String_base_types@DV?$allocator@D@std@@@std@@@std@@QAEXXZ
_TEXT	SEGMENT
_this$ = -8						; size = 4
?_Orphan_all@?$_String_alloc@U?$_String_base_types@DV?$allocator@D@std@@@std@@@std@@QAEXXZ PROC ; std::_String_alloc<std::_String_base_types<char,std::allocator<char> > >::_Orphan_all, COMDAT
; _this$ = ecx

; 681  : 		{	// orphan all iterators

	push	ebp
	mov	ebp, esp
	sub	esp, 204				; 000000ccH
	push	ebx
	push	esi
	push	edi
	push	ecx
	lea	edi, DWORD PTR [ebp-204]
	mov	ecx, 51					; 00000033H
	mov	eax, -858993460				; ccccccccH
	rep stosd
	pop	ecx
	mov	DWORD PTR _this$[ebp], ecx

; 682  : 		_Get_data()._Orphan_all();

	mov	ecx, DWORD PTR _this$[ebp]
	call	?_Get_data@?$_String_alloc@U?$_String_base_types@DV?$allocator@D@std@@@std@@@std@@QAEAAV?$_String_val@U?$_Simple_types@D@std@@@2@XZ ; std::_String_alloc<std::_String_base_types<char,std::allocator<char> > >::_Get_data
	mov	ecx, eax
	call	?_Orphan_all@_Container_base12@std@@QAEXXZ ; std::_Container_base12::_Orphan_all

; 683  : 		}

	pop	edi
	pop	esi
	pop	ebx
	add	esp, 204				; 000000ccH
	cmp	ebp, esp
	call	__RTC_CheckEsp
	mov	esp, ebp
	pop	ebp
	ret	0
?_Orphan_all@?$_String_alloc@U?$_String_base_types@DV?$allocator@D@std@@@std@@@std@@QAEXXZ ENDP ; std::_String_alloc<std::_String_base_types<char,std::allocator<char> > >::_Orphan_all
_TEXT	ENDS
; Function compile flags: /Odtp /RTCsu /ZI
; File c:\program files (x86)\microsoft visual studio 14.0\vc\include\xstring
;	COMDAT ?_Myproxy@?$_String_alloc@U?$_String_base_types@DV?$allocator@D@std@@@std@@@std@@QAEAAPAU_Container_proxy@2@XZ
_TEXT	SEGMENT
_this$ = -8						; size = 4
?_Myproxy@?$_String_alloc@U?$_String_base_types@DV?$allocator@D@std@@@std@@@std@@QAEAAPAU_Container_proxy@2@XZ PROC ; std::_String_alloc<std::_String_base_types<char,std::allocator<char> > >::_Myproxy, COMDAT
; _this$ = ecx

; 670  : 		{	// return reference to _Myproxy

	push	ebp
	mov	ebp, esp
	sub	esp, 204				; 000000ccH
	push	ebx
	push	esi
	push	edi
	push	ecx
	lea	edi, DWORD PTR [ebp-204]
	mov	ecx, 51					; 00000033H
	mov	eax, -858993460				; ccccccccH
	rep stosd
	pop	ecx
	mov	DWORD PTR _this$[ebp], ecx

; 671  : 		return (_Get_data()._Myproxy);

	mov	ecx, DWORD PTR _this$[ebp]
	call	?_Get_data@?$_String_alloc@U?$_String_base_types@DV?$allocator@D@std@@@std@@@std@@QAEAAV?$_String_val@U?$_Simple_types@D@std@@@2@XZ ; std::_String_alloc<std::_String_base_types<char,std::allocator<char> > >::_Get_data

; 672  : 		}

	pop	edi
	pop	esi
	pop	ebx
	add	esp, 204				; 000000ccH
	cmp	ebp, esp
	call	__RTC_CheckEsp
	mov	esp, ebp
	pop	ebp
	ret	0
?_Myproxy@?$_String_alloc@U?$_String_base_types@DV?$allocator@D@std@@@std@@@std@@QAEAAPAU_Container_proxy@2@XZ ENDP ; std::_String_alloc<std::_String_base_types<char,std::allocator<char> > >::_Myproxy
_TEXT	ENDS
; Function compile flags: /Odtp /RTCsu /ZI
; File c:\program files (x86)\microsoft visual studio 14.0\vc\include\xstring
;	COMDAT ?_Free_proxy@?$_String_alloc@U?$_String_base_types@DV?$allocator@D@std@@@std@@@std@@QAEXXZ
_TEXT	SEGMENT
__Alproxy$ = -17					; size = 1
_this$ = -8						; size = 4
?_Free_proxy@?$_String_alloc@U?$_String_base_types@DV?$allocator@D@std@@@std@@@std@@QAEXXZ PROC ; std::_String_alloc<std::_String_base_types<char,std::allocator<char> > >::_Free_proxy, COMDAT
; _this$ = ecx

; 655  : 		{	// destroy proxy

	push	ebp
	mov	ebp, esp
	sub	esp, 216				; 000000d8H
	push	ebx
	push	esi
	push	edi
	push	ecx
	lea	edi, DWORD PTR [ebp-216]
	mov	ecx, 54					; 00000036H
	mov	eax, -858993460				; ccccccccH
	rep stosd
	pop	ecx
	mov	DWORD PTR _this$[ebp], ecx

; 656  : 		typename _Alty::template rebind<_Container_proxy>::other
; 657  : 			_Alproxy(_Getal());

	mov	ecx, DWORD PTR _this$[ebp]
	call	?_Getal@?$_String_alloc@U?$_String_base_types@DV?$allocator@D@std@@@std@@@std@@QAEAAU?$_Wrap_alloc@V?$allocator@D@std@@@2@XZ ; std::_String_alloc<std::_String_base_types<char,std::allocator<char> > >::_Getal
	push	eax
	lea	ecx, DWORD PTR __Alproxy$[ebp]
	call	??$?0AAU?$_Wrap_alloc@V?$allocator@D@std@@@std@@@?$_Wrap_alloc@V?$allocator@U_Container_proxy@std@@@std@@@std@@QAE@AAU?$_Wrap_alloc@V?$allocator@D@std@@@1@@Z ; std::_Wrap_alloc<std::allocator<std::_Container_proxy> >::_Wrap_alloc<std::allocator<std::_Container_proxy> ><std::_Wrap_alloc<std::allocator<char> > &>

; 658  : 		_Orphan_all();

	mov	ecx, DWORD PTR _this$[ebp]
	call	?_Orphan_all@?$_String_alloc@U?$_String_base_types@DV?$allocator@D@std@@@std@@@std@@QAEXXZ ; std::_String_alloc<std::_String_base_types<char,std::allocator<char> > >::_Orphan_all

; 659  : 		_Alproxy.destroy(_Myproxy());

	mov	ecx, DWORD PTR _this$[ebp]
	call	?_Myproxy@?$_String_alloc@U?$_String_base_types@DV?$allocator@D@std@@@std@@@std@@QAEAAPAU_Container_proxy@2@XZ ; std::_String_alloc<std::_String_base_types<char,std::allocator<char> > >::_Myproxy
	mov	eax, DWORD PTR [eax]
	push	eax
	lea	ecx, DWORD PTR __Alproxy$[ebp]
	call	??$destroy@U_Container_proxy@std@@@?$_Wrap_alloc@V?$allocator@U_Container_proxy@std@@@std@@@std@@QAEXPAU_Container_proxy@1@@Z ; std::_Wrap_alloc<std::allocator<std::_Container_proxy> >::destroy<std::_Container_proxy>

; 660  : 		_Alproxy.deallocate(_Alproxy.address(*_Myproxy()), 1);

	push	1
	mov	ecx, DWORD PTR _this$[ebp]
	call	?_Myproxy@?$_String_alloc@U?$_String_base_types@DV?$allocator@D@std@@@std@@@std@@QAEAAPAU_Container_proxy@2@XZ ; std::_String_alloc<std::_String_base_types<char,std::allocator<char> > >::_Myproxy
	mov	eax, DWORD PTR [eax]
	push	eax
	lea	ecx, DWORD PTR __Alproxy$[ebp]
	call	?address@?$_Wrap_alloc@V?$allocator@U_Container_proxy@std@@@std@@@std@@QBEPAU_Container_proxy@2@AAU32@@Z ; std::_Wrap_alloc<std::allocator<std::_Container_proxy> >::address
	push	eax
	lea	ecx, DWORD PTR __Alproxy$[ebp]
	call	?deallocate@?$_Wrap_alloc@V?$allocator@U_Container_proxy@std@@@std@@@std@@QAEXPAU_Container_proxy@2@I@Z ; std::_Wrap_alloc<std::allocator<std::_Container_proxy> >::deallocate

; 661  : 		_Myproxy() = 0;

	mov	ecx, DWORD PTR _this$[ebp]
	call	?_Myproxy@?$_String_alloc@U?$_String_base_types@DV?$allocator@D@std@@@std@@@std@@QAEAAPAU_Container_proxy@2@XZ ; std::_String_alloc<std::_String_base_types<char,std::allocator<char> > >::_Myproxy
	mov	DWORD PTR [eax], 0

; 662  : 		}

	push	edx
	mov	ecx, ebp
	push	eax
	lea	edx, DWORD PTR $LN5@Free_proxy
	call	@_RTC_CheckStackVars@8
	pop	eax
	pop	edx
	pop	edi
	pop	esi
	pop	ebx
	add	esp, 216				; 000000d8H
	cmp	ebp, esp
	call	__RTC_CheckEsp
	mov	esp, ebp
	pop	ebp
	ret	0
$LN5@Free_proxy:
	DD	1
	DD	$LN4@Free_proxy
$LN4@Free_proxy:
	DD	-17					; ffffffefH
	DD	1
	DD	$LN3@Free_proxy
$LN3@Free_proxy:
	DB	95					; 0000005fH
	DB	65					; 00000041H
	DB	108					; 0000006cH
	DB	112					; 00000070H
	DB	114					; 00000072H
	DB	111					; 0000006fH
	DB	120					; 00000078H
	DB	121					; 00000079H
	DB	0
?_Free_proxy@?$_String_alloc@U?$_String_base_types@DV?$allocator@D@std@@@std@@@std@@QAEXXZ ENDP ; std::_String_alloc<std::_String_base_types<char,std::allocator<char> > >::_Free_proxy
_TEXT	ENDS
; Function compile flags: /Odtp /RTCsu /ZI
; File c:\program files (x86)\microsoft visual studio 14.0\vc\include\xstring
;	COMDAT ?_Alloc_proxy@?$_String_alloc@U?$_String_base_types@DV?$allocator@D@std@@@std@@@std@@QAEXXZ
_TEXT	SEGMENT
$T1 = -228						; size = 8
__Alproxy$ = -17					; size = 1
_this$ = -8						; size = 4
?_Alloc_proxy@?$_String_alloc@U?$_String_base_types@DV?$allocator@D@std@@@std@@@std@@QAEXXZ PROC ; std::_String_alloc<std::_String_base_types<char,std::allocator<char> > >::_Alloc_proxy, COMDAT
; _this$ = ecx

; 646  : 		{	// construct proxy

	push	ebp
	mov	ebp, esp
	sub	esp, 232				; 000000e8H
	push	ebx
	push	esi
	push	edi
	push	ecx
	lea	edi, DWORD PTR [ebp-232]
	mov	ecx, 58					; 0000003aH
	mov	eax, -858993460				; ccccccccH
	rep stosd
	pop	ecx
	mov	DWORD PTR _this$[ebp], ecx

; 647  : 		typename _Alty::template rebind<_Container_proxy>::other
; 648  : 			_Alproxy(_Getal());

	mov	ecx, DWORD PTR _this$[ebp]
	call	?_Getal@?$_String_alloc@U?$_String_base_types@DV?$allocator@D@std@@@std@@@std@@QAEAAU?$_Wrap_alloc@V?$allocator@D@std@@@2@XZ ; std::_String_alloc<std::_String_base_types<char,std::allocator<char> > >::_Getal
	push	eax
	lea	ecx, DWORD PTR __Alproxy$[ebp]
	call	??$?0AAU?$_Wrap_alloc@V?$allocator@D@std@@@std@@@?$_Wrap_alloc@V?$allocator@U_Container_proxy@std@@@std@@@std@@QAE@AAU?$_Wrap_alloc@V?$allocator@D@std@@@1@@Z ; std::_Wrap_alloc<std::allocator<std::_Container_proxy> >::_Wrap_alloc<std::allocator<std::_Container_proxy> ><std::_Wrap_alloc<std::allocator<char> > &>

; 649  : 		_Myproxy() = _Unfancy(_Alproxy.allocate(1));

	push	1
	lea	ecx, DWORD PTR __Alproxy$[ebp]
	call	?allocate@?$_Wrap_alloc@V?$allocator@U_Container_proxy@std@@@std@@@std@@QAEPAU_Container_proxy@2@I@Z ; std::_Wrap_alloc<std::allocator<std::_Container_proxy> >::allocate
	push	eax
	call	??$_Unfancy@U_Container_proxy@std@@@std@@YAPAU_Container_proxy@0@PAU10@@Z ; std::_Unfancy<std::_Container_proxy>
	add	esp, 4
	mov	esi, eax
	mov	ecx, DWORD PTR _this$[ebp]
	call	?_Myproxy@?$_String_alloc@U?$_String_base_types@DV?$allocator@D@std@@@std@@@std@@QAEAAPAU_Container_proxy@2@XZ ; std::_String_alloc<std::_String_base_types<char,std::allocator<char> > >::_Myproxy
	mov	DWORD PTR [eax], esi

; 650  : 		_Alproxy.construct(_Myproxy(), _Container_proxy());

	lea	ecx, DWORD PTR $T1[ebp]
	call	??0_Container_proxy@std@@QAE@XZ		; std::_Container_proxy::_Container_proxy
	push	eax
	mov	ecx, DWORD PTR _this$[ebp]
	call	?_Myproxy@?$_String_alloc@U?$_String_base_types@DV?$allocator@D@std@@@std@@@std@@QAEAAPAU_Container_proxy@2@XZ ; std::_String_alloc<std::_String_base_types<char,std::allocator<char> > >::_Myproxy
	mov	eax, DWORD PTR [eax]
	push	eax
	lea	ecx, DWORD PTR __Alproxy$[ebp]
	call	??$construct@U_Container_proxy@std@@U12@@?$_Wrap_alloc@V?$allocator@U_Container_proxy@std@@@std@@@std@@QAEXPAU_Container_proxy@1@$$QAU21@@Z ; std::_Wrap_alloc<std::allocator<std::_Container_proxy> >::construct<std::_Container_proxy,std::_Container_proxy>

; 651  : 		_Myproxy()->_Mycont = &_Get_data();

	mov	ecx, DWORD PTR _this$[ebp]
	call	?_Get_data@?$_String_alloc@U?$_String_base_types@DV?$allocator@D@std@@@std@@@std@@QAEAAV?$_String_val@U?$_Simple_types@D@std@@@2@XZ ; std::_String_alloc<std::_String_base_types<char,std::allocator<char> > >::_Get_data
	mov	esi, eax
	mov	ecx, DWORD PTR _this$[ebp]
	call	?_Myproxy@?$_String_alloc@U?$_String_base_types@DV?$allocator@D@std@@@std@@@std@@QAEAAPAU_Container_proxy@2@XZ ; std::_String_alloc<std::_String_base_types<char,std::allocator<char> > >::_Myproxy
	mov	eax, DWORD PTR [eax]
	mov	DWORD PTR [eax], esi

; 652  : 		}

	push	edx
	mov	ecx, ebp
	push	eax
	lea	edx, DWORD PTR $LN5@Alloc_prox
	call	@_RTC_CheckStackVars@8
	pop	eax
	pop	edx
	pop	edi
	pop	esi
	pop	ebx
	add	esp, 232				; 000000e8H
	cmp	ebp, esp
	call	__RTC_CheckEsp
	mov	esp, ebp
	pop	ebp
	ret	0
	npad	3
$LN5@Alloc_prox:
	DD	1
	DD	$LN4@Alloc_prox
$LN4@Alloc_prox:
	DD	-17					; ffffffefH
	DD	1
	DD	$LN3@Alloc_prox
$LN3@Alloc_prox:
	DB	95					; 0000005fH
	DB	65					; 00000041H
	DB	108					; 0000006cH
	DB	112					; 00000070H
	DB	114					; 00000072H
	DB	111					; 0000006fH
	DB	120					; 00000078H
	DB	121					; 00000079H
	DB	0
?_Alloc_proxy@?$_String_alloc@U?$_String_base_types@DV?$allocator@D@std@@@std@@@std@@QAEXXZ ENDP ; std::_String_alloc<std::_String_base_types<char,std::allocator<char> > >::_Alloc_proxy
_TEXT	ENDS
; Function compile flags: /Odtp /RTCsu /ZI
; File c:\program files (x86)\microsoft visual studio 14.0\vc\include\xstring
;	COMDAT ?_Move_alloc@?$_String_alloc@U?$_String_base_types@DV?$allocator@D@std@@@std@@@std@@QAEXAAU?$_Wrap_alloc@V?$allocator@D@std@@@2@@Z
_TEXT	SEGMENT
_this$ = -8						; size = 4
__Al$ = 8						; size = 4
?_Move_alloc@?$_String_alloc@U?$_String_base_types@DV?$allocator@D@std@@@std@@@std@@QAEXAAU?$_Wrap_alloc@V?$allocator@D@std@@@2@@Z PROC ; std::_String_alloc<std::_String_base_types<char,std::allocator<char> > >::_Move_alloc, COMDAT
; _this$ = ecx

; 639  : 		{	// replace old allocator

	push	ebp
	mov	ebp, esp
	sub	esp, 204				; 000000ccH
	push	ebx
	push	esi
	push	edi
	push	ecx
	lea	edi, DWORD PTR [ebp-204]
	mov	ecx, 51					; 00000033H
	mov	eax, -858993460				; ccccccccH
	rep stosd
	pop	ecx
	mov	DWORD PTR _this$[ebp], ecx

; 640  : 		_Free_proxy();

	mov	ecx, DWORD PTR _this$[ebp]
	call	?_Free_proxy@?$_String_alloc@U?$_String_base_types@DV?$allocator@D@std@@@std@@@std@@QAEXXZ ; std::_String_alloc<std::_String_base_types<char,std::allocator<char> > >::_Free_proxy

; 641  : 		_Pocma(_Getal(), _Al);

	mov	eax, DWORD PTR __Al$[ebp]
	push	eax
	mov	ecx, DWORD PTR _this$[ebp]
	call	?_Getal@?$_String_alloc@U?$_String_base_types@DV?$allocator@D@std@@@std@@@std@@QAEAAU?$_Wrap_alloc@V?$allocator@D@std@@@2@XZ ; std::_String_alloc<std::_String_base_types<char,std::allocator<char> > >::_Getal
	push	eax
	call	??$_Pocma@U?$_Wrap_alloc@V?$allocator@D@std@@@std@@@std@@YAXAAU?$_Wrap_alloc@V?$allocator@D@std@@@0@0@Z ; std::_Pocma<std::_Wrap_alloc<std::allocator<char> > >
	add	esp, 8

; 642  : 		_Alloc_proxy();

	mov	ecx, DWORD PTR _this$[ebp]
	call	?_Alloc_proxy@?$_String_alloc@U?$_String_base_types@DV?$allocator@D@std@@@std@@@std@@QAEXXZ ; std::_String_alloc<std::_String_base_types<char,std::allocator<char> > >::_Alloc_proxy

; 643  : 		}

	pop	edi
	pop	esi
	pop	ebx
	add	esp, 204				; 000000ccH
	cmp	ebp, esp
	call	__RTC_CheckEsp
	mov	esp, ebp
	pop	ebp
	ret	4
?_Move_alloc@?$_String_alloc@U?$_String_base_types@DV?$allocator@D@std@@@std@@@std@@QAEXAAU?$_Wrap_alloc@V?$allocator@D@std@@@2@@Z ENDP ; std::_String_alloc<std::_String_base_types<char,std::allocator<char> > >::_Move_alloc
_TEXT	ENDS
; Function compile flags: /Odtp /RTCsu /ZI
; File c:\program files (x86)\microsoft visual studio 14.0\vc\include\xstring
;	COMDAT ?_Copy_alloc@?$_String_alloc@U?$_String_base_types@DV?$allocator@D@std@@@std@@@std@@QAEXABU?$_Wrap_alloc@V?$allocator@D@std@@@2@@Z
_TEXT	SEGMENT
_this$ = -8						; size = 4
__Al$ = 8						; size = 4
?_Copy_alloc@?$_String_alloc@U?$_String_base_types@DV?$allocator@D@std@@@std@@@std@@QAEXABU?$_Wrap_alloc@V?$allocator@D@std@@@2@@Z PROC ; std::_String_alloc<std::_String_base_types<char,std::allocator<char> > >::_Copy_alloc, COMDAT
; _this$ = ecx

; 632  : 		{	// replace old allocator

	push	ebp
	mov	ebp, esp
	sub	esp, 204				; 000000ccH
	push	ebx
	push	esi
	push	edi
	push	ecx
	lea	edi, DWORD PTR [ebp-204]
	mov	ecx, 51					; 00000033H
	mov	eax, -858993460				; ccccccccH
	rep stosd
	pop	ecx
	mov	DWORD PTR _this$[ebp], ecx

; 633  : 		_Free_proxy();

	mov	ecx, DWORD PTR _this$[ebp]
	call	?_Free_proxy@?$_String_alloc@U?$_String_base_types@DV?$allocator@D@std@@@std@@@std@@QAEXXZ ; std::_String_alloc<std::_String_base_types<char,std::allocator<char> > >::_Free_proxy

; 634  : 		_Pocca(_Getal(), _Al);

	mov	eax, DWORD PTR __Al$[ebp]
	push	eax
	mov	ecx, DWORD PTR _this$[ebp]
	call	?_Getal@?$_String_alloc@U?$_String_base_types@DV?$allocator@D@std@@@std@@@std@@QAEAAU?$_Wrap_alloc@V?$allocator@D@std@@@2@XZ ; std::_String_alloc<std::_String_base_types<char,std::allocator<char> > >::_Getal
	push	eax
	call	??$_Pocca@U?$_Wrap_alloc@V?$allocator@D@std@@@std@@@std@@YAXAAU?$_Wrap_alloc@V?$allocator@D@std@@@0@ABU10@@Z ; std::_Pocca<std::_Wrap_alloc<std::allocator<char> > >
	add	esp, 8

; 635  : 		_Alloc_proxy();

	mov	ecx, DWORD PTR _this$[ebp]
	call	?_Alloc_proxy@?$_String_alloc@U?$_String_base_types@DV?$allocator@D@std@@@std@@@std@@QAEXXZ ; std::_String_alloc<std::_String_base_types<char,std::allocator<char> > >::_Alloc_proxy

; 636  : 		}

	pop	edi
	pop	esi
	pop	ebx
	add	esp, 204				; 000000ccH
	cmp	ebp, esp
	call	__RTC_CheckEsp
	mov	esp, ebp
	pop	ebp
	ret	4
?_Copy_alloc@?$_String_alloc@U?$_String_base_types@DV?$allocator@D@std@@@std@@@std@@QAEXABU?$_Wrap_alloc@V?$allocator@D@std@@@2@@Z ENDP ; std::_String_alloc<std::_String_base_types<char,std::allocator<char> > >::_Copy_alloc
_TEXT	ENDS
; Function compile flags: /Odtp /RTCsu /ZI
; File c:\program files (x86)\microsoft visual studio 14.0\vc\include\xstring
;	COMDAT ??1?$_String_alloc@U?$_String_base_types@DV?$allocator@D@std@@@std@@@std@@QAE@XZ
_TEXT	SEGMENT
_this$ = -20						; size = 4
__$EHRec$ = -12						; size = 12
??1?$_String_alloc@U?$_String_base_types@DV?$allocator@D@std@@@std@@@std@@QAE@XZ PROC ; std::_String_alloc<std::_String_base_types<char,std::allocator<char> > >::~_String_alloc<std::_String_base_types<char,std::allocator<char> > >, COMDAT
; _this$ = ecx

; 627  : 		{	// destroy the object

	push	ebp
	mov	ebp, esp
	push	-1
	push	__ehhandler$??1?$_String_alloc@U?$_String_base_types@DV?$allocator@D@std@@@std@@@std@@QAE@XZ
	mov	eax, DWORD PTR fs:0
	push	eax
	sub	esp, 204				; 000000ccH
	push	ebx
	push	esi
	push	edi
	push	ecx
	lea	edi, DWORD PTR [ebp-216]
	mov	ecx, 51					; 00000033H
	mov	eax, -858993460				; ccccccccH
	rep stosd
	pop	ecx
	mov	eax, DWORD PTR ___security_cookie
	xor	eax, ebp
	push	eax
	lea	eax, DWORD PTR __$EHRec$[ebp]
	mov	DWORD PTR fs:0, eax
	mov	DWORD PTR _this$[ebp], ecx

; 628  : 		_Free_proxy();

	mov	ecx, DWORD PTR _this$[ebp]
	call	?_Free_proxy@?$_String_alloc@U?$_String_base_types@DV?$allocator@D@std@@@std@@@std@@QAEXXZ ; std::_String_alloc<std::_String_base_types<char,std::allocator<char> > >::_Free_proxy

; 629  : 		}

	mov	ecx, DWORD PTR _this$[ebp]
	call	??1?$_Compressed_pair@U?$_Wrap_alloc@V?$allocator@D@std@@@std@@V?$_String_val@U?$_Simple_types@D@std@@@2@$00@std@@QAE@XZ
	mov	ecx, DWORD PTR __$EHRec$[ebp]
	mov	DWORD PTR fs:0, ecx
	pop	ecx
	pop	edi
	pop	esi
	pop	ebx
	add	esp, 216				; 000000d8H
	cmp	ebp, esp
	call	__RTC_CheckEsp
	mov	esp, ebp
	pop	ebp
	ret	0
_TEXT	ENDS
;	COMDAT text$x
text$x	SEGMENT
__ehhandler$??1?$_String_alloc@U?$_String_base_types@DV?$allocator@D@std@@@std@@@std@@QAE@XZ:
	mov	edx, DWORD PTR [esp+8]
	lea	eax, DWORD PTR [edx+12]
	mov	ecx, DWORD PTR [edx-220]
	xor	ecx, eax
	call	@__security_check_cookie@4
	mov	eax, OFFSET __ehfuncinfo$??1?$_String_alloc@U?$_String_base_types@DV?$allocator@D@std@@@std@@@std@@QAE@XZ
	jmp	___CxxFrameHandler3
text$x	ENDS
??1?$_String_alloc@U?$_String_base_types@DV?$allocator@D@std@@@std@@@std@@QAE@XZ ENDP ; std::_String_alloc<std::_String_base_types<char,std::allocator<char> > >::~_String_alloc<std::_String_base_types<char,std::allocator<char> > >
; Function compile flags: /Odtp /RTCsu /ZI
; File c:\program files (x86)\microsoft visual studio 14.0\vc\include\xstring
;	COMDAT ??0?$_String_alloc@U?$_String_base_types@DV?$allocator@D@std@@@std@@@std@@QAE@XZ
_TEXT	SEGMENT
$T2 = -221						; size = 1
_this$ = -20						; size = 4
__$EHRec$ = -12						; size = 12
??0?$_String_alloc@U?$_String_base_types@DV?$allocator@D@std@@@std@@@std@@QAE@XZ PROC ; std::_String_alloc<std::_String_base_types<char,std::allocator<char> > >::_String_alloc<std::_String_base_types<char,std::allocator<char> > >, COMDAT
; _this$ = ecx

; 613  : 		{	// default construct allocator

	push	ebp
	mov	ebp, esp
	push	-1
	push	__ehhandler$??0?$_String_alloc@U?$_String_base_types@DV?$allocator@D@std@@@std@@@std@@QAE@XZ
	mov	eax, DWORD PTR fs:0
	push	eax
	sub	esp, 216				; 000000d8H
	push	ebx
	push	esi
	push	edi
	push	ecx
	lea	edi, DWORD PTR [ebp-228]
	mov	ecx, 54					; 00000036H
	mov	eax, -858993460				; ccccccccH
	rep stosd
	pop	ecx
	mov	eax, DWORD PTR ___security_cookie
	xor	eax, ebp
	push	eax
	lea	eax, DWORD PTR __$EHRec$[ebp]
	mov	DWORD PTR fs:0, eax
	mov	DWORD PTR _this$[ebp], ecx

; 612  : 		: _Mypair(_Zero_then_variadic_args_t())

	movzx	eax, BYTE PTR $T2[ebp]
	push	eax
	mov	ecx, DWORD PTR _this$[ebp]
	call	??$?0$$V@?$_Compressed_pair@U?$_Wrap_alloc@V?$allocator@D@std@@@std@@V?$_String_val@U?$_Simple_types@D@std@@@2@$00@std@@QAE@U_Zero_then_variadic_args_t@1@@Z ; std::_Compressed_pair<std::_Wrap_alloc<std::allocator<char> >,std::_String_val<std::_Simple_types<char> >,1>::_Compressed_pair<std::_Wrap_alloc<std::allocator<char> >,std::_String_val<std::_Simple_types<char> >,1><>
	mov	DWORD PTR __$EHRec$[ebp+8], 0

; 614  : 		_Alloc_proxy();

	mov	ecx, DWORD PTR _this$[ebp]
	call	?_Alloc_proxy@?$_String_alloc@U?$_String_base_types@DV?$allocator@D@std@@@std@@@std@@QAEXXZ ; std::_String_alloc<std::_String_base_types<char,std::allocator<char> > >::_Alloc_proxy

; 615  : 		}

	mov	DWORD PTR __$EHRec$[ebp+8], -1
	mov	eax, DWORD PTR _this$[ebp]
	mov	ecx, DWORD PTR __$EHRec$[ebp]
	mov	DWORD PTR fs:0, ecx
	pop	ecx
	pop	edi
	pop	esi
	pop	ebx
	add	esp, 228				; 000000e4H
	cmp	ebp, esp
	call	__RTC_CheckEsp
	mov	esp, ebp
	pop	ebp
	ret	0
_TEXT	ENDS
;	COMDAT text$x
text$x	SEGMENT
__unwindfunclet$??0?$_String_alloc@U?$_String_base_types@DV?$allocator@D@std@@@std@@@std@@QAE@XZ$0:
	mov	ecx, DWORD PTR _this$[ebp]
	jmp	??1?$_Compressed_pair@U?$_Wrap_alloc@V?$allocator@D@std@@@std@@V?$_String_val@U?$_Simple_types@D@std@@@2@$00@std@@QAE@XZ
__ehhandler$??0?$_String_alloc@U?$_String_base_types@DV?$allocator@D@std@@@std@@@std@@QAE@XZ:
	mov	edx, DWORD PTR [esp+8]
	lea	eax, DWORD PTR [edx+12]
	mov	ecx, DWORD PTR [edx-232]
	xor	ecx, eax
	call	@__security_check_cookie@4
	mov	eax, OFFSET __ehfuncinfo$??0?$_String_alloc@U?$_String_base_types@DV?$allocator@D@std@@@std@@@std@@QAE@XZ
	jmp	___CxxFrameHandler3
text$x	ENDS
??0?$_String_alloc@U?$_String_base_types@DV?$allocator@D@std@@@std@@@std@@QAE@XZ ENDP ; std::_String_alloc<std::_String_base_types<char,std::allocator<char> > >::_String_alloc<std::_String_base_types<char,std::allocator<char> > >
; Function compile flags: /Odtp /RTCsu /ZI
; File c:\program files (x86)\microsoft visual studio 14.0\vc\include\xstring
;	COMDAT ?_Myptr@?$_String_alloc@U?$_String_base_types@DV?$allocator@D@std@@@std@@@std@@QBEPBDXZ
_TEXT	SEGMENT
_this$ = -8						; size = 4
?_Myptr@?$_String_alloc@U?$_String_base_types@DV?$allocator@D@std@@@std@@@std@@QBEPBDXZ PROC ; std::_String_alloc<std::_String_base_types<char,std::allocator<char> > >::_Myptr, COMDAT
; _this$ = ecx

; 582  : 		{	// determine current pointer to buffer for nonmutable string

	push	ebp
	mov	ebp, esp
	sub	esp, 204				; 000000ccH
	push	ebx
	push	esi
	push	edi
	push	ecx
	lea	edi, DWORD PTR [ebp-204]
	mov	ecx, 51					; 00000033H
	mov	eax, -858993460				; ccccccccH
	rep stosd
	pop	ecx
	mov	DWORD PTR _this$[ebp], ecx

; 583  : 		return (_Get_data()._Myptr());

	mov	ecx, DWORD PTR _this$[ebp]
	call	?_Get_data@?$_String_alloc@U?$_String_base_types@DV?$allocator@D@std@@@std@@@std@@QBEABV?$_String_val@U?$_Simple_types@D@std@@@2@XZ ; std::_String_alloc<std::_String_base_types<char,std::allocator<char> > >::_Get_data
	mov	ecx, eax
	call	?_Myptr@?$_String_val@U?$_Simple_types@D@std@@@std@@QBEPBDXZ ; std::_String_val<std::_Simple_types<char> >::_Myptr

; 584  : 		}

	pop	edi
	pop	esi
	pop	ebx
	add	esp, 204				; 000000ccH
	cmp	ebp, esp
	call	__RTC_CheckEsp
	mov	esp, ebp
	pop	ebp
	ret	0
?_Myptr@?$_String_alloc@U?$_String_base_types@DV?$allocator@D@std@@@std@@@std@@QBEPBDXZ ENDP ; std::_String_alloc<std::_String_base_types<char,std::allocator<char> > >::_Myptr
_TEXT	ENDS
; Function compile flags: /Odtp /RTCsu /ZI
; File c:\program files (x86)\microsoft visual studio 14.0\vc\include\xstring
;	COMDAT ?_Myptr@?$_String_alloc@U?$_String_base_types@DV?$allocator@D@std@@@std@@@std@@QAEPADXZ
_TEXT	SEGMENT
_this$ = -8						; size = 4
?_Myptr@?$_String_alloc@U?$_String_base_types@DV?$allocator@D@std@@@std@@@std@@QAEPADXZ PROC ; std::_String_alloc<std::_String_base_types<char,std::allocator<char> > >::_Myptr, COMDAT
; _this$ = ecx

; 577  : 		{	// determine current pointer to buffer for mutable string

	push	ebp
	mov	ebp, esp
	sub	esp, 204				; 000000ccH
	push	ebx
	push	esi
	push	edi
	push	ecx
	lea	edi, DWORD PTR [ebp-204]
	mov	ecx, 51					; 00000033H
	mov	eax, -858993460				; ccccccccH
	rep stosd
	pop	ecx
	mov	DWORD PTR _this$[ebp], ecx

; 578  : 		return (_Get_data()._Myptr());

	mov	ecx, DWORD PTR _this$[ebp]
	call	?_Get_data@?$_String_alloc@U?$_String_base_types@DV?$allocator@D@std@@@std@@@std@@QAEAAV?$_String_val@U?$_Simple_types@D@std@@@2@XZ ; std::_String_alloc<std::_String_base_types<char,std::allocator<char> > >::_Get_data
	mov	ecx, eax
	call	?_Myptr@?$_String_val@U?$_Simple_types@D@std@@@std@@QAEPADXZ ; std::_String_val<std::_Simple_types<char> >::_Myptr

; 579  : 		}

	pop	edi
	pop	esi
	pop	ebx
	add	esp, 204				; 000000ccH
	cmp	ebp, esp
	call	__RTC_CheckEsp
	mov	esp, ebp
	pop	ebp
	ret	0
?_Myptr@?$_String_alloc@U?$_String_base_types@DV?$allocator@D@std@@@std@@@std@@QAEPADXZ ENDP ; std::_String_alloc<std::_String_base_types<char,std::allocator<char> > >::_Myptr
_TEXT	ENDS
; Function compile flags: /Odtp /RTCsu /ZI
;	COMDAT ??1?$_String_val@U?$_Simple_types@D@std@@@std@@QAE@XZ
_TEXT	SEGMENT
_this$ = -8						; size = 4
??1?$_String_val@U?$_Simple_types@D@std@@@std@@QAE@XZ PROC ; std::_String_val<std::_Simple_types<char> >::~_String_val<std::_Simple_types<char> >, COMDAT
; _this$ = ecx
	push	ebp
	mov	ebp, esp
	sub	esp, 204				; 000000ccH
	push	ebx
	push	esi
	push	edi
	push	ecx
	lea	edi, DWORD PTR [ebp-204]
	mov	ecx, 51					; 00000033H
	mov	eax, -858993460				; ccccccccH
	rep stosd
	pop	ecx
	mov	DWORD PTR _this$[ebp], ecx
	mov	ecx, DWORD PTR _this$[ebp]
	add	ecx, 4
	call	??1_Bxty@?$_String_val@U?$_Simple_types@D@std@@@std@@QAE@XZ ; std::_String_val<std::_Simple_types<char> >::_Bxty::~_Bxty
	mov	ecx, DWORD PTR _this$[ebp]
	call	??1_Container_base12@std@@QAE@XZ	; std::_Container_base12::~_Container_base12
	pop	edi
	pop	esi
	pop	ebx
	add	esp, 204				; 000000ccH
	cmp	ebp, esp
	call	__RTC_CheckEsp
	mov	esp, ebp
	pop	ebp
	ret	0
??1?$_String_val@U?$_Simple_types@D@std@@@std@@QAE@XZ ENDP ; std::_String_val<std::_Simple_types<char> >::~_String_val<std::_Simple_types<char> >
_TEXT	ENDS
; Function compile flags: /Odtp /RTCsu /ZI
; File c:\program files (x86)\microsoft visual studio 14.0\vc\include\xstring
;	COMDAT ??1_Bxty@?$_String_val@U?$_Simple_types@D@std@@@std@@QAE@XZ
_TEXT	SEGMENT
_this$ = -8						; size = 4
??1_Bxty@?$_String_val@U?$_Simple_types@D@std@@@std@@QAE@XZ PROC ; std::_String_val<std::_Simple_types<char> >::_Bxty::~_Bxty, COMDAT
; _this$ = ecx

; 533  : 			{	// user-provided, for fancy pointers

	push	ebp
	mov	ebp, esp
	sub	esp, 204				; 000000ccH
	push	ebx
	push	esi
	push	edi
	push	ecx
	lea	edi, DWORD PTR [ebp-204]
	mov	ecx, 51					; 00000033H
	mov	eax, -858993460				; ccccccccH
	rep stosd
	pop	ecx
	mov	DWORD PTR _this$[ebp], ecx

; 534  : 			}

	pop	edi
	pop	esi
	pop	ebx
	mov	esp, ebp
	pop	ebp
	ret	0
??1_Bxty@?$_String_val@U?$_Simple_types@D@std@@@std@@QAE@XZ ENDP ; std::_String_val<std::_Simple_types<char> >::_Bxty::~_Bxty
_TEXT	ENDS
; Function compile flags: /Odtp /RTCsu /ZI
; File c:\program files (x86)\microsoft visual studio 14.0\vc\include\xstring
;	COMDAT ??0_Bxty@?$_String_val@U?$_Simple_types@D@std@@@std@@QAE@XZ
_TEXT	SEGMENT
_this$ = -8						; size = 4
??0_Bxty@?$_String_val@U?$_Simple_types@D@std@@@std@@QAE@XZ PROC ; std::_String_val<std::_Simple_types<char> >::_Bxty::_Bxty, COMDAT
; _this$ = ecx

; 528  : 		_Bxty()

	push	ebp
	mov	ebp, esp
	sub	esp, 204				; 000000ccH
	push	ebx
	push	esi
	push	edi
	push	ecx
	lea	edi, DWORD PTR [ebp-204]
	mov	ecx, 51					; 00000033H
	mov	eax, -858993460				; ccccccccH
	rep stosd
	pop	ecx
	mov	DWORD PTR _this$[ebp], ecx

; 529  : 			{	// user-provided, for fancy pointers
; 530  : 			}

	mov	eax, DWORD PTR _this$[ebp]
	pop	edi
	pop	esi
	pop	ebx
	mov	esp, ebp
	pop	ebp
	ret	0
??0_Bxty@?$_String_val@U?$_Simple_types@D@std@@@std@@QAE@XZ ENDP ; std::_String_val<std::_Simple_types<char> >::_Bxty::_Bxty
_TEXT	ENDS
; Function compile flags: /Odtp /RTCsu /ZI
; File c:\program files (x86)\microsoft visual studio 14.0\vc\include\xstring
;	COMDAT ?_Myptr@?$_String_val@U?$_Simple_types@D@std@@@std@@QBEPBDXZ
_TEXT	SEGMENT
tv72 = -208						; size = 4
_this$ = -8						; size = 4
?_Myptr@?$_String_val@U?$_Simple_types@D@std@@@std@@QBEPBDXZ PROC ; std::_String_val<std::_Simple_types<char> >::_Myptr, COMDAT
; _this$ = ecx

; 520  : 		{	// determine current pointer to buffer for nonmutable string

	push	ebp
	mov	ebp, esp
	sub	esp, 208				; 000000d0H
	push	ebx
	push	esi
	push	edi
	push	ecx
	lea	edi, DWORD PTR [ebp-208]
	mov	ecx, 52					; 00000034H
	mov	eax, -858993460				; ccccccccH
	rep stosd
	pop	ecx
	mov	DWORD PTR _this$[ebp], ecx

; 521  : 		return (this->_BUF_SIZE <= _Myres

	mov	eax, DWORD PTR _this$[ebp]
	cmp	DWORD PTR [eax+24], 16			; 00000010H
	jb	SHORT $LN3@Myptr
	mov	ecx, DWORD PTR _this$[ebp]
	mov	edx, DWORD PTR [ecx+4]
	push	edx
	call	??$_Unfancy@D@std@@YAPADPAD@Z		; std::_Unfancy<char>
	add	esp, 4
	mov	DWORD PTR tv72[ebp], eax
	jmp	SHORT $LN4@Myptr
$LN3@Myptr:
	mov	eax, DWORD PTR _this$[ebp]
	add	eax, 4
	mov	DWORD PTR tv72[ebp], eax
$LN4@Myptr:
	mov	eax, DWORD PTR tv72[ebp]

; 522  : 			? _Unfancy(_Bx._Ptr)
; 523  : 			: _Bx._Buf);
; 524  : 		}

	pop	edi
	pop	esi
	pop	ebx
	add	esp, 208				; 000000d0H
	cmp	ebp, esp
	call	__RTC_CheckEsp
	mov	esp, ebp
	pop	ebp
	ret	0
?_Myptr@?$_String_val@U?$_Simple_types@D@std@@@std@@QBEPBDXZ ENDP ; std::_String_val<std::_Simple_types<char> >::_Myptr
_TEXT	ENDS
; Function compile flags: /Odtp /RTCsu /ZI
; File c:\program files (x86)\microsoft visual studio 14.0\vc\include\xstring
;	COMDAT ?_Myptr@?$_String_val@U?$_Simple_types@D@std@@@std@@QAEPADXZ
_TEXT	SEGMENT
tv72 = -208						; size = 4
_this$ = -8						; size = 4
?_Myptr@?$_String_val@U?$_Simple_types@D@std@@@std@@QAEPADXZ PROC ; std::_String_val<std::_Simple_types<char> >::_Myptr, COMDAT
; _this$ = ecx

; 513  : 		{	// determine current pointer to buffer for mutable string

	push	ebp
	mov	ebp, esp
	sub	esp, 208				; 000000d0H
	push	ebx
	push	esi
	push	edi
	push	ecx
	lea	edi, DWORD PTR [ebp-208]
	mov	ecx, 52					; 00000034H
	mov	eax, -858993460				; ccccccccH
	rep stosd
	pop	ecx
	mov	DWORD PTR _this$[ebp], ecx

; 514  : 		return (this->_BUF_SIZE <= _Myres

	mov	eax, DWORD PTR _this$[ebp]
	cmp	DWORD PTR [eax+24], 16			; 00000010H
	jb	SHORT $LN3@Myptr
	mov	ecx, DWORD PTR _this$[ebp]
	mov	edx, DWORD PTR [ecx+4]
	push	edx
	call	??$_Unfancy@D@std@@YAPADPAD@Z		; std::_Unfancy<char>
	add	esp, 4
	mov	DWORD PTR tv72[ebp], eax
	jmp	SHORT $LN4@Myptr
$LN3@Myptr:
	mov	eax, DWORD PTR _this$[ebp]
	add	eax, 4
	mov	DWORD PTR tv72[ebp], eax
$LN4@Myptr:
	mov	eax, DWORD PTR tv72[ebp]

; 515  : 			? _Unfancy(_Bx._Ptr)
; 516  : 			: _Bx._Buf);
; 517  : 		}

	pop	edi
	pop	esi
	pop	ebx
	add	esp, 208				; 000000d0H
	cmp	ebp, esp
	call	__RTC_CheckEsp
	mov	esp, ebp
	pop	ebp
	ret	0
?_Myptr@?$_String_val@U?$_Simple_types@D@std@@@std@@QAEPADXZ ENDP ; std::_String_val<std::_Simple_types<char> >::_Myptr
_TEXT	ENDS
; Function compile flags: /Odtp /RTCsu /ZI
; File c:\program files (x86)\microsoft visual studio 14.0\vc\include\xstring
;	COMDAT ??0?$_String_val@U?$_Simple_types@D@std@@@std@@QAE@XZ
_TEXT	SEGMENT
_this$ = -20						; size = 4
__$EHRec$ = -12						; size = 12
??0?$_String_val@U?$_Simple_types@D@std@@@std@@QAE@XZ PROC ; std::_String_val<std::_Simple_types<char> >::_String_val<std::_Simple_types<char> >, COMDAT
; _this$ = ecx

; 498  : 		{	// initialize values

	push	ebp
	mov	ebp, esp
	push	-1
	push	__ehhandler$??0?$_String_val@U?$_Simple_types@D@std@@@std@@QAE@XZ
	mov	eax, DWORD PTR fs:0
	push	eax
	sub	esp, 204				; 000000ccH
	push	ebx
	push	esi
	push	edi
	push	ecx
	lea	edi, DWORD PTR [ebp-216]
	mov	ecx, 51					; 00000033H
	mov	eax, -858993460				; ccccccccH
	rep stosd
	pop	ecx
	mov	eax, DWORD PTR ___security_cookie
	xor	eax, ebp
	push	eax
	lea	eax, DWORD PTR __$EHRec$[ebp]
	mov	DWORD PTR fs:0, eax
	mov	DWORD PTR _this$[ebp], ecx
	mov	ecx, DWORD PTR _this$[ebp]
	call	??0_Container_base12@std@@QAE@XZ	; std::_Container_base12::_Container_base12
	mov	DWORD PTR __$EHRec$[ebp+8], 0

; 495  : 		: _Bx(),

	mov	ecx, DWORD PTR _this$[ebp]
	add	ecx, 4
	call	??0_Bxty@?$_String_val@U?$_Simple_types@D@std@@@std@@QAE@XZ ; std::_String_val<std::_Simple_types<char> >::_Bxty::_Bxty

; 496  : 		_Mysize(0),

	mov	eax, DWORD PTR _this$[ebp]
	mov	DWORD PTR [eax+20], 0

; 497  : 		_Myres(0)

	mov	eax, DWORD PTR _this$[ebp]
	mov	DWORD PTR [eax+24], 0

; 499  : 		}

	mov	DWORD PTR __$EHRec$[ebp+8], -1
	mov	eax, DWORD PTR _this$[ebp]
	mov	ecx, DWORD PTR __$EHRec$[ebp]
	mov	DWORD PTR fs:0, ecx
	pop	ecx
	pop	edi
	pop	esi
	pop	ebx
	add	esp, 216				; 000000d8H
	cmp	ebp, esp
	call	__RTC_CheckEsp
	mov	esp, ebp
	pop	ebp
	ret	0
_TEXT	ENDS
;	COMDAT text$x
text$x	SEGMENT
__unwindfunclet$??0?$_String_val@U?$_Simple_types@D@std@@@std@@QAE@XZ$0:
	mov	ecx, DWORD PTR _this$[ebp]
	jmp	??1_Container_base12@std@@QAE@XZ	; std::_Container_base12::~_Container_base12
__ehhandler$??0?$_String_val@U?$_Simple_types@D@std@@@std@@QAE@XZ:
	mov	edx, DWORD PTR [esp+8]
	lea	eax, DWORD PTR [edx+12]
	mov	ecx, DWORD PTR [edx-220]
	xor	ecx, eax
	call	@__security_check_cookie@4
	mov	eax, OFFSET __ehfuncinfo$??0?$_String_val@U?$_Simple_types@D@std@@@std@@QAE@XZ
	jmp	___CxxFrameHandler3
text$x	ENDS
??0?$_String_val@U?$_Simple_types@D@std@@@std@@QAE@XZ ENDP ; std::_String_val<std::_Simple_types<char> >::_String_val<std::_Simple_types<char> >
; Function compile flags: /Odtp /RTCsu /ZI
; File c:\program files (x86)\microsoft visual studio 14.0\vc\include\xmemory0
;	COMDAT ?max_size@?$_Wrap_alloc@V?$allocator@D@std@@@std@@QBEIU_Nil@2@@Z
_TEXT	SEGMENT
_this$ = -8						; size = 4
___formal$ = 8						; size = 1
?max_size@?$_Wrap_alloc@V?$allocator@D@std@@@std@@QBEIU_Nil@2@@Z PROC ; std::_Wrap_alloc<std::allocator<char> >::max_size, COMDAT
; _this$ = ecx

; 1007 : 		{	// get maximum size

	push	ebp
	mov	ebp, esp
	sub	esp, 204				; 000000ccH
	push	ebx
	push	esi
	push	edi
	push	ecx
	lea	edi, DWORD PTR [ebp-204]
	mov	ecx, 51					; 00000033H
	mov	eax, -858993460				; ccccccccH
	rep stosd
	pop	ecx
	mov	DWORD PTR _this$[ebp], ecx

; 1008 : 		return (_Mytraits::max_size(*this));

	mov	eax, DWORD PTR _this$[ebp]
	push	eax
	call	?max_size@?$allocator_traits@V?$allocator@D@std@@@std@@SAIABV?$allocator@D@2@@Z ; std::allocator_traits<std::allocator<char> >::max_size
	add	esp, 4

; 1009 : 		}

	pop	edi
	pop	esi
	pop	ebx
	add	esp, 204				; 000000ccH
	cmp	ebp, esp
	call	__RTC_CheckEsp
	mov	esp, ebp
	pop	ebp
	ret	4
?max_size@?$_Wrap_alloc@V?$allocator@D@std@@@std@@QBEIU_Nil@2@@Z ENDP ; std::_Wrap_alloc<std::allocator<char> >::max_size
_TEXT	ENDS
; Function compile flags: /Odtp /RTCsu /ZI
; File c:\program files (x86)\microsoft visual studio 14.0\vc\include\xmemory0
;	COMDAT ?deallocate@?$_Wrap_alloc@V?$allocator@D@std@@@std@@QAEXPADI@Z
_TEXT	SEGMENT
_this$ = -8						; size = 4
__Ptr$ = 8						; size = 4
__Count$ = 12						; size = 4
?deallocate@?$_Wrap_alloc@V?$allocator@D@std@@@std@@QAEXPADI@Z PROC ; std::_Wrap_alloc<std::allocator<char> >::deallocate, COMDAT
; _this$ = ecx

; 986  : 		{	// deallocate object at _Ptr, ignore size

	push	ebp
	mov	ebp, esp
	sub	esp, 204				; 000000ccH
	push	ebx
	push	esi
	push	edi
	push	ecx
	lea	edi, DWORD PTR [ebp-204]
	mov	ecx, 51					; 00000033H
	mov	eax, -858993460				; ccccccccH
	rep stosd
	pop	ecx
	mov	DWORD PTR _this$[ebp], ecx

; 987  : 		_Mybase::deallocate(_Ptr, _Count);

	mov	eax, DWORD PTR __Count$[ebp]
	push	eax
	mov	ecx, DWORD PTR __Ptr$[ebp]
	push	ecx
	mov	ecx, DWORD PTR _this$[ebp]
	call	?deallocate@?$allocator@D@std@@QAEXPADI@Z ; std::allocator<char>::deallocate

; 988  : 		}

	pop	edi
	pop	esi
	pop	ebx
	add	esp, 204				; 000000ccH
	cmp	ebp, esp
	call	__RTC_CheckEsp
	mov	esp, ebp
	pop	ebp
	ret	8
?deallocate@?$_Wrap_alloc@V?$allocator@D@std@@@std@@QAEXPADI@Z ENDP ; std::_Wrap_alloc<std::allocator<char> >::deallocate
_TEXT	ENDS
; Function compile flags: /Odtp /RTCsu /ZI
; File c:\program files (x86)\microsoft visual studio 14.0\vc\include\xmemory0
;	COMDAT ?allocate@?$_Wrap_alloc@V?$allocator@D@std@@@std@@QAEPADI@Z
_TEXT	SEGMENT
_this$ = -8						; size = 4
__Count$ = 8						; size = 4
?allocate@?$_Wrap_alloc@V?$allocator@D@std@@@std@@QAEPADI@Z PROC ; std::_Wrap_alloc<std::allocator<char> >::allocate, COMDAT
; _this$ = ecx

; 975  : 		{	// allocate array of _Count elements

	push	ebp
	mov	ebp, esp
	sub	esp, 204				; 000000ccH
	push	ebx
	push	esi
	push	edi
	push	ecx
	lea	edi, DWORD PTR [ebp-204]
	mov	ecx, 51					; 00000033H
	mov	eax, -858993460				; ccccccccH
	rep stosd
	pop	ecx
	mov	DWORD PTR _this$[ebp], ecx

; 976  : 		return (_Mybase::allocate(_Count));

	mov	eax, DWORD PTR __Count$[ebp]
	push	eax
	mov	ecx, DWORD PTR _this$[ebp]
	call	?allocate@?$allocator@D@std@@QAEPADI@Z	; std::allocator<char>::allocate

; 977  : 		}

	pop	edi
	pop	esi
	pop	ebx
	add	esp, 204				; 000000ccH
	cmp	ebp, esp
	call	__RTC_CheckEsp
	mov	esp, ebp
	pop	ebp
	ret	4
?allocate@?$_Wrap_alloc@V?$allocator@D@std@@@std@@QAEPADI@Z ENDP ; std::_Wrap_alloc<std::allocator<char> >::allocate
_TEXT	ENDS
; Function compile flags: /Odtp /RTCsu /ZI
; File c:\program files (x86)\microsoft visual studio 14.0\vc\include\xmemory0
;	COMDAT ??4?$_Wrap_alloc@V?$allocator@D@std@@@std@@QAEAAU01@$$QAU01@@Z
_TEXT	SEGMENT
_this$ = -8						; size = 4
__Right$ = 8						; size = 4
??4?$_Wrap_alloc@V?$allocator@D@std@@@std@@QAEAAU01@$$QAU01@@Z PROC ; std::_Wrap_alloc<std::allocator<char> >::operator=, COMDAT
; _this$ = ecx

; 962  : 		{	// assign by moving

	push	ebp
	mov	ebp, esp
	sub	esp, 204				; 000000ccH
	push	ebx
	push	esi
	push	edi
	push	ecx
	lea	edi, DWORD PTR [ebp-204]
	mov	ecx, 51					; 00000033H
	mov	eax, -858993460				; ccccccccH
	rep stosd
	pop	ecx
	mov	DWORD PTR _this$[ebp], ecx

; 963  : 		_Mybase::operator=(_STD move(_Right));

	mov	eax, DWORD PTR __Right$[ebp]
	push	eax
	call	??$move@AAU?$_Wrap_alloc@V?$allocator@D@std@@@std@@@std@@YA$$QAU?$_Wrap_alloc@V?$allocator@D@std@@@0@AAU10@@Z ; std::move<std::_Wrap_alloc<std::allocator<char> > &>
	add	esp, 4

; 964  : 		return (*this);

	mov	eax, DWORD PTR _this$[ebp]

; 965  : 		}

	pop	edi
	pop	esi
	pop	ebx
	add	esp, 204				; 000000ccH
	cmp	ebp, esp
	call	__RTC_CheckEsp
	mov	esp, ebp
	pop	ebp
	ret	4
??4?$_Wrap_alloc@V?$allocator@D@std@@@std@@QAEAAU01@$$QAU01@@Z ENDP ; std::_Wrap_alloc<std::allocator<char> >::operator=
_TEXT	ENDS
; Function compile flags: /Odtp /RTCsu /ZI
; File c:\program files (x86)\microsoft visual studio 14.0\vc\include\xmemory0
;	COMDAT ??0?$_Wrap_alloc@V?$allocator@D@std@@@std@@QAE@$$QAU01@@Z
_TEXT	SEGMENT
_this$ = -8						; size = 4
__Right$ = 8						; size = 4
??0?$_Wrap_alloc@V?$allocator@D@std@@@std@@QAE@$$QAU01@@Z PROC ; std::_Wrap_alloc<std::allocator<char> >::_Wrap_alloc<std::allocator<char> >, COMDAT
; _this$ = ecx

; 946  : 		{	// construct by moving

	push	ebp
	mov	ebp, esp
	sub	esp, 204				; 000000ccH
	push	ebx
	push	esi
	push	edi
	push	ecx
	lea	edi, DWORD PTR [ebp-204]
	mov	ecx, 51					; 00000033H
	mov	eax, -858993460				; ccccccccH
	rep stosd
	pop	ecx
	mov	DWORD PTR _this$[ebp], ecx

; 945  : 		: _Mybase(_STD move(_Right))

	mov	eax, DWORD PTR __Right$[ebp]
	push	eax
	call	??$move@AAU?$_Wrap_alloc@V?$allocator@D@std@@@std@@@std@@YA$$QAU?$_Wrap_alloc@V?$allocator@D@std@@@0@AAU10@@Z ; std::move<std::_Wrap_alloc<std::allocator<char> > &>
	add	esp, 4
	push	eax
	mov	ecx, DWORD PTR _this$[ebp]
	call	??0?$allocator@D@std@@QAE@ABV01@@Z	; std::allocator<char>::allocator<char>

; 947  : 		}

	mov	eax, DWORD PTR _this$[ebp]
	pop	edi
	pop	esi
	pop	ebx
	add	esp, 204				; 000000ccH
	cmp	ebp, esp
	call	__RTC_CheckEsp
	mov	esp, ebp
	pop	ebp
	ret	4
??0?$_Wrap_alloc@V?$allocator@D@std@@@std@@QAE@$$QAU01@@Z ENDP ; std::_Wrap_alloc<std::allocator<char> >::_Wrap_alloc<std::allocator<char> >
_TEXT	ENDS
; Function compile flags: /Odtp /RTCsu /ZI
; File c:\program files (x86)\microsoft visual studio 14.0\vc\include\xmemory0
;	COMDAT ??0?$_Wrap_alloc@V?$allocator@D@std@@@std@@QAE@XZ
_TEXT	SEGMENT
_this$ = -8						; size = 4
??0?$_Wrap_alloc@V?$allocator@D@std@@@std@@QAE@XZ PROC	; std::_Wrap_alloc<std::allocator<char> >::_Wrap_alloc<std::allocator<char> >, COMDAT
; _this$ = ecx

; 936  : 		{	// construct default allocator (do nothing)

	push	ebp
	mov	ebp, esp
	sub	esp, 204				; 000000ccH
	push	ebx
	push	esi
	push	edi
	push	ecx
	lea	edi, DWORD PTR [ebp-204]
	mov	ecx, 51					; 00000033H
	mov	eax, -858993460				; ccccccccH
	rep stosd
	pop	ecx
	mov	DWORD PTR _this$[ebp], ecx

; 935  : 		: _Mybase()

	mov	ecx, DWORD PTR _this$[ebp]
	call	??0?$allocator@D@std@@QAE@XZ		; std::allocator<char>::allocator<char>

; 937  : 		}

	mov	eax, DWORD PTR _this$[ebp]
	pop	edi
	pop	esi
	pop	ebx
	add	esp, 204				; 000000ccH
	cmp	ebp, esp
	call	__RTC_CheckEsp
	mov	esp, ebp
	pop	ebp
	ret	0
??0?$_Wrap_alloc@V?$allocator@D@std@@@std@@QAE@XZ ENDP	; std::_Wrap_alloc<std::allocator<char> >::_Wrap_alloc<std::allocator<char> >
_TEXT	ENDS
; Function compile flags: /Odtp /RTCsu /ZI
; File c:\program files (x86)\microsoft visual studio 14.0\vc\include\xmemory0
;	COMDAT ?address@?$_Wrap_alloc@V?$allocator@D@std@@@std@@QBEPADAAD@Z
_TEXT	SEGMENT
_this$ = -8						; size = 4
__Val$ = 8						; size = 4
?address@?$_Wrap_alloc@V?$allocator@D@std@@@std@@QBEPADAAD@Z PROC ; std::_Wrap_alloc<std::allocator<char> >::address, COMDAT
; _this$ = ecx

; 925  : 		{	// return address of mutable _Val

	push	ebp
	mov	ebp, esp
	sub	esp, 204				; 000000ccH
	push	ebx
	push	esi
	push	edi
	push	ecx
	lea	edi, DWORD PTR [ebp-204]
	mov	ecx, 51					; 00000033H
	mov	eax, -858993460				; ccccccccH
	rep stosd
	pop	ecx
	mov	DWORD PTR _this$[ebp], ecx

; 926  : 		return (pointer_traits<pointer>::pointer_to(_Val));

	mov	eax, DWORD PTR __Val$[ebp]
	push	eax
	call	?pointer_to@?$pointer_traits@PAD@std@@SAPADAAD@Z ; std::pointer_traits<char *>::pointer_to
	add	esp, 4

; 927  : 		}

	pop	edi
	pop	esi
	pop	ebx
	add	esp, 204				; 000000ccH
	cmp	ebp, esp
	call	__RTC_CheckEsp
	mov	esp, ebp
	pop	ebp
	ret	4
?address@?$_Wrap_alloc@V?$allocator@D@std@@@std@@QBEPADAAD@Z ENDP ; std::_Wrap_alloc<std::allocator<char> >::address
_TEXT	ENDS
; Function compile flags: /Odtp /RTCsu /ZI
; File c:\program files (x86)\microsoft visual studio 14.0\vc\include\xmemory0
;	COMDAT ?select_on_container_copy_construction@?$_Wrap_alloc@V?$allocator@D@std@@@std@@QBE?AU12@U_Nil@2@@Z
_TEXT	SEGMENT
$T1 = -209						; size = 1
_this$ = -8						; size = 4
___$ReturnUdt$ = 8					; size = 4
___formal$ = 12						; size = 1
?select_on_container_copy_construction@?$_Wrap_alloc@V?$allocator@D@std@@@std@@QBE?AU12@U_Nil@2@@Z PROC ; std::_Wrap_alloc<std::allocator<char> >::select_on_container_copy_construction, COMDAT
; _this$ = ecx

; 912  : 		{	// get allocator to use

	push	ebp
	mov	ebp, esp
	sub	esp, 216				; 000000d8H
	push	ebx
	push	esi
	push	edi
	push	ecx
	lea	edi, DWORD PTR [ebp-216]
	mov	ecx, 54					; 00000036H
	mov	eax, -858993460				; ccccccccH
	rep stosd
	pop	ecx
	mov	DWORD PTR _this$[ebp], ecx

; 913  : 		return (_Mytraits::select_on_container_copy_construction(*this));

	mov	eax, DWORD PTR _this$[ebp]
	push	eax
	lea	ecx, DWORD PTR $T1[ebp]
	push	ecx
	call	?select_on_container_copy_construction@?$allocator_traits@V?$allocator@D@std@@@std@@SA?AV?$allocator@D@2@ABV32@@Z ; std::allocator_traits<std::allocator<char> >::select_on_container_copy_construction
	add	esp, 8
	push	eax
	mov	ecx, DWORD PTR ___$ReturnUdt$[ebp]
	call	??$?0V?$allocator@D@std@@@?$_Wrap_alloc@V?$allocator@D@std@@@std@@QAE@$$QAV?$allocator@D@1@@Z ; std::_Wrap_alloc<std::allocator<char> >::_Wrap_alloc<std::allocator<char> ><std::allocator<char> >
	mov	eax, DWORD PTR ___$ReturnUdt$[ebp]

; 914  : 		}

	pop	edi
	pop	esi
	pop	ebx
	add	esp, 216				; 000000d8H
	cmp	ebp, esp
	call	__RTC_CheckEsp
	mov	esp, ebp
	pop	ebp
	ret	8
?select_on_container_copy_construction@?$_Wrap_alloc@V?$allocator@D@std@@@std@@QBE?AU12@U_Nil@2@@Z ENDP ; std::_Wrap_alloc<std::allocator<char> >::select_on_container_copy_construction
_TEXT	ENDS
; Function compile flags: /Odtp /RTCsu /ZI
; File c:\program files (x86)\microsoft visual studio 14.0\vc\include\xmemory0
;	COMDAT ?select_on_container_copy_construction@?$allocator_traits@V?$allocator@D@std@@@std@@SA?AV?$allocator@D@2@ABV32@@Z
_TEXT	SEGMENT
___$ReturnUdt$ = 8					; size = 4
__Al$ = 12						; size = 4
?select_on_container_copy_construction@?$allocator_traits@V?$allocator@D@std@@@std@@SA?AV?$allocator@D@2@ABV32@@Z PROC ; std::allocator_traits<std::allocator<char> >::select_on_container_copy_construction, COMDAT

; 874  : 		{	// get allocator to use

	push	ebp
	mov	ebp, esp
	sub	esp, 192				; 000000c0H
	push	ebx
	push	esi
	push	edi
	lea	edi, DWORD PTR [ebp-192]
	mov	ecx, 48					; 00000030H
	mov	eax, -858993460				; ccccccccH
	rep stosd

; 875  : 		return (_Al);

	mov	eax, DWORD PTR __Al$[ebp]
	push	eax
	mov	ecx, DWORD PTR ___$ReturnUdt$[ebp]
	call	??0?$allocator@D@std@@QAE@ABV01@@Z	; std::allocator<char>::allocator<char>
	mov	eax, DWORD PTR ___$ReturnUdt$[ebp]

; 876  : 		}

	pop	edi
	pop	esi
	pop	ebx
	add	esp, 192				; 000000c0H
	cmp	ebp, esp
	call	__RTC_CheckEsp
	mov	esp, ebp
	pop	ebp
	ret	0
?select_on_container_copy_construction@?$allocator_traits@V?$allocator@D@std@@@std@@SA?AV?$allocator@D@2@ABV32@@Z ENDP ; std::allocator_traits<std::allocator<char> >::select_on_container_copy_construction
_TEXT	ENDS
; Function compile flags: /Odtp /RTCsu /ZI
; File c:\program files (x86)\microsoft visual studio 14.0\vc\include\xmemory0
;	COMDAT ?max_size@?$allocator_traits@V?$allocator@D@std@@@std@@SAIABV?$allocator@D@2@@Z
_TEXT	SEGMENT
__Al$ = 8						; size = 4
?max_size@?$allocator_traits@V?$allocator@D@std@@@std@@SAIABV?$allocator@D@2@@Z PROC ; std::allocator_traits<std::allocator<char> >::max_size, COMDAT

; 868  : 		{	// get maximum size

	push	ebp
	mov	ebp, esp
	sub	esp, 192				; 000000c0H
	push	ebx
	push	esi
	push	edi
	lea	edi, DWORD PTR [ebp-192]
	mov	ecx, 48					; 00000030H
	mov	eax, -858993460				; ccccccccH
	rep stosd

; 869  : 		return (_Al.max_size());

	mov	ecx, DWORD PTR __Al$[ebp]
	call	?max_size@?$allocator@D@std@@QBEIXZ	; std::allocator<char>::max_size

; 870  : 		}

	pop	edi
	pop	esi
	pop	ebx
	add	esp, 192				; 000000c0H
	cmp	ebp, esp
	call	__RTC_CheckEsp
	mov	esp, ebp
	pop	ebp
	ret	0
?max_size@?$allocator_traits@V?$allocator@D@std@@@std@@SAIABV?$allocator@D@2@@Z ENDP ; std::allocator_traits<std::allocator<char> >::max_size
_TEXT	ENDS
; Function compile flags: /Odtp /RTCsu /ZI
; File c:\program files (x86)\microsoft visual studio 14.0\vc\include\xmemory0
;	COMDAT ?max_size@?$allocator@D@std@@QBEIXZ
_TEXT	SEGMENT
_this$ = -8						; size = 4
?max_size@?$allocator@D@std@@QBEIXZ PROC		; std::allocator<char>::max_size, COMDAT
; _this$ = ecx

; 748  : 		{	// estimate maximum array size

	push	ebp
	mov	ebp, esp
	sub	esp, 204				; 000000ccH
	push	ebx
	push	esi
	push	edi
	push	ecx
	lea	edi, DWORD PTR [ebp-204]
	mov	ecx, 51					; 00000033H
	mov	eax, -858993460				; ccccccccH
	rep stosd
	pop	ecx
	mov	DWORD PTR _this$[ebp], ecx

; 749  : 		return ((size_t)(-1) / sizeof (_Ty));

	or	eax, -1

; 750  : 		}

	pop	edi
	pop	esi
	pop	ebx
	mov	esp, ebp
	pop	ebp
	ret	0
?max_size@?$allocator@D@std@@QBEIXZ ENDP		; std::allocator<char>::max_size
_TEXT	ENDS
; Function compile flags: /Odtp /RTCsu /ZI
; File c:\program files (x86)\microsoft visual studio 14.0\vc\include\xmemory0
;	COMDAT ?allocate@?$allocator@D@std@@QAEPADI@Z
_TEXT	SEGMENT
_this$ = -8						; size = 4
__Count$ = 8						; size = 4
?allocate@?$allocator@D@std@@QAEPADI@Z PROC		; std::allocator<char>::allocate, COMDAT
; _this$ = ecx

; 724  : 		{	// allocate array of _Count elements

	push	ebp
	mov	ebp, esp
	sub	esp, 204				; 000000ccH
	push	ebx
	push	esi
	push	edi
	push	ecx
	lea	edi, DWORD PTR [ebp-204]
	mov	ecx, 51					; 00000033H
	mov	eax, -858993460				; ccccccccH
	rep stosd
	pop	ecx
	mov	DWORD PTR _this$[ebp], ecx

; 725  : 		return (static_cast<pointer>(_Allocate(_Count, sizeof (_Ty))));

	push	1
	push	1
	mov	eax, DWORD PTR __Count$[ebp]
	push	eax
	call	?_Allocate@std@@YAPAXII_N@Z		; std::_Allocate
	add	esp, 12					; 0000000cH

; 726  : 		}

	pop	edi
	pop	esi
	pop	ebx
	add	esp, 204				; 000000ccH
	cmp	ebp, esp
	call	__RTC_CheckEsp
	mov	esp, ebp
	pop	ebp
	ret	4
?allocate@?$allocator@D@std@@QAEPADI@Z ENDP		; std::allocator<char>::allocate
_TEXT	ENDS
; Function compile flags: /Odtp /RTCsu /ZI
; File c:\program files (x86)\microsoft visual studio 14.0\vc\include\xmemory0
;	COMDAT ?deallocate@?$allocator@D@std@@QAEXPADI@Z
_TEXT	SEGMENT
_this$ = -8						; size = 4
__Ptr$ = 8						; size = 4
__Count$ = 12						; size = 4
?deallocate@?$allocator@D@std@@QAEXPADI@Z PROC		; std::allocator<char>::deallocate, COMDAT
; _this$ = ecx

; 719  : 		{	// deallocate object at _Ptr

	push	ebp
	mov	ebp, esp
	sub	esp, 204				; 000000ccH
	push	ebx
	push	esi
	push	edi
	push	ecx
	lea	edi, DWORD PTR [ebp-204]
	mov	ecx, 51					; 00000033H
	mov	eax, -858993460				; ccccccccH
	rep stosd
	pop	ecx
	mov	DWORD PTR _this$[ebp], ecx

; 720  : 		_Deallocate(_Ptr, _Count, sizeof (_Ty));

	push	1
	mov	eax, DWORD PTR __Count$[ebp]
	push	eax
	mov	ecx, DWORD PTR __Ptr$[ebp]
	push	ecx
	call	?_Deallocate@std@@YAXPAXII@Z		; std::_Deallocate
	add	esp, 12					; 0000000cH

; 721  : 		}

	pop	edi
	pop	esi
	pop	ebx
	add	esp, 204				; 000000ccH
	cmp	ebp, esp
	call	__RTC_CheckEsp
	mov	esp, ebp
	pop	ebp
	ret	8
?deallocate@?$allocator@D@std@@QAEXPADI@Z ENDP		; std::allocator<char>::deallocate
_TEXT	ENDS
; Function compile flags: /Odtp /RTCsu /ZI
; File c:\program files (x86)\microsoft visual studio 14.0\vc\include\xmemory0
;	COMDAT ??0?$allocator@D@std@@QAE@ABV01@@Z
_TEXT	SEGMENT
_this$ = -8						; size = 4
___formal$ = 8						; size = 4
??0?$allocator@D@std@@QAE@ABV01@@Z PROC			; std::allocator<char>::allocator<char>, COMDAT
; _this$ = ecx

; 703  : 	allocator(const allocator<_Ty>&) _THROW0()

	push	ebp
	mov	ebp, esp
	sub	esp, 204				; 000000ccH
	push	ebx
	push	esi
	push	edi
	push	ecx
	lea	edi, DWORD PTR [ebp-204]
	mov	ecx, 51					; 00000033H
	mov	eax, -858993460				; ccccccccH
	rep stosd
	pop	ecx
	mov	DWORD PTR _this$[ebp], ecx

; 704  : 		{	// construct by copying (do nothing)
; 705  : 		}

	mov	eax, DWORD PTR _this$[ebp]
	pop	edi
	pop	esi
	pop	ebx
	mov	esp, ebp
	pop	ebp
	ret	4
??0?$allocator@D@std@@QAE@ABV01@@Z ENDP			; std::allocator<char>::allocator<char>
_TEXT	ENDS
; Function compile flags: /Odtp /RTCsu /ZI
; File c:\program files (x86)\microsoft visual studio 14.0\vc\include\xmemory0
;	COMDAT ??0?$allocator@D@std@@QAE@XZ
_TEXT	SEGMENT
_this$ = -8						; size = 4
??0?$allocator@D@std@@QAE@XZ PROC			; std::allocator<char>::allocator<char>, COMDAT
; _this$ = ecx

; 699  : 	allocator() _THROW0()

	push	ebp
	mov	ebp, esp
	sub	esp, 204				; 000000ccH
	push	ebx
	push	esi
	push	edi
	push	ecx
	lea	edi, DWORD PTR [ebp-204]
	mov	ecx, 51					; 00000033H
	mov	eax, -858993460				; ccccccccH
	rep stosd
	pop	ecx
	mov	DWORD PTR _this$[ebp], ecx

; 700  : 		{	// construct default allocator (do nothing)
; 701  : 		}

	mov	eax, DWORD PTR _this$[ebp]
	pop	edi
	pop	esi
	pop	ebx
	mov	esp, ebp
	pop	ebp
	ret	0
??0?$allocator@D@std@@QAE@XZ ENDP			; std::allocator<char>::allocator<char>
_TEXT	ENDS
; Function compile flags: /Odtp /RTCsu /ZI
; File c:\program files (x86)\microsoft visual studio 14.0\vc\include\xmemory0
;	COMDAT ?_Deallocate@std@@YAXPAXII@Z
_TEXT	SEGMENT
__Ptr_container$1 = -44					; size = 4
__Ptr_ptr$2 = -32					; size = 4
__Ptr_user$3 = -20					; size = 4
__User_size$ = -8					; size = 4
__Ptr$ = 8						; size = 4
__Count$ = 12						; size = 4
__Sz$ = 16						; size = 4
?_Deallocate@std@@YAXPAXII@Z PROC			; std::_Deallocate, COMDAT

; 92   : 	{	// deallocate storage for _Count elements of size _Sz

	push	ebp
	mov	ebp, esp
	sub	esp, 240				; 000000f0H
	push	ebx
	push	esi
	push	edi
	lea	edi, DWORD PTR [ebp-240]
	mov	ecx, 60					; 0000003cH
	mov	eax, -858993460				; ccccccccH
	rep stosd

; 93   :  #if defined(_M_IX86) || defined(_M_X64)
; 94   : 	_SCL_SECURE_ALWAYS_VALIDATE(_Count <= (size_t)(-1) / _Sz);

	or	eax, -1
	xor	edx, edx
	div	DWORD PTR __Sz$[ebp]
	cmp	DWORD PTR __Count$[ebp], eax
	jbe	SHORT $LN2@Deallocate
	mov	eax, OFFSET ??_C@_0BN@HMCJOMKN@_Count?5?$DM?$DN?5?$CIsize_t?$CJ?$CI?91?$CJ?5?1?5_Sz?$AA@
	test	eax, eax
	je	SHORT $LN10@Deallocate
	xor	ecx, ecx
	jne	SHORT $LN11@Deallocate
$LN10@Deallocate:
	mov	esi, esp
	push	OFFSET ??_C@_1EI@MLOBABC@?$AA?$CC?$AA_?$AAC?$AAo?$AAu?$AAn?$AAt?$AA?5?$AA?$DM?$AA?$DN?$AA?5?$AA?$CI?$AAs?$AAi?$AAz?$AAe?$AA_?$AAt?$AA?$CJ?$AA?$CI?$AA?9?$AA1?$AA?$CJ?$AA?5?$AA?1?$AA?5?$AA_?$AAS?$AAz?$AA?$CC?$AA?5?$AA?$CG@
	push	OFFSET ??_C@_17CNPHIMPH@?$AA?$CF?$AAl?$AAs?$AA?$AA@
	push	0
	mov	edx, DWORD PTR ?__LINE__Var@?0??_Deallocate@std@@YAXPAXII@Z@4JA
	add	edx, 2
	push	edx
	push	OFFSET ??_C@_1JA@DKOIEICI@?$AAc?$AA?3?$AA?2?$AAp?$AAr?$AAo?$AAg?$AAr?$AAa?$AAm?$AA?5?$AAf?$AAi?$AAl?$AAe?$AAs?$AA?5?$AA?$CI?$AAx?$AA8?$AA6?$AA?$CJ?$AA?2?$AAm?$AAi?$AAc?$AAr?$AAo?$AAs?$AAo?$AAf?$AAt@
	push	2
	call	DWORD PTR __imp___CrtDbgReportW
	add	esp, 24					; 00000018H
	cmp	esi, esp
	call	__RTC_CheckEsp
	cmp	eax, 1
	jne	SHORT $LN11@Deallocate
	int	3
$LN11@Deallocate:
	mov	esi, esp
	push	0
	mov	eax, DWORD PTR ?__LINE__Var@?0??_Deallocate@std@@YAXPAXII@Z@4JA
	add	eax, 2
	push	eax
	push	OFFSET ??_C@_1JA@DKOIEICI@?$AAc?$AA?3?$AA?2?$AAp?$AAr?$AAo?$AAg?$AAr?$AAa?$AAm?$AA?5?$AAf?$AAi?$AAl?$AAe?$AAs?$AA?5?$AA?$CI?$AAx?$AA8?$AA6?$AA?$CJ?$AA?2?$AAm?$AAi?$AAc?$AAr?$AAo?$AAs?$AAo?$AAf?$AAt@
	push	OFFSET ??_C@_1CC@LOFJFFDB@?$AAs?$AAt?$AAd?$AA?3?$AA?3?$AA_?$AAD?$AAe?$AAa?$AAl?$AAl?$AAo?$AAc?$AAa?$AAt?$AAe?$AA?$AA@
	push	OFFSET ??_C@_1CG@JNLFBNGN@?$AA?$CC?$AAi?$AAn?$AAv?$AAa?$AAl?$AAi?$AAd?$AA?5?$AAa?$AAr?$AAg?$AAu?$AAm?$AAe?$AAn?$AAt?$AA?$CC?$AA?$AA@
	call	DWORD PTR __imp___invalid_parameter
	add	esp, 20					; 00000014H
	cmp	esi, esp
	call	__RTC_CheckEsp
$LN2@Deallocate:

; 95   : 	const size_t _User_size = _Count * _Sz;

	mov	eax, DWORD PTR __Count$[ebp]
	imul	eax, DWORD PTR __Sz$[ebp]
	mov	DWORD PTR __User_size$[ebp], eax

; 96   : 	if (_BIG_ALLOCATION_THRESHOLD <= _User_size)

	cmp	DWORD PTR __User_size$[ebp], 4096	; 00001000H
	jb	$LN3@Deallocate

; 97   : 		{	// deallocate large block
; 98   : 		const uintptr_t _Ptr_user = reinterpret_cast<uintptr_t>(_Ptr);

	mov	eax, DWORD PTR __Ptr$[ebp]
	mov	DWORD PTR __Ptr_user$3[ebp], eax

; 99   : 		_SCL_SECURE_ALWAYS_VALIDATE(

	mov	eax, DWORD PTR __Ptr_user$3[ebp]
	and	eax, 31					; 0000001fH
	je	SHORT $LN4@Deallocate
	mov	eax, OFFSET ??_C@_0DD@GBGGGKGG@?$CI_Ptr_user?5?$CG?5?$CI_BIG_ALLOCATION_AL@
	test	eax, eax
	je	SHORT $LN12@Deallocate
	xor	ecx, ecx
	jne	SHORT $LN13@Deallocate
$LN12@Deallocate:
	mov	esi, esp
	push	OFFSET ??_C@_1HE@CDMBFOKC@?$AA?$CC?$AA?$CI?$AA_?$AAP?$AAt?$AAr?$AA_?$AAu?$AAs?$AAe?$AAr?$AA?5?$AA?$CG?$AA?5?$AA?$CI?$AA_?$AAB?$AAI?$AAG?$AA_?$AAA?$AAL?$AAL?$AAO?$AAC?$AAA?$AAT?$AAI?$AAO?$AAN?$AA_?$AAA@
	push	OFFSET ??_C@_17CNPHIMPH@?$AA?$CF?$AAl?$AAs?$AA?$AA@
	push	0
	mov	edx, DWORD PTR ?__LINE__Var@?0??_Deallocate@std@@YAXPAXII@Z@4JA
	add	edx, 8
	push	edx
	push	OFFSET ??_C@_1JA@DKOIEICI@?$AAc?$AA?3?$AA?2?$AAp?$AAr?$AAo?$AAg?$AAr?$AAa?$AAm?$AA?5?$AAf?$AAi?$AAl?$AAe?$AAs?$AA?5?$AA?$CI?$AAx?$AA8?$AA6?$AA?$CJ?$AA?2?$AAm?$AAi?$AAc?$AAr?$AAo?$AAs?$AAo?$AAf?$AAt@
	push	2
	call	DWORD PTR __imp___CrtDbgReportW
	add	esp, 24					; 00000018H
	cmp	esi, esp
	call	__RTC_CheckEsp
	cmp	eax, 1
	jne	SHORT $LN13@Deallocate
	int	3
$LN13@Deallocate:
	mov	esi, esp
	push	0
	mov	eax, DWORD PTR ?__LINE__Var@?0??_Deallocate@std@@YAXPAXII@Z@4JA
	add	eax, 8
	push	eax
	push	OFFSET ??_C@_1JA@DKOIEICI@?$AAc?$AA?3?$AA?2?$AAp?$AAr?$AAo?$AAg?$AAr?$AAa?$AAm?$AA?5?$AAf?$AAi?$AAl?$AAe?$AAs?$AA?5?$AA?$CI?$AAx?$AA8?$AA6?$AA?$CJ?$AA?2?$AAm?$AAi?$AAc?$AAr?$AAo?$AAs?$AAo?$AAf?$AAt@
	push	OFFSET ??_C@_1CC@LOFJFFDB@?$AAs?$AAt?$AAd?$AA?3?$AA?3?$AA_?$AAD?$AAe?$AAa?$AAl?$AAl?$AAo?$AAc?$AAa?$AAt?$AAe?$AA?$AA@
	push	OFFSET ??_C@_1CG@JNLFBNGN@?$AA?$CC?$AAi?$AAn?$AAv?$AAa?$AAl?$AAi?$AAd?$AA?5?$AAa?$AAr?$AAg?$AAu?$AAm?$AAe?$AAn?$AAt?$AA?$CC?$AA?$AA@
	call	DWORD PTR __imp___invalid_parameter
	add	esp, 20					; 00000014H
	cmp	esi, esp
	call	__RTC_CheckEsp
$LN4@Deallocate:

; 100  : 			(_Ptr_user & (_BIG_ALLOCATION_ALIGNMENT - 1)) == 0);
; 101  : 		const uintptr_t _Ptr_ptr = _Ptr_user - sizeof(void *);

	mov	eax, DWORD PTR __Ptr_user$3[ebp]
	sub	eax, 4
	mov	DWORD PTR __Ptr_ptr$2[ebp], eax

; 102  : 		const uintptr_t _Ptr_container =
; 103  : 			*reinterpret_cast<uintptr_t *>(_Ptr_ptr);

	mov	eax, DWORD PTR __Ptr_ptr$2[ebp]
	mov	ecx, DWORD PTR [eax]
	mov	DWORD PTR __Ptr_container$1[ebp], ecx

; 104  : 
; 105  :  #ifdef _DEBUG
; 106  : 		// If the following asserts, it likely means that we are performing
; 107  : 		// an aligned delete on memory coming from an unaligned allocation.
; 108  : 		_SCL_SECURE_ALWAYS_VALIDATE(

	mov	eax, 4
	imul	ecx, eax, -1
	mov	edx, DWORD PTR __Ptr_ptr$2[ebp]
	cmp	DWORD PTR [edx+ecx], -84215046		; fafafafaH
	je	SHORT $LN5@Deallocate
	mov	eax, OFFSET ??_C@_0EI@NOJHEJCJ@reinterpret_cast?$DMuintptr_t?5?$CK?$DO?$CI_P@
	test	eax, eax
	je	SHORT $LN14@Deallocate
	xor	ecx, ecx
	jne	SHORT $LN15@Deallocate
$LN14@Deallocate:
	mov	esi, esp
	push	OFFSET ??_C@_1JO@EKLKIEHP@?$AA?$CC?$AAr?$AAe?$AAi?$AAn?$AAt?$AAe?$AAr?$AAp?$AAr?$AAe?$AAt?$AA_?$AAc?$AAa?$AAs?$AAt?$AA?$DM?$AAu?$AAi?$AAn?$AAt?$AAp?$AAt?$AAr?$AA_?$AAt?$AA?5?$AA?$CK?$AA?$DO?$AA?$CI?$AA_@
	push	OFFSET ??_C@_17CNPHIMPH@?$AA?$CF?$AAl?$AAs?$AA?$AA@
	push	0
	mov	edx, DWORD PTR ?__LINE__Var@?0??_Deallocate@std@@YAXPAXII@Z@4JA
	add	edx, 18					; 00000012H
	push	edx
	push	OFFSET ??_C@_1JA@DKOIEICI@?$AAc?$AA?3?$AA?2?$AAp?$AAr?$AAo?$AAg?$AAr?$AAa?$AAm?$AA?5?$AAf?$AAi?$AAl?$AAe?$AAs?$AA?5?$AA?$CI?$AAx?$AA8?$AA6?$AA?$CJ?$AA?2?$AAm?$AAi?$AAc?$AAr?$AAo?$AAs?$AAo?$AAf?$AAt@
	push	2
	call	DWORD PTR __imp___CrtDbgReportW
	add	esp, 24					; 00000018H
	cmp	esi, esp
	call	__RTC_CheckEsp
	cmp	eax, 1
	jne	SHORT $LN15@Deallocate
	int	3
$LN15@Deallocate:
	mov	esi, esp
	push	0
	mov	eax, DWORD PTR ?__LINE__Var@?0??_Deallocate@std@@YAXPAXII@Z@4JA
	add	eax, 18					; 00000012H
	push	eax
	push	OFFSET ??_C@_1JA@DKOIEICI@?$AAc?$AA?3?$AA?2?$AAp?$AAr?$AAo?$AAg?$AAr?$AAa?$AAm?$AA?5?$AAf?$AAi?$AAl?$AAe?$AAs?$AA?5?$AA?$CI?$AAx?$AA8?$AA6?$AA?$CJ?$AA?2?$AAm?$AAi?$AAc?$AAr?$AAo?$AAs?$AAo?$AAf?$AAt@
	push	OFFSET ??_C@_1CC@LOFJFFDB@?$AAs?$AAt?$AAd?$AA?3?$AA?3?$AA_?$AAD?$AAe?$AAa?$AAl?$AAl?$AAo?$AAc?$AAa?$AAt?$AAe?$AA?$AA@
	push	OFFSET ??_C@_1CG@JNLFBNGN@?$AA?$CC?$AAi?$AAn?$AAv?$AAa?$AAl?$AAi?$AAd?$AA?5?$AAa?$AAr?$AAg?$AAu?$AAm?$AAe?$AAn?$AAt?$AA?$CC?$AA?$AA@
	call	DWORD PTR __imp___invalid_parameter
	add	esp, 20					; 00000014H
	cmp	esi, esp
	call	__RTC_CheckEsp
$LN5@Deallocate:

; 109  : 			reinterpret_cast<uintptr_t *>(_Ptr_ptr)[-1] ==
; 110  : 				_BIG_ALLOCATION_SENTINEL);
; 111  :  #endif /* _DEBUG */
; 112  : 
; 113  : 		// Extra paranoia on aligned allocation/deallocation
; 114  : 		_SCL_SECURE_ALWAYS_VALIDATE(_Ptr_container < _Ptr_user);

	mov	eax, DWORD PTR __Ptr_container$1[ebp]
	cmp	eax, DWORD PTR __Ptr_user$3[ebp]
	jb	SHORT $LN6@Deallocate
	mov	eax, OFFSET ??_C@_0BL@OCKMEJON@_Ptr_container?5?$DM?5_Ptr_user?$AA@
	test	eax, eax
	je	SHORT $LN16@Deallocate
	xor	ecx, ecx
	jne	SHORT $LN17@Deallocate
$LN16@Deallocate:
	mov	esi, esp
	push	OFFSET ??_C@_1EE@PDHAHDDC@?$AA?$CC?$AA_?$AAP?$AAt?$AAr?$AA_?$AAc?$AAo?$AAn?$AAt?$AAa?$AAi?$AAn?$AAe?$AAr?$AA?5?$AA?$DM?$AA?5?$AA_?$AAP?$AAt?$AAr?$AA_?$AAu?$AAs?$AAe?$AAr?$AA?$CC?$AA?5?$AA?$CG?$AA?$CG?$AA?5@
	push	OFFSET ??_C@_17CNPHIMPH@?$AA?$CF?$AAl?$AAs?$AA?$AA@
	push	0
	mov	edx, DWORD PTR ?__LINE__Var@?0??_Deallocate@std@@YAXPAXII@Z@4JA
	add	edx, 22					; 00000016H
	push	edx
	push	OFFSET ??_C@_1JA@DKOIEICI@?$AAc?$AA?3?$AA?2?$AAp?$AAr?$AAo?$AAg?$AAr?$AAa?$AAm?$AA?5?$AAf?$AAi?$AAl?$AAe?$AAs?$AA?5?$AA?$CI?$AAx?$AA8?$AA6?$AA?$CJ?$AA?2?$AAm?$AAi?$AAc?$AAr?$AAo?$AAs?$AAo?$AAf?$AAt@
	push	2
	call	DWORD PTR __imp___CrtDbgReportW
	add	esp, 24					; 00000018H
	cmp	esi, esp
	call	__RTC_CheckEsp
	cmp	eax, 1
	jne	SHORT $LN17@Deallocate
	int	3
$LN17@Deallocate:
	mov	esi, esp
	push	0
	mov	eax, DWORD PTR ?__LINE__Var@?0??_Deallocate@std@@YAXPAXII@Z@4JA
	add	eax, 22					; 00000016H
	push	eax
	push	OFFSET ??_C@_1JA@DKOIEICI@?$AAc?$AA?3?$AA?2?$AAp?$AAr?$AAo?$AAg?$AAr?$AAa?$AAm?$AA?5?$AAf?$AAi?$AAl?$AAe?$AAs?$AA?5?$AA?$CI?$AAx?$AA8?$AA6?$AA?$CJ?$AA?2?$AAm?$AAi?$AAc?$AAr?$AAo?$AAs?$AAo?$AAf?$AAt@
	push	OFFSET ??_C@_1CC@LOFJFFDB@?$AAs?$AAt?$AAd?$AA?3?$AA?3?$AA_?$AAD?$AAe?$AAa?$AAl?$AAl?$AAo?$AAc?$AAa?$AAt?$AAe?$AA?$AA@
	push	OFFSET ??_C@_1CG@JNLFBNGN@?$AA?$CC?$AAi?$AAn?$AAv?$AAa?$AAl?$AAi?$AAd?$AA?5?$AAa?$AAr?$AAg?$AAu?$AAm?$AAe?$AAn?$AAt?$AA?$CC?$AA?$AA@
	call	DWORD PTR __imp___invalid_parameter
	add	esp, 20					; 00000014H
	cmp	esi, esp
	call	__RTC_CheckEsp
$LN6@Deallocate:

; 115  : 
; 116  :  #ifdef _DEBUG
; 117  : 		_SCL_SECURE_ALWAYS_VALIDATE(2 * sizeof(void *)

	mov	eax, DWORD PTR __Ptr_user$3[ebp]
	sub	eax, DWORD PTR __Ptr_container$1[ebp]
	cmp	eax, 8
	jae	SHORT $LN7@Deallocate
	mov	eax, OFFSET ??_C@_0DB@GLFJLNCE@2?5?$CK?5sizeof?$CIvoid?5?$CK?$CJ?5?$DM?$DN?5_Ptr_user?5@
	test	eax, eax
	je	SHORT $LN18@Deallocate
	xor	ecx, ecx
	jne	SHORT $LN19@Deallocate
$LN18@Deallocate:
	mov	esi, esp
	push	OFFSET ??_C@_1HA@NAPGMHAO@?$AA?$CC?$AA2?$AA?5?$AA?$CK?$AA?5?$AAs?$AAi?$AAz?$AAe?$AAo?$AAf?$AA?$CI?$AAv?$AAo?$AAi?$AAd?$AA?5?$AA?$CK?$AA?$CJ?$AA?5?$AA?$DM?$AA?$DN?$AA?5?$AA_?$AAP?$AAt?$AAr?$AA_?$AAu?$AAs?$AAe?$AAr@
	push	OFFSET ??_C@_17CNPHIMPH@?$AA?$CF?$AAl?$AAs?$AA?$AA@
	push	0
	mov	edx, DWORD PTR ?__LINE__Var@?0??_Deallocate@std@@YAXPAXII@Z@4JA
	add	edx, 26					; 0000001aH
	push	edx
	push	OFFSET ??_C@_1JA@DKOIEICI@?$AAc?$AA?3?$AA?2?$AAp?$AAr?$AAo?$AAg?$AAr?$AAa?$AAm?$AA?5?$AAf?$AAi?$AAl?$AAe?$AAs?$AA?5?$AA?$CI?$AAx?$AA8?$AA6?$AA?$CJ?$AA?2?$AAm?$AAi?$AAc?$AAr?$AAo?$AAs?$AAo?$AAf?$AAt@
	push	2
	call	DWORD PTR __imp___CrtDbgReportW
	add	esp, 24					; 00000018H
	cmp	esi, esp
	call	__RTC_CheckEsp
	cmp	eax, 1
	jne	SHORT $LN19@Deallocate
	int	3
$LN19@Deallocate:
	mov	esi, esp
	push	0
	mov	eax, DWORD PTR ?__LINE__Var@?0??_Deallocate@std@@YAXPAXII@Z@4JA
	add	eax, 26					; 0000001aH
	push	eax
	push	OFFSET ??_C@_1JA@DKOIEICI@?$AAc?$AA?3?$AA?2?$AAp?$AAr?$AAo?$AAg?$AAr?$AAa?$AAm?$AA?5?$AAf?$AAi?$AAl?$AAe?$AAs?$AA?5?$AA?$CI?$AAx?$AA8?$AA6?$AA?$CJ?$AA?2?$AAm?$AAi?$AAc?$AAr?$AAo?$AAs?$AAo?$AAf?$AAt@
	push	OFFSET ??_C@_1CC@LOFJFFDB@?$AAs?$AAt?$AAd?$AA?3?$AA?3?$AA_?$AAD?$AAe?$AAa?$AAl?$AAl?$AAo?$AAc?$AAa?$AAt?$AAe?$AA?$AA@
	push	OFFSET ??_C@_1CG@JNLFBNGN@?$AA?$CC?$AAi?$AAn?$AAv?$AAa?$AAl?$AAi?$AAd?$AA?5?$AAa?$AAr?$AAg?$AAu?$AAm?$AAe?$AAn?$AAt?$AA?$CC?$AA?$AA@
	call	DWORD PTR __imp___invalid_parameter
	add	esp, 20					; 00000014H
	cmp	esi, esp
	call	__RTC_CheckEsp
$LN7@Deallocate:

; 118  : 			<= _Ptr_user - _Ptr_container);
; 119  : 
; 120  :  #else /* _DEBUG */
; 121  : 		_SCL_SECURE_ALWAYS_VALIDATE(sizeof(void *)
; 122  : 			<= _Ptr_user - _Ptr_container);
; 123  :  #endif /* _DEBUG */
; 124  : 
; 125  : 		_SCL_SECURE_ALWAYS_VALIDATE(_Ptr_user - _Ptr_container

	mov	eax, DWORD PTR __Ptr_user$3[ebp]
	sub	eax, DWORD PTR __Ptr_container$1[ebp]
	cmp	eax, 39					; 00000027H
	jbe	SHORT $LN8@Deallocate
	mov	eax, OFFSET ??_C@_0CN@BLHJCAL@_Ptr_user?5?9?5_Ptr_container?5?$DM?$DN?5_N@
	test	eax, eax
	je	SHORT $LN20@Deallocate
	xor	ecx, ecx
	jne	SHORT $LN21@Deallocate
$LN20@Deallocate:
	mov	esi, esp
	push	OFFSET ??_C@_1GI@DHJGPFNI@?$AA?$CC?$AA_?$AAP?$AAt?$AAr?$AA_?$AAu?$AAs?$AAe?$AAr?$AA?5?$AA?9?$AA?5?$AA_?$AAP?$AAt?$AAr?$AA_?$AAc?$AAo?$AAn?$AAt?$AAa?$AAi?$AAn?$AAe?$AAr?$AA?5?$AA?$DM?$AA?$DN?$AA?5?$AA_@
	push	OFFSET ??_C@_17CNPHIMPH@?$AA?$CF?$AAl?$AAs?$AA?$AA@
	push	0
	mov	edx, DWORD PTR ?__LINE__Var@?0??_Deallocate@std@@YAXPAXII@Z@4JA
	add	edx, 34					; 00000022H
	push	edx
	push	OFFSET ??_C@_1JA@DKOIEICI@?$AAc?$AA?3?$AA?2?$AAp?$AAr?$AAo?$AAg?$AAr?$AAa?$AAm?$AA?5?$AAf?$AAi?$AAl?$AAe?$AAs?$AA?5?$AA?$CI?$AAx?$AA8?$AA6?$AA?$CJ?$AA?2?$AAm?$AAi?$AAc?$AAr?$AAo?$AAs?$AAo?$AAf?$AAt@
	push	2
	call	DWORD PTR __imp___CrtDbgReportW
	add	esp, 24					; 00000018H
	cmp	esi, esp
	call	__RTC_CheckEsp
	cmp	eax, 1
	jne	SHORT $LN21@Deallocate
	int	3
$LN21@Deallocate:
	mov	esi, esp
	push	0
	mov	eax, DWORD PTR ?__LINE__Var@?0??_Deallocate@std@@YAXPAXII@Z@4JA
	add	eax, 34					; 00000022H
	push	eax
	push	OFFSET ??_C@_1JA@DKOIEICI@?$AAc?$AA?3?$AA?2?$AAp?$AAr?$AAo?$AAg?$AAr?$AAa?$AAm?$AA?5?$AAf?$AAi?$AAl?$AAe?$AAs?$AA?5?$AA?$CI?$AAx?$AA8?$AA6?$AA?$CJ?$AA?2?$AAm?$AAi?$AAc?$AAr?$AAo?$AAs?$AAo?$AAf?$AAt@
	push	OFFSET ??_C@_1CC@LOFJFFDB@?$AAs?$AAt?$AAd?$AA?3?$AA?3?$AA_?$AAD?$AAe?$AAa?$AAl?$AAl?$AAo?$AAc?$AAa?$AAt?$AAe?$AA?$AA@
	push	OFFSET ??_C@_1CG@JNLFBNGN@?$AA?$CC?$AAi?$AAn?$AAv?$AAa?$AAl?$AAi?$AAd?$AA?5?$AAa?$AAr?$AAg?$AAu?$AAm?$AAe?$AAn?$AAt?$AA?$CC?$AA?$AA@
	call	DWORD PTR __imp___invalid_parameter
	add	esp, 20					; 00000014H
	cmp	esi, esp
	call	__RTC_CheckEsp
$LN8@Deallocate:

; 126  : 			<= _NON_USER_SIZE);
; 127  : 
; 128  : 		_Ptr = reinterpret_cast<void *>(_Ptr_container);

	mov	eax, DWORD PTR __Ptr_container$1[ebp]
	mov	DWORD PTR __Ptr$[ebp], eax
$LN3@Deallocate:

; 129  : 		}
; 130  :  #endif /* defined(_M_IX86) || defined(_M_X64) */
; 131  : 
; 132  : 	::operator delete(_Ptr);

	mov	eax, DWORD PTR __Ptr$[ebp]
	push	eax
	call	??3@YAXPAX@Z				; operator delete
	add	esp, 4

; 133  : 	}

	pop	edi
	pop	esi
	pop	ebx
	add	esp, 240				; 000000f0H
	cmp	ebp, esp
	call	__RTC_CheckEsp
	mov	esp, ebp
	pop	ebp
	ret	0
?_Deallocate@std@@YAXPAXII@Z ENDP			; std::_Deallocate
_TEXT	ENDS
; Function compile flags: /Odtp /RTCsu /ZI
; File c:\program files (x86)\microsoft visual studio 14.0\vc\include\xmemory0
;	COMDAT ?_Allocate@std@@YAPAXII_N@Z
_TEXT	SEGMENT
__Ptr_container$1 = -44					; size = 4
__Block_size$2 = -32					; size = 4
__User_size$ = -20					; size = 4
__Ptr$ = -8						; size = 4
__Count$ = 8						; size = 4
__Sz$ = 12						; size = 4
__Try_aligned_allocation$ = 16				; size = 1
?_Allocate@std@@YAPAXII_N@Z PROC			; std::_Allocate, COMDAT

; 48   : 	{	// allocate storage for _Count elements of size _Sz

	push	ebp
	mov	ebp, esp
	sub	esp, 240				; 000000f0H
	push	ebx
	push	esi
	push	edi
	lea	edi, DWORD PTR [ebp-240]
	mov	ecx, 60					; 0000003cH
	mov	eax, -858993460				; ccccccccH
	rep stosd

; 49   : 	void *_Ptr = 0;

	mov	DWORD PTR __Ptr$[ebp], 0

; 50   : 
; 51   : 	if (_Count == 0)

	cmp	DWORD PTR __Count$[ebp], 0
	jne	SHORT $LN2@Allocate

; 52   : 		return (_Ptr);

	mov	eax, DWORD PTR __Ptr$[ebp]
	jmp	$LN9@Allocate
$LN2@Allocate:

; 53   : 
; 54   : 	// check overflow of multiply
; 55   : 	if ((size_t)(-1) / _Sz < _Count)

	or	eax, -1
	xor	edx, edx
	div	DWORD PTR __Sz$[ebp]
	cmp	eax, DWORD PTR __Count$[ebp]
	jae	SHORT $LN3@Allocate

; 56   : 		_Xbad_alloc();	// report no memory

	mov	esi, esp
	call	DWORD PTR __imp_?_Xbad_alloc@std@@YAXXZ
	cmp	esi, esp
	call	__RTC_CheckEsp
$LN3@Allocate:

; 57   : 	const size_t _User_size = _Count * _Sz;

	mov	eax, DWORD PTR __Count$[ebp]
	imul	eax, DWORD PTR __Sz$[ebp]
	mov	DWORD PTR __User_size$[ebp], eax

; 58   : 
; 59   :  #if defined(_M_IX86) || defined(_M_X64)
; 60   : 	if (_Try_aligned_allocation
; 61   : 		&& _BIG_ALLOCATION_THRESHOLD <= _User_size)

	movzx	eax, BYTE PTR __Try_aligned_allocation$[ebp]
	test	eax, eax
	je	$LN4@Allocate
	cmp	DWORD PTR __User_size$[ebp], 4096	; 00001000H
	jb	$LN4@Allocate

; 62   : 		{	// allocate large block
; 63   : 		static_assert(sizeof (void *) < _BIG_ALLOCATION_ALIGNMENT,
; 64   : 			"Big allocations should at least match vector register size");
; 65   : 		const size_t _Block_size = _NON_USER_SIZE + _User_size;

	mov	eax, DWORD PTR __User_size$[ebp]
	add	eax, 39					; 00000027H
	mov	DWORD PTR __Block_size$2[ebp], eax

; 66   : 		if (_Block_size <= _User_size)

	mov	eax, DWORD PTR __Block_size$2[ebp]
	cmp	eax, DWORD PTR __User_size$[ebp]
	ja	SHORT $LN6@Allocate

; 67   : 			_Xbad_alloc();	// report no memory

	mov	esi, esp
	call	DWORD PTR __imp_?_Xbad_alloc@std@@YAXXZ
	cmp	esi, esp
	call	__RTC_CheckEsp
$LN6@Allocate:

; 68   : 		const uintptr_t _Ptr_container =
; 69   : 			reinterpret_cast<uintptr_t>(::operator new(_Block_size));

	mov	eax, DWORD PTR __Block_size$2[ebp]
	push	eax
	call	??2@YAPAXI@Z				; operator new
	add	esp, 4
	mov	DWORD PTR __Ptr_container$1[ebp], eax

; 70   : 		_SCL_SECURE_ALWAYS_VALIDATE(_Ptr_container != 0);

	cmp	DWORD PTR __Ptr_container$1[ebp], 0
	jne	SHORT $LN7@Allocate
	mov	eax, OFFSET ??_C@_0BE@LMNLACIC@_Ptr_container?5?$CB?$DN?50?$AA@
	test	eax, eax
	je	SHORT $LN10@Allocate
	xor	ecx, ecx
	jne	SHORT $LN11@Allocate
$LN10@Allocate:
	mov	esi, esp
	push	OFFSET ??_C@_1DG@HGDKEBPG@?$AA?$CC?$AA_?$AAP?$AAt?$AAr?$AA_?$AAc?$AAo?$AAn?$AAt?$AAa?$AAi?$AAn?$AAe?$AAr?$AA?5?$AA?$CB?$AA?$DN?$AA?5?$AA0?$AA?$CC?$AA?5?$AA?$CG?$AA?$CG?$AA?5?$AA0?$AA?$AA@
	push	OFFSET ??_C@_17CNPHIMPH@?$AA?$CF?$AAl?$AAs?$AA?$AA@
	push	0
	mov	edx, DWORD PTR ?__LINE__Var@?0??_Allocate@std@@YAPAXII_N@Z@4JA
	add	edx, 22					; 00000016H
	push	edx
	push	OFFSET ??_C@_1JA@DKOIEICI@?$AAc?$AA?3?$AA?2?$AAp?$AAr?$AAo?$AAg?$AAr?$AAa?$AAm?$AA?5?$AAf?$AAi?$AAl?$AAe?$AAs?$AA?5?$AA?$CI?$AAx?$AA8?$AA6?$AA?$CJ?$AA?2?$AAm?$AAi?$AAc?$AAr?$AAo?$AAs?$AAo?$AAf?$AAt@
	push	2
	call	DWORD PTR __imp___CrtDbgReportW
	add	esp, 24					; 00000018H
	cmp	esi, esp
	call	__RTC_CheckEsp
	cmp	eax, 1
	jne	SHORT $LN11@Allocate
	int	3
$LN11@Allocate:
	mov	esi, esp
	push	0
	mov	eax, DWORD PTR ?__LINE__Var@?0??_Allocate@std@@YAPAXII_N@Z@4JA
	add	eax, 22					; 00000016H
	push	eax
	push	OFFSET ??_C@_1JA@DKOIEICI@?$AAc?$AA?3?$AA?2?$AAp?$AAr?$AAo?$AAg?$AAr?$AAa?$AAm?$AA?5?$AAf?$AAi?$AAl?$AAe?$AAs?$AA?5?$AA?$CI?$AAx?$AA8?$AA6?$AA?$CJ?$AA?2?$AAm?$AAi?$AAc?$AAr?$AAo?$AAs?$AAo?$AAf?$AAt@
	push	OFFSET ??_C@_1BO@NKFMJPA@?$AAs?$AAt?$AAd?$AA?3?$AA?3?$AA_?$AAA?$AAl?$AAl?$AAo?$AAc?$AAa?$AAt?$AAe?$AA?$AA@
	push	OFFSET ??_C@_1CG@JNLFBNGN@?$AA?$CC?$AAi?$AAn?$AAv?$AAa?$AAl?$AAi?$AAd?$AA?5?$AAa?$AAr?$AAg?$AAu?$AAm?$AAe?$AAn?$AAt?$AA?$CC?$AA?$AA@
	call	DWORD PTR __imp___invalid_parameter
	add	esp, 20					; 00000014H
	cmp	esi, esp
	call	__RTC_CheckEsp
$LN7@Allocate:

; 71   : 		_Ptr = reinterpret_cast<void *>((_Ptr_container + _NON_USER_SIZE)

	mov	eax, DWORD PTR __Ptr_container$1[ebp]
	add	eax, 39					; 00000027H
	and	eax, -32				; ffffffe0H
	mov	DWORD PTR __Ptr$[ebp], eax

; 72   : 			& ~(_BIG_ALLOCATION_ALIGNMENT - 1));
; 73   : 		static_cast<uintptr_t *>(_Ptr)[-1] = _Ptr_container;

	mov	eax, 4
	imul	ecx, eax, -1
	mov	edx, DWORD PTR __Ptr$[ebp]
	mov	eax, DWORD PTR __Ptr_container$1[ebp]
	mov	DWORD PTR [edx+ecx], eax

; 74   : 
; 75   :  #ifdef _DEBUG
; 76   : 		static_cast<uintptr_t *>(_Ptr)[-2] = _BIG_ALLOCATION_SENTINEL;

	mov	eax, 4
	imul	ecx, eax, -2
	mov	edx, DWORD PTR __Ptr$[ebp]
	mov	DWORD PTR [edx+ecx], -84215046		; fafafafaH

; 77   :  #endif /* _DEBUG */
; 78   : 		}
; 79   : 	else

	jmp	$LN5@Allocate
$LN4@Allocate:

; 80   :  #endif /* defined(_M_IX86) || defined(_M_X64) */
; 81   : 
; 82   : 		{	// allocate normal block
; 83   : 		_Ptr = ::operator new(_User_size);

	mov	eax, DWORD PTR __User_size$[ebp]
	push	eax
	call	??2@YAPAXI@Z				; operator new
	add	esp, 4
	mov	DWORD PTR __Ptr$[ebp], eax

; 84   : 		_SCL_SECURE_ALWAYS_VALIDATE(_Ptr != 0);

	cmp	DWORD PTR __Ptr$[ebp], 0
	jne	SHORT $LN5@Allocate
	mov	eax, OFFSET ??_C@_09GLJCAGLP@_Ptr?5?$CB?$DN?50?$AA@
	test	eax, eax
	je	SHORT $LN12@Allocate
	xor	ecx, ecx
	jne	SHORT $LN13@Allocate
$LN12@Allocate:
	mov	esi, esp
	push	OFFSET ??_C@_1CC@GKJLLHIM@?$AA?$CC?$AA_?$AAP?$AAt?$AAr?$AA?5?$AA?$CB?$AA?$DN?$AA?5?$AA0?$AA?$CC?$AA?5?$AA?$CG?$AA?$CG?$AA?5?$AA0?$AA?$AA@
	push	OFFSET ??_C@_17CNPHIMPH@?$AA?$CF?$AAl?$AAs?$AA?$AA@
	push	0
	mov	edx, DWORD PTR ?__LINE__Var@?0??_Allocate@std@@YAPAXII_N@Z@4JA
	add	edx, 36					; 00000024H
	push	edx
	push	OFFSET ??_C@_1JA@DKOIEICI@?$AAc?$AA?3?$AA?2?$AAp?$AAr?$AAo?$AAg?$AAr?$AAa?$AAm?$AA?5?$AAf?$AAi?$AAl?$AAe?$AAs?$AA?5?$AA?$CI?$AAx?$AA8?$AA6?$AA?$CJ?$AA?2?$AAm?$AAi?$AAc?$AAr?$AAo?$AAs?$AAo?$AAf?$AAt@
	push	2
	call	DWORD PTR __imp___CrtDbgReportW
	add	esp, 24					; 00000018H
	cmp	esi, esp
	call	__RTC_CheckEsp
	cmp	eax, 1
	jne	SHORT $LN13@Allocate
	int	3
$LN13@Allocate:
	mov	esi, esp
	push	0
	mov	eax, DWORD PTR ?__LINE__Var@?0??_Allocate@std@@YAPAXII_N@Z@4JA
	add	eax, 36					; 00000024H
	push	eax
	push	OFFSET ??_C@_1JA@DKOIEICI@?$AAc?$AA?3?$AA?2?$AAp?$AAr?$AAo?$AAg?$AAr?$AAa?$AAm?$AA?5?$AAf?$AAi?$AAl?$AAe?$AAs?$AA?5?$AA?$CI?$AAx?$AA8?$AA6?$AA?$CJ?$AA?2?$AAm?$AAi?$AAc?$AAr?$AAo?$AAs?$AAo?$AAf?$AAt@
	push	OFFSET ??_C@_1BO@NKFMJPA@?$AAs?$AAt?$AAd?$AA?3?$AA?3?$AA_?$AAA?$AAl?$AAl?$AAo?$AAc?$AAa?$AAt?$AAe?$AA?$AA@
	push	OFFSET ??_C@_1CG@JNLFBNGN@?$AA?$CC?$AAi?$AAn?$AAv?$AAa?$AAl?$AAi?$AAd?$AA?5?$AAa?$AAr?$AAg?$AAu?$AAm?$AAe?$AAn?$AAt?$AA?$CC?$AA?$AA@
	call	DWORD PTR __imp___invalid_parameter
	add	esp, 20					; 00000014H
	cmp	esi, esp
	call	__RTC_CheckEsp
$LN5@Allocate:

; 85   : 		}
; 86   : 	return (_Ptr);

	mov	eax, DWORD PTR __Ptr$[ebp]
$LN9@Allocate:

; 87   : 	}

	pop	edi
	pop	esi
	pop	ebx
	add	esp, 240				; 000000f0H
	cmp	ebp, esp
	call	__RTC_CheckEsp
	mov	esp, ebp
	pop	ebp
	ret	0
?_Allocate@std@@YAPAXII_N@Z ENDP			; std::_Allocate
_TEXT	ENDS
; Function compile flags: /Odtp /RTCsu /ZI
; File c:\program files (x86)\microsoft visual studio 14.0\vc\include\xutility
;	COMDAT ?_Orphan_me@_Iterator_base12@std@@QAEXXZ
_TEXT	SEGMENT
__Pnext$1 = -20						; size = 4
_this$ = -8						; size = 4
?_Orphan_me@_Iterator_base12@std@@QAEXXZ PROC		; std::_Iterator_base12::_Orphan_me, COMDAT
; _this$ = ecx

; 193  : 		{	// cut ties with parent

	push	ebp
	mov	ebp, esp
	sub	esp, 216				; 000000d8H
	push	ebx
	push	esi
	push	edi
	push	ecx
	lea	edi, DWORD PTR [ebp-216]
	mov	ecx, 54					; 00000036H
	mov	eax, -858993460				; ccccccccH
	rep stosd
	pop	ecx
	mov	DWORD PTR _this$[ebp], ecx

; 194  :  #if _ITERATOR_DEBUG_LEVEL == 2
; 195  : 		if (_Myproxy != 0)

	mov	eax, DWORD PTR _this$[ebp]
	cmp	DWORD PTR [eax], 0
	je	SHORT $LN1@Orphan_me

; 196  : 			{	// adopted, remove self from list
; 197  : 			_Iterator_base12 **_Pnext = &_Myproxy->_Myfirstiter;

	mov	eax, DWORD PTR _this$[ebp]
	mov	ecx, DWORD PTR [eax]
	add	ecx, 4
	mov	DWORD PTR __Pnext$1[ebp], ecx
$LN2@Orphan_me:

; 198  : 			while (*_Pnext != 0 && *_Pnext != this)

	mov	eax, DWORD PTR __Pnext$1[ebp]
	cmp	DWORD PTR [eax], 0
	je	SHORT $LN3@Orphan_me
	mov	eax, DWORD PTR __Pnext$1[ebp]
	mov	ecx, DWORD PTR [eax]
	cmp	ecx, DWORD PTR _this$[ebp]
	je	SHORT $LN3@Orphan_me

; 199  : 				_Pnext = &(*_Pnext)->_Mynextiter;

	mov	eax, DWORD PTR __Pnext$1[ebp]
	mov	ecx, DWORD PTR [eax]
	add	ecx, 4
	mov	DWORD PTR __Pnext$1[ebp], ecx
	jmp	SHORT $LN2@Orphan_me
$LN3@Orphan_me:

; 200  : 
; 201  : 			if (*_Pnext == 0)

	mov	eax, DWORD PTR __Pnext$1[ebp]
	cmp	DWORD PTR [eax], 0
	jne	SHORT $LN5@Orphan_me

; 202  : 				_DEBUG_ERROR("ITERATOR LIST CORRUPTED!");

	mov	esi, esp
	push	202					; 000000caH
	push	OFFSET ??_C@_1JA@MHADJNIL@?$AAc?$AA?3?$AA?2?$AAp?$AAr?$AAo?$AAg?$AAr?$AAa?$AAm?$AA?5?$AAf?$AAi?$AAl?$AAe?$AAs?$AA?5?$AA?$CI?$AAx?$AA8?$AA6?$AA?$CJ?$AA?2?$AAm?$AAi?$AAc?$AAr?$AAo?$AAs?$AAo?$AAf?$AAt@
	push	OFFSET ??_C@_1DC@POOIKBAO@?$AAI?$AAT?$AAE?$AAR?$AAA?$AAT?$AAO?$AAR?$AA?5?$AAL?$AAI?$AAS?$AAT?$AA?5?$AAC?$AAO?$AAR?$AAR?$AAU?$AAP?$AAT?$AAE?$AAD?$AA?$CB?$AA?$AA@
	call	DWORD PTR __imp_?_Debug_message@std@@YAXPB_W0I@Z
	add	esp, 12					; 0000000cH
	cmp	esi, esp
	call	__RTC_CheckEsp
$LN5@Orphan_me:

; 203  : 			*_Pnext = _Mynextiter;

	mov	eax, DWORD PTR __Pnext$1[ebp]
	mov	ecx, DWORD PTR _this$[ebp]
	mov	edx, DWORD PTR [ecx+4]
	mov	DWORD PTR [eax], edx

; 204  : 			_Myproxy = 0;

	mov	eax, DWORD PTR _this$[ebp]
	mov	DWORD PTR [eax], 0
$LN1@Orphan_me:

; 205  : 			}
; 206  :  #endif /* _ITERATOR_DEBUG_LEVEL == 2 */
; 207  : 		}

	pop	edi
	pop	esi
	pop	ebx
	add	esp, 216				; 000000d8H
	cmp	ebp, esp
	call	__RTC_CheckEsp
	mov	esp, ebp
	pop	ebp
	ret	0
?_Orphan_me@_Iterator_base12@std@@QAEXXZ ENDP		; std::_Iterator_base12::_Orphan_me
_TEXT	ENDS
; Function compile flags: /Odtp /RTCsu /ZI
; File c:\program files (x86)\microsoft visual studio 14.0\vc\include\xutility
;	COMDAT ?_Getpnext@_Iterator_base12@std@@QAEPAPAU12@XZ
_TEXT	SEGMENT
_this$ = -8						; size = 4
?_Getpnext@_Iterator_base12@std@@QAEPAPAU12@XZ PROC	; std::_Iterator_base12::_Getpnext, COMDAT
; _this$ = ecx

; 188  : 		{	// get address of remaining iterator chain

	push	ebp
	mov	ebp, esp
	sub	esp, 204				; 000000ccH
	push	ebx
	push	esi
	push	edi
	push	ecx
	lea	edi, DWORD PTR [ebp-204]
	mov	ecx, 51					; 00000033H
	mov	eax, -858993460				; ccccccccH
	rep stosd
	pop	ecx
	mov	DWORD PTR _this$[ebp], ecx

; 189  : 		return (&_Mynextiter);

	mov	eax, DWORD PTR _this$[ebp]
	add	eax, 4

; 190  : 		}

	pop	edi
	pop	esi
	pop	ebx
	mov	esp, ebp
	pop	ebp
	ret	0
?_Getpnext@_Iterator_base12@std@@QAEPAPAU12@XZ ENDP	; std::_Iterator_base12::_Getpnext
_TEXT	ENDS
; Function compile flags: /Odtp /RTCsu /ZI
; File c:\program files (x86)\microsoft visual studio 14.0\vc\include\xutility
;	COMDAT ?_Getcont@_Iterator_base12@std@@QBEPBU_Container_base12@2@XZ
_TEXT	SEGMENT
tv68 = -208						; size = 4
_this$ = -8						; size = 4
?_Getcont@_Iterator_base12@std@@QBEPBU_Container_base12@2@XZ PROC ; std::_Iterator_base12::_Getcont, COMDAT
; _this$ = ecx

; 183  : 		{	// get owning container

	push	ebp
	mov	ebp, esp
	sub	esp, 208				; 000000d0H
	push	ebx
	push	esi
	push	edi
	push	ecx
	lea	edi, DWORD PTR [ebp-208]
	mov	ecx, 52					; 00000034H
	mov	eax, -858993460				; ccccccccH
	rep stosd
	pop	ecx
	mov	DWORD PTR _this$[ebp], ecx

; 184  : 		return (_Myproxy == 0 ? 0 : _Myproxy->_Mycont);

	mov	eax, DWORD PTR _this$[ebp]
	cmp	DWORD PTR [eax], 0
	jne	SHORT $LN3@Getcont
	mov	DWORD PTR tv68[ebp], 0
	jmp	SHORT $LN4@Getcont
$LN3@Getcont:
	mov	ecx, DWORD PTR _this$[ebp]
	mov	edx, DWORD PTR [ecx]
	mov	eax, DWORD PTR [edx]
	mov	DWORD PTR tv68[ebp], eax
$LN4@Getcont:
	mov	eax, DWORD PTR tv68[ebp]

; 185  : 		}

	pop	edi
	pop	esi
	pop	ebx
	mov	esp, ebp
	pop	ebp
	ret	0
?_Getcont@_Iterator_base12@std@@QBEPBU_Container_base12@2@XZ ENDP ; std::_Iterator_base12::_Getcont
_TEXT	ENDS
; Function compile flags: /Odtp /RTCsu /ZI
; File c:\program files (x86)\microsoft visual studio 14.0\vc\include\xutility
;	COMDAT ?_Clrcont@_Iterator_base12@std@@QAEXXZ
_TEXT	SEGMENT
_this$ = -8						; size = 4
?_Clrcont@_Iterator_base12@std@@QAEXXZ PROC		; std::_Iterator_base12::_Clrcont, COMDAT
; _this$ = ecx

; 178  : 		{	// disown owning container

	push	ebp
	mov	ebp, esp
	sub	esp, 204				; 000000ccH
	push	ebx
	push	esi
	push	edi
	push	ecx
	lea	edi, DWORD PTR [ebp-204]
	mov	ecx, 51					; 00000033H
	mov	eax, -858993460				; ccccccccH
	rep stosd
	pop	ecx
	mov	DWORD PTR _this$[ebp], ecx

; 179  : 		_Myproxy = 0;

	mov	eax, DWORD PTR _this$[ebp]
	mov	DWORD PTR [eax], 0

; 180  : 		}

	pop	edi
	pop	esi
	pop	ebx
	mov	esp, ebp
	pop	ebp
	ret	0
?_Clrcont@_Iterator_base12@std@@QAEXXZ ENDP		; std::_Iterator_base12::_Clrcont
_TEXT	ENDS
; Function compile flags: /Odtp /RTCsu /ZI
; File c:\program files (x86)\microsoft visual studio 14.0\vc\include\xutility
;	COMDAT ?_Adopt@_Iterator_base12@std@@QAEXPBU_Container_base12@2@@Z
_TEXT	SEGMENT
__Lock$2 = -56						; size = 4
__Parent_proxy$3 = -44					; size = 4
__Lock$4 = -32						; size = 4
_this$ = -20						; size = 4
__$EHRec$ = -12						; size = 12
__Parent$ = 8						; size = 4
?_Adopt@_Iterator_base12@std@@QAEXPBU_Container_base12@2@@Z PROC ; std::_Iterator_base12::_Adopt, COMDAT
; _this$ = ecx

; 149  : 		{	// adopt this iterator by parent

	push	ebp
	mov	ebp, esp
	push	-1
	push	__ehhandler$?_Adopt@_Iterator_base12@std@@QAEXPBU_Container_base12@2@@Z
	mov	eax, DWORD PTR fs:0
	push	eax
	sub	esp, 240				; 000000f0H
	push	ebx
	push	esi
	push	edi
	push	ecx
	lea	edi, DWORD PTR [ebp-252]
	mov	ecx, 60					; 0000003cH
	mov	eax, -858993460				; ccccccccH
	rep stosd
	pop	ecx
	mov	eax, DWORD PTR ___security_cookie
	xor	eax, ebp
	push	eax
	lea	eax, DWORD PTR __$EHRec$[ebp]
	mov	DWORD PTR fs:0, eax
	mov	DWORD PTR _this$[ebp], ecx

; 150  : 		if (_Parent == 0)

	cmp	DWORD PTR __Parent$[ebp], 0
	jne	SHORT $LN2@Adopt

; 151  : 			{	// no future parent, just disown current parent
; 152  :  #if _ITERATOR_DEBUG_LEVEL == 2
; 153  : 			_Lockit _Lock(_LOCK_DEBUG);

	mov	esi, esp
	push	3
	lea	ecx, DWORD PTR __Lock$4[ebp]
	call	DWORD PTR __imp_??0_Lockit@std@@QAE@H@Z
	cmp	esi, esp
	call	__RTC_CheckEsp
	mov	DWORD PTR __$EHRec$[ebp+8], 0

; 154  : 			_Orphan_me();

	mov	ecx, DWORD PTR _this$[ebp]
	call	?_Orphan_me@_Iterator_base12@std@@QAEXXZ ; std::_Iterator_base12::_Orphan_me

; 155  :  #endif /* _ITERATOR_DEBUG_LEVEL == 2 */
; 156  : 			}

	mov	DWORD PTR __$EHRec$[ebp+8], -1
	mov	esi, esp
	lea	ecx, DWORD PTR __Lock$4[ebp]
	call	DWORD PTR __imp_??1_Lockit@std@@QAE@XZ
	cmp	esi, esp
	call	__RTC_CheckEsp

; 157  : 		else

	jmp	SHORT $LN1@Adopt
$LN2@Adopt:

; 158  : 			{	// have a parent, do adoption
; 159  : 			_Container_proxy *_Parent_proxy = _Parent->_Myproxy;

	mov	eax, DWORD PTR __Parent$[ebp]
	mov	ecx, DWORD PTR [eax]
	mov	DWORD PTR __Parent_proxy$3[ebp], ecx

; 160  : 
; 161  :  #if _ITERATOR_DEBUG_LEVEL == 2
; 162  : 			if (_Myproxy != _Parent_proxy)

	mov	eax, DWORD PTR _this$[ebp]
	mov	ecx, DWORD PTR [eax]
	cmp	ecx, DWORD PTR __Parent_proxy$3[ebp]
	je	SHORT $LN1@Adopt

; 163  : 				{	// change parentage
; 164  : 				_Lockit _Lock(_LOCK_DEBUG);

	mov	esi, esp
	push	3
	lea	ecx, DWORD PTR __Lock$2[ebp]
	call	DWORD PTR __imp_??0_Lockit@std@@QAE@H@Z
	cmp	esi, esp
	call	__RTC_CheckEsp
	mov	DWORD PTR __$EHRec$[ebp+8], 1

; 165  : 				_Orphan_me();

	mov	ecx, DWORD PTR _this$[ebp]
	call	?_Orphan_me@_Iterator_base12@std@@QAEXXZ ; std::_Iterator_base12::_Orphan_me

; 166  : 				_Mynextiter = _Parent_proxy->_Myfirstiter;

	mov	eax, DWORD PTR _this$[ebp]
	mov	ecx, DWORD PTR __Parent_proxy$3[ebp]
	mov	edx, DWORD PTR [ecx+4]
	mov	DWORD PTR [eax+4], edx

; 167  : 				_Parent_proxy->_Myfirstiter = this;

	mov	eax, DWORD PTR __Parent_proxy$3[ebp]
	mov	ecx, DWORD PTR _this$[ebp]
	mov	DWORD PTR [eax+4], ecx

; 168  : 				_Myproxy = _Parent_proxy;

	mov	eax, DWORD PTR _this$[ebp]
	mov	ecx, DWORD PTR __Parent_proxy$3[ebp]
	mov	DWORD PTR [eax], ecx

; 169  : 				}

	mov	DWORD PTR __$EHRec$[ebp+8], -1
	mov	esi, esp
	lea	ecx, DWORD PTR __Lock$2[ebp]
	call	DWORD PTR __imp_??1_Lockit@std@@QAE@XZ
	cmp	esi, esp
	call	__RTC_CheckEsp
$LN1@Adopt:

; 170  : 
; 171  :  #else /* _ITERATOR_DEBUG_LEVEL == 2 */
; 172  : 			_Myproxy = _Parent_proxy;
; 173  :  #endif /* _ITERATOR_DEBUG_LEVEL == 2 */
; 174  : 			}
; 175  : 		}

	push	edx
	mov	ecx, ebp
	push	eax
	lea	edx, DWORD PTR $LN12@Adopt
	call	@_RTC_CheckStackVars@8
	pop	eax
	pop	edx
	mov	ecx, DWORD PTR __$EHRec$[ebp]
	mov	DWORD PTR fs:0, ecx
	pop	ecx
	pop	edi
	pop	esi
	pop	ebx
	add	esp, 252				; 000000fcH
	cmp	ebp, esp
	call	__RTC_CheckEsp
	mov	esp, ebp
	pop	ebp
	ret	4
	npad	1
$LN12@Adopt:
	DD	2
	DD	$LN11@Adopt
$LN11@Adopt:
	DD	-32					; ffffffe0H
	DD	4
	DD	$LN8@Adopt
	DD	-56					; ffffffc8H
	DD	4
	DD	$LN9@Adopt
$LN9@Adopt:
	DB	95					; 0000005fH
	DB	76					; 0000004cH
	DB	111					; 0000006fH
	DB	99					; 00000063H
	DB	107					; 0000006bH
	DB	0
$LN8@Adopt:
	DB	95					; 0000005fH
	DB	76					; 0000004cH
	DB	111					; 0000006fH
	DB	99					; 00000063H
	DB	107					; 0000006bH
	DB	0
_TEXT	ENDS
;	COMDAT text$x
text$x	SEGMENT
__unwindfunclet$?_Adopt@_Iterator_base12@std@@QAEXPBU_Container_base12@2@@Z$0:
	mov	esi, esp
	lea	ecx, DWORD PTR __Lock$4[ebp]
	call	DWORD PTR __imp_??1_Lockit@std@@QAE@XZ
	cmp	esi, esp
	jmp	__RTC_CheckEsp
__unwindfunclet$?_Adopt@_Iterator_base12@std@@QAEXPBU_Container_base12@2@@Z$1:
	mov	esi, esp
	lea	ecx, DWORD PTR __Lock$2[ebp]
	call	DWORD PTR __imp_??1_Lockit@std@@QAE@XZ
	cmp	esi, esp
	jmp	__RTC_CheckEsp
__ehhandler$?_Adopt@_Iterator_base12@std@@QAEXPBU_Container_base12@2@@Z:
	mov	edx, DWORD PTR [esp+8]
	lea	eax, DWORD PTR [edx+12]
	mov	ecx, DWORD PTR [edx-256]
	xor	ecx, eax
	call	@__security_check_cookie@4
	mov	eax, OFFSET __ehfuncinfo$?_Adopt@_Iterator_base12@std@@QAEXPBU_Container_base12@2@@Z
	jmp	___CxxFrameHandler3
text$x	ENDS
?_Adopt@_Iterator_base12@std@@QAEXPBU_Container_base12@2@@Z ENDP ; std::_Iterator_base12::_Adopt
; Function compile flags: /Odtp /RTCsu /ZI
; File c:\program files (x86)\microsoft visual studio 14.0\vc\include\xutility
;	COMDAT ??1_Iterator_base12@std@@QAE@XZ
_TEXT	SEGMENT
__Lock$ = -32						; size = 4
_this$ = -20						; size = 4
__$EHRec$ = -12						; size = 12
??1_Iterator_base12@std@@QAE@XZ PROC			; std::_Iterator_base12::~_Iterator_base12, COMDAT
; _this$ = ecx

; 141  : 		{	// destroy the iterator

	push	ebp
	mov	ebp, esp
	push	-1
	push	__ehhandler$??1_Iterator_base12@std@@QAE@XZ
	mov	eax, DWORD PTR fs:0
	push	eax
	sub	esp, 216				; 000000d8H
	push	ebx
	push	esi
	push	edi
	push	ecx
	lea	edi, DWORD PTR [ebp-228]
	mov	ecx, 54					; 00000036H
	mov	eax, -858993460				; ccccccccH
	rep stosd
	pop	ecx
	mov	eax, DWORD PTR ___security_cookie
	xor	eax, ebp
	push	eax
	lea	eax, DWORD PTR __$EHRec$[ebp]
	mov	DWORD PTR fs:0, eax
	mov	DWORD PTR _this$[ebp], ecx

; 142  :  #if _ITERATOR_DEBUG_LEVEL == 2
; 143  : 		_Lockit _Lock(_LOCK_DEBUG);

	mov	esi, esp
	push	3
	lea	ecx, DWORD PTR __Lock$[ebp]
	call	DWORD PTR __imp_??0_Lockit@std@@QAE@H@Z
	cmp	esi, esp
	call	__RTC_CheckEsp

; 144  : 		_Orphan_me();

	mov	ecx, DWORD PTR _this$[ebp]
	call	?_Orphan_me@_Iterator_base12@std@@QAEXXZ ; std::_Iterator_base12::_Orphan_me

; 145  :  #endif /* _ITERATOR_DEBUG_LEVEL == 2 */
; 146  : 		}

	mov	esi, esp
	lea	ecx, DWORD PTR __Lock$[ebp]
	call	DWORD PTR __imp_??1_Lockit@std@@QAE@XZ
	cmp	esi, esp
	call	__RTC_CheckEsp
	push	edx
	mov	ecx, ebp
	push	eax
	lea	edx, DWORD PTR $LN6@Iterator_b
	call	@_RTC_CheckStackVars@8
	pop	eax
	pop	edx
	mov	ecx, DWORD PTR __$EHRec$[ebp]
	mov	DWORD PTR fs:0, ecx
	pop	ecx
	pop	edi
	pop	esi
	pop	ebx
	add	esp, 228				; 000000e4H
	cmp	ebp, esp
	call	__RTC_CheckEsp
	mov	esp, ebp
	pop	ebp
	ret	0
$LN6@Iterator_b:
	DD	1
	DD	$LN5@Iterator_b
$LN5@Iterator_b:
	DD	-32					; ffffffe0H
	DD	4
	DD	$LN3@Iterator_b
$LN3@Iterator_b:
	DB	95					; 0000005fH
	DB	76					; 0000004cH
	DB	111					; 0000006fH
	DB	99					; 00000063H
	DB	107					; 0000006bH
	DB	0
_TEXT	ENDS
;	COMDAT text$x
text$x	SEGMENT
__ehhandler$??1_Iterator_base12@std@@QAE@XZ:
	mov	edx, DWORD PTR [esp+8]
	lea	eax, DWORD PTR [edx+12]
	mov	ecx, DWORD PTR [edx-232]
	xor	ecx, eax
	call	@__security_check_cookie@4
	mov	eax, OFFSET __ehfuncinfo$??1_Iterator_base12@std@@QAE@XZ
	jmp	___CxxFrameHandler3
text$x	ENDS
??1_Iterator_base12@std@@QAE@XZ ENDP			; std::_Iterator_base12::~_Iterator_base12
; Function compile flags: /Odtp /RTCsu /ZI
; File c:\program files (x86)\microsoft visual studio 14.0\vc\include\xutility
;	COMDAT ??4_Iterator_base12@std@@QAEAAU01@ABU01@@Z
_TEXT	SEGMENT
__Lock$2 = -32						; size = 4
_this$ = -20						; size = 4
__$EHRec$ = -12						; size = 12
__Right$ = 8						; size = 4
??4_Iterator_base12@std@@QAEAAU01@ABU01@@Z PROC		; std::_Iterator_base12::operator=, COMDAT
; _this$ = ecx

; 124  : 		{	// assign an iterator

	push	ebp
	mov	ebp, esp
	push	-1
	push	__ehhandler$??4_Iterator_base12@std@@QAEAAU01@ABU01@@Z
	mov	eax, DWORD PTR fs:0
	push	eax
	sub	esp, 216				; 000000d8H
	push	ebx
	push	esi
	push	edi
	push	ecx
	lea	edi, DWORD PTR [ebp-228]
	mov	ecx, 54					; 00000036H
	mov	eax, -858993460				; ccccccccH
	rep stosd
	pop	ecx
	mov	eax, DWORD PTR ___security_cookie
	xor	eax, ebp
	push	eax
	lea	eax, DWORD PTR __$EHRec$[ebp]
	mov	DWORD PTR fs:0, eax
	mov	DWORD PTR _this$[ebp], ecx

; 125  : 		if (_Myproxy == _Right._Myproxy)

	mov	eax, DWORD PTR _this$[ebp]
	mov	ecx, DWORD PTR __Right$[ebp]
	mov	edx, DWORD PTR [eax]
	cmp	edx, DWORD PTR [ecx]
	jne	SHORT $LN2@operator
	jmp	SHORT $LN3@operator
$LN2@operator:

; 126  : 			;
; 127  : 		else if (_Right._Myproxy != 0)

	mov	eax, DWORD PTR __Right$[ebp]
	cmp	DWORD PTR [eax], 0
	je	SHORT $LN4@operator

; 128  : 			_Adopt(_Right._Myproxy->_Mycont);

	mov	eax, DWORD PTR __Right$[ebp]
	mov	ecx, DWORD PTR [eax]
	mov	edx, DWORD PTR [ecx]
	push	edx
	mov	ecx, DWORD PTR _this$[ebp]
	call	?_Adopt@_Iterator_base12@std@@QAEXPBU_Container_base12@2@@Z ; std::_Iterator_base12::_Adopt

; 129  : 		else

	jmp	SHORT $LN3@operator
$LN4@operator:

; 130  : 			{	// becoming invalid, disown current parent
; 131  :  #if _ITERATOR_DEBUG_LEVEL == 2
; 132  : 			_Lockit _Lock(_LOCK_DEBUG);

	mov	esi, esp
	push	3
	lea	ecx, DWORD PTR __Lock$2[ebp]
	call	DWORD PTR __imp_??0_Lockit@std@@QAE@H@Z
	cmp	esi, esp
	call	__RTC_CheckEsp
	mov	DWORD PTR __$EHRec$[ebp+8], 0

; 133  : 			_Orphan_me();

	mov	ecx, DWORD PTR _this$[ebp]
	call	?_Orphan_me@_Iterator_base12@std@@QAEXXZ ; std::_Iterator_base12::_Orphan_me

; 134  :  #endif /* _ITERATOR_DEBUG_LEVEL == 2 */
; 135  : 			}

	mov	DWORD PTR __$EHRec$[ebp+8], -1
	mov	esi, esp
	lea	ecx, DWORD PTR __Lock$2[ebp]
	call	DWORD PTR __imp_??1_Lockit@std@@QAE@XZ
	cmp	esi, esp
	call	__RTC_CheckEsp
$LN3@operator:

; 136  : 
; 137  : 		return (*this);

	mov	eax, DWORD PTR _this$[ebp]

; 138  : 		}

	push	edx
	mov	ecx, ebp
	push	eax
	lea	edx, DWORD PTR $LN11@operator
	call	@_RTC_CheckStackVars@8
	pop	eax
	pop	edx
	mov	ecx, DWORD PTR __$EHRec$[ebp]
	mov	DWORD PTR fs:0, ecx
	pop	ecx
	pop	edi
	pop	esi
	pop	ebx
	add	esp, 228				; 000000e4H
	cmp	ebp, esp
	call	__RTC_CheckEsp
	mov	esp, ebp
	pop	ebp
	ret	4
	npad	1
$LN11@operator:
	DD	1
	DD	$LN10@operator
$LN10@operator:
	DD	-32					; ffffffe0H
	DD	4
	DD	$LN8@operator
$LN8@operator:
	DB	95					; 0000005fH
	DB	76					; 0000004cH
	DB	111					; 0000006fH
	DB	99					; 00000063H
	DB	107					; 0000006bH
	DB	0
_TEXT	ENDS
;	COMDAT text$x
text$x	SEGMENT
__unwindfunclet$??4_Iterator_base12@std@@QAEAAU01@ABU01@@Z$0:
	mov	esi, esp
	lea	ecx, DWORD PTR __Lock$2[ebp]
	call	DWORD PTR __imp_??1_Lockit@std@@QAE@XZ
	cmp	esi, esp
	jmp	__RTC_CheckEsp
__ehhandler$??4_Iterator_base12@std@@QAEAAU01@ABU01@@Z:
	mov	edx, DWORD PTR [esp+8]
	lea	eax, DWORD PTR [edx+12]
	mov	ecx, DWORD PTR [edx-232]
	xor	ecx, eax
	call	@__security_check_cookie@4
	mov	eax, OFFSET __ehfuncinfo$??4_Iterator_base12@std@@QAEAAU01@ABU01@@Z
	jmp	___CxxFrameHandler3
text$x	ENDS
??4_Iterator_base12@std@@QAEAAU01@ABU01@@Z ENDP		; std::_Iterator_base12::operator=
; Function compile flags: /Odtp /RTCsu /ZI
; File c:\program files (x86)\microsoft visual studio 14.0\vc\include\xutility
;	COMDAT ??0_Iterator_base12@std@@QAE@ABU01@@Z
_TEXT	SEGMENT
_this$ = -8						; size = 4
__Right$ = 8						; size = 4
??0_Iterator_base12@std@@QAE@ABU01@@Z PROC		; std::_Iterator_base12::_Iterator_base12, COMDAT
; _this$ = ecx

; 119  : 		{	// copy an iterator

	push	ebp
	mov	ebp, esp
	sub	esp, 204				; 000000ccH
	push	ebx
	push	esi
	push	edi
	push	ecx
	lea	edi, DWORD PTR [ebp-204]
	mov	ecx, 51					; 00000033H
	mov	eax, -858993460				; ccccccccH
	rep stosd
	pop	ecx
	mov	DWORD PTR _this$[ebp], ecx

; 118  : 		: _Myproxy(0), _Mynextiter(0)

	mov	eax, DWORD PTR _this$[ebp]
	mov	DWORD PTR [eax], 0
	mov	eax, DWORD PTR _this$[ebp]
	mov	DWORD PTR [eax+4], 0

; 120  : 		*this = _Right;

	mov	eax, DWORD PTR __Right$[ebp]
	push	eax
	mov	ecx, DWORD PTR _this$[ebp]
	call	??4_Iterator_base12@std@@QAEAAU01@ABU01@@Z ; std::_Iterator_base12::operator=

; 121  : 		}

	mov	eax, DWORD PTR _this$[ebp]
	pop	edi
	pop	esi
	pop	ebx
	add	esp, 204				; 000000ccH
	cmp	ebp, esp
	call	__RTC_CheckEsp
	mov	esp, ebp
	pop	ebp
	ret	4
??0_Iterator_base12@std@@QAE@ABU01@@Z ENDP		; std::_Iterator_base12::_Iterator_base12
_TEXT	ENDS
; Function compile flags: /Odtp /RTCsu /ZI
; File c:\program files (x86)\microsoft visual studio 14.0\vc\include\xutility
;	COMDAT ??0_Iterator_base12@std@@QAE@XZ
_TEXT	SEGMENT
_this$ = -8						; size = 4
??0_Iterator_base12@std@@QAE@XZ PROC			; std::_Iterator_base12::_Iterator_base12, COMDAT
; _this$ = ecx

; 114  : 		{	// construct orphaned iterator

	push	ebp
	mov	ebp, esp
	sub	esp, 204				; 000000ccH
	push	ebx
	push	esi
	push	edi
	push	ecx
	lea	edi, DWORD PTR [ebp-204]
	mov	ecx, 51					; 00000033H
	mov	eax, -858993460				; ccccccccH
	rep stosd
	pop	ecx
	mov	DWORD PTR _this$[ebp], ecx

; 113  : 		: _Myproxy(0), _Mynextiter(0)

	mov	eax, DWORD PTR _this$[ebp]
	mov	DWORD PTR [eax], 0
	mov	eax, DWORD PTR _this$[ebp]
	mov	DWORD PTR [eax+4], 0

; 115  : 		}

	mov	eax, DWORD PTR _this$[ebp]
	pop	edi
	pop	esi
	pop	ebx
	mov	esp, ebp
	pop	ebp
	ret	0
??0_Iterator_base12@std@@QAE@XZ ENDP			; std::_Iterator_base12::_Iterator_base12
_TEXT	ENDS
; Function compile flags: /Odtp /RTCsu /ZI
; File c:\program files (x86)\microsoft visual studio 14.0\vc\include\xutility
;	COMDAT ?_Orphan_all@_Container_base12@std@@QAEXXZ
_TEXT	SEGMENT
__Pnext$1 = -32						; size = 4
__Lock$2 = -20						; size = 4
_this$ = -8						; size = 4
?_Orphan_all@_Container_base12@std@@QAEXXZ PROC		; std::_Container_base12::_Orphan_all, COMDAT
; _this$ = ecx

; 215  : 	{	// orphan all iterators

	push	ebp
	mov	ebp, esp
	sub	esp, 228				; 000000e4H
	push	ebx
	push	esi
	push	edi
	push	ecx
	lea	edi, DWORD PTR [ebp-228]
	mov	ecx, 57					; 00000039H
	mov	eax, -858993460				; ccccccccH
	rep stosd
	pop	ecx
	mov	DWORD PTR _this$[ebp], ecx

; 216  :  #if _ITERATOR_DEBUG_LEVEL == 2
; 217  : 	if (_Myproxy != 0)

	mov	eax, DWORD PTR _this$[ebp]
	cmp	DWORD PTR [eax], 0
	je	SHORT $LN1@Orphan_all

; 218  : 		{	// proxy allocated, drain it
; 219  : 		_Lockit _Lock(_LOCK_DEBUG);

	mov	esi, esp
	push	3
	lea	ecx, DWORD PTR __Lock$2[ebp]
	call	DWORD PTR __imp_??0_Lockit@std@@QAE@H@Z
	cmp	esi, esp
	call	__RTC_CheckEsp

; 220  : 
; 221  : 		for (_Iterator_base12 **_Pnext = &_Myproxy->_Myfirstiter;

	mov	eax, DWORD PTR _this$[ebp]
	mov	ecx, DWORD PTR [eax]
	add	ecx, 4
	mov	DWORD PTR __Pnext$1[ebp], ecx
	jmp	SHORT $LN4@Orphan_all
$LN2@Orphan_all:

; 222  : 			*_Pnext != 0; *_Pnext = (*_Pnext)->_Mynextiter)

	mov	eax, DWORD PTR __Pnext$1[ebp]
	mov	ecx, DWORD PTR [eax]
	mov	edx, DWORD PTR __Pnext$1[ebp]
	mov	eax, DWORD PTR [ecx+4]
	mov	DWORD PTR [edx], eax
$LN4@Orphan_all:
	mov	eax, DWORD PTR __Pnext$1[ebp]
	cmp	DWORD PTR [eax], 0
	je	SHORT $LN3@Orphan_all

; 223  : 			(*_Pnext)->_Myproxy = 0;

	mov	eax, DWORD PTR __Pnext$1[ebp]
	mov	ecx, DWORD PTR [eax]
	mov	DWORD PTR [ecx], 0
	jmp	SHORT $LN2@Orphan_all
$LN3@Orphan_all:

; 224  : 		_Myproxy->_Myfirstiter = 0;

	mov	eax, DWORD PTR _this$[ebp]
	mov	ecx, DWORD PTR [eax]
	mov	DWORD PTR [ecx+4], 0

; 225  : 		}

	mov	esi, esp
	lea	ecx, DWORD PTR __Lock$2[ebp]
	call	DWORD PTR __imp_??1_Lockit@std@@QAE@XZ
	cmp	esi, esp
	call	__RTC_CheckEsp
$LN1@Orphan_all:

; 226  :  #endif /* _ITERATOR_DEBUG_LEVEL == 2 */
; 227  : 	}

	push	edx
	mov	ecx, ebp
	push	eax
	lea	edx, DWORD PTR $LN10@Orphan_all
	call	@_RTC_CheckStackVars@8
	pop	eax
	pop	edx
	pop	edi
	pop	esi
	pop	ebx
	add	esp, 228				; 000000e4H
	cmp	ebp, esp
	call	__RTC_CheckEsp
	mov	esp, ebp
	pop	ebp
	ret	0
	npad	3
$LN10@Orphan_all:
	DD	1
	DD	$LN9@Orphan_all
$LN9@Orphan_all:
	DD	-20					; ffffffecH
	DD	4
	DD	$LN8@Orphan_all
$LN8@Orphan_all:
	DB	95					; 0000005fH
	DB	76					; 0000004cH
	DB	111					; 0000006fH
	DB	99					; 00000063H
	DB	107					; 0000006bH
	DB	0
?_Orphan_all@_Container_base12@std@@QAEXXZ ENDP		; std::_Container_base12::_Orphan_all
_TEXT	ENDS
; Function compile flags: /Odtp /RTCsu /ZI
; File c:\program files (x86)\microsoft visual studio 14.0\vc\include\xutility
;	COMDAT ?_Getpfirst@_Container_base12@std@@QBEPAPAU_Iterator_base12@2@XZ
_TEXT	SEGMENT
tv68 = -208						; size = 4
_this$ = -8						; size = 4
?_Getpfirst@_Container_base12@std@@QBEPAPAU_Iterator_base12@2@XZ PROC ; std::_Container_base12::_Getpfirst, COMDAT
; _this$ = ecx

; 99   : 		{	// get address of iterator chain

	push	ebp
	mov	ebp, esp
	sub	esp, 208				; 000000d0H
	push	ebx
	push	esi
	push	edi
	push	ecx
	lea	edi, DWORD PTR [ebp-208]
	mov	ecx, 52					; 00000034H
	mov	eax, -858993460				; ccccccccH
	rep stosd
	pop	ecx
	mov	DWORD PTR _this$[ebp], ecx

; 100  : 		return (_Myproxy == 0 ? 0 : &_Myproxy->_Myfirstiter);

	mov	eax, DWORD PTR _this$[ebp]
	cmp	DWORD PTR [eax], 0
	jne	SHORT $LN3@Getpfirst
	mov	DWORD PTR tv68[ebp], 0
	jmp	SHORT $LN4@Getpfirst
$LN3@Getpfirst:
	mov	ecx, DWORD PTR _this$[ebp]
	mov	edx, DWORD PTR [ecx]
	add	edx, 4
	mov	DWORD PTR tv68[ebp], edx
$LN4@Getpfirst:
	mov	eax, DWORD PTR tv68[ebp]

; 101  : 		}

	pop	edi
	pop	esi
	pop	ebx
	mov	esp, ebp
	pop	ebp
	ret	0
?_Getpfirst@_Container_base12@std@@QBEPAPAU_Iterator_base12@2@XZ ENDP ; std::_Container_base12::_Getpfirst
_TEXT	ENDS
; Function compile flags: /Odtp /RTCsu /ZI
; File c:\program files (x86)\microsoft visual studio 14.0\vc\include\xutility
;	COMDAT ??1_Container_base12@std@@QAE@XZ
_TEXT	SEGMENT
_this$ = -20						; size = 4
__$EHRec$ = -12						; size = 12
??1_Container_base12@std@@QAE@XZ PROC			; std::_Container_base12::~_Container_base12, COMDAT
; _this$ = ecx

; 94   : 		{	// destroy the container

	push	ebp
	mov	ebp, esp
	push	-1
	push	__ehhandler$??1_Container_base12@std@@QAE@XZ
	mov	eax, DWORD PTR fs:0
	push	eax
	sub	esp, 204				; 000000ccH
	push	ebx
	push	esi
	push	edi
	push	ecx
	lea	edi, DWORD PTR [ebp-216]
	mov	ecx, 51					; 00000033H
	mov	eax, -858993460				; ccccccccH
	rep stosd
	pop	ecx
	mov	eax, DWORD PTR ___security_cookie
	xor	eax, ebp
	push	eax
	lea	eax, DWORD PTR __$EHRec$[ebp]
	mov	DWORD PTR fs:0, eax
	mov	DWORD PTR _this$[ebp], ecx

; 95   : 		_Orphan_all();

	mov	ecx, DWORD PTR _this$[ebp]
	call	?_Orphan_all@_Container_base12@std@@QAEXXZ ; std::_Container_base12::_Orphan_all

; 96   : 		}

	mov	ecx, DWORD PTR __$EHRec$[ebp]
	mov	DWORD PTR fs:0, ecx
	pop	ecx
	pop	edi
	pop	esi
	pop	ebx
	add	esp, 216				; 000000d8H
	cmp	ebp, esp
	call	__RTC_CheckEsp
	mov	esp, ebp
	pop	ebp
	ret	0
_TEXT	ENDS
;	COMDAT text$x
text$x	SEGMENT
__ehhandler$??1_Container_base12@std@@QAE@XZ:
	mov	edx, DWORD PTR [esp+8]
	lea	eax, DWORD PTR [edx+12]
	mov	ecx, DWORD PTR [edx-220]
	xor	ecx, eax
	call	@__security_check_cookie@4
	mov	eax, OFFSET __ehfuncinfo$??1_Container_base12@std@@QAE@XZ
	jmp	___CxxFrameHandler3
text$x	ENDS
??1_Container_base12@std@@QAE@XZ ENDP			; std::_Container_base12::~_Container_base12
; Function compile flags: /Odtp /RTCsu /ZI
; File c:\program files (x86)\microsoft visual studio 14.0\vc\include\xutility
;	COMDAT ??0_Container_base12@std@@QAE@XZ
_TEXT	SEGMENT
_this$ = -8						; size = 4
??0_Container_base12@std@@QAE@XZ PROC			; std::_Container_base12::_Container_base12, COMDAT
; _this$ = ecx

; 80   : 		{	// construct childless container

	push	ebp
	mov	ebp, esp
	sub	esp, 204				; 000000ccH
	push	ebx
	push	esi
	push	edi
	push	ecx
	lea	edi, DWORD PTR [ebp-204]
	mov	ecx, 51					; 00000033H
	mov	eax, -858993460				; ccccccccH
	rep stosd
	pop	ecx
	mov	DWORD PTR _this$[ebp], ecx

; 79   : 		: _Myproxy(0)

	mov	eax, DWORD PTR _this$[ebp]
	mov	DWORD PTR [eax], 0

; 81   : 		}

	mov	eax, DWORD PTR _this$[ebp]
	pop	edi
	pop	esi
	pop	ebx
	mov	esp, ebp
	pop	ebp
	ret	0
??0_Container_base12@std@@QAE@XZ ENDP			; std::_Container_base12::_Container_base12
_TEXT	ENDS
; Function compile flags: /Odtp /RTCsu /ZI
; File c:\program files (x86)\microsoft visual studio 14.0\vc\include\xutility
;	COMDAT ??0_Container_proxy@std@@QAE@XZ
_TEXT	SEGMENT
_this$ = -8						; size = 4
??0_Container_proxy@std@@QAE@XZ PROC			; std::_Container_proxy::_Container_proxy, COMDAT
; _this$ = ecx

; 68   : 		{	// construct from pointers

	push	ebp
	mov	ebp, esp
	sub	esp, 204				; 000000ccH
	push	ebx
	push	esi
	push	edi
	push	ecx
	lea	edi, DWORD PTR [ebp-204]
	mov	ecx, 51					; 00000033H
	mov	eax, -858993460				; ccccccccH
	rep stosd
	pop	ecx
	mov	DWORD PTR _this$[ebp], ecx

; 67   : 		: _Mycont(0), _Myfirstiter(0)

	mov	eax, DWORD PTR _this$[ebp]
	mov	DWORD PTR [eax], 0
	mov	eax, DWORD PTR _this$[ebp]
	mov	DWORD PTR [eax+4], 0

; 69   : 		}

	mov	eax, DWORD PTR _this$[ebp]
	pop	edi
	pop	esi
	pop	ebx
	mov	esp, ebp
	pop	ebp
	ret	0
??0_Container_proxy@std@@QAE@XZ ENDP			; std::_Container_proxy::_Container_proxy
_TEXT	ENDS
; Function compile flags: /Odtp /RTCsu /ZI
; File c:\program files (x86)\microsoft visual studio 14.0\vc\include\iosfwd
;	COMDAT ?eof@?$char_traits@D@std@@SAHXZ
_TEXT	SEGMENT
?eof@?$char_traits@D@std@@SAHXZ PROC			; std::char_traits<char>::eof, COMDAT

; 605  : 		{	// return end-of-file metacharacter

	push	ebp
	mov	ebp, esp
	sub	esp, 192				; 000000c0H
	push	ebx
	push	esi
	push	edi
	lea	edi, DWORD PTR [ebp-192]
	mov	ecx, 48					; 00000030H
	mov	eax, -858993460				; ccccccccH
	rep stosd

; 606  : 		return (EOF);

	or	eax, -1

; 607  : 		}

	pop	edi
	pop	esi
	pop	ebx
	mov	esp, ebp
	pop	ebp
	ret	0
?eof@?$char_traits@D@std@@SAHXZ ENDP			; std::char_traits<char>::eof
_TEXT	ENDS
; Function compile flags: /Odtp /RTCsu /ZI
; File c:\program files (x86)\microsoft visual studio 14.0\vc\include\iosfwd
;	COMDAT ?eq_int_type@?$char_traits@D@std@@SA_NABH0@Z
_TEXT	SEGMENT
tv65 = -196						; size = 4
__Left$ = 8						; size = 4
__Right$ = 12						; size = 4
?eq_int_type@?$char_traits@D@std@@SA_NABH0@Z PROC	; std::char_traits<char>::eq_int_type, COMDAT

; 594  : 		{	// test for metacharacter equality

	push	ebp
	mov	ebp, esp
	sub	esp, 196				; 000000c4H
	push	ebx
	push	esi
	push	edi
	lea	edi, DWORD PTR [ebp-196]
	mov	ecx, 49					; 00000031H
	mov	eax, -858993460				; ccccccccH
	rep stosd

; 595  : 		return (_Left == _Right);

	mov	eax, DWORD PTR __Left$[ebp]
	mov	ecx, DWORD PTR __Right$[ebp]
	mov	edx, DWORD PTR [eax]
	cmp	edx, DWORD PTR [ecx]
	jne	SHORT $LN3@eq_int_typ
	mov	DWORD PTR tv65[ebp], 1
	jmp	SHORT $LN4@eq_int_typ
$LN3@eq_int_typ:
	mov	DWORD PTR tv65[ebp], 0
$LN4@eq_int_typ:
	mov	al, BYTE PTR tv65[ebp]

; 596  : 		}

	pop	edi
	pop	esi
	pop	ebx
	mov	esp, ebp
	pop	ebp
	ret	0
?eq_int_type@?$char_traits@D@std@@SA_NABH0@Z ENDP	; std::char_traits<char>::eq_int_type
_TEXT	ENDS
; Function compile flags: /Odtp /RTCsu /ZI
; File c:\program files (x86)\microsoft visual studio 14.0\vc\include\iosfwd
;	COMDAT ?assign@?$char_traits@D@std@@SAXAADABD@Z
_TEXT	SEGMENT
__Left$ = 8						; size = 4
__Right$ = 12						; size = 4
?assign@?$char_traits@D@std@@SAXAADABD@Z PROC		; std::char_traits<char>::assign, COMDAT

; 564  : 		{	// assign an element

	push	ebp
	mov	ebp, esp
	sub	esp, 192				; 000000c0H
	push	ebx
	push	esi
	push	edi
	lea	edi, DWORD PTR [ebp-192]
	mov	ecx, 48					; 00000030H
	mov	eax, -858993460				; ccccccccH
	rep stosd

; 565  : 		_Left = _Right;

	mov	eax, DWORD PTR __Left$[ebp]
	mov	ecx, DWORD PTR __Right$[ebp]
	mov	dl, BYTE PTR [ecx]
	mov	BYTE PTR [eax], dl

; 566  : 		}

	pop	edi
	pop	esi
	pop	ebx
	mov	esp, ebp
	pop	ebp
	ret	0
?assign@?$char_traits@D@std@@SAXAADABD@Z ENDP		; std::char_traits<char>::assign
_TEXT	ENDS
; Function compile flags: /Odtp /RTCsu /ZI
; File c:\program files (x86)\microsoft visual studio 14.0\vc\include\iosfwd
;	COMDAT ?move@?$char_traits@D@std@@SAPADPADPBDI@Z
_TEXT	SEGMENT
tv69 = -196						; size = 4
__First1$ = 8						; size = 4
__First2$ = 12						; size = 4
__Count$ = 16						; size = 4
?move@?$char_traits@D@std@@SAPADPADPBDI@Z PROC		; std::char_traits<char>::move, COMDAT

; 552  : 		{	// copy [_First2, _First2 + _Count) to [_First1, ...)

	push	ebp
	mov	ebp, esp
	sub	esp, 196				; 000000c4H
	push	ebx
	push	esi
	push	edi
	lea	edi, DWORD PTR [ebp-196]
	mov	ecx, 49					; 00000031H
	mov	eax, -858993460				; ccccccccH
	rep stosd

; 553  : 		return (_Count == 0 ? _First1

	cmp	DWORD PTR __Count$[ebp], 0
	jne	SHORT $LN3@move
	mov	eax, DWORD PTR __First1$[ebp]
	mov	DWORD PTR tv69[ebp], eax
	jmp	SHORT $LN4@move
$LN3@move:
	mov	esi, esp
	mov	ecx, DWORD PTR __Count$[ebp]
	push	ecx
	mov	edx, DWORD PTR __First2$[ebp]
	push	edx
	mov	eax, DWORD PTR __First1$[ebp]
	push	eax
	call	DWORD PTR __imp__memmove
	add	esp, 12					; 0000000cH
	cmp	esi, esp
	call	__RTC_CheckEsp
	mov	DWORD PTR tv69[ebp], eax
$LN4@move:
	mov	eax, DWORD PTR tv69[ebp]

; 554  : 			: (_Elem *)_CSTD memmove(_First1, _First2, _Count));
; 555  : 		}

	pop	edi
	pop	esi
	pop	ebx
	add	esp, 196				; 000000c4H
	cmp	ebp, esp
	call	__RTC_CheckEsp
	mov	esp, ebp
	pop	ebp
	ret	0
?move@?$char_traits@D@std@@SAPADPADPBDI@Z ENDP		; std::char_traits<char>::move
_TEXT	ENDS
; Function compile flags: /Odtp /RTCsu /ZI
; File c:\program files (x86)\microsoft visual studio 14.0\vc\include\iosfwd
;	COMDAT ?copy@?$char_traits@D@std@@SAPADPADPBDI@Z
_TEXT	SEGMENT
tv69 = -196						; size = 4
__First1$ = 8						; size = 4
__First2$ = 12						; size = 4
__Count$ = 16						; size = 4
?copy@?$char_traits@D@std@@SAPADPADPBDI@Z PROC		; std::char_traits<char>::copy, COMDAT

; 529  : 		{	// copy [_First2, _First2 + _Count) to [_First1, ...)

	push	ebp
	mov	ebp, esp
	sub	esp, 196				; 000000c4H
	push	ebx
	push	esi
	push	edi
	lea	edi, DWORD PTR [ebp-196]
	mov	ecx, 49					; 00000031H
	mov	eax, -858993460				; ccccccccH
	rep stosd

; 530  : 		return (_Count == 0 ? _First1

	cmp	DWORD PTR __Count$[ebp], 0
	jne	SHORT $LN3@copy
	mov	eax, DWORD PTR __First1$[ebp]
	mov	DWORD PTR tv69[ebp], eax
	jmp	SHORT $LN4@copy
$LN3@copy:
	mov	ecx, DWORD PTR __Count$[ebp]
	push	ecx
	mov	edx, DWORD PTR __First2$[ebp]
	push	edx
	mov	eax, DWORD PTR __First1$[ebp]
	push	eax
	call	_memcpy
	add	esp, 12					; 0000000cH
	mov	DWORD PTR tv69[ebp], eax
$LN4@copy:
	mov	eax, DWORD PTR tv69[ebp]

; 531  : 			: (_Elem *)_CSTD memcpy(_First1, _First2, _Count));
; 532  : 		}

	pop	edi
	pop	esi
	pop	ebx
	add	esp, 196				; 000000c4H
	cmp	ebp, esp
	call	__RTC_CheckEsp
	mov	esp, ebp
	pop	ebp
	ret	0
?copy@?$char_traits@D@std@@SAPADPADPBDI@Z ENDP		; std::char_traits<char>::copy
_TEXT	ENDS
; Function compile flags: /Odtp /RTCsu /ZI
; File c:\program files (x86)\microsoft visual studio 14.0\vc\include\iosfwd
;	COMDAT ?length@?$char_traits@D@std@@SAIPBD@Z
_TEXT	SEGMENT
tv68 = -196						; size = 4
__First$ = 8						; size = 4
?length@?$char_traits@D@std@@SAIPBD@Z PROC		; std::char_traits<char>::length, COMDAT

; 522  : 		{	// find length of null-terminated string

	push	ebp
	mov	ebp, esp
	sub	esp, 196				; 000000c4H
	push	ebx
	push	esi
	push	edi
	lea	edi, DWORD PTR [ebp-196]
	mov	ecx, 49					; 00000031H
	mov	eax, -858993460				; ccccccccH
	rep stosd

; 523  : 		return (*_First == 0 ? 0

	mov	eax, DWORD PTR __First$[ebp]
	movsx	ecx, BYTE PTR [eax]
	test	ecx, ecx
	jne	SHORT $LN3@length
	mov	DWORD PTR tv68[ebp], 0
	jmp	SHORT $LN4@length
$LN3@length:
	mov	edx, DWORD PTR __First$[ebp]
	push	edx
	call	_strlen
	add	esp, 4
	mov	DWORD PTR tv68[ebp], eax
$LN4@length:
	mov	eax, DWORD PTR tv68[ebp]

; 524  : 			: _CSTD strlen(_First));
; 525  : 		}

	pop	edi
	pop	esi
	pop	ebx
	add	esp, 196				; 000000c4H
	cmp	ebp, esp
	call	__RTC_CheckEsp
	mov	esp, ebp
	pop	ebp
	ret	0
?length@?$char_traits@D@std@@SAIPBD@Z ENDP		; std::char_traits<char>::length
_TEXT	ENDS
; Function compile flags: /Odtp /RTCsu /ZI
; File c:\program files (x86)\microsoft visual studio 14.0\vc\include\vcruntime_new.h
;	COMDAT ??3@YAXPAX0@Z
_TEXT	SEGMENT
___formal$ = 8						; size = 4
___formal$ = 12						; size = 4
??3@YAXPAX0@Z PROC					; operator delete, COMDAT

; 93   :     {

	push	ebp
	mov	ebp, esp
	sub	esp, 192				; 000000c0H
	push	ebx
	push	esi
	push	edi
	lea	edi, DWORD PTR [ebp-192]
	mov	ecx, 48					; 00000030H
	mov	eax, -858993460				; ccccccccH
	rep stosd

; 94   :         return;
; 95   :     }

	pop	edi
	pop	esi
	pop	ebx
	mov	esp, ebp
	pop	ebp
	ret	0
??3@YAXPAX0@Z ENDP					; operator delete
_TEXT	ENDS
; Function compile flags: /Odtp /RTCsu /ZI
; File c:\program files (x86)\microsoft visual studio 14.0\vc\include\vcruntime_new.h
;	COMDAT ??2@YAPAXIPAX@Z
_TEXT	SEGMENT
__Size$ = 8						; size = 4
__Where$ = 12						; size = 4
??2@YAPAXIPAX@Z PROC					; operator new, COMDAT

; 87   :     {

	push	ebp
	mov	ebp, esp
	sub	esp, 192				; 000000c0H
	push	ebx
	push	esi
	push	edi
	lea	edi, DWORD PTR [ebp-192]
	mov	ecx, 48					; 00000030H
	mov	eax, -858993460				; ccccccccH
	rep stosd

; 88   :         (void)_Size;
; 89   :         return _Where;

	mov	eax, DWORD PTR __Where$[ebp]

; 90   :     }

	pop	edi
	pop	esi
	pop	ebx
	mov	esp, ebp
	pop	ebp
	ret	0
??2@YAPAXIPAX@Z ENDP					; operator new
_TEXT	ENDS
; Function compile flags: /Odtp /RTCsu /ZI
; File s:\chris\onedrive - uat\c++ programming ii\pete_final\pete_final\custommenu.cpp
;	COMDAT ?__empty_global_delete@@YAXPAXI@Z
_TEXT	SEGMENT
___formal$ = 8						; size = 4
___formal$ = 12						; size = 4
?__empty_global_delete@@YAXPAXI@Z PROC			; __empty_global_delete, COMDAT

	push	ebp
	mov	ebp, esp
	sub	esp, 192				; 000000c0H
	push	ebx
	push	esi
	push	edi
	lea	edi, DWORD PTR [ebp-192]
	mov	ecx, 48					; 00000030H
	mov	eax, -858993460				; ccccccccH
	rep stosd
	pop	edi
	pop	esi
	pop	ebx
	mov	esp, ebp
	pop	ebp
	ret	0
?__empty_global_delete@@YAXPAXI@Z ENDP			; __empty_global_delete
_TEXT	ENDS
; Function compile flags: /Odtp /RTCsu /ZI
; File s:\chris\onedrive - uat\c++ programming ii\pete_final\pete_final\custommenu.cpp
;	COMDAT ?__empty_global_delete@@YAXPAX@Z
_TEXT	SEGMENT
___formal$ = 8						; size = 4
?__empty_global_delete@@YAXPAX@Z PROC			; __empty_global_delete, COMDAT

	push	ebp
	mov	ebp, esp
	sub	esp, 192				; 000000c0H
	push	ebx
	push	esi
	push	edi
	lea	edi, DWORD PTR [ebp-192]
	mov	ecx, 48					; 00000030H
	mov	eax, -858993460				; ccccccccH
	rep stosd
	pop	edi
	pop	esi
	pop	ebx
	mov	esp, ebp
	pop	ebp
	ret	0
?__empty_global_delete@@YAXPAX@Z ENDP			; __empty_global_delete
_TEXT	ENDS
END
