; Listing generated by Microsoft (R) Optimizing Compiler Version 19.00.24215.1 

	TITLE	S:\Chris\OneDrive - UAT\C++ Programming II\pete_final\pete_final\main.cpp
	.686P
	.XMM
	include listing.inc
	.model	flat

INCLUDELIB MSVCRTD
INCLUDELIB OLDNAMES

PUBLIC	?__empty_global_delete@@YAXPAX@Z		; __empty_global_delete
PUBLIC	?__empty_global_delete@@YAXPAXI@Z		; __empty_global_delete
PUBLIC	??0exception@std@@QAE@QBDH@Z			; std::exception::exception
PUBLIC	??0exception@std@@QAE@ABV01@@Z			; std::exception::exception
PUBLIC	??1exception@std@@UAE@XZ			; std::exception::~exception
PUBLIC	?what@exception@std@@UBEPBDXZ			; std::exception::what
PUBLIC	??_Gexception@std@@UAEPAXI@Z			; std::exception::`scalar deleting destructor'
PUBLIC	??2@YAPAXIPAX@Z					; operator new
PUBLIC	??3@YAXPAX0@Z					; operator delete
PUBLIC	?compare@?$char_traits@D@std@@SAHPBD0I@Z	; std::char_traits<char>::compare
PUBLIC	?length@?$char_traits@D@std@@SAIPBD@Z		; std::char_traits<char>::length
PUBLIC	?copy@?$char_traits@D@std@@SAPADPADPBDI@Z	; std::char_traits<char>::copy
PUBLIC	?move@?$char_traits@D@std@@SAPADPADPBDI@Z	; std::char_traits<char>::move
PUBLIC	?assign@?$char_traits@D@std@@SAPADPADID@Z	; std::char_traits<char>::assign
PUBLIC	?assign@?$char_traits@D@std@@SAXAADABD@Z	; std::char_traits<char>::assign
PUBLIC	?to_char_type@?$char_traits@D@std@@SADABH@Z	; std::char_traits<char>::to_char_type
PUBLIC	?to_int_type@?$char_traits@D@std@@SAHABD@Z	; std::char_traits<char>::to_int_type
PUBLIC	?eq_int_type@?$char_traits@D@std@@SA_NABH0@Z	; std::char_traits<char>::eq_int_type
PUBLIC	?not_eof@?$char_traits@D@std@@SAHABH@Z		; std::char_traits<char>::not_eof
PUBLIC	?eof@?$char_traits@D@std@@SAHXZ			; std::char_traits<char>::eof
PUBLIC	??0_Container_proxy@std@@QAE@XZ			; std::_Container_proxy::_Container_proxy
PUBLIC	??0_Container_base12@std@@QAE@XZ		; std::_Container_base12::_Container_base12
PUBLIC	??1_Container_base12@std@@QAE@XZ		; std::_Container_base12::~_Container_base12
PUBLIC	?_Getpfirst@_Container_base12@std@@QBEPAPAU_Iterator_base12@2@XZ ; std::_Container_base12::_Getpfirst
PUBLIC	?_Orphan_all@_Container_base12@std@@QAEXXZ	; std::_Container_base12::_Orphan_all
PUBLIC	??0_Iterator_base12@std@@QAE@XZ			; std::_Iterator_base12::_Iterator_base12
PUBLIC	??0_Iterator_base12@std@@QAE@ABU01@@Z		; std::_Iterator_base12::_Iterator_base12
PUBLIC	??4_Iterator_base12@std@@QAEAAU01@ABU01@@Z	; std::_Iterator_base12::operator=
PUBLIC	??1_Iterator_base12@std@@QAE@XZ			; std::_Iterator_base12::~_Iterator_base12
PUBLIC	?_Adopt@_Iterator_base12@std@@QAEXPBU_Container_base12@2@@Z ; std::_Iterator_base12::_Adopt
PUBLIC	?_Clrcont@_Iterator_base12@std@@QAEXXZ		; std::_Iterator_base12::_Clrcont
PUBLIC	?_Getcont@_Iterator_base12@std@@QBEPBU_Container_base12@2@XZ ; std::_Iterator_base12::_Getcont
PUBLIC	?_Getpnext@_Iterator_base12@std@@QAEPAPAU12@XZ	; std::_Iterator_base12::_Getpnext
PUBLIC	?_Orphan_me@_Iterator_base12@std@@QAEXXZ	; std::_Iterator_base12::_Orphan_me
PUBLIC	?_Allocate@std@@YAPAXII_N@Z			; std::_Allocate
PUBLIC	?_Deallocate@std@@YAXPAXII@Z			; std::_Deallocate
PUBLIC	?_Init_atomic_counter@std@@YAXAAKK@Z		; std::_Init_atomic_counter
PUBLIC	??0?$allocator@D@std@@QAE@XZ			; std::allocator<char>::allocator<char>
PUBLIC	??0?$allocator@D@std@@QAE@ABV01@@Z		; std::allocator<char>::allocator<char>
PUBLIC	?deallocate@?$allocator@D@std@@QAEXPADI@Z	; std::allocator<char>::deallocate
PUBLIC	?allocate@?$allocator@D@std@@QAEPADI@Z		; std::allocator<char>::allocate
PUBLIC	?max_size@?$allocator@D@std@@QBEIXZ		; std::allocator<char>::max_size
PUBLIC	?max_size@?$allocator_traits@V?$allocator@D@std@@@std@@SAIABV?$allocator@D@2@@Z ; std::allocator_traits<std::allocator<char> >::max_size
PUBLIC	?select_on_container_copy_construction@?$allocator_traits@V?$allocator@D@std@@@std@@SA?AV?$allocator@D@2@ABV32@@Z ; std::allocator_traits<std::allocator<char> >::select_on_container_copy_construction
PUBLIC	?select_on_container_copy_construction@?$_Wrap_alloc@V?$allocator@D@std@@@std@@QBE?AU12@U_Nil@2@@Z ; std::_Wrap_alloc<std::allocator<char> >::select_on_container_copy_construction
PUBLIC	?address@?$_Wrap_alloc@V?$allocator@D@std@@@std@@QBEPADAAD@Z ; std::_Wrap_alloc<std::allocator<char> >::address
PUBLIC	??0?$_Wrap_alloc@V?$allocator@D@std@@@std@@QAE@XZ ; std::_Wrap_alloc<std::allocator<char> >::_Wrap_alloc<std::allocator<char> >
PUBLIC	??0?$_Wrap_alloc@V?$allocator@D@std@@@std@@QAE@$$QAU01@@Z ; std::_Wrap_alloc<std::allocator<char> >::_Wrap_alloc<std::allocator<char> >
PUBLIC	?allocate@?$_Wrap_alloc@V?$allocator@D@std@@@std@@QAEPADI@Z ; std::_Wrap_alloc<std::allocator<char> >::allocate
PUBLIC	?deallocate@?$_Wrap_alloc@V?$allocator@D@std@@@std@@QAEXPADI@Z ; std::_Wrap_alloc<std::allocator<char> >::deallocate
PUBLIC	?max_size@?$_Wrap_alloc@V?$allocator@D@std@@@std@@QBEIU_Nil@2@@Z ; std::_Wrap_alloc<std::allocator<char> >::max_size
PUBLIC	??0?$_String_val@U?$_Simple_types@D@std@@@std@@QAE@XZ ; std::_String_val<std::_Simple_types<char> >::_String_val<std::_Simple_types<char> >
PUBLIC	?_Myptr@?$_String_val@U?$_Simple_types@D@std@@@std@@QAEPADXZ ; std::_String_val<std::_Simple_types<char> >::_Myptr
PUBLIC	?_Myptr@?$_String_val@U?$_Simple_types@D@std@@@std@@QBEPBDXZ ; std::_String_val<std::_Simple_types<char> >::_Myptr
PUBLIC	??0_Bxty@?$_String_val@U?$_Simple_types@D@std@@@std@@QAE@XZ ; std::_String_val<std::_Simple_types<char> >::_Bxty::_Bxty
PUBLIC	??1_Bxty@?$_String_val@U?$_Simple_types@D@std@@@std@@QAE@XZ ; std::_String_val<std::_Simple_types<char> >::_Bxty::~_Bxty
PUBLIC	??1?$_String_val@U?$_Simple_types@D@std@@@std@@QAE@XZ ; std::_String_val<std::_Simple_types<char> >::~_String_val<std::_Simple_types<char> >
PUBLIC	?_Myptr@?$_String_alloc@U?$_String_base_types@DV?$allocator@D@std@@@std@@@std@@QAEPADXZ ; std::_String_alloc<std::_String_base_types<char,std::allocator<char> > >::_Myptr
PUBLIC	?_Myptr@?$_String_alloc@U?$_String_base_types@DV?$allocator@D@std@@@std@@@std@@QBEPBDXZ ; std::_String_alloc<std::_String_base_types<char,std::allocator<char> > >::_Myptr
PUBLIC	??0?$_String_alloc@U?$_String_base_types@DV?$allocator@D@std@@@std@@@std@@QAE@XZ ; std::_String_alloc<std::_String_base_types<char,std::allocator<char> > >::_String_alloc<std::_String_base_types<char,std::allocator<char> > >
PUBLIC	??1?$_String_alloc@U?$_String_base_types@DV?$allocator@D@std@@@std@@@std@@QAE@XZ ; std::_String_alloc<std::_String_base_types<char,std::allocator<char> > >::~_String_alloc<std::_String_base_types<char,std::allocator<char> > >
PUBLIC	?_Alloc_proxy@?$_String_alloc@U?$_String_base_types@DV?$allocator@D@std@@@std@@@std@@QAEXXZ ; std::_String_alloc<std::_String_base_types<char,std::allocator<char> > >::_Alloc_proxy
PUBLIC	?_Free_proxy@?$_String_alloc@U?$_String_base_types@DV?$allocator@D@std@@@std@@@std@@QAEXXZ ; std::_String_alloc<std::_String_base_types<char,std::allocator<char> > >::_Free_proxy
PUBLIC	?_Myproxy@?$_String_alloc@U?$_String_base_types@DV?$allocator@D@std@@@std@@@std@@QAEAAPAU_Container_proxy@2@XZ ; std::_String_alloc<std::_String_base_types<char,std::allocator<char> > >::_Myproxy
PUBLIC	?_Orphan_all@?$_String_alloc@U?$_String_base_types@DV?$allocator@D@std@@@std@@@std@@QAEXXZ ; std::_String_alloc<std::_String_base_types<char,std::allocator<char> > >::_Orphan_all
PUBLIC	?_Getal@?$_String_alloc@U?$_String_base_types@DV?$allocator@D@std@@@std@@@std@@QAEAAU?$_Wrap_alloc@V?$allocator@D@std@@@2@XZ ; std::_String_alloc<std::_String_base_types<char,std::allocator<char> > >::_Getal
PUBLIC	?_Getal@?$_String_alloc@U?$_String_base_types@DV?$allocator@D@std@@@std@@@std@@QBEABU?$_Wrap_alloc@V?$allocator@D@std@@@2@XZ ; std::_String_alloc<std::_String_base_types<char,std::allocator<char> > >::_Getal
PUBLIC	?_Get_data@?$_String_alloc@U?$_String_base_types@DV?$allocator@D@std@@@std@@@std@@QAEAAV?$_String_val@U?$_Simple_types@D@std@@@2@XZ ; std::_String_alloc<std::_String_base_types<char,std::allocator<char> > >::_Get_data
PUBLIC	?_Get_data@?$_String_alloc@U?$_String_base_types@DV?$allocator@D@std@@@std@@@std@@QBEABV?$_String_val@U?$_Simple_types@D@std@@@2@XZ ; std::_String_alloc<std::_String_base_types<char,std::allocator<char> > >::_Get_data
PUBLIC	?_Bx@?$_String_alloc@U?$_String_base_types@DV?$allocator@D@std@@@std@@@std@@QAEAAT_Bxty@?$_String_val@U?$_Simple_types@D@std@@@2@XZ ; std::_String_alloc<std::_String_base_types<char,std::allocator<char> > >::_Bx
PUBLIC	?_Mysize@?$_String_alloc@U?$_String_base_types@DV?$allocator@D@std@@@std@@@std@@QAEAAIXZ ; std::_String_alloc<std::_String_base_types<char,std::allocator<char> > >::_Mysize
PUBLIC	?_Mysize@?$_String_alloc@U?$_String_base_types@DV?$allocator@D@std@@@std@@@std@@QBEABIXZ ; std::_String_alloc<std::_String_base_types<char,std::allocator<char> > >::_Mysize
PUBLIC	?_Myres@?$_String_alloc@U?$_String_base_types@DV?$allocator@D@std@@@std@@@std@@QAEAAIXZ ; std::_String_alloc<std::_String_base_types<char,std::allocator<char> > >::_Myres
PUBLIC	?_Get_first@?$_Compressed_pair@U?$_Wrap_alloc@V?$allocator@D@std@@@std@@V?$_String_val@U?$_Simple_types@D@std@@@2@$00@std@@QAEAAU?$_Wrap_alloc@V?$allocator@D@std@@@2@XZ ; std::_Compressed_pair<std::_Wrap_alloc<std::allocator<char> >,std::_String_val<std::_Simple_types<char> >,1>::_Get_first
PUBLIC	?_Get_first@?$_Compressed_pair@U?$_Wrap_alloc@V?$allocator@D@std@@@std@@V?$_String_val@U?$_Simple_types@D@std@@@2@$00@std@@QBEABU?$_Wrap_alloc@V?$allocator@D@std@@@2@XZ ; std::_Compressed_pair<std::_Wrap_alloc<std::allocator<char> >,std::_String_val<std::_Simple_types<char> >,1>::_Get_first
PUBLIC	?_Get_second@?$_Compressed_pair@U?$_Wrap_alloc@V?$allocator@D@std@@@std@@V?$_String_val@U?$_Simple_types@D@std@@@2@$00@std@@QAEAAV?$_String_val@U?$_Simple_types@D@std@@@2@XZ ; std::_Compressed_pair<std::_Wrap_alloc<std::allocator<char> >,std::_String_val<std::_Simple_types<char> >,1>::_Get_second
PUBLIC	?_Get_second@?$_Compressed_pair@U?$_Wrap_alloc@V?$allocator@D@std@@@std@@V?$_String_val@U?$_Simple_types@D@std@@@2@$00@std@@QBEABV?$_String_val@U?$_Simple_types@D@std@@@2@XZ ; std::_Compressed_pair<std::_Wrap_alloc<std::allocator<char> >,std::_String_val<std::_Simple_types<char> >,1>::_Get_second
PUBLIC	??1?$_Compressed_pair@U?$_Wrap_alloc@V?$allocator@D@std@@@std@@V?$_String_val@U?$_Simple_types@D@std@@@2@$00@std@@QAE@XZ ; std::_Compressed_pair<std::_Wrap_alloc<std::allocator<char> >,std::_String_val<std::_Simple_types<char> >,1>::~_Compressed_pair<std::_Wrap_alloc<std::allocator<char> >,std::_String_val<std::_Simple_types<char> >,1>
PUBLIC	??0?$basic_string@DU?$char_traits@D@std@@V?$allocator@D@2@@std@@QAE@ABV01@@Z ; std::basic_string<char,std::char_traits<char>,std::allocator<char> >::basic_string<char,std::char_traits<char>,std::allocator<char> >
PUBLIC	??0?$basic_string@DU?$char_traits@D@std@@V?$allocator@D@2@@std@@QAE@XZ ; std::basic_string<char,std::char_traits<char>,std::allocator<char> >::basic_string<char,std::char_traits<char>,std::allocator<char> >
PUBLIC	??0?$basic_string@DU?$char_traits@D@std@@V?$allocator@D@2@@std@@QAE@PBD@Z ; std::basic_string<char,std::char_traits<char>,std::allocator<char> >::basic_string<char,std::char_traits<char>,std::allocator<char> >
PUBLIC	??0?$basic_string@DU?$char_traits@D@std@@V?$allocator@D@2@@std@@QAE@ID@Z ; std::basic_string<char,std::char_traits<char>,std::allocator<char> >::basic_string<char,std::char_traits<char>,std::allocator<char> >
PUBLIC	??0?$basic_string@DU?$char_traits@D@std@@V?$allocator@D@2@@std@@QAE@$$QAV01@@Z ; std::basic_string<char,std::char_traits<char>,std::allocator<char> >::basic_string<char,std::char_traits<char>,std::allocator<char> >
PUBLIC	?_Assign_rv@?$basic_string@DU?$char_traits@D@std@@V?$allocator@D@2@@std@@QAEX$$QAV12@@Z ; std::basic_string<char,std::char_traits<char>,std::allocator<char> >::_Assign_rv
PUBLIC	??1?$basic_string@DU?$char_traits@D@std@@V?$allocator@D@2@@std@@QAE@XZ ; std::basic_string<char,std::char_traits<char>,std::allocator<char> >::~basic_string<char,std::char_traits<char>,std::allocator<char> >
PUBLIC	??Y?$basic_string@DU?$char_traits@D@std@@V?$allocator@D@2@@std@@QAEAAV01@ABV01@@Z ; std::basic_string<char,std::char_traits<char>,std::allocator<char> >::operator+=
PUBLIC	??Y?$basic_string@DU?$char_traits@D@std@@V?$allocator@D@2@@std@@QAEAAV01@PBD@Z ; std::basic_string<char,std::char_traits<char>,std::allocator<char> >::operator+=
PUBLIC	??Y?$basic_string@DU?$char_traits@D@std@@V?$allocator@D@2@@std@@QAEAAV01@D@Z ; std::basic_string<char,std::char_traits<char>,std::allocator<char> >::operator+=
PUBLIC	?append@?$basic_string@DU?$char_traits@D@std@@V?$allocator@D@2@@std@@QAEAAV12@ABV12@@Z ; std::basic_string<char,std::char_traits<char>,std::allocator<char> >::append
PUBLIC	?append@?$basic_string@DU?$char_traits@D@std@@V?$allocator@D@2@@std@@QAEAAV12@ABV12@II@Z ; std::basic_string<char,std::char_traits<char>,std::allocator<char> >::append
PUBLIC	?append@?$basic_string@DU?$char_traits@D@std@@V?$allocator@D@2@@std@@QAEAAV12@PBDI@Z ; std::basic_string<char,std::char_traits<char>,std::allocator<char> >::append
PUBLIC	?append@?$basic_string@DU?$char_traits@D@std@@V?$allocator@D@2@@std@@QAEAAV12@PBD@Z ; std::basic_string<char,std::char_traits<char>,std::allocator<char> >::append
PUBLIC	?append@?$basic_string@DU?$char_traits@D@std@@V?$allocator@D@2@@std@@QAEAAV12@ID@Z ; std::basic_string<char,std::char_traits<char>,std::allocator<char> >::append
PUBLIC	?assign@?$basic_string@DU?$char_traits@D@std@@V?$allocator@D@2@@std@@QAEAAV12@ABV12@II@Z ; std::basic_string<char,std::char_traits<char>,std::allocator<char> >::assign
PUBLIC	?assign@?$basic_string@DU?$char_traits@D@std@@V?$allocator@D@2@@std@@QAEAAV12@PBDI@Z ; std::basic_string<char,std::char_traits<char>,std::allocator<char> >::assign
PUBLIC	?assign@?$basic_string@DU?$char_traits@D@std@@V?$allocator@D@2@@std@@QAEAAV12@PBD@Z ; std::basic_string<char,std::char_traits<char>,std::allocator<char> >::assign
PUBLIC	?assign@?$basic_string@DU?$char_traits@D@std@@V?$allocator@D@2@@std@@QAEAAV12@ID@Z ; std::basic_string<char,std::char_traits<char>,std::allocator<char> >::assign
PUBLIC	?erase@?$basic_string@DU?$char_traits@D@std@@V?$allocator@D@2@@std@@QAEAAV12@I@Z ; std::basic_string<char,std::char_traits<char>,std::allocator<char> >::erase
PUBLIC	?erase@?$basic_string@DU?$char_traits@D@std@@V?$allocator@D@2@@std@@QAEAAV12@II@Z ; std::basic_string<char,std::char_traits<char>,std::allocator<char> >::erase
PUBLIC	?begin@?$basic_string@DU?$char_traits@D@std@@V?$allocator@D@2@@std@@QAE?AV?$_String_iterator@V?$_String_val@U?$_Simple_types@D@std@@@std@@@2@XZ ; std::basic_string<char,std::char_traits<char>,std::allocator<char> >::begin
PUBLIC	?c_str@?$basic_string@DU?$char_traits@D@std@@V?$allocator@D@2@@std@@QBEPBDXZ ; std::basic_string<char,std::char_traits<char>,std::allocator<char> >::c_str
PUBLIC	?size@?$basic_string@DU?$char_traits@D@std@@V?$allocator@D@2@@std@@QBEIXZ ; std::basic_string<char,std::char_traits<char>,std::allocator<char> >::size
PUBLIC	?max_size@?$basic_string@DU?$char_traits@D@std@@V?$allocator@D@2@@std@@QBEIXZ ; std::basic_string<char,std::char_traits<char>,std::allocator<char> >::max_size
PUBLIC	?reserve@?$basic_string@DU?$char_traits@D@std@@V?$allocator@D@2@@std@@QAEXI@Z ; std::basic_string<char,std::char_traits<char>,std::allocator<char> >::reserve
PUBLIC	?_Traits_compare@?$basic_string@DU?$char_traits@D@std@@V?$allocator@D@2@@std@@SAHQBDI0I@Z ; std::basic_string<char,std::char_traits<char>,std::allocator<char> >::_Traits_compare
PUBLIC	?_Clamp_suffix_size@?$basic_string@DU?$char_traits@D@std@@V?$allocator@D@2@@std@@QBEIII@Z ; std::basic_string<char,std::char_traits<char>,std::allocator<char> >::_Clamp_suffix_size
PUBLIC	?compare@?$basic_string@DU?$char_traits@D@std@@V?$allocator@D@2@@std@@QBEHPBD@Z ; std::basic_string<char,std::char_traits<char>,std::allocator<char> >::compare
PUBLIC	?_Chassign@?$basic_string@DU?$char_traits@D@std@@V?$allocator@D@2@@std@@QAEXIID@Z ; std::basic_string<char,std::char_traits<char>,std::allocator<char> >::_Chassign
PUBLIC	?_Copy@?$basic_string@DU?$char_traits@D@std@@V?$allocator@D@2@@std@@QAEXII@Z ; std::basic_string<char,std::char_traits<char>,std::allocator<char> >::_Copy
PUBLIC	?_Eos@?$basic_string@DU?$char_traits@D@std@@V?$allocator@D@2@@std@@QAEXI@Z ; std::basic_string<char,std::char_traits<char>,std::allocator<char> >::_Eos
PUBLIC	?_Grow@?$basic_string@DU?$char_traits@D@std@@V?$allocator@D@2@@std@@QAE_NI_N@Z ; std::basic_string<char,std::char_traits<char>,std::allocator<char> >::_Grow
PUBLIC	?_Inside@?$basic_string@DU?$char_traits@D@std@@V?$allocator@D@2@@std@@QAE_NPBD@Z ; std::basic_string<char,std::char_traits<char>,std::allocator<char> >::_Inside
PUBLIC	?_Tidy@?$basic_string@DU?$char_traits@D@std@@V?$allocator@D@2@@std@@QAEX_NI@Z ; std::basic_string<char,std::char_traits<char>,std::allocator<char> >::_Tidy
PUBLIC	?_Xlen@?$basic_string@DU?$char_traits@D@std@@V?$allocator@D@2@@std@@QBEXXZ ; std::basic_string<char,std::char_traits<char>,std::allocator<char> >::_Xlen
PUBLIC	?_Check_offset@?$basic_string@DU?$char_traits@D@std@@V?$allocator@D@2@@std@@QBEXI@Z ; std::basic_string<char,std::char_traits<char>,std::allocator<char> >::_Check_offset
PUBLIC	?_Xran@?$basic_string@DU?$char_traits@D@std@@V?$allocator@D@2@@std@@QBEXXZ ; std::basic_string<char,std::char_traits<char>,std::allocator<char> >::_Xran
PUBLIC	?name@type_info@@QBEPBDXZ			; type_info::name
PUBLIC	??0bad_cast@std@@QAE@XZ				; std::bad_cast::bad_cast
PUBLIC	??1bad_cast@std@@UAE@XZ				; std::bad_cast::~bad_cast
PUBLIC	??0bad_cast@std@@QAE@ABV01@@Z			; std::bad_cast::bad_cast
PUBLIC	??_Gbad_cast@std@@UAEPAXI@Z			; std::bad_cast::`scalar deleting destructor'
PUBLIC	??1locale@std@@QAE@XZ				; std::locale::~locale
PUBLIC	?_Getfacet@locale@std@@QBEPBVfacet@12@I@Z	; std::locale::_Getfacet
PUBLIC	??0_Ref_count_base@std@@IAE@XZ			; std::_Ref_count_base::_Ref_count_base
PUBLIC	??1_Ref_count_base@std@@UAE@XZ			; std::_Ref_count_base::~_Ref_count_base
PUBLIC	?_Incref@_Ref_count_base@std@@QAEXXZ		; std::_Ref_count_base::_Incref
PUBLIC	?_Decref@_Ref_count_base@std@@QAEXXZ		; std::_Ref_count_base::_Decref
PUBLIC	?_Decwref@_Ref_count_base@std@@QAEXXZ		; std::_Ref_count_base::_Decwref
PUBLIC	?_Get_deleter@_Ref_count_base@std@@UBEPAXABVtype_info@@@Z ; std::_Ref_count_base::_Get_deleter
PUBLIC	??_G_Ref_count_base@std@@UAEPAXI@Z		; std::_Ref_count_base::`scalar deleting destructor'
PUBLIC	?_Enable_shared@std@@YAXPDX0@Z			; std::_Enable_shared
PUBLIC	?_Check_C_return@std@@YAHH@Z			; std::_Check_C_return
PUBLIC	?_Thrd_startX@std@@YAHPAU_Thrd_imp_t@@P6GIPAX@Z1@Z ; std::_Thrd_startX
PUBLIC	?_Mtx_initX@std@@YAHPAPAU_Mtx_internal_imp_t@@H@Z ; std::_Mtx_initX
PUBLIC	?_Mtx_lockX@std@@YAHPAU_Mtx_internal_imp_t@@@Z	; std::_Mtx_lockX
PUBLIC	?_Mtx_unlockX@std@@YAHPAU_Mtx_internal_imp_t@@@Z ; std::_Mtx_unlockX
PUBLIC	?_Cnd_initX@std@@YAHPAPAU_Cnd_internal_imp_t@@@Z ; std::_Cnd_initX
PUBLIC	?_Cnd_waitX@std@@YAHPAU_Cnd_internal_imp_t@@PAU_Mtx_internal_imp_t@@@Z ; std::_Cnd_waitX
PUBLIC	?_Cnd_signalX@std@@YAHPAU_Cnd_internal_imp_t@@@Z ; std::_Cnd_signalX
PUBLIC	??0_Auto_cnd@std@@QAE@PAU_Cnd_internal_imp_t@@@Z ; std::_Auto_cnd::_Auto_cnd
PUBLIC	??1_Auto_cnd@std@@QAE@XZ			; std::_Auto_cnd::~_Auto_cnd
PUBLIC	?_Release@_Auto_cnd@std@@QAEXXZ			; std::_Auto_cnd::_Release
PUBLIC	??0_Auto_mtx@std@@QAE@PAU_Mtx_internal_imp_t@@@Z ; std::_Auto_mtx::_Auto_mtx
PUBLIC	??1_Auto_mtx@std@@QAE@XZ			; std::_Auto_mtx::~_Auto_mtx
PUBLIC	?_Release@_Auto_mtx@std@@QAEXXZ			; std::_Auto_mtx::_Release
PUBLIC	??0_Pad@std@@QAE@XZ				; std::_Pad::_Pad
PUBLIC	??1_Pad@std@@QAE@XZ				; std::_Pad::~_Pad
PUBLIC	?_Launch@_Pad@std@@QAEXPAU_Thrd_imp_t@@@Z	; std::_Pad::_Launch
PUBLIC	?_Release@_Pad@std@@QAEXXZ			; std::_Pad::_Release
PUBLIC	?_Call_func@_Pad@std@@CGIPAX@Z			; std::_Pad::_Call_func
PUBLIC	??1thread@std@@QAE@XZ				; std::thread::~thread
PUBLIC	?joinable@thread@std@@QBE_NXZ			; std::thread::joinable
PUBLIC	?join@thread@std@@QAEXXZ			; std::thread::join
PUBLIC	?get_id@thread@std@@QBE?AVid@12@XZ		; std::thread::get_id
PUBLIC	?get_id@this_thread@std@@YA?AVid@thread@2@XZ	; std::this_thread::get_id
PUBLIC	??0id@thread@std@@AAE@I@Z			; std::thread::id::id
PUBLIC	??8std@@YA_NVid@thread@0@0@Z			; std::operator==
PUBLIC	??0ios_flags_saver@io@boost@@QAE@AAVios_base@std@@@Z ; boost::io::ios_flags_saver::ios_flags_saver
PUBLIC	??1ios_flags_saver@io@boost@@QAE@XZ		; boost::io::ios_flags_saver::~ios_flags_saver
PUBLIC	?restore@ios_flags_saver@io@boost@@QAEXXZ	; boost::io::ios_flags_saver::restore
PUBLIC	??0ios_precision_saver@io@boost@@QAE@AAVios_base@std@@@Z ; boost::io::ios_precision_saver::ios_precision_saver
PUBLIC	??1ios_precision_saver@io@boost@@QAE@XZ		; boost::io::ios_precision_saver::~ios_precision_saver
PUBLIC	?restore@ios_precision_saver@io@boost@@QAEXXZ	; boost::io::ios_precision_saver::restore
PUBLIC	??_Darchive_exception@archive@boost@@QAEXXZ	; boost::archive::archive_exception::`vbase destructor'
PUBLIC	??0version_type@archive@boost@@QAE@ABI@Z	; boost::archive::version_type::version_type
PUBLIC	??4version_type@archive@boost@@QAEAAV012@ABV012@@Z ; boost::archive::version_type::operator=
PUBLIC	??Bversion_type@archive@boost@@QBEIXZ		; boost::archive::version_type::operator unsigned int
PUBLIC	??Bversion_type@archive@boost@@QAEAAIXZ		; boost::archive::version_type::operator unsigned int &
PUBLIC	??Bclass_id_type@archive@boost@@QBEHXZ		; boost::archive::class_id_type::operator int
PUBLIC	??Bclass_id_type@archive@boost@@QAEAAFXZ	; boost::archive::class_id_type::operator short &
PUBLIC	??Bobject_id_type@archive@boost@@QBEIXZ		; boost::archive::object_id_type::operator unsigned int
PUBLIC	??Bobject_id_type@archive@boost@@QAEAAIXZ	; boost::archive::object_id_type::operator unsigned int &
PUBLIC	??Btracking_type@archive@boost@@QBE_NXZ		; boost::archive::tracking_type::operator bool
PUBLIC	??Btracking_type@archive@boost@@QAEAA_NXZ	; boost::archive::tracking_type::operator bool &
PUBLIC	??Bclass_name_type@archive@boost@@QBEAAPBDXZ	; boost::archive::class_name_type::operator char const * &
PUBLIC	?get_debug_info@extended_type_info_typeid_0@typeid_system@serialization@boost@@EBEPBDXZ ; boost::serialization::typeid_system::extended_type_info_typeid_0::get_debug_info
PUBLIC	??0version_type@serialization@boost@@QAE@I@Z	; boost::serialization::version_type::version_type
PUBLIC	??Bversion_type@serialization@boost@@QBEABIXZ	; boost::serialization::version_type::operator unsigned int const &
PUBLIC	?serialized_as_pointer@basic_iserializer@detail@archive@boost@@QBE_NXZ ; boost::archive::detail::basic_iserializer::serialized_as_pointer
PUBLIC	?This@?$interface_iarchive@Vtext_iarchive@archive@boost@@@detail@archive@boost@@QAEPAVtext_iarchive@34@XZ ; boost::archive::detail::interface_iarchive<boost::archive::text_iarchive>::This
PUBLIC	?vload@?$common_iarchive@Vtext_iarchive@archive@boost@@@detail@archive@boost@@EAEXAAVversion_type@34@@Z ; boost::archive::detail::common_iarchive<boost::archive::text_iarchive>::vload
PUBLIC	?vload@?$common_iarchive@Vtext_iarchive@archive@boost@@@detail@archive@boost@@EAEXAAVobject_id_type@34@@Z ; boost::archive::detail::common_iarchive<boost::archive::text_iarchive>::vload
PUBLIC	?vload@?$common_iarchive@Vtext_iarchive@archive@boost@@@detail@archive@boost@@EAEXAAVclass_id_type@34@@Z ; boost::archive::detail::common_iarchive<boost::archive::text_iarchive>::vload
PUBLIC	?vload@?$common_iarchive@Vtext_iarchive@archive@boost@@@detail@archive@boost@@EAEXAAVclass_id_optional_type@34@@Z ; boost::archive::detail::common_iarchive<boost::archive::text_iarchive>::vload
PUBLIC	?vload@?$common_iarchive@Vtext_iarchive@archive@boost@@@detail@archive@boost@@EAEXAAUtracking_type@34@@Z ; boost::archive::detail::common_iarchive<boost::archive::text_iarchive>::vload
PUBLIC	?vload@?$common_iarchive@Vtext_iarchive@archive@boost@@@detail@archive@boost@@EAEXAAUclass_name_type@34@@Z ; boost::archive::detail::common_iarchive<boost::archive::text_iarchive>::vload
PUBLIC	??1?$common_iarchive@Vtext_iarchive@archive@boost@@@detail@archive@boost@@UAE@XZ ; boost::archive::detail::common_iarchive<boost::archive::text_iarchive>::~common_iarchive<boost::archive::text_iarchive>
PUBLIC	?load_override@?$basic_text_iarchive@Vtext_iarchive@archive@boost@@@archive@boost@@IAEXAAVclass_id_optional_type@23@@Z ; boost::archive::basic_text_iarchive<boost::archive::text_iarchive>::load_override
PUBLIC	??1?$basic_text_iarchive@Vtext_iarchive@archive@boost@@@archive@boost@@MAE@XZ ; boost::archive::basic_text_iarchive<boost::archive::text_iarchive>::~basic_text_iarchive<boost::archive::text_iarchive>
PUBLIC	??_G?$basic_text_iarchive@Vtext_iarchive@archive@boost@@@archive@boost@@MAEPAXI@Z ; boost::archive::basic_text_iarchive<boost::archive::text_iarchive>::`scalar deleting destructor'
PUBLIC	?load@?$text_iarchive_impl@Vtext_iarchive@archive@boost@@@archive@boost@@IAEXAAVversion_type@23@@Z ; boost::archive::text_iarchive_impl<boost::archive::text_iarchive>::load
PUBLIC	??1?$text_iarchive_impl@Vtext_iarchive@archive@boost@@@archive@boost@@MAE@XZ ; boost::archive::text_iarchive_impl<boost::archive::text_iarchive>::~text_iarchive_impl<boost::archive::text_iarchive>
PUBLIC	??_G?$text_iarchive_impl@Vtext_iarchive@archive@boost@@@archive@boost@@MAEPAXI@Z ; boost::archive::text_iarchive_impl<boost::archive::text_iarchive>::`scalar deleting destructor'
PUBLIC	??0text_iarchive@archive@boost@@QAE@AAV?$basic_istream@DU?$char_traits@D@std@@@std@@I@Z ; boost::archive::text_iarchive::text_iarchive
PUBLIC	??1text_iarchive@archive@boost@@UAE@XZ		; boost::archive::text_iarchive::~text_iarchive
PUBLIC	??_Gtext_iarchive@archive@boost@@UAEPAXI@Z	; boost::archive::text_iarchive::`scalar deleting destructor'
PUBLIC	?serialized_as_pointer@basic_oserializer@detail@archive@boost@@QBE_NXZ ; boost::archive::detail::basic_oserializer::serialized_as_pointer
PUBLIC	?This@?$interface_oarchive@Vtext_oarchive@archive@boost@@@detail@archive@boost@@QAEPAVtext_oarchive@34@XZ ; boost::archive::detail::interface_oarchive<boost::archive::text_oarchive>::This
PUBLIC	?vsave@?$common_oarchive@Vtext_oarchive@archive@boost@@@detail@archive@boost@@EAEXVversion_type@34@@Z ; boost::archive::detail::common_oarchive<boost::archive::text_oarchive>::vsave
PUBLIC	?vsave@?$common_oarchive@Vtext_oarchive@archive@boost@@@detail@archive@boost@@EAEXVobject_id_type@34@@Z ; boost::archive::detail::common_oarchive<boost::archive::text_oarchive>::vsave
PUBLIC	?vsave@?$common_oarchive@Vtext_oarchive@archive@boost@@@detail@archive@boost@@EAEXVobject_reference_type@34@@Z ; boost::archive::detail::common_oarchive<boost::archive::text_oarchive>::vsave
PUBLIC	?vsave@?$common_oarchive@Vtext_oarchive@archive@boost@@@detail@archive@boost@@EAEXVclass_id_type@34@@Z ; boost::archive::detail::common_oarchive<boost::archive::text_oarchive>::vsave
PUBLIC	?vsave@?$common_oarchive@Vtext_oarchive@archive@boost@@@detail@archive@boost@@EAEXVclass_id_reference_type@34@@Z ; boost::archive::detail::common_oarchive<boost::archive::text_oarchive>::vsave
PUBLIC	?vsave@?$common_oarchive@Vtext_oarchive@archive@boost@@@detail@archive@boost@@EAEXVclass_id_optional_type@34@@Z ; boost::archive::detail::common_oarchive<boost::archive::text_oarchive>::vsave
PUBLIC	?vsave@?$common_oarchive@Vtext_oarchive@archive@boost@@@detail@archive@boost@@EAEXABUclass_name_type@34@@Z ; boost::archive::detail::common_oarchive<boost::archive::text_oarchive>::vsave
PUBLIC	?vsave@?$common_oarchive@Vtext_oarchive@archive@boost@@@detail@archive@boost@@EAEXUtracking_type@34@@Z ; boost::archive::detail::common_oarchive<boost::archive::text_oarchive>::vsave
PUBLIC	??1?$common_oarchive@Vtext_oarchive@archive@boost@@@detail@archive@boost@@UAE@XZ ; boost::archive::detail::common_oarchive<boost::archive::text_oarchive>::~common_oarchive<boost::archive::text_oarchive>
PUBLIC	?newline@?$basic_text_oarchive@Vtext_oarchive@archive@boost@@@archive@boost@@IAEXXZ ; boost::archive::basic_text_oarchive<boost::archive::text_oarchive>::newline
PUBLIC	?save_override@?$basic_text_oarchive@Vtext_oarchive@archive@boost@@@archive@boost@@IAEXABVobject_id_type@23@@Z ; boost::archive::basic_text_oarchive<boost::archive::text_oarchive>::save_override
PUBLIC	?save_override@?$basic_text_oarchive@Vtext_oarchive@archive@boost@@@archive@boost@@IAEXABVclass_id_optional_type@23@@Z ; boost::archive::basic_text_oarchive<boost::archive::text_oarchive>::save_override
PUBLIC	?save_override@?$basic_text_oarchive@Vtext_oarchive@archive@boost@@@archive@boost@@IAEXABUclass_name_type@23@@Z ; boost::archive::basic_text_oarchive<boost::archive::text_oarchive>::save_override
PUBLIC	??1?$basic_text_oarchive@Vtext_oarchive@archive@boost@@@archive@boost@@MAE@XZ ; boost::archive::basic_text_oarchive<boost::archive::text_oarchive>::~basic_text_oarchive<boost::archive::text_oarchive>
PUBLIC	??_G?$basic_text_oarchive@Vtext_oarchive@archive@boost@@@archive@boost@@MAEPAXI@Z ; boost::archive::basic_text_oarchive<boost::archive::text_oarchive>::`scalar deleting destructor'
PUBLIC	?save@?$text_oarchive_impl@Vtext_oarchive@archive@boost@@@archive@boost@@IAEXABVversion_type@23@@Z ; boost::archive::text_oarchive_impl<boost::archive::text_oarchive>::save
PUBLIC	??1?$text_oarchive_impl@Vtext_oarchive@archive@boost@@@archive@boost@@MAE@XZ ; boost::archive::text_oarchive_impl<boost::archive::text_oarchive>::~text_oarchive_impl<boost::archive::text_oarchive>
PUBLIC	??_G?$text_oarchive_impl@Vtext_oarchive@archive@boost@@@archive@boost@@MAEPAXI@Z ; boost::archive::text_oarchive_impl<boost::archive::text_oarchive>::`scalar deleting destructor'
PUBLIC	??0text_oarchive@archive@boost@@QAE@AAV?$basic_ostream@DU?$char_traits@D@std@@@std@@I@Z ; boost::archive::text_oarchive::text_oarchive
PUBLIC	??1text_oarchive@archive@boost@@UAE@XZ		; boost::archive::text_oarchive::~text_oarchive
PUBLIC	??_Gtext_oarchive@archive@boost@@UAEPAXI@Z	; boost::archive::text_oarchive::`scalar deleting destructor'
PUBLIC	??O@YA_NAAVCContact@@0@Z			; operator>
PUBLIC	??$_Fgetc@D@std@@YA_NAADPAU_iobuf@@@Z		; std::_Fgetc<char>
PUBLIC	??$_Fputc@D@std@@YA_NDPAU_iobuf@@@Z		; std::_Fputc<char>
PUBLIC	??$_Ungetc@D@std@@YA_NABDPAU_iobuf@@@Z		; std::_Ungetc<char>
PUBLIC	?sort@Chris@@YAXAAV?$vector@V?$shared_ptr@VCContact@@@std@@V?$allocator@V?$shared_ptr@VCContact@@@std@@@2@@std@@@Z ; Chris::sort
PUBLIC	??0?$allocator@V?$shared_ptr@VCContact@@@std@@@std@@QAE@XZ ; std::allocator<std::shared_ptr<CContact> >::allocator<std::shared_ptr<CContact> >
PUBLIC	?deallocate@?$allocator@V?$shared_ptr@VCContact@@@std@@@std@@QAEXPAV?$shared_ptr@VCContact@@@2@I@Z ; std::allocator<std::shared_ptr<CContact> >::deallocate
PUBLIC	?allocate@?$allocator@V?$shared_ptr@VCContact@@@std@@@std@@QAEPAV?$shared_ptr@VCContact@@@2@I@Z ; std::allocator<std::shared_ptr<CContact> >::allocate
PUBLIC	?max_size@?$allocator@V?$shared_ptr@VCContact@@@std@@@std@@QBEIXZ ; std::allocator<std::shared_ptr<CContact> >::max_size
PUBLIC	?max_size@?$allocator_traits@V?$allocator@V?$shared_ptr@VCContact@@@std@@@std@@@std@@SAIABV?$allocator@V?$shared_ptr@VCContact@@@std@@@2@@Z ; std::allocator_traits<std::allocator<std::shared_ptr<CContact> > >::max_size
PUBLIC	??0?$_Wrap_alloc@V?$allocator@V?$shared_ptr@VCContact@@@std@@@std@@@std@@QAE@XZ ; std::_Wrap_alloc<std::allocator<std::shared_ptr<CContact> > >::_Wrap_alloc<std::allocator<std::shared_ptr<CContact> > >
PUBLIC	?allocate@?$_Wrap_alloc@V?$allocator@V?$shared_ptr@VCContact@@@std@@@std@@@std@@QAEPAV?$shared_ptr@VCContact@@@2@I@Z ; std::_Wrap_alloc<std::allocator<std::shared_ptr<CContact> > >::allocate
PUBLIC	?deallocate@?$_Wrap_alloc@V?$allocator@V?$shared_ptr@VCContact@@@std@@@std@@@std@@QAEXPAV?$shared_ptr@VCContact@@@2@I@Z ; std::_Wrap_alloc<std::allocator<std::shared_ptr<CContact> > >::deallocate
PUBLIC	?max_size@?$_Wrap_alloc@V?$allocator@V?$shared_ptr@VCContact@@@std@@@std@@@std@@QBEIU_Nil@2@@Z ; std::_Wrap_alloc<std::allocator<std::shared_ptr<CContact> > >::max_size
PUBLIC	??0?$_Vector_alloc@U?$_Vec_base_types@V?$shared_ptr@VCContact@@@std@@V?$allocator@V?$shared_ptr@VCContact@@@std@@@2@@std@@@std@@QAE@XZ ; std::_Vector_alloc<std::_Vec_base_types<std::shared_ptr<CContact>,std::allocator<std::shared_ptr<CContact> > > >::_Vector_alloc<std::_Vec_base_types<std::shared_ptr<CContact>,std::allocator<std::shared_ptr<CContact> > > >
PUBLIC	??1?$_Vector_alloc@U?$_Vec_base_types@V?$shared_ptr@VCContact@@@std@@V?$allocator@V?$shared_ptr@VCContact@@@std@@@2@@std@@@std@@QAE@XZ ; std::_Vector_alloc<std::_Vec_base_types<std::shared_ptr<CContact>,std::allocator<std::shared_ptr<CContact> > > >::~_Vector_alloc<std::_Vec_base_types<std::shared_ptr<CContact>,std::allocator<std::shared_ptr<CContact> > > >
PUBLIC	?_Alloc_proxy@?$_Vector_alloc@U?$_Vec_base_types@V?$shared_ptr@VCContact@@@std@@V?$allocator@V?$shared_ptr@VCContact@@@std@@@2@@std@@@std@@QAEXXZ ; std::_Vector_alloc<std::_Vec_base_types<std::shared_ptr<CContact>,std::allocator<std::shared_ptr<CContact> > > >::_Alloc_proxy
PUBLIC	?_Free_proxy@?$_Vector_alloc@U?$_Vec_base_types@V?$shared_ptr@VCContact@@@std@@V?$allocator@V?$shared_ptr@VCContact@@@std@@@2@@std@@@std@@QAEXXZ ; std::_Vector_alloc<std::_Vec_base_types<std::shared_ptr<CContact>,std::allocator<std::shared_ptr<CContact> > > >::_Free_proxy
PUBLIC	?_Getpfirst@?$_Vector_alloc@U?$_Vec_base_types@V?$shared_ptr@VCContact@@@std@@V?$allocator@V?$shared_ptr@VCContact@@@std@@@2@@std@@@std@@QBEPAPAU_Iterator_base12@2@XZ ; std::_Vector_alloc<std::_Vec_base_types<std::shared_ptr<CContact>,std::allocator<std::shared_ptr<CContact> > > >::_Getpfirst
PUBLIC	?_Myproxy@?$_Vector_alloc@U?$_Vec_base_types@V?$shared_ptr@VCContact@@@std@@V?$allocator@V?$shared_ptr@VCContact@@@std@@@2@@std@@@std@@QAEAAPAU_Container_proxy@2@XZ ; std::_Vector_alloc<std::_Vec_base_types<std::shared_ptr<CContact>,std::allocator<std::shared_ptr<CContact> > > >::_Myproxy
PUBLIC	?_Orphan_all@?$_Vector_alloc@U?$_Vec_base_types@V?$shared_ptr@VCContact@@@std@@V?$allocator@V?$shared_ptr@VCContact@@@std@@@2@@std@@@std@@QAEXXZ ; std::_Vector_alloc<std::_Vec_base_types<std::shared_ptr<CContact>,std::allocator<std::shared_ptr<CContact> > > >::_Orphan_all
PUBLIC	?_Getal@?$_Vector_alloc@U?$_Vec_base_types@V?$shared_ptr@VCContact@@@std@@V?$allocator@V?$shared_ptr@VCContact@@@std@@@2@@std@@@std@@QAEAAU?$_Wrap_alloc@V?$allocator@V?$shared_ptr@VCContact@@@std@@@std@@@2@XZ ; std::_Vector_alloc<std::_Vec_base_types<std::shared_ptr<CContact>,std::allocator<std::shared_ptr<CContact> > > >::_Getal
PUBLIC	?_Getal@?$_Vector_alloc@U?$_Vec_base_types@V?$shared_ptr@VCContact@@@std@@V?$allocator@V?$shared_ptr@VCContact@@@std@@@2@@std@@@std@@QBEABU?$_Wrap_alloc@V?$allocator@V?$shared_ptr@VCContact@@@std@@@std@@@2@XZ ; std::_Vector_alloc<std::_Vec_base_types<std::shared_ptr<CContact>,std::allocator<std::shared_ptr<CContact> > > >::_Getal
PUBLIC	?_Get_data@?$_Vector_alloc@U?$_Vec_base_types@V?$shared_ptr@VCContact@@@std@@V?$allocator@V?$shared_ptr@VCContact@@@std@@@2@@std@@@std@@QAEAAV?$_Vector_val@U?$_Simple_types@V?$shared_ptr@VCContact@@@std@@@std@@@2@XZ ; std::_Vector_alloc<std::_Vec_base_types<std::shared_ptr<CContact>,std::allocator<std::shared_ptr<CContact> > > >::_Get_data
PUBLIC	?_Get_data@?$_Vector_alloc@U?$_Vec_base_types@V?$shared_ptr@VCContact@@@std@@V?$allocator@V?$shared_ptr@VCContact@@@std@@@2@@std@@@std@@QBEABV?$_Vector_val@U?$_Simple_types@V?$shared_ptr@VCContact@@@std@@@std@@@2@XZ ; std::_Vector_alloc<std::_Vec_base_types<std::shared_ptr<CContact>,std::allocator<std::shared_ptr<CContact> > > >::_Get_data
PUBLIC	?_Myfirst@?$_Vector_alloc@U?$_Vec_base_types@V?$shared_ptr@VCContact@@@std@@V?$allocator@V?$shared_ptr@VCContact@@@std@@@2@@std@@@std@@QAEAAPAV?$shared_ptr@VCContact@@@2@XZ ; std::_Vector_alloc<std::_Vec_base_types<std::shared_ptr<CContact>,std::allocator<std::shared_ptr<CContact> > > >::_Myfirst
PUBLIC	?_Myfirst@?$_Vector_alloc@U?$_Vec_base_types@V?$shared_ptr@VCContact@@@std@@V?$allocator@V?$shared_ptr@VCContact@@@std@@@2@@std@@@std@@QBEABQAV?$shared_ptr@VCContact@@@2@XZ ; std::_Vector_alloc<std::_Vec_base_types<std::shared_ptr<CContact>,std::allocator<std::shared_ptr<CContact> > > >::_Myfirst
PUBLIC	?_Mylast@?$_Vector_alloc@U?$_Vec_base_types@V?$shared_ptr@VCContact@@@std@@V?$allocator@V?$shared_ptr@VCContact@@@std@@@2@@std@@@std@@QAEAAPAV?$shared_ptr@VCContact@@@2@XZ ; std::_Vector_alloc<std::_Vec_base_types<std::shared_ptr<CContact>,std::allocator<std::shared_ptr<CContact> > > >::_Mylast
PUBLIC	?_Mylast@?$_Vector_alloc@U?$_Vec_base_types@V?$shared_ptr@VCContact@@@std@@V?$allocator@V?$shared_ptr@VCContact@@@std@@@2@@std@@@std@@QBEABQAV?$shared_ptr@VCContact@@@2@XZ ; std::_Vector_alloc<std::_Vec_base_types<std::shared_ptr<CContact>,std::allocator<std::shared_ptr<CContact> > > >::_Mylast
PUBLIC	?_Myend@?$_Vector_alloc@U?$_Vec_base_types@V?$shared_ptr@VCContact@@@std@@V?$allocator@V?$shared_ptr@VCContact@@@std@@@2@@std@@@std@@QAEAAPAV?$shared_ptr@VCContact@@@2@XZ ; std::_Vector_alloc<std::_Vec_base_types<std::shared_ptr<CContact>,std::allocator<std::shared_ptr<CContact> > > >::_Myend
PUBLIC	?_Myend@?$_Vector_alloc@U?$_Vec_base_types@V?$shared_ptr@VCContact@@@std@@V?$allocator@V?$shared_ptr@VCContact@@@std@@@2@@std@@@std@@QBEABQAV?$shared_ptr@VCContact@@@2@XZ ; std::_Vector_alloc<std::_Vec_base_types<std::shared_ptr<CContact>,std::allocator<std::shared_ptr<CContact> > > >::_Myend
PUBLIC	??0?$_Vector_val@U?$_Simple_types@V?$shared_ptr@VCContact@@@std@@@std@@@std@@QAE@XZ ; std::_Vector_val<std::_Simple_types<std::shared_ptr<CContact> > >::_Vector_val<std::_Simple_types<std::shared_ptr<CContact> > >
PUBLIC	??1?$_Vector_val@U?$_Simple_types@V?$shared_ptr@VCContact@@@std@@@std@@@std@@QAE@XZ ; std::_Vector_val<std::_Simple_types<std::shared_ptr<CContact> > >::~_Vector_val<std::_Simple_types<std::shared_ptr<CContact> > >
PUBLIC	?_Get_first@?$_Compressed_pair@U?$_Wrap_alloc@V?$allocator@V?$shared_ptr@VCContact@@@std@@@std@@@std@@V?$_Vector_val@U?$_Simple_types@V?$shared_ptr@VCContact@@@std@@@std@@@2@$00@std@@QAEAAU?$_Wrap_alloc@V?$allocator@V?$shared_ptr@VCContact@@@std@@@std@@@2@XZ ; std::_Compressed_pair<std::_Wrap_alloc<std::allocator<std::shared_ptr<CContact> > >,std::_Vector_val<std::_Simple_types<std::shared_ptr<CContact> > >,1>::_Get_first
PUBLIC	?_Get_first@?$_Compressed_pair@U?$_Wrap_alloc@V?$allocator@V?$shared_ptr@VCContact@@@std@@@std@@@std@@V?$_Vector_val@U?$_Simple_types@V?$shared_ptr@VCContact@@@std@@@std@@@2@$00@std@@QBEABU?$_Wrap_alloc@V?$allocator@V?$shared_ptr@VCContact@@@std@@@std@@@2@XZ ; std::_Compressed_pair<std::_Wrap_alloc<std::allocator<std::shared_ptr<CContact> > >,std::_Vector_val<std::_Simple_types<std::shared_ptr<CContact> > >,1>::_Get_first
PUBLIC	?_Get_second@?$_Compressed_pair@U?$_Wrap_alloc@V?$allocator@V?$shared_ptr@VCContact@@@std@@@std@@@std@@V?$_Vector_val@U?$_Simple_types@V?$shared_ptr@VCContact@@@std@@@std@@@2@$00@std@@QAEAAV?$_Vector_val@U?$_Simple_types@V?$shared_ptr@VCContact@@@std@@@std@@@2@XZ ; std::_Compressed_pair<std::_Wrap_alloc<std::allocator<std::shared_ptr<CContact> > >,std::_Vector_val<std::_Simple_types<std::shared_ptr<CContact> > >,1>::_Get_second
PUBLIC	?_Get_second@?$_Compressed_pair@U?$_Wrap_alloc@V?$allocator@V?$shared_ptr@VCContact@@@std@@@std@@@std@@V?$_Vector_val@U?$_Simple_types@V?$shared_ptr@VCContact@@@std@@@std@@@2@$00@std@@QBEABV?$_Vector_val@U?$_Simple_types@V?$shared_ptr@VCContact@@@std@@@std@@@2@XZ ; std::_Compressed_pair<std::_Wrap_alloc<std::allocator<std::shared_ptr<CContact> > >,std::_Vector_val<std::_Simple_types<std::shared_ptr<CContact> > >,1>::_Get_second
PUBLIC	??1?$_Compressed_pair@U?$_Wrap_alloc@V?$allocator@V?$shared_ptr@VCContact@@@std@@@std@@@std@@V?$_Vector_val@U?$_Simple_types@V?$shared_ptr@VCContact@@@std@@@std@@@2@$00@std@@QAE@XZ ; std::_Compressed_pair<std::_Wrap_alloc<std::allocator<std::shared_ptr<CContact> > >,std::_Vector_val<std::_Simple_types<std::shared_ptr<CContact> > >,1>::~_Compressed_pair<std::_Wrap_alloc<std::allocator<std::shared_ptr<CContact> > >,std::_Vector_val<std::_Simple_types<std::shared_ptr<CContact> > >,1>
PUBLIC	??0?$vector@V?$shared_ptr@VCContact@@@std@@V?$allocator@V?$shared_ptr@VCContact@@@std@@@2@@std@@QAE@XZ ; std::vector<std::shared_ptr<CContact>,std::allocator<std::shared_ptr<CContact> > >::vector<std::shared_ptr<CContact>,std::allocator<std::shared_ptr<CContact> > >
PUBLIC	?push_back@?$vector@V?$shared_ptr@VCContact@@@std@@V?$allocator@V?$shared_ptr@VCContact@@@std@@@2@@std@@QAEX$$QAV?$shared_ptr@VCContact@@@2@@Z ; std::vector<std::shared_ptr<CContact>,std::allocator<std::shared_ptr<CContact> > >::push_back
PUBLIC	??1?$vector@V?$shared_ptr@VCContact@@@std@@V?$allocator@V?$shared_ptr@VCContact@@@std@@@2@@std@@QAE@XZ ; std::vector<std::shared_ptr<CContact>,std::allocator<std::shared_ptr<CContact> > >::~vector<std::shared_ptr<CContact>,std::allocator<std::shared_ptr<CContact> > >
PUBLIC	?capacity@?$vector@V?$shared_ptr@VCContact@@@std@@V?$allocator@V?$shared_ptr@VCContact@@@std@@@2@@std@@QBEIXZ ; std::vector<std::shared_ptr<CContact>,std::allocator<std::shared_ptr<CContact> > >::capacity
PUBLIC	?_Unused_capacity@?$vector@V?$shared_ptr@VCContact@@@std@@V?$allocator@V?$shared_ptr@VCContact@@@std@@@2@@std@@QBEIXZ ; std::vector<std::shared_ptr<CContact>,std::allocator<std::shared_ptr<CContact> > >::_Unused_capacity
PUBLIC	?begin@?$vector@V?$shared_ptr@VCContact@@@std@@V?$allocator@V?$shared_ptr@VCContact@@@std@@@2@@std@@QAE?AV?$_Vector_iterator@V?$_Vector_val@U?$_Simple_types@V?$shared_ptr@VCContact@@@std@@@std@@@std@@@2@XZ ; std::vector<std::shared_ptr<CContact>,std::allocator<std::shared_ptr<CContact> > >::begin
PUBLIC	?end@?$vector@V?$shared_ptr@VCContact@@@std@@V?$allocator@V?$shared_ptr@VCContact@@@std@@@2@@std@@QAE?AV?$_Vector_iterator@V?$_Vector_val@U?$_Simple_types@V?$shared_ptr@VCContact@@@std@@@std@@@std@@@2@XZ ; std::vector<std::shared_ptr<CContact>,std::allocator<std::shared_ptr<CContact> > >::end
PUBLIC	?_Make_iter@?$vector@V?$shared_ptr@VCContact@@@std@@V?$allocator@V?$shared_ptr@VCContact@@@std@@@2@@std@@QBE?AV?$_Vector_iterator@V?$_Vector_val@U?$_Simple_types@V?$shared_ptr@VCContact@@@std@@@std@@@std@@@2@V?$_Vector_const_iterator@V?$_Vector_val@U?$_Simple_types@V?$shared_ptr@VCContact@@@std@@@std@@@std@@@2@@Z ; std::vector<std::shared_ptr<CContact>,std::allocator<std::shared_ptr<CContact> > >::_Make_iter
PUBLIC	?size@?$vector@V?$shared_ptr@VCContact@@@std@@V?$allocator@V?$shared_ptr@VCContact@@@std@@@2@@std@@QBEIXZ ; std::vector<std::shared_ptr<CContact>,std::allocator<std::shared_ptr<CContact> > >::size
PUBLIC	?max_size@?$vector@V?$shared_ptr@VCContact@@@std@@V?$allocator@V?$shared_ptr@VCContact@@@std@@@2@@std@@QBEIXZ ; std::vector<std::shared_ptr<CContact>,std::allocator<std::shared_ptr<CContact> > >::max_size
PUBLIC	?push_back@?$vector@V?$shared_ptr@VCContact@@@std@@V?$allocator@V?$shared_ptr@VCContact@@@std@@@2@@std@@QAEXABV?$shared_ptr@VCContact@@@2@@Z ; std::vector<std::shared_ptr<CContact>,std::allocator<std::shared_ptr<CContact> > >::push_back
PUBLIC	?erase@?$vector@V?$shared_ptr@VCContact@@@std@@V?$allocator@V?$shared_ptr@VCContact@@@std@@@2@@std@@QAE?AV?$_Vector_iterator@V?$_Vector_val@U?$_Simple_types@V?$shared_ptr@VCContact@@@std@@@std@@@std@@@2@V?$_Vector_const_iterator@V?$_Vector_val@U?$_Simple_types@V?$shared_ptr@VCContact@@@std@@@std@@@std@@@2@@Z ; std::vector<std::shared_ptr<CContact>,std::allocator<std::shared_ptr<CContact> > >::erase
PUBLIC	?_Destroy@?$vector@V?$shared_ptr@VCContact@@@std@@V?$allocator@V?$shared_ptr@VCContact@@@std@@@2@@std@@IAEXPAV?$shared_ptr@VCContact@@@2@0@Z ; std::vector<std::shared_ptr<CContact>,std::allocator<std::shared_ptr<CContact> > >::_Destroy
PUBLIC	?_Grow_to@?$vector@V?$shared_ptr@VCContact@@@std@@V?$allocator@V?$shared_ptr@VCContact@@@std@@@2@@std@@IBEII@Z ; std::vector<std::shared_ptr<CContact>,std::allocator<std::shared_ptr<CContact> > >::_Grow_to
PUBLIC	?_Inside@?$vector@V?$shared_ptr@VCContact@@@std@@V?$allocator@V?$shared_ptr@VCContact@@@std@@@2@@std@@IBE_NPBV?$shared_ptr@VCContact@@@2@@Z ; std::vector<std::shared_ptr<CContact>,std::allocator<std::shared_ptr<CContact> > >::_Inside
PUBLIC	?_Reallocate@?$vector@V?$shared_ptr@VCContact@@@std@@V?$allocator@V?$shared_ptr@VCContact@@@std@@@2@@std@@IAEXI@Z ; std::vector<std::shared_ptr<CContact>,std::allocator<std::shared_ptr<CContact> > >::_Reallocate
PUBLIC	?_Reserve@?$vector@V?$shared_ptr@VCContact@@@std@@V?$allocator@V?$shared_ptr@VCContact@@@std@@@2@@std@@IAEXI@Z ; std::vector<std::shared_ptr<CContact>,std::allocator<std::shared_ptr<CContact> > >::_Reserve
PUBLIC	?_Tidy@?$vector@V?$shared_ptr@VCContact@@@std@@V?$allocator@V?$shared_ptr@VCContact@@@std@@@2@@std@@IAEXXZ ; std::vector<std::shared_ptr<CContact>,std::allocator<std::shared_ptr<CContact> > >::_Tidy
PUBLIC	?_Xlen@?$vector@V?$shared_ptr@VCContact@@@std@@V?$allocator@V?$shared_ptr@VCContact@@@std@@@2@@std@@IBEXXZ ; std::vector<std::shared_ptr<CContact>,std::allocator<std::shared_ptr<CContact> > >::_Xlen
PUBLIC	?_Orphan_range@?$vector@V?$shared_ptr@VCContact@@@std@@V?$allocator@V?$shared_ptr@VCContact@@@std@@@2@@std@@IBEXPAV?$shared_ptr@VCContact@@@2@0@Z ; std::vector<std::shared_ptr<CContact>,std::allocator<std::shared_ptr<CContact> > >::_Orphan_range
PUBLIC	??0?$_Iterator012@Urandom_access_iterator_tag@std@@V?$shared_ptr@VCContact@@@2@HPBV32@ABV32@U_Iterator_base12@2@@std@@QAE@XZ ; std::_Iterator012<std::random_access_iterator_tag,std::shared_ptr<CContact>,int,std::shared_ptr<CContact> const *,std::shared_ptr<CContact> const &,std::_Iterator_base12>::_Iterator012<std::random_access_iterator_tag,std::shared_ptr<CContact>,int,std::shared_ptr<CContact> const *,std::shared_ptr<CContact> const &,std::_Iterator_base12>
PUBLIC	??1?$_Iterator012@Urandom_access_iterator_tag@std@@V?$shared_ptr@VCContact@@@2@HPBV32@ABV32@U_Iterator_base12@2@@std@@QAE@XZ ; std::_Iterator012<std::random_access_iterator_tag,std::shared_ptr<CContact>,int,std::shared_ptr<CContact> const *,std::shared_ptr<CContact> const &,std::_Iterator_base12>::~_Iterator012<std::random_access_iterator_tag,std::shared_ptr<CContact>,int,std::shared_ptr<CContact> const *,std::shared_ptr<CContact> const &,std::_Iterator_base12>
PUBLIC	??0?$_Iterator012@Urandom_access_iterator_tag@std@@V?$shared_ptr@VCContact@@@2@HPBV32@ABV32@U_Iterator_base12@2@@std@@QAE@ABU01@@Z ; std::_Iterator012<std::random_access_iterator_tag,std::shared_ptr<CContact>,int,std::shared_ptr<CContact> const *,std::shared_ptr<CContact> const &,std::_Iterator_base12>::_Iterator012<std::random_access_iterator_tag,std::shared_ptr<CContact>,int,std::shared_ptr<CContact> const *,std::shared_ptr<CContact> const &,std::_Iterator_base12>
PUBLIC	??0?$_Iterator012@Urandom_access_iterator_tag@std@@V?$shared_ptr@VCContact@@@2@HPBV32@ABV32@U_Iterator_base12@2@@std@@QAE@$$QAU01@@Z ; std::_Iterator012<std::random_access_iterator_tag,std::shared_ptr<CContact>,int,std::shared_ptr<CContact> const *,std::shared_ptr<CContact> const &,std::_Iterator_base12>::_Iterator012<std::random_access_iterator_tag,std::shared_ptr<CContact>,int,std::shared_ptr<CContact> const *,std::shared_ptr<CContact> const &,std::_Iterator_base12>
PUBLIC	??4?$_Iterator012@Urandom_access_iterator_tag@std@@V?$shared_ptr@VCContact@@@2@HPBV32@ABV32@U_Iterator_base12@2@@std@@QAEAAU01@ABU01@@Z ; std::_Iterator012<std::random_access_iterator_tag,std::shared_ptr<CContact>,int,std::shared_ptr<CContact> const *,std::shared_ptr<CContact> const &,std::_Iterator_base12>::operator=
PUBLIC	??0?$_Vector_const_iterator@V?$_Vector_val@U?$_Simple_types@V?$shared_ptr@VCContact@@@std@@@std@@@std@@@std@@QAE@PAV?$shared_ptr@VCContact@@@1@PBU_Container_base12@1@@Z ; std::_Vector_const_iterator<std::_Vector_val<std::_Simple_types<std::shared_ptr<CContact> > > >::_Vector_const_iterator<std::_Vector_val<std::_Simple_types<std::shared_ptr<CContact> > > >
PUBLIC	??D?$_Vector_const_iterator@V?$_Vector_val@U?$_Simple_types@V?$shared_ptr@VCContact@@@std@@@std@@@std@@@std@@QBEABV?$shared_ptr@VCContact@@@1@XZ ; std::_Vector_const_iterator<std::_Vector_val<std::_Simple_types<std::shared_ptr<CContact> > > >::operator*
PUBLIC	??E?$_Vector_const_iterator@V?$_Vector_val@U?$_Simple_types@V?$shared_ptr@VCContact@@@std@@@std@@@std@@@std@@QAEAAV01@XZ ; std::_Vector_const_iterator<std::_Vector_val<std::_Simple_types<std::shared_ptr<CContact> > > >::operator++
PUBLIC	??Y?$_Vector_const_iterator@V?$_Vector_val@U?$_Simple_types@V?$shared_ptr@VCContact@@@std@@@std@@@std@@@std@@QAEAAV01@H@Z ; std::_Vector_const_iterator<std::_Vector_val<std::_Simple_types<std::shared_ptr<CContact> > > >::operator+=
PUBLIC	??8?$_Vector_const_iterator@V?$_Vector_val@U?$_Simple_types@V?$shared_ptr@VCContact@@@std@@@std@@@std@@@std@@QBE_NABV01@@Z ; std::_Vector_const_iterator<std::_Vector_val<std::_Simple_types<std::shared_ptr<CContact> > > >::operator==
PUBLIC	??9?$_Vector_const_iterator@V?$_Vector_val@U?$_Simple_types@V?$shared_ptr@VCContact@@@std@@@std@@@std@@@std@@QBE_NABV01@@Z ; std::_Vector_const_iterator<std::_Vector_val<std::_Simple_types<std::shared_ptr<CContact> > > >::operator!=
PUBLIC	?_Compat@?$_Vector_const_iterator@V?$_Vector_val@U?$_Simple_types@V?$shared_ptr@VCContact@@@std@@@std@@@std@@@std@@QBEXABV12@@Z ; std::_Vector_const_iterator<std::_Vector_val<std::_Simple_types<std::shared_ptr<CContact> > > >::_Compat
PUBLIC	??1?$_Vector_const_iterator@V?$_Vector_val@U?$_Simple_types@V?$shared_ptr@VCContact@@@std@@@std@@@std@@@std@@QAE@XZ ; std::_Vector_const_iterator<std::_Vector_val<std::_Simple_types<std::shared_ptr<CContact> > > >::~_Vector_const_iterator<std::_Vector_val<std::_Simple_types<std::shared_ptr<CContact> > > >
PUBLIC	??0?$_Vector_const_iterator@V?$_Vector_val@U?$_Simple_types@V?$shared_ptr@VCContact@@@std@@@std@@@std@@@std@@QAE@ABV01@@Z ; std::_Vector_const_iterator<std::_Vector_val<std::_Simple_types<std::shared_ptr<CContact> > > >::_Vector_const_iterator<std::_Vector_val<std::_Simple_types<std::shared_ptr<CContact> > > >
PUBLIC	??0?$_Vector_const_iterator@V?$_Vector_val@U?$_Simple_types@V?$shared_ptr@VCContact@@@std@@@std@@@std@@@std@@QAE@$$QAV01@@Z ; std::_Vector_const_iterator<std::_Vector_val<std::_Simple_types<std::shared_ptr<CContact> > > >::_Vector_const_iterator<std::_Vector_val<std::_Simple_types<std::shared_ptr<CContact> > > >
PUBLIC	??4?$_Vector_const_iterator@V?$_Vector_val@U?$_Simple_types@V?$shared_ptr@VCContact@@@std@@@std@@@std@@@std@@QAEAAV01@ABV01@@Z ; std::_Vector_const_iterator<std::_Vector_val<std::_Simple_types<std::shared_ptr<CContact> > > >::operator=
PUBLIC	??0?$_Vector_iterator@V?$_Vector_val@U?$_Simple_types@V?$shared_ptr@VCContact@@@std@@@std@@@std@@@std@@QAE@PAV?$shared_ptr@VCContact@@@1@PBU_Container_base12@1@@Z ; std::_Vector_iterator<std::_Vector_val<std::_Simple_types<std::shared_ptr<CContact> > > >::_Vector_iterator<std::_Vector_val<std::_Simple_types<std::shared_ptr<CContact> > > >
PUBLIC	??D?$_Vector_iterator@V?$_Vector_val@U?$_Simple_types@V?$shared_ptr@VCContact@@@std@@@std@@@std@@@std@@QBEAAV?$shared_ptr@VCContact@@@1@XZ ; std::_Vector_iterator<std::_Vector_val<std::_Simple_types<std::shared_ptr<CContact> > > >::operator*
PUBLIC	??E?$_Vector_iterator@V?$_Vector_val@U?$_Simple_types@V?$shared_ptr@VCContact@@@std@@@std@@@std@@@std@@QAEAAV01@XZ ; std::_Vector_iterator<std::_Vector_val<std::_Simple_types<std::shared_ptr<CContact> > > >::operator++
PUBLIC	??Y?$_Vector_iterator@V?$_Vector_val@U?$_Simple_types@V?$shared_ptr@VCContact@@@std@@@std@@@std@@@std@@QAEAAV01@H@Z ; std::_Vector_iterator<std::_Vector_val<std::_Simple_types<std::shared_ptr<CContact> > > >::operator+=
PUBLIC	??H?$_Vector_iterator@V?$_Vector_val@U?$_Simple_types@V?$shared_ptr@VCContact@@@std@@@std@@@std@@@std@@QBE?AV01@H@Z ; std::_Vector_iterator<std::_Vector_val<std::_Simple_types<std::shared_ptr<CContact> > > >::operator+
PUBLIC	??Z?$_Vector_iterator@V?$_Vector_val@U?$_Simple_types@V?$shared_ptr@VCContact@@@std@@@std@@@std@@@std@@QAEAAV01@H@Z ; std::_Vector_iterator<std::_Vector_val<std::_Simple_types<std::shared_ptr<CContact> > > >::operator-=
PUBLIC	??G?$_Vector_iterator@V?$_Vector_val@U?$_Simple_types@V?$shared_ptr@VCContact@@@std@@@std@@@std@@@std@@QBE?AV01@H@Z ; std::_Vector_iterator<std::_Vector_val<std::_Simple_types<std::shared_ptr<CContact> > > >::operator-
PUBLIC	??1?$_Vector_iterator@V?$_Vector_val@U?$_Simple_types@V?$shared_ptr@VCContact@@@std@@@std@@@std@@@std@@QAE@XZ ; std::_Vector_iterator<std::_Vector_val<std::_Simple_types<std::shared_ptr<CContact> > > >::~_Vector_iterator<std::_Vector_val<std::_Simple_types<std::shared_ptr<CContact> > > >
PUBLIC	??0?$_Vector_iterator@V?$_Vector_val@U?$_Simple_types@V?$shared_ptr@VCContact@@@std@@@std@@@std@@@std@@QAE@ABV01@@Z ; std::_Vector_iterator<std::_Vector_val<std::_Simple_types<std::shared_ptr<CContact> > > >::_Vector_iterator<std::_Vector_val<std::_Simple_types<std::shared_ptr<CContact> > > >
PUBLIC	??4?$_Vector_iterator@V?$_Vector_val@U?$_Simple_types@V?$shared_ptr@VCContact@@@std@@@std@@@std@@@std@@QAEAAV01@ABV01@@Z ; std::_Vector_iterator<std::_Vector_val<std::_Simple_types<std::shared_ptr<CContact> > > >::operator=
PUBLIC	??0?$_Ptr_base@VCContact@@@std@@QAE@XZ		; std::_Ptr_base<CContact>::_Ptr_base<CContact>
PUBLIC	??0?$_Ptr_base@VCContact@@@std@@QAE@$$QAV01@@Z	; std::_Ptr_base<CContact>::_Ptr_base<CContact>
PUBLIC	?_Swap@?$_Ptr_base@VCContact@@@std@@QAEXAAV12@@Z ; std::_Ptr_base<CContact>::_Swap
PUBLIC	?_Get@?$_Ptr_base@VCContact@@@std@@QBEPAVCContact@@XZ ; std::_Ptr_base<CContact>::_Get
PUBLIC	?_Decref@?$_Ptr_base@VCContact@@@std@@QAEXXZ	; std::_Ptr_base<CContact>::_Decref
PUBLIC	?_Reset@?$_Ptr_base@VCContact@@@std@@QAEXPAVCContact@@PAV_Ref_count_base@2@@Z ; std::_Ptr_base<CContact>::_Reset
PUBLIC	?_Reset0@?$_Ptr_base@VCContact@@@std@@QAEXPAVCContact@@PAV_Ref_count_base@2@@Z ; std::_Ptr_base<CContact>::_Reset0
PUBLIC	??0?$shared_ptr@VCContact@@@std@@QAE@ABV01@@Z	; std::shared_ptr<CContact>::shared_ptr<CContact>
PUBLIC	??0?$shared_ptr@VCContact@@@std@@QAE@$$QAV01@@Z	; std::shared_ptr<CContact>::shared_ptr<CContact>
PUBLIC	??4?$shared_ptr@VCContact@@@std@@QAEAAV01@$$QAV01@@Z ; std::shared_ptr<CContact>::operator=
PUBLIC	??1?$shared_ptr@VCContact@@@std@@QAE@XZ		; std::shared_ptr<CContact>::~shared_ptr<CContact>
PUBLIC	??4?$shared_ptr@VCContact@@@std@@QAEAAV01@ABV01@@Z ; std::shared_ptr<CContact>::operator=
PUBLIC	?swap@?$shared_ptr@VCContact@@@std@@QAEXAAV12@@Z ; std::shared_ptr<CContact>::swap
PUBLIC	??D?$shared_ptr@VCContact@@@std@@QBEAAVCContact@@XZ ; std::shared_ptr<CContact>::operator*
PUBLIC	??C?$shared_ptr@VCContact@@@std@@QBEPAVCContact@@XZ ; std::shared_ptr<CContact>::operator->
PUBLIC	??_G?$shared_ptr@VCContact@@@std@@QAEPAXI@Z	; std::shared_ptr<CContact>::`scalar deleting destructor'
PUBLIC	?updateContactLists@@YAXAAV?$vector@V?$shared_ptr@VCContact@@@std@@V?$allocator@V?$shared_ptr@VCContact@@@std@@@2@@std@@AAV?$basic_string@DU?$char_traits@D@std@@V?$allocator@D@2@@2@@Z ; updateContactLists
PUBLIC	??$?HDU?$char_traits@D@std@@V?$allocator@D@1@@std@@YA?AV?$basic_string@DU?$char_traits@D@std@@V?$allocator@D@2@@0@ABV10@PBD@Z ; std::operator+<char,std::char_traits<char>,std::allocator<char> >
PUBLIC	??0?$basic_ofstream@DU?$char_traits@D@std@@@std@@QAE@ABV?$basic_string@DU?$char_traits@D@std@@V?$allocator@D@2@@1@HH@Z ; std::basic_ofstream<char,std::char_traits<char> >::basic_ofstream<char,std::char_traits<char> >
PUBLIC	??1?$basic_ofstream@DU?$char_traits@D@std@@@std@@UAE@XZ ; std::basic_ofstream<char,std::char_traits<char> >::~basic_ofstream<char,std::char_traits<char> >
PUBLIC	??0?$basic_filebuf@DU?$char_traits@D@std@@@std@@QAE@PAU_iobuf@@@Z ; std::basic_filebuf<char,std::char_traits<char> >::basic_filebuf<char,std::char_traits<char> >
PUBLIC	??1?$basic_filebuf@DU?$char_traits@D@std@@@std@@UAE@XZ ; std::basic_filebuf<char,std::char_traits<char> >::~basic_filebuf<char,std::char_traits<char> >
PUBLIC	?open@?$basic_filebuf@DU?$char_traits@D@std@@@std@@QAEPAV12@PBDHH@Z ; std::basic_filebuf<char,std::char_traits<char> >::open
PUBLIC	?close@?$basic_filebuf@DU?$char_traits@D@std@@@std@@QAEPAV12@XZ ; std::basic_filebuf<char,std::char_traits<char> >::close
PUBLIC	?_Lock@?$basic_filebuf@DU?$char_traits@D@std@@@std@@UAEXXZ ; std::basic_filebuf<char,std::char_traits<char> >::_Lock
PUBLIC	?_Unlock@?$basic_filebuf@DU?$char_traits@D@std@@@std@@UAEXXZ ; std::basic_filebuf<char,std::char_traits<char> >::_Unlock
PUBLIC	?overflow@?$basic_filebuf@DU?$char_traits@D@std@@@std@@MAEHH@Z ; std::basic_filebuf<char,std::char_traits<char> >::overflow
PUBLIC	?pbackfail@?$basic_filebuf@DU?$char_traits@D@std@@@std@@MAEHH@Z ; std::basic_filebuf<char,std::char_traits<char> >::pbackfail
PUBLIC	?underflow@?$basic_filebuf@DU?$char_traits@D@std@@@std@@MAEHXZ ; std::basic_filebuf<char,std::char_traits<char> >::underflow
PUBLIC	?uflow@?$basic_filebuf@DU?$char_traits@D@std@@@std@@MAEHXZ ; std::basic_filebuf<char,std::char_traits<char> >::uflow
PUBLIC	?seekoff@?$basic_filebuf@DU?$char_traits@D@std@@@std@@MAE?AV?$fpos@U_Mbstatet@@@2@_JHH@Z ; std::basic_filebuf<char,std::char_traits<char> >::seekoff
PUBLIC	?seekpos@?$basic_filebuf@DU?$char_traits@D@std@@@std@@MAE?AV?$fpos@U_Mbstatet@@@2@V32@H@Z ; std::basic_filebuf<char,std::char_traits<char> >::seekpos
PUBLIC	?setbuf@?$basic_filebuf@DU?$char_traits@D@std@@@std@@MAEPAV?$basic_streambuf@DU?$char_traits@D@std@@@2@PAD_J@Z ; std::basic_filebuf<char,std::char_traits<char> >::setbuf
PUBLIC	?sync@?$basic_filebuf@DU?$char_traits@D@std@@@std@@MAEHXZ ; std::basic_filebuf<char,std::char_traits<char> >::sync
PUBLIC	?imbue@?$basic_filebuf@DU?$char_traits@D@std@@@std@@MAEXABVlocale@2@@Z ; std::basic_filebuf<char,std::char_traits<char> >::imbue
PUBLIC	?_Init@?$basic_filebuf@DU?$char_traits@D@std@@@std@@IAEXPAU_iobuf@@W4_Initfl@12@@Z ; std::basic_filebuf<char,std::char_traits<char> >::_Init
PUBLIC	?_Endwrite@?$basic_filebuf@DU?$char_traits@D@std@@@std@@IAE_NXZ ; std::basic_filebuf<char,std::char_traits<char> >::_Endwrite
PUBLIC	?_Initcvt@?$basic_filebuf@DU?$char_traits@D@std@@@std@@IAEXPBV?$codecvt@DDU_Mbstatet@@@2@@Z ; std::basic_filebuf<char,std::char_traits<char> >::_Initcvt
PUBLIC	?_Reset_back@?$basic_filebuf@DU?$char_traits@D@std@@@std@@AAEXXZ ; std::basic_filebuf<char,std::char_traits<char> >::_Reset_back
PUBLIC	?_Set_back@?$basic_filebuf@DU?$char_traits@D@std@@@std@@AAEXXZ ; std::basic_filebuf<char,std::char_traits<char> >::_Set_back
PUBLIC	??_G?$basic_filebuf@DU?$char_traits@D@std@@@std@@UAEPAXI@Z ; std::basic_filebuf<char,std::char_traits<char> >::`scalar deleting destructor'
PUBLIC	??_G?$basic_ofstream@DU?$char_traits@D@std@@@std@@UAEPAXI@Z ; std::basic_ofstream<char,std::char_traits<char> >::`scalar deleting destructor'
PUBLIC	??_D?$basic_ofstream@DU?$char_traits@D@std@@@std@@QAEXXZ ; std::basic_ofstream<char,std::char_traits<char> >::`vbase destructor'
PUBLIC	??$?8DU?$char_traits@D@std@@V?$allocator@D@1@@std@@YA_NABV?$basic_string@DU?$char_traits@D@std@@V?$allocator@D@2@@0@PBD@Z ; std::operator==<char,std::char_traits<char>,std::allocator<char> >
PUBLIC	??$?6VCContact@@@?$interface_oarchive@Vtext_oarchive@archive@boost@@@detail@archive@boost@@QAEAAVtext_oarchive@23@ABVCContact@@@Z ; boost::archive::detail::interface_oarchive<boost::archive::text_oarchive>::operator<<<CContact>
PUBLIC	?getContactList@@YAXPAV?$vector@V?$shared_ptr@VCContact@@@std@@V?$allocator@V?$shared_ptr@VCContact@@@std@@@2@@std@@AAV?$basic_string@DU?$char_traits@D@std@@V?$allocator@D@2@@2@@Z ; getContactList
PUBLIC	??0?$basic_ifstream@DU?$char_traits@D@std@@@std@@QAE@ABV?$basic_string@DU?$char_traits@D@std@@V?$allocator@D@2@@1@HH@Z ; std::basic_ifstream<char,std::char_traits<char> >::basic_ifstream<char,std::char_traits<char> >
PUBLIC	??1?$basic_ifstream@DU?$char_traits@D@std@@@std@@UAE@XZ ; std::basic_ifstream<char,std::char_traits<char> >::~basic_ifstream<char,std::char_traits<char> >
PUBLIC	??_G?$basic_ifstream@DU?$char_traits@D@std@@@std@@UAEPAXI@Z ; std::basic_ifstream<char,std::char_traits<char> >::`scalar deleting destructor'
PUBLIC	??_D?$basic_ifstream@DU?$char_traits@D@std@@@std@@QAEXXZ ; std::basic_ifstream<char,std::char_traits<char> >::`vbase destructor'
PUBLIC	??$make_shared@VCCompany@@_N@std@@YA?AV?$shared_ptr@VCCompany@@@0@$$QA_N@Z ; std::make_shared<CCompany,bool>
PUBLIC	??0?$_Ptr_base@VCCompany@@@std@@QAE@XZ		; std::_Ptr_base<CCompany>::_Ptr_base<CCompany>
PUBLIC	??0?$_Ptr_base@VCCompany@@@std@@QAE@$$QAV01@@Z	; std::_Ptr_base<CCompany>::_Ptr_base<CCompany>
PUBLIC	?_Decref@?$_Ptr_base@VCCompany@@@std@@QAEXXZ	; std::_Ptr_base<CCompany>::_Decref
PUBLIC	?_Reset0@?$_Ptr_base@VCCompany@@@std@@QAEXPAVCCompany@@PAV_Ref_count_base@2@@Z ; std::_Ptr_base<CCompany>::_Reset0
PUBLIC	??0?$shared_ptr@VCCompany@@@std@@QAE@XZ		; std::shared_ptr<CCompany>::shared_ptr<CCompany>
PUBLIC	??0?$shared_ptr@VCCompany@@@std@@QAE@$$QAV01@@Z	; std::shared_ptr<CCompany>::shared_ptr<CCompany>
PUBLIC	??1?$shared_ptr@VCCompany@@@std@@QAE@XZ		; std::shared_ptr<CCompany>::~shared_ptr<CCompany>
PUBLIC	??$?0VCCompany@@X@?$shared_ptr@VCContact@@@std@@QAE@$$QAV?$shared_ptr@VCCompany@@@1@@Z ; std::shared_ptr<CContact>::shared_ptr<CContact><CCompany,void>
PUBLIC	??$?5VCContact@@@?$interface_iarchive@Vtext_iarchive@archive@boost@@@detail@archive@boost@@QAEAAVtext_iarchive@23@AAVCContact@@@Z ; boost::archive::detail::interface_iarchive<boost::archive::text_iarchive>::operator>><CContact>
PUBLIC	??$make_shared@VCPerson@@_N@std@@YA?AV?$shared_ptr@VCPerson@@@0@$$QA_N@Z ; std::make_shared<CPerson,bool>
PUBLIC	??0?$_Ptr_base@VCPerson@@@std@@QAE@XZ		; std::_Ptr_base<CPerson>::_Ptr_base<CPerson>
PUBLIC	??0?$_Ptr_base@VCPerson@@@std@@QAE@$$QAV01@@Z	; std::_Ptr_base<CPerson>::_Ptr_base<CPerson>
PUBLIC	?_Decref@?$_Ptr_base@VCPerson@@@std@@QAEXXZ	; std::_Ptr_base<CPerson>::_Decref
PUBLIC	?_Reset0@?$_Ptr_base@VCPerson@@@std@@QAEXPAVCPerson@@PAV_Ref_count_base@2@@Z ; std::_Ptr_base<CPerson>::_Reset0
PUBLIC	??0?$shared_ptr@VCPerson@@@std@@QAE@XZ		; std::shared_ptr<CPerson>::shared_ptr<CPerson>
PUBLIC	??0?$shared_ptr@VCPerson@@@std@@QAE@$$QAV01@@Z	; std::shared_ptr<CPerson>::shared_ptr<CPerson>
PUBLIC	??1?$shared_ptr@VCPerson@@@std@@QAE@XZ		; std::shared_ptr<CPerson>::~shared_ptr<CPerson>
PUBLIC	??$?0VCPerson@@X@?$shared_ptr@VCContact@@@std@@QAE@$$QAV?$shared_ptr@VCPerson@@@1@@Z ; std::shared_ptr<CContact>::shared_ptr<CContact><CPerson,void>
PUBLIC	_main
PUBLIC	??$?0A6AXPAV?$vector@V?$shared_ptr@VCContact@@@std@@V?$allocator@V?$shared_ptr@VCContact@@@std@@@2@@std@@AAV?$basic_string@DU?$char_traits@D@std@@V?$allocator@D@2@@1@@ZPAV01@AAV21@X@thread@std@@QAE@A6AXPAV?$vector@V?$shared_ptr@VCContact@@@std@@V?$allocator@V?$shared_ptr@VCContact@@@std@@@2@@1@AAV?$basic_string@DU?$char_traits@D@std@@V?$allocator@D@2@@1@@Z$$QAPAV21@1@Z ; std::thread::thread<void (__cdecl&)(std::vector<std::shared_ptr<CContact>,std::allocator<std::shared_ptr<CContact> > > *,std::basic_string<char,std::char_traits<char>,std::allocator<char> > &),std::vector<std::shared_ptr<CContact>,std::allocator<std::shared_ptr<CContact> > > *,std::basic_string<char,std::char_traits<char>,std::allocator<char> > &,void>
PUBLIC	??$make_shared@VCPerson@@$$V@std@@YA?AV?$shared_ptr@VCPerson@@@0@XZ ; std::make_shared<CPerson>
PUBLIC	??$make_shared@VCCompany@@$$V@std@@YA?AV?$shared_ptr@VCCompany@@@0@XZ ; std::make_shared<CCompany>
PUBLIC	??$?6U?$char_traits@D@std@@@std@@YAAAV?$basic_ostream@DU?$char_traits@D@std@@@0@AAV10@PBD@Z ; std::operator<<<std::char_traits<char> >
PUBLIC	??$endl@DU?$char_traits@D@std@@@std@@YAAAV?$basic_ostream@DU?$char_traits@D@std@@@0@AAV10@@Z ; std::endl<char,std::char_traits<char> >
PUBLIC	??$getline@DU?$char_traits@D@std@@V?$allocator@D@2@@std@@YAAAV?$basic_istream@DU?$char_traits@D@std@@@0@AAV10@AAV?$basic_string@DU?$char_traits@D@std@@V?$allocator@D@2@@0@@Z ; std::getline<char,std::char_traits<char>,std::allocator<char> >
PUBLIC	??$_Move_unchecked@PAV?$shared_ptr@VCContact@@@std@@PAV12@@std@@YAPAV?$shared_ptr@VCContact@@@0@PAV10@00@Z ; std::_Move_unchecked<std::shared_ptr<CContact> *,std::shared_ptr<CContact> *>
PUBLIC	??$addressof@$$CBV?$shared_ptr@VCContact@@@std@@@std@@YAPBV?$shared_ptr@VCContact@@@0@ABV10@@Z ; std::addressof<std::shared_ptr<CContact> const >
PUBLIC	??$_Unfancy@V?$shared_ptr@VCContact@@@std@@@std@@YAPAV?$shared_ptr@VCContact@@@0@PAV10@@Z ; std::_Unfancy<std::shared_ptr<CContact> >
PUBLIC	??$construct@V?$shared_ptr@VCContact@@@std@@AAV12@@?$_Wrap_alloc@V?$allocator@V?$shared_ptr@VCContact@@@std@@@std@@@std@@QAEXPAV?$shared_ptr@VCContact@@@1@AAV21@@Z ; std::_Wrap_alloc<std::allocator<std::shared_ptr<CContact> > >::construct<std::shared_ptr<CContact>,std::shared_ptr<CContact> &>
PUBLIC	??$construct@V?$shared_ptr@VCContact@@@std@@ABV12@@?$_Wrap_alloc@V?$allocator@V?$shared_ptr@VCContact@@@std@@@std@@@std@@QAEXPAV?$shared_ptr@VCContact@@@1@ABV21@@Z ; std::_Wrap_alloc<std::allocator<std::shared_ptr<CContact> > >::construct<std::shared_ptr<CContact>,std::shared_ptr<CContact> const &>
PUBLIC	??$addressof@V?$shared_ptr@VCContact@@@std@@@std@@YAPAV?$shared_ptr@VCContact@@@0@AAV10@@Z ; std::addressof<std::shared_ptr<CContact> >
PUBLIC	??$forward@V?$shared_ptr@VCContact@@@std@@@std@@YA$$QAV?$shared_ptr@VCContact@@@0@AAV10@@Z ; std::forward<std::shared_ptr<CContact> >
PUBLIC	??$construct@V?$shared_ptr@VCContact@@@std@@V12@@?$_Wrap_alloc@V?$allocator@V?$shared_ptr@VCContact@@@std@@@std@@@std@@QAEXPAV?$shared_ptr@VCContact@@@1@$$QAV21@@Z ; std::_Wrap_alloc<std::allocator<std::shared_ptr<CContact> > >::construct<std::shared_ptr<CContact>,std::shared_ptr<CContact> >
PUBLIC	??$_Reset@VCContact@@@?$_Ptr_base@VCContact@@@std@@QAEXABV01@@Z ; std::_Ptr_base<CContact>::_Reset<CContact>
PUBLIC	??$?6Utracking_type@archive@boost@@@?$interface_oarchive@Vtext_oarchive@archive@boost@@@detail@archive@boost@@QAEAAVtext_oarchive@23@ABUtracking_type@23@@Z ; boost::archive::detail::interface_oarchive<boost::archive::text_oarchive>::operator<<<boost::archive::tracking_type>
PUBLIC	??$?6Uclass_name_type@archive@boost@@@?$interface_oarchive@Vtext_oarchive@archive@boost@@@detail@archive@boost@@QAEAAVtext_oarchive@23@ABUclass_name_type@23@@Z ; boost::archive::detail::interface_oarchive<boost::archive::text_oarchive>::operator<<<boost::archive::class_name_type>
PUBLIC	??$?6Vclass_id_optional_type@archive@boost@@@?$interface_oarchive@Vtext_oarchive@archive@boost@@@detail@archive@boost@@QAEAAVtext_oarchive@23@ABVclass_id_optional_type@23@@Z ; boost::archive::detail::interface_oarchive<boost::archive::text_oarchive>::operator<<<boost::archive::class_id_optional_type>
PUBLIC	??$?6Vclass_id_reference_type@archive@boost@@@?$interface_oarchive@Vtext_oarchive@archive@boost@@@detail@archive@boost@@QAEAAVtext_oarchive@23@ABVclass_id_reference_type@23@@Z ; boost::archive::detail::interface_oarchive<boost::archive::text_oarchive>::operator<<<boost::archive::class_id_reference_type>
PUBLIC	??$?6Vclass_id_type@archive@boost@@@?$interface_oarchive@Vtext_oarchive@archive@boost@@@detail@archive@boost@@QAEAAVtext_oarchive@23@ABVclass_id_type@23@@Z ; boost::archive::detail::interface_oarchive<boost::archive::text_oarchive>::operator<<<boost::archive::class_id_type>
PUBLIC	??$?6Vobject_reference_type@archive@boost@@@?$interface_oarchive@Vtext_oarchive@archive@boost@@@detail@archive@boost@@QAEAAVtext_oarchive@23@ABVobject_reference_type@23@@Z ; boost::archive::detail::interface_oarchive<boost::archive::text_oarchive>::operator<<<boost::archive::object_reference_type>
PUBLIC	??$?6Vobject_id_type@archive@boost@@@?$interface_oarchive@Vtext_oarchive@archive@boost@@@detail@archive@boost@@QAEAAVtext_oarchive@23@ABVobject_id_type@23@@Z ; boost::archive::detail::interface_oarchive<boost::archive::text_oarchive>::operator<<<boost::archive::object_id_type>
PUBLIC	??$?6Vversion_type@archive@boost@@@?$interface_oarchive@Vtext_oarchive@archive@boost@@@detail@archive@boost@@QAEAAVtext_oarchive@23@ABVversion_type@23@@Z ; boost::archive::detail::interface_oarchive<boost::archive::text_oarchive>::operator<<<boost::archive::version_type>
PUBLIC	??$?5Uclass_name_type@archive@boost@@@?$interface_iarchive@Vtext_iarchive@archive@boost@@@detail@archive@boost@@QAEAAVtext_iarchive@23@AAUclass_name_type@23@@Z ; boost::archive::detail::interface_iarchive<boost::archive::text_iarchive>::operator>><boost::archive::class_name_type>
PUBLIC	??$?5Utracking_type@archive@boost@@@?$interface_iarchive@Vtext_iarchive@archive@boost@@@detail@archive@boost@@QAEAAVtext_iarchive@23@AAUtracking_type@23@@Z ; boost::archive::detail::interface_iarchive<boost::archive::text_iarchive>::operator>><boost::archive::tracking_type>
PUBLIC	??$?5Vclass_id_optional_type@archive@boost@@@?$interface_iarchive@Vtext_iarchive@archive@boost@@@detail@archive@boost@@QAEAAVtext_iarchive@23@AAVclass_id_optional_type@23@@Z ; boost::archive::detail::interface_iarchive<boost::archive::text_iarchive>::operator>><boost::archive::class_id_optional_type>
PUBLIC	??$?5Vclass_id_type@archive@boost@@@?$interface_iarchive@Vtext_iarchive@archive@boost@@@detail@archive@boost@@QAEAAVtext_iarchive@23@AAVclass_id_type@23@@Z ; boost::archive::detail::interface_iarchive<boost::archive::text_iarchive>::operator>><boost::archive::class_id_type>
PUBLIC	??$?5Vobject_id_type@archive@boost@@@?$interface_iarchive@Vtext_iarchive@archive@boost@@@detail@archive@boost@@QAEAAVtext_iarchive@23@AAVobject_id_type@23@@Z ; boost::archive::detail::interface_iarchive<boost::archive::text_iarchive>::operator>><boost::archive::object_id_type>
PUBLIC	??$?5Vversion_type@archive@boost@@@?$interface_iarchive@Vtext_iarchive@archive@boost@@@detail@archive@boost@@QAEAAVtext_iarchive@23@AAVversion_type@23@@Z ; boost::archive::detail::interface_iarchive<boost::archive::text_iarchive>::operator>><boost::archive::version_type>
PUBLIC	??0?$_Iterator012@Urandom_access_iterator_tag@std@@DHPBDABDU_Iterator_base12@2@@std@@QAE@XZ ; std::_Iterator012<std::random_access_iterator_tag,char,int,char const *,char const &,std::_Iterator_base12>::_Iterator012<std::random_access_iterator_tag,char,int,char const *,char const &,std::_Iterator_base12>
PUBLIC	??1?$_Iterator012@Urandom_access_iterator_tag@std@@DHPBDABDU_Iterator_base12@2@@std@@QAE@XZ ; std::_Iterator012<std::random_access_iterator_tag,char,int,char const *,char const &,std::_Iterator_base12>::~_Iterator012<std::random_access_iterator_tag,char,int,char const *,char const &,std::_Iterator_base12>
PUBLIC	??0?$_String_const_iterator@V?$_String_val@U?$_Simple_types@D@std@@@std@@@std@@QAE@PBDPBU_Container_base12@1@@Z ; std::_String_const_iterator<std::_String_val<std::_Simple_types<char> > >::_String_const_iterator<std::_String_val<std::_Simple_types<char> > >
PUBLIC	??D?$_String_const_iterator@V?$_String_val@U?$_Simple_types@D@std@@@std@@@std@@QBEABDXZ ; std::_String_const_iterator<std::_String_val<std::_Simple_types<char> > >::operator*
PUBLIC	??1?$_String_const_iterator@V?$_String_val@U?$_Simple_types@D@std@@@std@@@std@@QAE@XZ ; std::_String_const_iterator<std::_String_val<std::_Simple_types<char> > >::~_String_const_iterator<std::_String_val<std::_Simple_types<char> > >
PUBLIC	??0?$_String_iterator@V?$_String_val@U?$_Simple_types@D@std@@@std@@@std@@QAE@PADPBU_Container_base12@1@@Z ; std::_String_iterator<std::_String_val<std::_Simple_types<char> > >::_String_iterator<std::_String_val<std::_Simple_types<char> > >
PUBLIC	??D?$_String_iterator@V?$_String_val@U?$_Simple_types@D@std@@@std@@@std@@QBEAADXZ ; std::_String_iterator<std::_String_val<std::_Simple_types<char> > >::operator*
PUBLIC	??1?$_String_iterator@V?$_String_val@U?$_Simple_types@D@std@@@std@@@std@@QAE@XZ ; std::_String_iterator<std::_String_val<std::_Simple_types<char> > >::~_String_iterator<std::_String_val<std::_Simple_types<char> > >
PUBLIC	??$_Debug_pointer@$$CBD@std@@YAXPBDPB_WI@Z	; std::_Debug_pointer<char const >
PUBLIC	??$move@AAU?$_Wrap_alloc@V?$allocator@D@std@@@std@@@std@@YA$$QAU?$_Wrap_alloc@V?$allocator@D@std@@@0@AAU10@@Z ; std::move<std::_Wrap_alloc<std::allocator<char> > &>
PUBLIC	??$?0U?$_Wrap_alloc@V?$allocator@D@std@@@std@@X@?$_String_alloc@U?$_String_base_types@DV?$allocator@D@std@@@std@@@std@@QAE@$$QAU?$_Wrap_alloc@V?$allocator@D@std@@@1@@Z ; std::_String_alloc<std::_String_base_types<char,std::allocator<char> > >::_String_alloc<std::_String_base_types<char,std::allocator<char> > ><std::_Wrap_alloc<std::allocator<char> >,void>
PUBLIC	??$forward@V?$basic_string@DU?$char_traits@D@std@@V?$allocator@D@2@@std@@@std@@YA$$QAV?$basic_string@DU?$char_traits@D@std@@V?$allocator@D@2@@0@AAV10@@Z ; std::forward<std::basic_string<char,std::char_traits<char>,std::allocator<char> > >
PUBLIC	??0?$fpos@U_Mbstatet@@@std@@QAE@_J@Z		; std::fpos<_Mbstatet>::fpos<_Mbstatet>
PUBLIC	??0?$fpos@U_Mbstatet@@@std@@QAE@U_Mbstatet@@_J@Z ; std::fpos<_Mbstatet>::fpos<_Mbstatet>
PUBLIC	?state@?$fpos@U_Mbstatet@@@std@@QBE?AU_Mbstatet@@XZ ; std::fpos<_Mbstatet>::state
PUBLIC	?seekpos@?$fpos@U_Mbstatet@@@std@@QBE_JXZ	; std::fpos<_Mbstatet>::seekpos
PUBLIC	??B?$fpos@U_Mbstatet@@@std@@QBE_JXZ		; std::fpos<_Mbstatet>::operator __int64
PUBLIC	??$use_facet@V?$codecvt@DDU_Mbstatet@@@std@@@std@@YAABV?$codecvt@DDU_Mbstatet@@@0@ABVlocale@0@@Z ; std::use_facet<std::codecvt<char,char,_Mbstatet> >
PUBLIC	??$?0$$V@?$_Compressed_pair@U?$_Wrap_alloc@V?$allocator@V?$shared_ptr@VCContact@@@std@@@std@@@std@@V?$_Vector_val@U?$_Simple_types@V?$shared_ptr@VCContact@@@std@@@std@@@2@$00@std@@QAE@U_Zero_then_variadic_args_t@1@@Z ; std::_Compressed_pair<std::_Wrap_alloc<std::allocator<std::shared_ptr<CContact> > >,std::_Vector_val<std::_Simple_types<std::shared_ptr<CContact> > >,1>::_Compressed_pair<std::_Wrap_alloc<std::allocator<std::shared_ptr<CContact> > >,std::_Vector_val<std::_Simple_types<std::shared_ptr<CContact> > >,1><>
PUBLIC	??$_Destroy_range@V?$allocator@V?$shared_ptr@VCContact@@@std@@@std@@PAV?$shared_ptr@VCContact@@@2@@std@@YAXPAV?$shared_ptr@VCContact@@@0@0AAU?$_Wrap_alloc@V?$allocator@V?$shared_ptr@VCContact@@@std@@@std@@@0@@Z ; std::_Destroy_range<std::allocator<std::shared_ptr<CContact> >,std::shared_ptr<CContact> *>
PUBLIC	??$?0V?$allocator@D@std@@@?$_Wrap_alloc@V?$allocator@D@std@@@std@@QAE@$$QAV?$allocator@D@1@@Z ; std::_Wrap_alloc<std::allocator<char> >::_Wrap_alloc<std::allocator<char> ><std::allocator<char> >
PUBLIC	??$?0$$V@?$_Compressed_pair@U?$_Wrap_alloc@V?$allocator@D@std@@@std@@V?$_String_val@U?$_Simple_types@D@std@@@2@$00@std@@QAE@U_Zero_then_variadic_args_t@1@@Z ; std::_Compressed_pair<std::_Wrap_alloc<std::allocator<char> >,std::_String_val<std::_Simple_types<char> >,1>::_Compressed_pair<std::_Wrap_alloc<std::allocator<char> >,std::_String_val<std::_Simple_types<char> >,1><>
PUBLIC	??$addressof@PAD@std@@YAPAPADAAPAD@Z		; std::addressof<char *>
PUBLIC	??$destroy@PAD@?$_Wrap_alloc@V?$allocator@D@std@@@std@@QAEXPAPAD@Z ; std::_Wrap_alloc<std::allocator<char> >::destroy<char *>
PUBLIC	??$_Unfancy@D@std@@YAPADPAD@Z			; std::_Unfancy<char>
PUBLIC	??$_Debug_pointer_if@$$CBD@std@@YAX_NPBDPB_WI@Z	; std::_Debug_pointer_if<char const >
PUBLIC	??$construct@PADAAPAD@?$_Wrap_alloc@V?$allocator@D@std@@@std@@QAEXPAPADAAPAD@Z ; std::_Wrap_alloc<std::allocator<char> >::construct<char *,char * &>
PUBLIC	??$swap@PAV_Ref_count_base@std@@X@std@@YAXAAPAV_Ref_count_base@0@0@Z ; std::swap<std::_Ref_count_base *,void>
PUBLIC	??$swap@PAVCContact@@X@std@@YAXAAPAVCContact@@0@Z ; std::swap<CContact *,void>
PUBLIC	?deallocate@?$allocator@U_Container_proxy@std@@@std@@QAEXPAU_Container_proxy@2@I@Z ; std::allocator<std::_Container_proxy>::deallocate
PUBLIC	?allocate@?$allocator@U_Container_proxy@std@@@std@@QAEPAU_Container_proxy@2@I@Z ; std::allocator<std::_Container_proxy>::allocate
PUBLIC	?address@?$_Wrap_alloc@V?$allocator@U_Container_proxy@std@@@std@@@std@@QBEPAU_Container_proxy@2@AAU32@@Z ; std::_Wrap_alloc<std::allocator<std::_Container_proxy> >::address
PUBLIC	?allocate@?$_Wrap_alloc@V?$allocator@U_Container_proxy@std@@@std@@@std@@QAEPAU_Container_proxy@2@I@Z ; std::_Wrap_alloc<std::allocator<std::_Container_proxy> >::allocate
PUBLIC	?deallocate@?$_Wrap_alloc@V?$allocator@U_Container_proxy@std@@@std@@@std@@QAEXPAU_Container_proxy@2@I@Z ; std::_Wrap_alloc<std::allocator<std::_Container_proxy> >::deallocate
PUBLIC	??$?0AAU?$_Wrap_alloc@V?$allocator@V?$shared_ptr@VCContact@@@std@@@std@@@std@@@?$_Wrap_alloc@V?$allocator@U_Container_proxy@std@@@std@@@std@@QAE@AAU?$_Wrap_alloc@V?$allocator@V?$shared_ptr@VCContact@@@std@@@std@@@1@@Z ; std::_Wrap_alloc<std::allocator<std::_Container_proxy> >::_Wrap_alloc<std::allocator<std::_Container_proxy> ><std::_Wrap_alloc<std::allocator<std::shared_ptr<CContact> > > &>
PUBLIC	??$destroy@U_Container_proxy@std@@@?$_Wrap_alloc@V?$allocator@U_Container_proxy@std@@@std@@@std@@QAEXPAU_Container_proxy@1@@Z ; std::_Wrap_alloc<std::allocator<std::_Container_proxy> >::destroy<std::_Container_proxy>
PUBLIC	??$_Unfancy@U_Container_proxy@std@@@std@@YAPAU_Container_proxy@0@PAU10@@Z ; std::_Unfancy<std::_Container_proxy>
PUBLIC	??$construct@U_Container_proxy@std@@U12@@?$_Wrap_alloc@V?$allocator@U_Container_proxy@std@@@std@@@std@@QAEXPAU_Container_proxy@1@$$QAU21@@Z ; std::_Wrap_alloc<std::allocator<std::_Container_proxy> >::construct<std::_Container_proxy,std::_Container_proxy>
PUBLIC	??$_Umove@PAV?$shared_ptr@VCContact@@@std@@@?$vector@V?$shared_ptr@VCContact@@@std@@V?$allocator@V?$shared_ptr@VCContact@@@std@@@2@@std@@IAEPAV?$shared_ptr@VCContact@@@1@PAV21@00@Z ; std::vector<std::shared_ptr<CContact>,std::allocator<std::shared_ptr<CContact> > >::_Umove<std::shared_ptr<CContact> *>
PUBLIC	??$_Unfancy@$$CBD@std@@YAPBDPBD@Z		; std::_Unfancy<char const >
PUBLIC	?pointer_to@?$pointer_traits@PAD@std@@SAPADAAD@Z ; std::pointer_traits<char *>::pointer_to
PUBLIC	??$?0AAU?$_Wrap_alloc@V?$allocator@D@std@@@std@@@?$_Wrap_alloc@V?$allocator@U_Container_proxy@std@@@std@@@std@@QAE@AAU?$_Wrap_alloc@V?$allocator@D@std@@@1@@Z ; std::_Wrap_alloc<std::allocator<std::_Container_proxy> >::_Wrap_alloc<std::allocator<std::_Container_proxy> ><std::_Wrap_alloc<std::allocator<char> > &>
PUBLIC	??$addressof@D@std@@YAPADAAD@Z			; std::addressof<char>
PUBLIC	?pointer_to@?$pointer_traits@PAU_Container_proxy@std@@@std@@SAPAU_Container_proxy@2@AAU32@@Z ; std::pointer_traits<std::_Container_proxy *>::pointer_to
PUBLIC	??$addressof@U_Container_proxy@std@@@std@@YAPAU_Container_proxy@0@AAU10@@Z ; std::addressof<std::_Container_proxy>
PUBLIC	??$save_override@$$CBVCContact@@@?$basic_text_oarchive@Vtext_oarchive@archive@boost@@@archive@boost@@IAEXABVCContact@@@Z ; boost::archive::basic_text_oarchive<boost::archive::text_oarchive>::save_override<CContact const >
PUBLIC	?_Getptr@?$_Ref_count_obj@VCCompany@@@std@@QBEPAVCCompany@@XZ ; std::_Ref_count_obj<CCompany>::_Getptr
PUBLIC	?_Destroy@?$_Ref_count_obj@VCCompany@@@std@@EAEXXZ ; std::_Ref_count_obj<CCompany>::_Destroy
PUBLIC	?_Delete_this@?$_Ref_count_obj@VCCompany@@@std@@EAEXXZ ; std::_Ref_count_obj<CCompany>::_Delete_this
PUBLIC	??1?$_Ref_count_obj@VCCompany@@@std@@UAE@XZ	; std::_Ref_count_obj<CCompany>::~_Ref_count_obj<CCompany>
PUBLIC	??_G?$_Ref_count_obj@VCCompany@@@std@@UAEPAXI@Z	; std::_Ref_count_obj<CCompany>::`scalar deleting destructor'
PUBLIC	??$forward@_N@std@@YA$$QA_NAA_N@Z		; std::forward<bool>
PUBLIC	??$?0_N@?$_Ref_count_obj@VCCompany@@@std@@QAE@$$QA_N@Z ; std::_Ref_count_obj<CCompany>::_Ref_count_obj<CCompany><bool>
PUBLIC	??$_Resetp0@VCCompany@@@?$shared_ptr@VCCompany@@@std@@QAEXPAVCCompany@@PAV_Ref_count_base@1@@Z ; std::shared_ptr<CCompany>::_Resetp0<CCompany>
PUBLIC	??$move@AAV?$shared_ptr@VCCompany@@@std@@@std@@YA$$QAV?$shared_ptr@VCCompany@@@0@AAV10@@Z ; std::move<std::shared_ptr<CCompany> &>
PUBLIC	??$?0VCCompany@@@?$_Ptr_base@VCContact@@@std@@QAE@$$QAV?$_Ptr_base@VCCompany@@@1@@Z ; std::_Ptr_base<CContact>::_Ptr_base<CContact><CCompany>
PUBLIC	??$load_override@VCContact@@@?$text_iarchive_impl@Vtext_iarchive@archive@boost@@@archive@boost@@IAEXAAVCContact@@@Z ; boost::archive::text_iarchive_impl<boost::archive::text_iarchive>::load_override<CContact>
PUBLIC	?_Getptr@?$_Ref_count_obj@VCPerson@@@std@@QBEPAVCPerson@@XZ ; std::_Ref_count_obj<CPerson>::_Getptr
PUBLIC	?_Destroy@?$_Ref_count_obj@VCPerson@@@std@@EAEXXZ ; std::_Ref_count_obj<CPerson>::_Destroy
PUBLIC	?_Delete_this@?$_Ref_count_obj@VCPerson@@@std@@EAEXXZ ; std::_Ref_count_obj<CPerson>::_Delete_this
PUBLIC	??1?$_Ref_count_obj@VCPerson@@@std@@UAE@XZ	; std::_Ref_count_obj<CPerson>::~_Ref_count_obj<CPerson>
PUBLIC	??_G?$_Ref_count_obj@VCPerson@@@std@@UAEPAXI@Z	; std::_Ref_count_obj<CPerson>::`scalar deleting destructor'
PUBLIC	??$?0_N@?$_Ref_count_obj@VCPerson@@@std@@QAE@$$QA_N@Z ; std::_Ref_count_obj<CPerson>::_Ref_count_obj<CPerson><bool>
PUBLIC	??$_Resetp0@VCPerson@@@?$shared_ptr@VCPerson@@@std@@QAEXPAVCPerson@@PAV_Ref_count_base@1@@Z ; std::shared_ptr<CPerson>::_Resetp0<CPerson>
PUBLIC	??$move@AAV?$shared_ptr@VCPerson@@@std@@@std@@YA$$QAV?$shared_ptr@VCPerson@@@0@AAV10@@Z ; std::move<std::shared_ptr<CPerson> &>
PUBLIC	??$?0VCPerson@@@?$_Ptr_base@VCContact@@@std@@QAE@$$QAV?$_Ptr_base@VCPerson@@@1@@Z ; std::_Ptr_base<CContact>::_Ptr_base<CContact><CPerson>
PUBLIC	??$forward@A6AXPAV?$vector@V?$shared_ptr@VCContact@@@std@@V?$allocator@V?$shared_ptr@VCContact@@@std@@@2@@std@@AAV?$basic_string@DU?$char_traits@D@std@@V?$allocator@D@2@@2@@Z@std@@YAA6AXPAV?$vector@V?$shared_ptr@VCContact@@@std@@V?$allocator@V?$shared_ptr@VCContact@@@std@@@2@@0@AAV?$basic_string@DU?$char_traits@D@std@@V?$allocator@D@2@@0@@ZA6AX01@Z@Z ; std::forward<void (__cdecl&)(std::vector<std::shared_ptr<CContact>,std::allocator<std::shared_ptr<CContact> > > *,std::basic_string<char,std::char_traits<char>,std::allocator<char> > &)>
PUBLIC	??$forward@PAV?$vector@V?$shared_ptr@VCContact@@@std@@V?$allocator@V?$shared_ptr@VCContact@@@std@@@2@@std@@@std@@YA$$QAPAV?$vector@V?$shared_ptr@VCContact@@@std@@V?$allocator@V?$shared_ptr@VCContact@@@std@@@2@@0@AAPAV10@@Z ; std::forward<std::vector<std::shared_ptr<CContact>,std::allocator<std::shared_ptr<CContact> > > *>
PUBLIC	??$forward@AAV?$basic_string@DU?$char_traits@D@std@@V?$allocator@D@2@@std@@@std@@YAAAV?$basic_string@DU?$char_traits@D@std@@V?$allocator@D@2@@0@AAV10@@Z ; std::forward<std::basic_string<char,std::char_traits<char>,std::allocator<char> > &>
PUBLIC	??$make_unique@V?$tuple@P6AXPAV?$vector@V?$shared_ptr@VCContact@@@std@@V?$allocator@V?$shared_ptr@VCContact@@@std@@@2@@std@@AAV?$basic_string@DU?$char_traits@D@std@@V?$allocator@D@2@@2@@ZPAV12@V32@@std@@A6AXPAV?$vector@V?$shared_ptr@VCContact@@@std@@V?$allocator@V?$shared_ptr@VCContact@@@std@@@2@@2@AAV?$basic_string@DU?$char_traits@D@std@@V?$allocator@D@2@@2@@ZPAV32@AAV42@@std@@YA?AV?$unique_ptr@V?$tuple@P6AXPAV?$vector@V?$shared_ptr@VCContact@@@std@@V?$allocator@V?$shared_ptr@VCContact@@@std@@@2@@std@@AAV?$basic_string@DU?$char_traits@D@std@@V?$allocator@D@2@@2@@ZPAV12@V32@@std@@U?$default_delete@V?$tuple@P6AXPAV?$vector@V?$shared_ptr@VCContact@@@std@@V?$allocator@V?$shared_ptr@VCContact@@@std@@@2@@std@@AAV?$basic_string@DU?$char_traits@D@std@@V?$allocator@D@2@@2@@ZPAV12@V32@@std@@@2@@0@A6AXPAV?$vector@V?$shared_ptr@VCContact@@@std@@V?$allocator@V?$shared_ptr@VCContact@@@std@@@2@@0@AAV?$basic_string@DU?$char_traits@D@std@@V?$allocator@D@2@@0@@Z$$QAPAV20@1@Z ; std::make_unique<std::tuple<void (__cdecl*)(std::vector<std::shared_ptr<CContact>,std::allocator<std::shared_ptr<CContact> > > *,std::basic_string<char,std::char_traits<char>,std::allocator<char> > &),std::vector<std::shared_ptr<CContact>,std::allocator<std::shared_ptr<CContact> > > *,std::basic_string<char,std::char_traits<char>,std::allocator<char> > >,void (__cdecl&)(std::vector<std::shared_ptr<CContact>,std::allocator<std::shared_ptr<CContact> > > *,std::basic_string<char,std::char_traits<char>,std::allocator<char> > &),std::vector<std::shared_ptr<CContact>,std::allocator<std::shared_ptr<CContact> > > *,std::basic_string<char,std::char_traits<char>,std::allocator<char> > &>
PUBLIC	??R?$default_delete@V?$tuple@P6AXPAV?$vector@V?$shared_ptr@VCContact@@@std@@V?$allocator@V?$shared_ptr@VCContact@@@std@@@2@@std@@AAV?$basic_string@DU?$char_traits@D@std@@V?$allocator@D@2@@2@@ZPAV12@V32@@std@@@std@@QBEXPAV?$tuple@P6AXPAV?$vector@V?$shared_ptr@VCContact@@@std@@V?$allocator@V?$shared_ptr@VCContact@@@std@@@2@@std@@AAV?$basic_string@DU?$char_traits@D@std@@V?$allocator@D@2@@2@@ZPAV12@V32@@1@@Z ; std::default_delete<std::tuple<void (__cdecl*)(std::vector<std::shared_ptr<CContact>,std::allocator<std::shared_ptr<CContact> > > *,std::basic_string<char,std::char_traits<char>,std::allocator<char> > &),std::vector<std::shared_ptr<CContact>,std::allocator<std::shared_ptr<CContact> > > *,std::basic_string<char,std::char_traits<char>,std::allocator<char> > > >::operator()
PUBLIC	?get_deleter@?$_Unique_ptr_base@V?$tuple@P6AXPAV?$vector@V?$shared_ptr@VCContact@@@std@@V?$allocator@V?$shared_ptr@VCContact@@@std@@@2@@std@@AAV?$basic_string@DU?$char_traits@D@std@@V?$allocator@D@2@@2@@ZPAV12@V32@@std@@U?$default_delete@V?$tuple@P6AXPAV?$vector@V?$shared_ptr@VCContact@@@std@@V?$allocator@V?$shared_ptr@VCContact@@@std@@@2@@std@@AAV?$basic_string@DU?$char_traits@D@std@@V?$allocator@D@2@@2@@ZPAV12@V32@@std@@@2@@std@@QAEAAU?$default_delete@V?$tuple@P6AXPAV?$vector@V?$shared_ptr@VCContact@@@std@@V?$allocator@V?$shared_ptr@VCContact@@@std@@@2@@std@@AAV?$basic_string@DU?$char_traits@D@std@@V?$allocator@D@2@@2@@ZPAV12@V32@@std@@@2@XZ ; std::_Unique_ptr_base<std::tuple<void (__cdecl*)(std::vector<std::shared_ptr<CContact>,std::allocator<std::shared_ptr<CContact> > > *,std::basic_string<char,std::char_traits<char>,std::allocator<char> > &),std::vector<std::shared_ptr<CContact>,std::allocator<std::shared_ptr<CContact> > > *,std::basic_string<char,std::char_traits<char>,std::allocator<char> > >,std::default_delete<std::tuple<void (__cdecl*)(std::vector<std::shared_ptr<CContact>,std::allocator<std::shared_ptr<CContact> > > *,std::basic_string<char,std::char_traits<char>,std::allocator<char> > &),std::vector<std::shared_ptr<CContact>,std::allocator<std::shared_ptr<CContact> > > *,std::basic_string<char,std::char_traits<char>,std::allocator<char> > > > >::get_deleter
PUBLIC	?_Myptr@?$_Unique_ptr_base@V?$tuple@P6AXPAV?$vector@V?$shared_ptr@VCContact@@@std@@V?$allocator@V?$shared_ptr@VCContact@@@std@@@2@@std@@AAV?$basic_string@DU?$char_traits@D@std@@V?$allocator@D@2@@2@@ZPAV12@V32@@std@@U?$default_delete@V?$tuple@P6AXPAV?$vector@V?$shared_ptr@VCContact@@@std@@V?$allocator@V?$shared_ptr@VCContact@@@std@@@2@@std@@AAV?$basic_string@DU?$char_traits@D@std@@V?$allocator@D@2@@2@@ZPAV12@V32@@std@@@2@@std@@QAEAAPAV?$tuple@P6AXPAV?$vector@V?$shared_ptr@VCContact@@@std@@V?$allocator@V?$shared_ptr@VCContact@@@std@@@2@@std@@AAV?$basic_string@DU?$char_traits@D@std@@V?$allocator@D@2@@2@@ZPAV12@V32@@2@XZ ; std::_Unique_ptr_base<std::tuple<void (__cdecl*)(std::vector<std::shared_ptr<CContact>,std::allocator<std::shared_ptr<CContact> > > *,std::basic_string<char,std::char_traits<char>,std::allocator<char> > &),std::vector<std::shared_ptr<CContact>,std::allocator<std::shared_ptr<CContact> > > *,std::basic_string<char,std::char_traits<char>,std::allocator<char> > >,std::default_delete<std::tuple<void (__cdecl*)(std::vector<std::shared_ptr<CContact>,std::allocator<std::shared_ptr<CContact> > > *,std::basic_string<char,std::char_traits<char>,std::allocator<char> > &),std::vector<std::shared_ptr<CContact>,std::allocator<std::shared_ptr<CContact> > > *,std::basic_string<char,std::char_traits<char>,std::allocator<char> > > > >::_Myptr
PUBLIC	?_Myptr@?$_Unique_ptr_base@V?$tuple@P6AXPAV?$vector@V?$shared_ptr@VCContact@@@std@@V?$allocator@V?$shared_ptr@VCContact@@@std@@@2@@std@@AAV?$basic_string@DU?$char_traits@D@std@@V?$allocator@D@2@@2@@ZPAV12@V32@@std@@U?$default_delete@V?$tuple@P6AXPAV?$vector@V?$shared_ptr@VCContact@@@std@@V?$allocator@V?$shared_ptr@VCContact@@@std@@@2@@std@@AAV?$basic_string@DU?$char_traits@D@std@@V?$allocator@D@2@@2@@ZPAV12@V32@@std@@@2@@std@@QBEABQAV?$tuple@P6AXPAV?$vector@V?$shared_ptr@VCContact@@@std@@V?$allocator@V?$shared_ptr@VCContact@@@std@@@2@@std@@AAV?$basic_string@DU?$char_traits@D@std@@V?$allocator@D@2@@2@@ZPAV12@V32@@2@XZ ; std::_Unique_ptr_base<std::tuple<void (__cdecl*)(std::vector<std::shared_ptr<CContact>,std::allocator<std::shared_ptr<CContact> > > *,std::basic_string<char,std::char_traits<char>,std::allocator<char> > &),std::vector<std::shared_ptr<CContact>,std::allocator<std::shared_ptr<CContact> > > *,std::basic_string<char,std::char_traits<char>,std::allocator<char> > >,std::default_delete<std::tuple<void (__cdecl*)(std::vector<std::shared_ptr<CContact>,std::allocator<std::shared_ptr<CContact> > > *,std::basic_string<char,std::char_traits<char>,std::allocator<char> > &),std::vector<std::shared_ptr<CContact>,std::allocator<std::shared_ptr<CContact> > > *,std::basic_string<char,std::char_traits<char>,std::allocator<char> > > > >::_Myptr
PUBLIC	?_Get_first@?$_Compressed_pair@U?$default_delete@V?$tuple@P6AXPAV?$vector@V?$shared_ptr@VCContact@@@std@@V?$allocator@V?$shared_ptr@VCContact@@@std@@@2@@std@@AAV?$basic_string@DU?$char_traits@D@std@@V?$allocator@D@2@@2@@ZPAV12@V32@@std@@@std@@PAV?$tuple@P6AXPAV?$vector@V?$shared_ptr@VCContact@@@std@@V?$allocator@V?$shared_ptr@VCContact@@@std@@@2@@std@@AAV?$basic_string@DU?$char_traits@D@std@@V?$allocator@D@2@@2@@ZPAV12@V32@@2@$00@std@@QAEAAU?$default_delete@V?$tuple@P6AXPAV?$vector@V?$shared_ptr@VCContact@@@std@@V?$allocator@V?$shared_ptr@VCContact@@@std@@@2@@std@@AAV?$basic_string@DU?$char_traits@D@std@@V?$allocator@D@2@@2@@ZPAV12@V32@@std@@@2@XZ ; std::_Compressed_pair<std::default_delete<std::tuple<void (__cdecl*)(std::vector<std::shared_ptr<CContact>,std::allocator<std::shared_ptr<CContact> > > *,std::basic_string<char,std::char_traits<char>,std::allocator<char> > &),std::vector<std::shared_ptr<CContact>,std::allocator<std::shared_ptr<CContact> > > *,std::basic_string<char,std::char_traits<char>,std::allocator<char> > > >,std::tuple<void (__cdecl*)(std::vector<std::shared_ptr<CContact>,std::allocator<std::shared_ptr<CContact> > > *,std::basic_string<char,std::char_traits<char>,std::allocator<char> > &),std::vector<std::shared_ptr<CContact>,std::allocator<std::shared_ptr<CContact> > > *,std::basic_string<char,std::char_traits<char>,std::allocator<char> > > *,1>::_Get_first
PUBLIC	?_Get_second@?$_Compressed_pair@U?$default_delete@V?$tuple@P6AXPAV?$vector@V?$shared_ptr@VCContact@@@std@@V?$allocator@V?$shared_ptr@VCContact@@@std@@@2@@std@@AAV?$basic_string@DU?$char_traits@D@std@@V?$allocator@D@2@@2@@ZPAV12@V32@@std@@@std@@PAV?$tuple@P6AXPAV?$vector@V?$shared_ptr@VCContact@@@std@@V?$allocator@V?$shared_ptr@VCContact@@@std@@@2@@std@@AAV?$basic_string@DU?$char_traits@D@std@@V?$allocator@D@2@@2@@ZPAV12@V32@@2@$00@std@@QAEAAPAV?$tuple@P6AXPAV?$vector@V?$shared_ptr@VCContact@@@std@@V?$allocator@V?$shared_ptr@VCContact@@@std@@@2@@std@@AAV?$basic_string@DU?$char_traits@D@std@@V?$allocator@D@2@@2@@ZPAV12@V32@@2@XZ ; std::_Compressed_pair<std::default_delete<std::tuple<void (__cdecl*)(std::vector<std::shared_ptr<CContact>,std::allocator<std::shared_ptr<CContact> > > *,std::basic_string<char,std::char_traits<char>,std::allocator<char> > &),std::vector<std::shared_ptr<CContact>,std::allocator<std::shared_ptr<CContact> > > *,std::basic_string<char,std::char_traits<char>,std::allocator<char> > > >,std::tuple<void (__cdecl*)(std::vector<std::shared_ptr<CContact>,std::allocator<std::shared_ptr<CContact> > > *,std::basic_string<char,std::char_traits<char>,std::allocator<char> > &),std::vector<std::shared_ptr<CContact>,std::allocator<std::shared_ptr<CContact> > > *,std::basic_string<char,std::char_traits<char>,std::allocator<char> > > *,1>::_Get_second
PUBLIC	?_Get_second@?$_Compressed_pair@U?$default_delete@V?$tuple@P6AXPAV?$vector@V?$shared_ptr@VCContact@@@std@@V?$allocator@V?$shared_ptr@VCContact@@@std@@@2@@std@@AAV?$basic_string@DU?$char_traits@D@std@@V?$allocator@D@2@@2@@ZPAV12@V32@@std@@@std@@PAV?$tuple@P6AXPAV?$vector@V?$shared_ptr@VCContact@@@std@@V?$allocator@V?$shared_ptr@VCContact@@@std@@@2@@std@@AAV?$basic_string@DU?$char_traits@D@std@@V?$allocator@D@2@@2@@ZPAV12@V32@@2@$00@std@@QBEABQAV?$tuple@P6AXPAV?$vector@V?$shared_ptr@VCContact@@@std@@V?$allocator@V?$shared_ptr@VCContact@@@std@@@2@@std@@AAV?$basic_string@DU?$char_traits@D@std@@V?$allocator@D@2@@2@@ZPAV12@V32@@2@XZ ; std::_Compressed_pair<std::default_delete<std::tuple<void (__cdecl*)(std::vector<std::shared_ptr<CContact>,std::allocator<std::shared_ptr<CContact> > > *,std::basic_string<char,std::char_traits<char>,std::allocator<char> > &),std::vector<std::shared_ptr<CContact>,std::allocator<std::shared_ptr<CContact> > > *,std::basic_string<char,std::char_traits<char>,std::allocator<char> > > >,std::tuple<void (__cdecl*)(std::vector<std::shared_ptr<CContact>,std::allocator<std::shared_ptr<CContact> > > *,std::basic_string<char,std::char_traits<char>,std::allocator<char> > &),std::vector<std::shared_ptr<CContact>,std::allocator<std::shared_ptr<CContact> > > *,std::basic_string<char,std::char_traits<char>,std::allocator<char> > > *,1>::_Get_second
PUBLIC	??0?$unique_ptr@V?$tuple@P6AXPAV?$vector@V?$shared_ptr@VCContact@@@std@@V?$allocator@V?$shared_ptr@VCContact@@@std@@@2@@std@@AAV?$basic_string@DU?$char_traits@D@std@@V?$allocator@D@2@@2@@ZPAV12@V32@@std@@U?$default_delete@V?$tuple@P6AXPAV?$vector@V?$shared_ptr@VCContact@@@std@@V?$allocator@V?$shared_ptr@VCContact@@@std@@@2@@std@@AAV?$basic_string@DU?$char_traits@D@std@@V?$allocator@D@2@@2@@ZPAV12@V32@@std@@@2@@std@@QAE@PAV?$tuple@P6AXPAV?$vector@V?$shared_ptr@VCContact@@@std@@V?$allocator@V?$shared_ptr@VCContact@@@std@@@2@@std@@AAV?$basic_string@DU?$char_traits@D@std@@V?$allocator@D@2@@2@@ZPAV12@V32@@1@@Z ; std::unique_ptr<std::tuple<void (__cdecl*)(std::vector<std::shared_ptr<CContact>,std::allocator<std::shared_ptr<CContact> > > *,std::basic_string<char,std::char_traits<char>,std::allocator<char> > &),std::vector<std::shared_ptr<CContact>,std::allocator<std::shared_ptr<CContact> > > *,std::basic_string<char,std::char_traits<char>,std::allocator<char> > >,std::default_delete<std::tuple<void (__cdecl*)(std::vector<std::shared_ptr<CContact>,std::allocator<std::shared_ptr<CContact> > > *,std::basic_string<char,std::char_traits<char>,std::allocator<char> > &),std::vector<std::shared_ptr<CContact>,std::allocator<std::shared_ptr<CContact> > > *,std::basic_string<char,std::char_traits<char>,std::allocator<char> > > > >::unique_ptr<std::tuple<void (__cdecl*)(std::vector<std::shared_ptr<CContact>,std::allocator<std::shared_ptr<CContact> > > *,std::basic_string<char,std::char_traits<char>,std::allocator<char> > &),std::vector<std::shared_ptr<CContact>,std::allocator<std::shared_ptr<CContact> > > *,std::basic_string<char,std::char_traits<char>,std::allocator<char> > >,std::default_delete<std::tuple<void (__cdecl*)(std::vector<std::shared_ptr<CContact>,std::allocator<std::shared_ptr<CContact> > > *,std::basic_string<char,std::char_traits<char>,std::allocator<char> > &),std::vector<std::shared_ptr<CContact>,std::allocator<std::shared_ptr<CContact> > > *,std::basic_string<char,std::char_traits<char>,std::allocator<char> > > > >
PUBLIC	??0?$unique_ptr@V?$tuple@P6AXPAV?$vector@V?$shared_ptr@VCContact@@@std@@V?$allocator@V?$shared_ptr@VCContact@@@std@@@2@@std@@AAV?$basic_string@DU?$char_traits@D@std@@V?$allocator@D@2@@2@@ZPAV12@V32@@std@@U?$default_delete@V?$tuple@P6AXPAV?$vector@V?$shared_ptr@VCContact@@@std@@V?$allocator@V?$shared_ptr@VCContact@@@std@@@2@@std@@AAV?$basic_string@DU?$char_traits@D@std@@V?$allocator@D@2@@2@@ZPAV12@V32@@std@@@2@@std@@QAE@$$QAV01@@Z ; std::unique_ptr<std::tuple<void (__cdecl*)(std::vector<std::shared_ptr<CContact>,std::allocator<std::shared_ptr<CContact> > > *,std::basic_string<char,std::char_traits<char>,std::allocator<char> > &),std::vector<std::shared_ptr<CContact>,std::allocator<std::shared_ptr<CContact> > > *,std::basic_string<char,std::char_traits<char>,std::allocator<char> > >,std::default_delete<std::tuple<void (__cdecl*)(std::vector<std::shared_ptr<CContact>,std::allocator<std::shared_ptr<CContact> > > *,std::basic_string<char,std::char_traits<char>,std::allocator<char> > &),std::vector<std::shared_ptr<CContact>,std::allocator<std::shared_ptr<CContact> > > *,std::basic_string<char,std::char_traits<char>,std::allocator<char> > > > >::unique_ptr<std::tuple<void (__cdecl*)(std::vector<std::shared_ptr<CContact>,std::allocator<std::shared_ptr<CContact> > > *,std::basic_string<char,std::char_traits<char>,std::allocator<char> > &),std::vector<std::shared_ptr<CContact>,std::allocator<std::shared_ptr<CContact> > > *,std::basic_string<char,std::char_traits<char>,std::allocator<char> > >,std::default_delete<std::tuple<void (__cdecl*)(std::vector<std::shared_ptr<CContact>,std::allocator<std::shared_ptr<CContact> > > *,std::basic_string<char,std::char_traits<char>,std::allocator<char> > &),std::vector<std::shared_ptr<CContact>,std::allocator<std::shared_ptr<CContact> > > *,std::basic_string<char,std::char_traits<char>,std::allocator<char> > > > >
PUBLIC	??1?$unique_ptr@V?$tuple@P6AXPAV?$vector@V?$shared_ptr@VCContact@@@std@@V?$allocator@V?$shared_ptr@VCContact@@@std@@@2@@std@@AAV?$basic_string@DU?$char_traits@D@std@@V?$allocator@D@2@@2@@ZPAV12@V32@@std@@U?$default_delete@V?$tuple@P6AXPAV?$vector@V?$shared_ptr@VCContact@@@std@@V?$allocator@V?$shared_ptr@VCContact@@@std@@@2@@std@@AAV?$basic_string@DU?$char_traits@D@std@@V?$allocator@D@2@@2@@ZPAV12@V32@@std@@@2@@std@@QAE@XZ ; std::unique_ptr<std::tuple<void (__cdecl*)(std::vector<std::shared_ptr<CContact>,std::allocator<std::shared_ptr<CContact> > > *,std::basic_string<char,std::char_traits<char>,std::allocator<char> > &),std::vector<std::shared_ptr<CContact>,std::allocator<std::shared_ptr<CContact> > > *,std::basic_string<char,std::char_traits<char>,std::allocator<char> > >,std::default_delete<std::tuple<void (__cdecl*)(std::vector<std::shared_ptr<CContact>,std::allocator<std::shared_ptr<CContact> > > *,std::basic_string<char,std::char_traits<char>,std::allocator<char> > &),std::vector<std::shared_ptr<CContact>,std::allocator<std::shared_ptr<CContact> > > *,std::basic_string<char,std::char_traits<char>,std::allocator<char> > > > >::~unique_ptr<std::tuple<void (__cdecl*)(std::vector<std::shared_ptr<CContact>,std::allocator<std::shared_ptr<CContact> > > *,std::basic_string<char,std::char_traits<char>,std::allocator<char> > &),std::vector<std::shared_ptr<CContact>,std::allocator<std::shared_ptr<CContact> > > *,std::basic_string<char,std::char_traits<char>,std::allocator<char> > >,std::default_delete<std::tuple<void (__cdecl*)(std::vector<std::shared_ptr<CContact>,std::allocator<std::shared_ptr<CContact> > > *,std::basic_string<char,std::char_traits<char>,std::allocator<char> > &),std::vector<std::shared_ptr<CContact>,std::allocator<std::shared_ptr<CContact> > > *,std::basic_string<char,std::char_traits<char>,std::allocator<char> > > > >
PUBLIC	??D?$unique_ptr@V?$tuple@P6AXPAV?$vector@V?$shared_ptr@VCContact@@@std@@V?$allocator@V?$shared_ptr@VCContact@@@std@@@2@@std@@AAV?$basic_string@DU?$char_traits@D@std@@V?$allocator@D@2@@2@@ZPAV12@V32@@std@@U?$default_delete@V?$tuple@P6AXPAV?$vector@V?$shared_ptr@VCContact@@@std@@V?$allocator@V?$shared_ptr@VCContact@@@std@@@2@@std@@AAV?$basic_string@DU?$char_traits@D@std@@V?$allocator@D@2@@2@@ZPAV12@V32@@std@@@2@@std@@QBEAAV?$tuple@P6AXPAV?$vector@V?$shared_ptr@VCContact@@@std@@V?$allocator@V?$shared_ptr@VCContact@@@std@@@2@@std@@AAV?$basic_string@DU?$char_traits@D@std@@V?$allocator@D@2@@2@@ZPAV12@V32@@1@XZ ; std::unique_ptr<std::tuple<void (__cdecl*)(std::vector<std::shared_ptr<CContact>,std::allocator<std::shared_ptr<CContact> > > *,std::basic_string<char,std::char_traits<char>,std::allocator<char> > &),std::vector<std::shared_ptr<CContact>,std::allocator<std::shared_ptr<CContact> > > *,std::basic_string<char,std::char_traits<char>,std::allocator<char> > >,std::default_delete<std::tuple<void (__cdecl*)(std::vector<std::shared_ptr<CContact>,std::allocator<std::shared_ptr<CContact> > > *,std::basic_string<char,std::char_traits<char>,std::allocator<char> > &),std::vector<std::shared_ptr<CContact>,std::allocator<std::shared_ptr<CContact> > > *,std::basic_string<char,std::char_traits<char>,std::allocator<char> > > > >::operator*
PUBLIC	?get@?$unique_ptr@V?$tuple@P6AXPAV?$vector@V?$shared_ptr@VCContact@@@std@@V?$allocator@V?$shared_ptr@VCContact@@@std@@@2@@std@@AAV?$basic_string@DU?$char_traits@D@std@@V?$allocator@D@2@@2@@ZPAV12@V32@@std@@U?$default_delete@V?$tuple@P6AXPAV?$vector@V?$shared_ptr@VCContact@@@std@@V?$allocator@V?$shared_ptr@VCContact@@@std@@@2@@std@@AAV?$basic_string@DU?$char_traits@D@std@@V?$allocator@D@2@@2@@ZPAV12@V32@@std@@@2@@std@@QBEPAV?$tuple@P6AXPAV?$vector@V?$shared_ptr@VCContact@@@std@@V?$allocator@V?$shared_ptr@VCContact@@@std@@@2@@std@@AAV?$basic_string@DU?$char_traits@D@std@@V?$allocator@D@2@@2@@ZPAV12@V32@@2@XZ ; std::unique_ptr<std::tuple<void (__cdecl*)(std::vector<std::shared_ptr<CContact>,std::allocator<std::shared_ptr<CContact> > > *,std::basic_string<char,std::char_traits<char>,std::allocator<char> > &),std::vector<std::shared_ptr<CContact>,std::allocator<std::shared_ptr<CContact> > > *,std::basic_string<char,std::char_traits<char>,std::allocator<char> > >,std::default_delete<std::tuple<void (__cdecl*)(std::vector<std::shared_ptr<CContact>,std::allocator<std::shared_ptr<CContact> > > *,std::basic_string<char,std::char_traits<char>,std::allocator<char> > &),std::vector<std::shared_ptr<CContact>,std::allocator<std::shared_ptr<CContact> > > *,std::basic_string<char,std::char_traits<char>,std::allocator<char> > > > >::get
PUBLIC	?release@?$unique_ptr@V?$tuple@P6AXPAV?$vector@V?$shared_ptr@VCContact@@@std@@V?$allocator@V?$shared_ptr@VCContact@@@std@@@2@@std@@AAV?$basic_string@DU?$char_traits@D@std@@V?$allocator@D@2@@2@@ZPAV12@V32@@std@@U?$default_delete@V?$tuple@P6AXPAV?$vector@V?$shared_ptr@VCContact@@@std@@V?$allocator@V?$shared_ptr@VCContact@@@std@@@2@@std@@AAV?$basic_string@DU?$char_traits@D@std@@V?$allocator@D@2@@2@@ZPAV12@V32@@std@@@2@@std@@QAEPAV?$tuple@P6AXPAV?$vector@V?$shared_ptr@VCContact@@@std@@V?$allocator@V?$shared_ptr@VCContact@@@std@@@2@@std@@AAV?$basic_string@DU?$char_traits@D@std@@V?$allocator@D@2@@2@@ZPAV12@V32@@2@XZ ; std::unique_ptr<std::tuple<void (__cdecl*)(std::vector<std::shared_ptr<CContact>,std::allocator<std::shared_ptr<CContact> > > *,std::basic_string<char,std::char_traits<char>,std::allocator<char> > &),std::vector<std::shared_ptr<CContact>,std::allocator<std::shared_ptr<CContact> > > *,std::basic_string<char,std::char_traits<char>,std::allocator<char> > >,std::default_delete<std::tuple<void (__cdecl*)(std::vector<std::shared_ptr<CContact>,std::allocator<std::shared_ptr<CContact> > > *,std::basic_string<char,std::char_traits<char>,std::allocator<char> > &),std::vector<std::shared_ptr<CContact>,std::allocator<std::shared_ptr<CContact> > > *,std::basic_string<char,std::char_traits<char>,std::allocator<char> > > > >::release
PUBLIC	??1?$_Tuple_val@V?$basic_string@DU?$char_traits@D@std@@V?$allocator@D@2@@std@@@std@@QAE@XZ ; std::_Tuple_val<std::basic_string<char,std::char_traits<char>,std::allocator<char> > >::~_Tuple_val<std::basic_string<char,std::char_traits<char>,std::allocator<char> > >
PUBLIC	??1?$tuple@V?$basic_string@DU?$char_traits@D@std@@V?$allocator@D@2@@std@@@std@@QAE@XZ ; std::tuple<std::basic_string<char,std::char_traits<char>,std::allocator<char> > >::~tuple<std::basic_string<char,std::char_traits<char>,std::allocator<char> > >
PUBLIC	??1?$tuple@PAV?$vector@V?$shared_ptr@VCContact@@@std@@V?$allocator@V?$shared_ptr@VCContact@@@std@@@2@@std@@V?$basic_string@DU?$char_traits@D@std@@V?$allocator@D@2@@2@@std@@QAE@XZ ; std::tuple<std::vector<std::shared_ptr<CContact>,std::allocator<std::shared_ptr<CContact> > > *,std::basic_string<char,std::char_traits<char>,std::allocator<char> > >::~tuple<std::vector<std::shared_ptr<CContact>,std::allocator<std::shared_ptr<CContact> > > *,std::basic_string<char,std::char_traits<char>,std::allocator<char> > >
PUBLIC	??1?$tuple@P6AXPAV?$vector@V?$shared_ptr@VCContact@@@std@@V?$allocator@V?$shared_ptr@VCContact@@@std@@@2@@std@@AAV?$basic_string@DU?$char_traits@D@std@@V?$allocator@D@2@@2@@ZPAV12@V32@@std@@QAE@XZ ; std::tuple<void (__cdecl*)(std::vector<std::shared_ptr<CContact>,std::allocator<std::shared_ptr<CContact> > > *,std::basic_string<char,std::char_traits<char>,std::allocator<char> > &),std::vector<std::shared_ptr<CContact>,std::allocator<std::shared_ptr<CContact> > > *,std::basic_string<char,std::char_traits<char>,std::allocator<char> > >::~tuple<void (__cdecl*)(std::vector<std::shared_ptr<CContact>,std::allocator<std::shared_ptr<CContact> > > *,std::basic_string<char,std::char_traits<char>,std::allocator<char> > &),std::vector<std::shared_ptr<CContact>,std::allocator<std::shared_ptr<CContact> > > *,std::basic_string<char,std::char_traits<char>,std::allocator<char> > >
PUBLIC	??_G?$tuple@P6AXPAV?$vector@V?$shared_ptr@VCContact@@@std@@V?$allocator@V?$shared_ptr@VCContact@@@std@@@2@@std@@AAV?$basic_string@DU?$char_traits@D@std@@V?$allocator@D@2@@2@@ZPAV12@V32@@std@@QAEPAXI@Z ; std::tuple<void (__cdecl*)(std::vector<std::shared_ptr<CContact>,std::allocator<std::shared_ptr<CContact> > > *,std::basic_string<char,std::char_traits<char>,std::allocator<char> > &),std::vector<std::shared_ptr<CContact>,std::allocator<std::shared_ptr<CContact> > > *,std::basic_string<char,std::char_traits<char>,std::allocator<char> > >::`scalar deleting destructor'
PUBLIC	??$_Launch@V?$unique_ptr@V?$tuple@P6AXPAV?$vector@V?$shared_ptr@VCContact@@@std@@V?$allocator@V?$shared_ptr@VCContact@@@std@@@2@@std@@AAV?$basic_string@DU?$char_traits@D@std@@V?$allocator@D@2@@2@@ZPAV12@V32@@std@@U?$default_delete@V?$tuple@P6AXPAV?$vector@V?$shared_ptr@VCContact@@@std@@V?$allocator@V?$shared_ptr@VCContact@@@std@@@2@@std@@AAV?$basic_string@DU?$char_traits@D@std@@V?$allocator@D@2@@2@@ZPAV12@V32@@std@@@2@@std@@@std@@YAXPAU_Thrd_imp_t@@$$QAV?$unique_ptr@V?$tuple@P6AXPAV?$vector@V?$shared_ptr@VCContact@@@std@@V?$allocator@V?$shared_ptr@VCContact@@@std@@@2@@std@@AAV?$basic_string@DU?$char_traits@D@std@@V?$allocator@D@2@@2@@ZPAV12@V32@@std@@U?$default_delete@V?$tuple@P6AXPAV?$vector@V?$shared_ptr@VCContact@@@std@@V?$allocator@V?$shared_ptr@VCContact@@@std@@@2@@std@@AAV?$basic_string@DU?$char_traits@D@std@@V?$allocator@D@2@@2@@ZPAV12@V32@@std@@@2@@0@@Z ; std::_Launch<std::unique_ptr<std::tuple<void (__cdecl*)(std::vector<std::shared_ptr<CContact>,std::allocator<std::shared_ptr<CContact> > > *,std::basic_string<char,std::char_traits<char>,std::allocator<char> > &),std::vector<std::shared_ptr<CContact>,std::allocator<std::shared_ptr<CContact> > > *,std::basic_string<char,std::char_traits<char>,std::allocator<char> > >,std::default_delete<std::tuple<void (__cdecl*)(std::vector<std::shared_ptr<CContact>,std::allocator<std::shared_ptr<CContact> > > *,std::basic_string<char,std::char_traits<char>,std::allocator<char> > &),std::vector<std::shared_ptr<CContact>,std::allocator<std::shared_ptr<CContact> > > *,std::basic_string<char,std::char_traits<char>,std::allocator<char> > > > > >
PUBLIC	??$?0$$V@?$_Ref_count_obj@VCPerson@@@std@@QAE@XZ ; std::_Ref_count_obj<CPerson>::_Ref_count_obj<CPerson><>
PUBLIC	??$?0$$V@?$_Ref_count_obj@VCCompany@@@std@@QAE@XZ ; std::_Ref_count_obj<CCompany>::_Ref_count_obj<CCompany><>
PUBLIC	??0_Sentry_base@?$basic_ostream@DU?$char_traits@D@std@@@std@@QAE@AAV12@@Z ; std::basic_ostream<char,std::char_traits<char> >::_Sentry_base::_Sentry_base
PUBLIC	??1_Sentry_base@?$basic_ostream@DU?$char_traits@D@std@@@std@@QAE@XZ ; std::basic_ostream<char,std::char_traits<char> >::_Sentry_base::~_Sentry_base
PUBLIC	??0sentry@?$basic_ostream@DU?$char_traits@D@std@@@std@@QAE@AAV12@@Z ; std::basic_ostream<char,std::char_traits<char> >::sentry::sentry
PUBLIC	??1sentry@?$basic_ostream@DU?$char_traits@D@std@@@std@@QAE@XZ ; std::basic_ostream<char,std::char_traits<char> >::sentry::~sentry
PUBLIC	??Bsentry@?$basic_ostream@DU?$char_traits@D@std@@@std@@QBE_NXZ ; std::basic_ostream<char,std::char_traits<char> >::sentry::operator bool
PUBLIC	??$move@AAV?$basic_istream@DU?$char_traits@D@std@@@std@@@std@@YA$$QAV?$basic_istream@DU?$char_traits@D@std@@@0@AAV10@@Z ; std::move<std::basic_istream<char,std::char_traits<char> > &>
PUBLIC	??$getline@DU?$char_traits@D@std@@V?$allocator@D@2@@std@@YAAAV?$basic_istream@DU?$char_traits@D@std@@@0@$$QAV10@AAV?$basic_string@DU?$char_traits@D@std@@V?$allocator@D@2@@0@D@Z ; std::getline<char,std::char_traits<char>,std::allocator<char> >
PUBLIC	??$_Ptr_move_cat@V?$shared_ptr@VCContact@@@std@@V12@@std@@YA?AU_General_ptr_iterator_tag@0@ABQAV?$shared_ptr@VCContact@@@0@0@Z ; std::_Ptr_move_cat<std::shared_ptr<CContact>,std::shared_ptr<CContact> >
PUBLIC	??$_Move_unchecked1@PAV?$shared_ptr@VCContact@@@std@@PAV12@@std@@YAPAV?$shared_ptr@VCContact@@@0@PAV10@00U_General_ptr_iterator_tag@0@@Z ; std::_Move_unchecked1<std::shared_ptr<CContact> *,std::shared_ptr<CContact> *>
PUBLIC	??$forward@AAV?$shared_ptr@VCContact@@@std@@@std@@YAAAV?$shared_ptr@VCContact@@@0@AAV10@@Z ; std::forward<std::shared_ptr<CContact> &>
PUBLIC	??$construct@V?$shared_ptr@VCContact@@@std@@AAV12@@?$allocator_traits@V?$allocator@V?$shared_ptr@VCContact@@@std@@@std@@@std@@SAXAAV?$allocator@V?$shared_ptr@VCContact@@@std@@@1@PAV?$shared_ptr@VCContact@@@1@AAV31@@Z ; std::allocator_traits<std::allocator<std::shared_ptr<CContact> > >::construct<std::shared_ptr<CContact>,std::shared_ptr<CContact> &>
PUBLIC	??$forward@ABV?$shared_ptr@VCContact@@@std@@@std@@YAABV?$shared_ptr@VCContact@@@0@ABV10@@Z ; std::forward<std::shared_ptr<CContact> const &>
PUBLIC	??$construct@V?$shared_ptr@VCContact@@@std@@ABV12@@?$allocator_traits@V?$allocator@V?$shared_ptr@VCContact@@@std@@@std@@@std@@SAXAAV?$allocator@V?$shared_ptr@VCContact@@@std@@@1@PAV?$shared_ptr@VCContact@@@1@ABV31@@Z ; std::allocator_traits<std::allocator<std::shared_ptr<CContact> > >::construct<std::shared_ptr<CContact>,std::shared_ptr<CContact> const &>
PUBLIC	??$construct@V?$shared_ptr@VCContact@@@std@@V12@@?$allocator_traits@V?$allocator@V?$shared_ptr@VCContact@@@std@@@std@@@std@@SAXAAV?$allocator@V?$shared_ptr@VCContact@@@std@@@1@PAV?$shared_ptr@VCContact@@@1@$$QAV31@@Z ; std::allocator_traits<std::allocator<std::shared_ptr<CContact> > >::construct<std::shared_ptr<CContact>,std::shared_ptr<CContact> >
PUBLIC	??$save_override@$$CBUtracking_type@archive@boost@@@?$basic_text_oarchive@Vtext_oarchive@archive@boost@@@archive@boost@@IAEXABUtracking_type@12@@Z ; boost::archive::basic_text_oarchive<boost::archive::text_oarchive>::save_override<boost::archive::tracking_type const >
PUBLIC	??$save_override@$$CBVclass_id_reference_type@archive@boost@@@?$basic_text_oarchive@Vtext_oarchive@archive@boost@@@archive@boost@@IAEXABVclass_id_reference_type@12@@Z ; boost::archive::basic_text_oarchive<boost::archive::text_oarchive>::save_override<boost::archive::class_id_reference_type const >
PUBLIC	??$save_override@$$CBVclass_id_type@archive@boost@@@?$basic_text_oarchive@Vtext_oarchive@archive@boost@@@archive@boost@@IAEXABVclass_id_type@12@@Z ; boost::archive::basic_text_oarchive<boost::archive::text_oarchive>::save_override<boost::archive::class_id_type const >
PUBLIC	??$save_override@$$CBVobject_reference_type@archive@boost@@@?$basic_text_oarchive@Vtext_oarchive@archive@boost@@@archive@boost@@IAEXABVobject_reference_type@12@@Z ; boost::archive::basic_text_oarchive<boost::archive::text_oarchive>::save_override<boost::archive::object_reference_type const >
PUBLIC	??$save_override@$$CBVversion_type@archive@boost@@@?$basic_text_oarchive@Vtext_oarchive@archive@boost@@@archive@boost@@IAEXABVversion_type@12@@Z ; boost::archive::basic_text_oarchive<boost::archive::text_oarchive>::save_override<boost::archive::version_type const >
PUBLIC	??$load_override@Utracking_type@archive@boost@@@?$text_iarchive_impl@Vtext_iarchive@archive@boost@@@archive@boost@@IAEXAAUtracking_type@12@@Z ; boost::archive::text_iarchive_impl<boost::archive::text_iarchive>::load_override<boost::archive::tracking_type>
PUBLIC	??$load_override@Vclass_id_optional_type@archive@boost@@@?$text_iarchive_impl@Vtext_iarchive@archive@boost@@@archive@boost@@IAEXAAVclass_id_optional_type@12@@Z ; boost::archive::text_iarchive_impl<boost::archive::text_iarchive>::load_override<boost::archive::class_id_optional_type>
PUBLIC	??$load_override@Vclass_id_type@archive@boost@@@?$text_iarchive_impl@Vtext_iarchive@archive@boost@@@archive@boost@@IAEXAAVclass_id_type@12@@Z ; boost::archive::text_iarchive_impl<boost::archive::text_iarchive>::load_override<boost::archive::class_id_type>
PUBLIC	??$load_override@Vobject_id_type@archive@boost@@@?$text_iarchive_impl@Vtext_iarchive@archive@boost@@@archive@boost@@IAEXAAVobject_id_type@12@@Z ; boost::archive::text_iarchive_impl<boost::archive::text_iarchive>::load_override<boost::archive::object_id_type>
PUBLIC	??$load_override@Vversion_type@archive@boost@@@?$text_iarchive_impl@Vtext_iarchive@archive@boost@@@archive@boost@@IAEXAAVversion_type@12@@Z ; boost::archive::text_iarchive_impl<boost::archive::text_iarchive>::load_override<boost::archive::version_type>
PUBLIC	??$forward@U?$_Wrap_alloc@V?$allocator@D@std@@@std@@@std@@YA$$QAU?$_Wrap_alloc@V?$allocator@D@std@@@0@AAU10@@Z ; std::forward<std::_Wrap_alloc<std::allocator<char> > >
PUBLIC	??$?0U?$_Wrap_alloc@V?$allocator@D@std@@@std@@$$V@?$_Compressed_pair@U?$_Wrap_alloc@V?$allocator@D@std@@@std@@V?$_String_val@U?$_Simple_types@D@std@@@2@$00@std@@QAE@U_One_then_variadic_args_t@1@$$QAU?$_Wrap_alloc@V?$allocator@D@std@@@1@@Z ; std::_Compressed_pair<std::_Wrap_alloc<std::allocator<char> >,std::_String_val<std::_Simple_types<char> >,1>::_Compressed_pair<std::_Wrap_alloc<std::allocator<char> >,std::_String_val<std::_Simple_types<char> >,1><std::_Wrap_alloc<std::allocator<char> > >
PUBLIC	??$_Destroy_range1@V?$allocator@V?$shared_ptr@VCContact@@@std@@@std@@PAV?$shared_ptr@VCContact@@@2@@std@@YAXPAV?$shared_ptr@VCContact@@@0@0AAU?$_Wrap_alloc@V?$allocator@V?$shared_ptr@VCContact@@@std@@@std@@@0@U?$integral_constant@_N$0A@@0@@Z ; std::_Destroy_range1<std::allocator<std::shared_ptr<CContact> >,std::shared_ptr<CContact> *>
PUBLIC	??$forward@V?$allocator@D@std@@@std@@YA$$QAV?$allocator@D@0@AAV10@@Z ; std::forward<std::allocator<char> >
PUBLIC	??$destroy@PAD@?$allocator_traits@V?$allocator@D@std@@@std@@SAXAAV?$allocator@D@1@PAPAD@Z ; std::allocator_traits<std::allocator<char> >::destroy<char *>
PUBLIC	??$forward@AAPAD@std@@YAAAPADAAPAD@Z		; std::forward<char * &>
PUBLIC	??$construct@PADAAPAD@?$allocator_traits@V?$allocator@D@std@@@std@@SAXAAV?$allocator@D@1@PAPADAAPAD@Z ; std::allocator_traits<std::allocator<char> >::construct<char *,char * &>
PUBLIC	??$move@AAPAV_Ref_count_base@std@@@std@@YA$$QAPAV_Ref_count_base@0@AAPAV10@@Z ; std::move<std::_Ref_count_base * &>
PUBLIC	??$move@AAPAVCContact@@@std@@YA$$QAPAVCContact@@AAPAV1@@Z ; std::move<CContact * &>
PUBLIC	??$forward@AAU?$_Wrap_alloc@V?$allocator@V?$shared_ptr@VCContact@@@std@@@std@@@std@@@std@@YAAAU?$_Wrap_alloc@V?$allocator@V?$shared_ptr@VCContact@@@std@@@std@@@0@AAU10@@Z ; std::forward<std::_Wrap_alloc<std::allocator<std::shared_ptr<CContact> > > &>
PUBLIC	??$?0V?$shared_ptr@VCContact@@@std@@@?$allocator@U_Container_proxy@std@@@std@@QAE@ABV?$allocator@V?$shared_ptr@VCContact@@@std@@@1@@Z ; std::allocator<std::_Container_proxy>::allocator<std::_Container_proxy><std::shared_ptr<CContact> >
PUBLIC	??$destroy@U_Container_proxy@std@@@?$allocator_traits@V?$allocator@U_Container_proxy@std@@@std@@@std@@SAXAAV?$allocator@U_Container_proxy@std@@@1@PAU_Container_proxy@1@@Z ; std::allocator_traits<std::allocator<std::_Container_proxy> >::destroy<std::_Container_proxy>
PUBLIC	??$forward@U_Container_proxy@std@@@std@@YA$$QAU_Container_proxy@0@AAU10@@Z ; std::forward<std::_Container_proxy>
PUBLIC	??$construct@U_Container_proxy@std@@U12@@?$allocator_traits@V?$allocator@U_Container_proxy@std@@@std@@@std@@SAXAAV?$allocator@U_Container_proxy@std@@@1@PAU_Container_proxy@1@$$QAU31@@Z ; std::allocator_traits<std::allocator<std::_Container_proxy> >::construct<std::_Container_proxy,std::_Container_proxy>
PUBLIC	??$_Uninitialized_move@PAV?$shared_ptr@VCContact@@@std@@PAV12@V?$allocator@V?$shared_ptr@VCContact@@@std@@@2@@std@@YAPAV?$shared_ptr@VCContact@@@0@PAV10@00AAU?$_Wrap_alloc@V?$allocator@V?$shared_ptr@VCContact@@@std@@@std@@@0@@Z ; std::_Uninitialized_move<std::shared_ptr<CContact> *,std::shared_ptr<CContact> *,std::allocator<std::shared_ptr<CContact> > >
PUBLIC	??$forward@AAU?$_Wrap_alloc@V?$allocator@D@std@@@std@@@std@@YAAAU?$_Wrap_alloc@V?$allocator@D@std@@@0@AAU10@@Z ; std::forward<std::_Wrap_alloc<std::allocator<char> > &>
PUBLIC	??$?0D@?$allocator@U_Container_proxy@std@@@std@@QAE@ABV?$allocator@D@1@@Z ; std::allocator<std::_Container_proxy>::allocator<std::_Container_proxy><char>
PUBLIC	??$?6V?$basic_string@DU?$char_traits@D@std@@V?$allocator@D@2@@std@@@?$interface_oarchive@Vtext_oarchive@archive@boost@@@detail@archive@boost@@QAEAAVtext_oarchive@23@ABV?$basic_string@DU?$char_traits@D@std@@V?$allocator@D@2@@std@@@Z ; boost::archive::detail::interface_oarchive<boost::archive::text_oarchive>::operator<<<std::basic_string<char,std::char_traits<char>,std::allocator<char> > >
PUBLIC	??$save_override@$$CBVobject_id_type@archive@boost@@@?$common_oarchive@Vtext_oarchive@archive@boost@@@detail@archive@boost@@IAEXABVobject_id_type@23@@Z ; boost::archive::detail::common_oarchive<boost::archive::text_oarchive>::save_override<boost::archive::object_id_type const >
PUBLIC	??$save_override@$$CBVCContact@@@?$common_oarchive@Vtext_oarchive@archive@boost@@@detail@archive@boost@@IAEXABVCContact@@@Z ; boost::archive::detail::common_oarchive<boost::archive::text_oarchive>::save_override<CContact const >
PUBLIC	??$load_override@VCContact@@@?$basic_text_iarchive@Vtext_iarchive@archive@boost@@@archive@boost@@IAEXAAVCContact@@@Z ; boost::archive::basic_text_iarchive<boost::archive::text_iarchive>::load_override<CContact>
PUBLIC	??$?0A6AXPAV?$vector@V?$shared_ptr@VCContact@@@std@@V?$allocator@V?$shared_ptr@VCContact@@@std@@@2@@std@@AAV?$basic_string@DU?$char_traits@D@std@@V?$allocator@D@2@@1@@ZPAV01@AAV21@$0A@@?$tuple@P6AXPAV?$vector@V?$shared_ptr@VCContact@@@std@@V?$allocator@V?$shared_ptr@VCContact@@@std@@@2@@std@@AAV?$basic_string@DU?$char_traits@D@std@@V?$allocator@D@2@@2@@ZPAV12@V32@@std@@QAE@A6AXPAV?$vector@V?$shared_ptr@VCContact@@@std@@V?$allocator@V?$shared_ptr@VCContact@@@std@@@2@@1@AAV?$basic_string@DU?$char_traits@D@std@@V?$allocator@D@2@@1@@Z$$QAPAV21@1@Z ; std::tuple<void (__cdecl*)(std::vector<std::shared_ptr<CContact>,std::allocator<std::shared_ptr<CContact> > > *,std::basic_string<char,std::char_traits<char>,std::allocator<char> > &),std::vector<std::shared_ptr<CContact>,std::allocator<std::shared_ptr<CContact> > > *,std::basic_string<char,std::char_traits<char>,std::allocator<char> > >::tuple<void (__cdecl*)(std::vector<std::shared_ptr<CContact>,std::allocator<std::shared_ptr<CContact> > > *,std::basic_string<char,std::char_traits<char>,std::allocator<char> > &),std::vector<std::shared_ptr<CContact>,std::allocator<std::shared_ptr<CContact> > > *,std::basic_string<char,std::char_traits<char>,std::allocator<char> > ><void (__cdecl&)(std::vector<std::shared_ptr<CContact>,std::allocator<std::shared_ptr<CContact> > > *,std::basic_string<char,std::char_traits<char>,std::allocator<char> > &),std::vector<std::shared_ptr<CContact>,std::allocator<std::shared_ptr<CContact> > > *,std::basic_string<char,std::char_traits<char>,std::allocator<char> > &,0>
PUBLIC	??$forward@V?$unique_ptr@V?$tuple@P6AXPAV?$vector@V?$shared_ptr@VCContact@@@std@@V?$allocator@V?$shared_ptr@VCContact@@@std@@@2@@std@@AAV?$basic_string@DU?$char_traits@D@std@@V?$allocator@D@2@@2@@ZPAV12@V32@@std@@U?$default_delete@V?$tuple@P6AXPAV?$vector@V?$shared_ptr@VCContact@@@std@@V?$allocator@V?$shared_ptr@VCContact@@@std@@@2@@std@@AAV?$basic_string@DU?$char_traits@D@std@@V?$allocator@D@2@@2@@ZPAV12@V32@@std@@@2@@std@@@std@@YA$$QAV?$unique_ptr@V?$tuple@P6AXPAV?$vector@V?$shared_ptr@VCContact@@@std@@V?$allocator@V?$shared_ptr@VCContact@@@std@@@2@@std@@AAV?$basic_string@DU?$char_traits@D@std@@V?$allocator@D@2@@2@@ZPAV12@V32@@std@@U?$default_delete@V?$tuple@P6AXPAV?$vector@V?$shared_ptr@VCContact@@@std@@V?$allocator@V?$shared_ptr@VCContact@@@std@@@2@@std@@AAV?$basic_string@DU?$char_traits@D@std@@V?$allocator@D@2@@2@@ZPAV12@V32@@std@@@2@@0@AAV10@@Z ; std::forward<std::unique_ptr<std::tuple<void (__cdecl*)(std::vector<std::shared_ptr<CContact>,std::allocator<std::shared_ptr<CContact> > > *,std::basic_string<char,std::char_traits<char>,std::allocator<char> > &),std::vector<std::shared_ptr<CContact>,std::allocator<std::shared_ptr<CContact> > > *,std::basic_string<char,std::char_traits<char>,std::allocator<char> > >,std::default_delete<std::tuple<void (__cdecl*)(std::vector<std::shared_ptr<CContact>,std::allocator<std::shared_ptr<CContact> > > *,std::basic_string<char,std::char_traits<char>,std::allocator<char> > &),std::vector<std::shared_ptr<CContact>,std::allocator<std::shared_ptr<CContact> > > *,std::basic_string<char,std::char_traits<char>,std::allocator<char> > > > > >
PUBLIC	?_Go@?$_LaunchPad@V?$unique_ptr@V?$tuple@P6AXPAV?$vector@V?$shared_ptr@VCContact@@@std@@V?$allocator@V?$shared_ptr@VCContact@@@std@@@2@@std@@AAV?$basic_string@DU?$char_traits@D@std@@V?$allocator@D@2@@2@@ZPAV12@V32@@std@@U?$default_delete@V?$tuple@P6AXPAV?$vector@V?$shared_ptr@VCContact@@@std@@V?$allocator@V?$shared_ptr@VCContact@@@std@@@2@@std@@AAV?$basic_string@DU?$char_traits@D@std@@V?$allocator@D@2@@2@@ZPAV12@V32@@std@@@2@@std@@@std@@UAEXXZ ; std::_LaunchPad<std::unique_ptr<std::tuple<void (__cdecl*)(std::vector<std::shared_ptr<CContact>,std::allocator<std::shared_ptr<CContact> > > *,std::basic_string<char,std::char_traits<char>,std::allocator<char> > &),std::vector<std::shared_ptr<CContact>,std::allocator<std::shared_ptr<CContact> > > *,std::basic_string<char,std::char_traits<char>,std::allocator<char> > >,std::default_delete<std::tuple<void (__cdecl*)(std::vector<std::shared_ptr<CContact>,std::allocator<std::shared_ptr<CContact> > > *,std::basic_string<char,std::char_traits<char>,std::allocator<char> > &),std::vector<std::shared_ptr<CContact>,std::allocator<std::shared_ptr<CContact> > > *,std::basic_string<char,std::char_traits<char>,std::allocator<char> > > > > >::_Go
PUBLIC	?_Run@?$_LaunchPad@V?$unique_ptr@V?$tuple@P6AXPAV?$vector@V?$shared_ptr@VCContact@@@std@@V?$allocator@V?$shared_ptr@VCContact@@@std@@@2@@std@@AAV?$basic_string@DU?$char_traits@D@std@@V?$allocator@D@2@@2@@ZPAV12@V32@@std@@U?$default_delete@V?$tuple@P6AXPAV?$vector@V?$shared_ptr@VCContact@@@std@@V?$allocator@V?$shared_ptr@VCContact@@@std@@@2@@std@@AAV?$basic_string@DU?$char_traits@D@std@@V?$allocator@D@2@@2@@ZPAV12@V32@@std@@@2@@std@@@std@@CAXPAV12@@Z ; std::_LaunchPad<std::unique_ptr<std::tuple<void (__cdecl*)(std::vector<std::shared_ptr<CContact>,std::allocator<std::shared_ptr<CContact> > > *,std::basic_string<char,std::char_traits<char>,std::allocator<char> > &),std::vector<std::shared_ptr<CContact>,std::allocator<std::shared_ptr<CContact> > > *,std::basic_string<char,std::char_traits<char>,std::allocator<char> > >,std::default_delete<std::tuple<void (__cdecl*)(std::vector<std::shared_ptr<CContact>,std::allocator<std::shared_ptr<CContact> > > *,std::basic_string<char,std::char_traits<char>,std::allocator<char> > &),std::vector<std::shared_ptr<CContact>,std::allocator<std::shared_ptr<CContact> > > *,std::basic_string<char,std::char_traits<char>,std::allocator<char> > > > > >::_Run
PUBLIC	??1?$_LaunchPad@V?$unique_ptr@V?$tuple@P6AXPAV?$vector@V?$shared_ptr@VCContact@@@std@@V?$allocator@V?$shared_ptr@VCContact@@@std@@@2@@std@@AAV?$basic_string@DU?$char_traits@D@std@@V?$allocator@D@2@@2@@ZPAV12@V32@@std@@U?$default_delete@V?$tuple@P6AXPAV?$vector@V?$shared_ptr@VCContact@@@std@@V?$allocator@V?$shared_ptr@VCContact@@@std@@@2@@std@@AAV?$basic_string@DU?$char_traits@D@std@@V?$allocator@D@2@@2@@ZPAV12@V32@@std@@@2@@std@@@std@@QAE@XZ ; std::_LaunchPad<std::unique_ptr<std::tuple<void (__cdecl*)(std::vector<std::shared_ptr<CContact>,std::allocator<std::shared_ptr<CContact> > > *,std::basic_string<char,std::char_traits<char>,std::allocator<char> > &),std::vector<std::shared_ptr<CContact>,std::allocator<std::shared_ptr<CContact> > > *,std::basic_string<char,std::char_traits<char>,std::allocator<char> > >,std::default_delete<std::tuple<void (__cdecl*)(std::vector<std::shared_ptr<CContact>,std::allocator<std::shared_ptr<CContact> > > *,std::basic_string<char,std::char_traits<char>,std::allocator<char> > &),std::vector<std::shared_ptr<CContact>,std::allocator<std::shared_ptr<CContact> > > *,std::basic_string<char,std::char_traits<char>,std::allocator<char> > > > > >::~_LaunchPad<std::unique_ptr<std::tuple<void (__cdecl*)(std::vector<std::shared_ptr<CContact>,std::allocator<std::shared_ptr<CContact> > > *,std::basic_string<char,std::char_traits<char>,std::allocator<char> > &),std::vector<std::shared_ptr<CContact>,std::allocator<std::shared_ptr<CContact> > > *,std::basic_string<char,std::char_traits<char>,std::allocator<char> > >,std::default_delete<std::tuple<void (__cdecl*)(std::vector<std::shared_ptr<CContact>,std::allocator<std::shared_ptr<CContact> > > *,std::basic_string<char,std::char_traits<char>,std::allocator<char> > &),std::vector<std::shared_ptr<CContact>,std::allocator<std::shared_ptr<CContact> > > *,std::basic_string<char,std::char_traits<char>,std::allocator<char> > > > > >
PUBLIC	??$?0V?$unique_ptr@V?$tuple@P6AXPAV?$vector@V?$shared_ptr@VCContact@@@std@@V?$allocator@V?$shared_ptr@VCContact@@@std@@@2@@std@@AAV?$basic_string@DU?$char_traits@D@std@@V?$allocator@D@2@@2@@ZPAV12@V32@@std@@U?$default_delete@V?$tuple@P6AXPAV?$vector@V?$shared_ptr@VCContact@@@std@@V?$allocator@V?$shared_ptr@VCContact@@@std@@@2@@std@@AAV?$basic_string@DU?$char_traits@D@std@@V?$allocator@D@2@@2@@ZPAV12@V32@@std@@@2@@std@@@?$_LaunchPad@V?$unique_ptr@V?$tuple@P6AXPAV?$vector@V?$shared_ptr@VCContact@@@std@@V?$allocator@V?$shared_ptr@VCContact@@@std@@@2@@std@@AAV?$basic_string@DU?$char_traits@D@std@@V?$allocator@D@2@@2@@ZPAV12@V32@@std@@U?$default_delete@V?$tuple@P6AXPAV?$vector@V?$shared_ptr@VCContact@@@std@@V?$allocator@V?$shared_ptr@VCContact@@@std@@@2@@std@@AAV?$basic_string@DU?$char_traits@D@std@@V?$allocator@D@2@@2@@ZPAV12@V32@@std@@@2@@std@@@std@@QAE@$$QAV?$unique_ptr@V?$tuple@P6AXPAV?$vector@V?$shared_ptr@VCContact@@@std@@V?$allocator@V?$shared_ptr@VCContact@@@std@@@2@@std@@AAV?$basic_string@DU?$char_traits@D@std@@V?$allocator@D@2@@2@@ZPAV12@V32@@std@@U?$default_delete@V?$tuple@P6AXPAV?$vector@V?$shared_ptr@VCContact@@@std@@V?$allocator@V?$shared_ptr@VCContact@@@std@@@2@@std@@AAV?$basic_string@DU?$char_traits@D@std@@V?$allocator@D@2@@2@@ZPAV12@V32@@std@@@2@@1@@Z ; std::_LaunchPad<std::unique_ptr<std::tuple<void (__cdecl*)(std::vector<std::shared_ptr<CContact>,std::allocator<std::shared_ptr<CContact> > > *,std::basic_string<char,std::char_traits<char>,std::allocator<char> > &),std::vector<std::shared_ptr<CContact>,std::allocator<std::shared_ptr<CContact> > > *,std::basic_string<char,std::char_traits<char>,std::allocator<char> > >,std::default_delete<std::tuple<void (__cdecl*)(std::vector<std::shared_ptr<CContact>,std::allocator<std::shared_ptr<CContact> > > *,std::basic_string<char,std::char_traits<char>,std::allocator<char> > &),std::vector<std::shared_ptr<CContact>,std::allocator<std::shared_ptr<CContact> > > *,std::basic_string<char,std::char_traits<char>,std::allocator<char> > > > > >::_LaunchPad<std::unique_ptr<std::tuple<void (__cdecl*)(std::vector<std::shared_ptr<CContact>,std::allocator<std::shared_ptr<CContact> > > *,std::basic_string<char,std::char_traits<char>,std::allocator<char> > &),std::vector<std::shared_ptr<CContact>,std::allocator<std::shared_ptr<CContact> > > *,std::basic_string<char,std::char_traits<char>,std::allocator<char> > >,std::default_delete<std::tuple<void (__cdecl*)(std::vector<std::shared_ptr<CContact>,std::allocator<std::shared_ptr<CContact> > > *,std::basic_string<char,std::char_traits<char>,std::allocator<char> > &),std::vector<std::shared_ptr<CContact>,std::allocator<std::shared_ptr<CContact> > > *,std::basic_string<char,std::char_traits<char>,std::allocator<char> > > > > ><std::unique_ptr<std::tuple<void (__cdecl*)(std::vector<std::shared_ptr<CContact>,std::allocator<std::shared_ptr<CContact> > > *,std::basic_string<char,std::char_traits<char>,std::allocator<char> > &),std::vector<std::shared_ptr<CContact>,std::allocator<std::shared_ptr<CContact> > > *,std::basic_string<char,std::char_traits<char>,std::allocator<char> > >,std::default_delete<std::tuple<void (__cdecl*)(std::vector<std::shared_ptr<CContact>,std::allocator<std::shared_ptr<CContact> > > *,std::basic_string<char,std::char_traits<char>,std::allocator<char> > &),std::vector<std::shared_ptr<CContact>,std::allocator<std::shared_ptr<CContact> > > *,std::basic_string<char,std::char_traits<char>,std::allocator<char> > > > > >
PUBLIC	??0_Sentry_base@?$basic_istream@DU?$char_traits@D@std@@@std@@QAE@AAV12@@Z ; std::basic_istream<char,std::char_traits<char> >::_Sentry_base::_Sentry_base
PUBLIC	??1_Sentry_base@?$basic_istream@DU?$char_traits@D@std@@@std@@QAE@XZ ; std::basic_istream<char,std::char_traits<char> >::_Sentry_base::~_Sentry_base
PUBLIC	??0sentry@?$basic_istream@DU?$char_traits@D@std@@@std@@QAE@AAV12@_N@Z ; std::basic_istream<char,std::char_traits<char> >::sentry::sentry
PUBLIC	??Bsentry@?$basic_istream@DU?$char_traits@D@std@@@std@@QBE_NXZ ; std::basic_istream<char,std::char_traits<char> >::sentry::operator bool
PUBLIC	??1sentry@?$basic_istream@DU?$char_traits@D@std@@@std@@QAE@XZ ; std::basic_istream<char,std::char_traits<char> >::sentry::~sentry
PUBLIC	??$move@AAV?$shared_ptr@VCContact@@@std@@@std@@YA$$QAV?$shared_ptr@VCContact@@@0@AAV10@@Z ; std::move<std::shared_ptr<CContact> &>
PUBLIC	??$construct@V?$shared_ptr@VCContact@@@std@@AAV12@@?$allocator@V?$shared_ptr@VCContact@@@std@@@std@@QAEXPAV?$shared_ptr@VCContact@@@1@AAV21@@Z ; std::allocator<std::shared_ptr<CContact> >::construct<std::shared_ptr<CContact>,std::shared_ptr<CContact> &>
PUBLIC	??$construct@V?$shared_ptr@VCContact@@@std@@ABV12@@?$allocator@V?$shared_ptr@VCContact@@@std@@@std@@QAEXPAV?$shared_ptr@VCContact@@@1@ABV21@@Z ; std::allocator<std::shared_ptr<CContact> >::construct<std::shared_ptr<CContact>,std::shared_ptr<CContact> const &>
PUBLIC	??$construct@V?$shared_ptr@VCContact@@@std@@V12@@?$allocator@V?$shared_ptr@VCContact@@@std@@@std@@QAEXPAV?$shared_ptr@VCContact@@@1@$$QAV21@@Z ; std::allocator<std::shared_ptr<CContact> >::construct<std::shared_ptr<CContact>,std::shared_ptr<CContact> >
PUBLIC	??$save_override@$$CBUtracking_type@archive@boost@@@?$common_oarchive@Vtext_oarchive@archive@boost@@@detail@archive@boost@@IAEXABUtracking_type@23@@Z ; boost::archive::detail::common_oarchive<boost::archive::text_oarchive>::save_override<boost::archive::tracking_type const >
PUBLIC	??$save_override@$$CBVclass_id_reference_type@archive@boost@@@?$common_oarchive@Vtext_oarchive@archive@boost@@@detail@archive@boost@@IAEXABVclass_id_reference_type@23@@Z ; boost::archive::detail::common_oarchive<boost::archive::text_oarchive>::save_override<boost::archive::class_id_reference_type const >
PUBLIC	??$save_override@$$CBVclass_id_type@archive@boost@@@?$common_oarchive@Vtext_oarchive@archive@boost@@@detail@archive@boost@@IAEXABVclass_id_type@23@@Z ; boost::archive::detail::common_oarchive<boost::archive::text_oarchive>::save_override<boost::archive::class_id_type const >
PUBLIC	??$save_override@$$CBVobject_reference_type@archive@boost@@@?$common_oarchive@Vtext_oarchive@archive@boost@@@detail@archive@boost@@IAEXABVobject_reference_type@23@@Z ; boost::archive::detail::common_oarchive<boost::archive::text_oarchive>::save_override<boost::archive::object_reference_type const >
PUBLIC	??$save_override@$$CBVversion_type@archive@boost@@@?$common_oarchive@Vtext_oarchive@archive@boost@@@detail@archive@boost@@IAEXABVversion_type@23@@Z ; boost::archive::detail::common_oarchive<boost::archive::text_oarchive>::save_override<boost::archive::version_type const >
PUBLIC	??$load_override@Utracking_type@archive@boost@@@?$basic_text_iarchive@Vtext_iarchive@archive@boost@@@archive@boost@@IAEXAAUtracking_type@12@@Z ; boost::archive::basic_text_iarchive<boost::archive::text_iarchive>::load_override<boost::archive::tracking_type>
PUBLIC	??$load_override@Vclass_id_type@archive@boost@@@?$basic_text_iarchive@Vtext_iarchive@archive@boost@@@archive@boost@@IAEXAAVclass_id_type@12@@Z ; boost::archive::basic_text_iarchive<boost::archive::text_iarchive>::load_override<boost::archive::class_id_type>
PUBLIC	??$load_override@Vobject_id_type@archive@boost@@@?$basic_text_iarchive@Vtext_iarchive@archive@boost@@@archive@boost@@IAEXAAVobject_id_type@12@@Z ; boost::archive::basic_text_iarchive<boost::archive::text_iarchive>::load_override<boost::archive::object_id_type>
PUBLIC	??$load_override@Vversion_type@archive@boost@@@?$basic_text_iarchive@Vtext_iarchive@archive@boost@@@archive@boost@@IAEXAAVversion_type@12@@Z ; boost::archive::basic_text_iarchive<boost::archive::text_iarchive>::load_override<boost::archive::version_type>
PUBLIC	??$destroy@V?$shared_ptr@VCContact@@@std@@@?$_Wrap_alloc@V?$allocator@V?$shared_ptr@VCContact@@@std@@@std@@@std@@QAEXPAV?$shared_ptr@VCContact@@@1@@Z ; std::_Wrap_alloc<std::allocator<std::shared_ptr<CContact> > >::destroy<std::shared_ptr<CContact> >
PUBLIC	??$destroy@PAD@?$allocator@D@std@@QAEXPAPAD@Z	; std::allocator<char>::destroy<char *>
PUBLIC	??$construct@PADAAPAD@?$allocator@D@std@@QAEXPAPADAAPAD@Z ; std::allocator<char>::construct<char *,char * &>
PUBLIC	??$destroy@U_Container_proxy@std@@@?$allocator@U_Container_proxy@std@@@std@@QAEXPAU_Container_proxy@1@@Z ; std::allocator<std::_Container_proxy>::destroy<std::_Container_proxy>
PUBLIC	??$construct@U_Container_proxy@std@@U12@@?$allocator@U_Container_proxy@std@@@std@@QAEXPAU_Container_proxy@1@$$QAU21@@Z ; std::allocator<std::_Container_proxy>::construct<std::_Container_proxy,std::_Container_proxy>
PUBLIC	??$_Unchecked@PAV?$shared_ptr@VCContact@@@std@@@std@@YAPAV?$shared_ptr@VCContact@@@0@PAV10@@Z ; std::_Unchecked<std::shared_ptr<CContact> *>
PUBLIC	??$_Uninitialized_move_al_unchecked@PAV?$shared_ptr@VCContact@@@std@@PAV12@V?$allocator@V?$shared_ptr@VCContact@@@std@@@2@@std@@YAPAV?$shared_ptr@VCContact@@@0@PAV10@00AAU?$_Wrap_alloc@V?$allocator@V?$shared_ptr@VCContact@@@std@@@std@@@0@@Z ; std::_Uninitialized_move_al_unchecked<std::shared_ptr<CContact> *,std::shared_ptr<CContact> *,std::allocator<std::shared_ptr<CContact> > >
PUBLIC	??$_Rechecked@PAV?$shared_ptr@VCContact@@@std@@PAV12@@std@@YAAAPAV?$shared_ptr@VCContact@@@0@AAPAV10@PAV10@@Z ; std::_Rechecked<std::shared_ptr<CContact> *,std::shared_ptr<CContact> *>
PUBLIC	??$save_override@$$CBV?$basic_string@DU?$char_traits@D@std@@V?$allocator@D@2@@std@@@?$basic_text_oarchive@Vtext_oarchive@archive@boost@@@archive@boost@@IAEXABV?$basic_string@DU?$char_traits@D@std@@V?$allocator@D@2@@std@@@Z ; boost::archive::basic_text_oarchive<boost::archive::text_oarchive>::save_override<std::basic_string<char,std::char_traits<char>,std::allocator<char> > const >
PUBLIC	??$save@Vtext_oarchive@archive@boost@@$$CBVobject_id_type@23@@archive@boost@@YAXAAVtext_oarchive@01@ABVobject_id_type@01@@Z ; boost::archive::save<boost::archive::text_oarchive,boost::archive::object_id_type const >
PUBLIC	??$?0PAV?$tuple@P6AXPAV?$vector@V?$shared_ptr@VCContact@@@std@@V?$allocator@V?$shared_ptr@VCContact@@@std@@@2@@std@@AAV?$basic_string@DU?$char_traits@D@std@@V?$allocator@D@2@@2@@ZPAV12@V32@@std@@@?$_Unique_ptr_base@V?$tuple@P6AXPAV?$vector@V?$shared_ptr@VCContact@@@std@@V?$allocator@V?$shared_ptr@VCContact@@@std@@@2@@std@@AAV?$basic_string@DU?$char_traits@D@std@@V?$allocator@D@2@@2@@ZPAV12@V32@@std@@U?$default_delete@V?$tuple@P6AXPAV?$vector@V?$shared_ptr@VCContact@@@std@@V?$allocator@V?$shared_ptr@VCContact@@@std@@@2@@std@@AAV?$basic_string@DU?$char_traits@D@std@@V?$allocator@D@2@@2@@ZPAV12@V32@@std@@@2@@std@@QAE@PAV?$tuple@P6AXPAV?$vector@V?$shared_ptr@VCContact@@@std@@V?$allocator@V?$shared_ptr@VCContact@@@std@@@2@@std@@AAV?$basic_string@DU?$char_traits@D@std@@V?$allocator@D@2@@2@@ZPAV12@V32@@1@@Z ; std::_Unique_ptr_base<std::tuple<void (__cdecl*)(std::vector<std::shared_ptr<CContact>,std::allocator<std::shared_ptr<CContact> > > *,std::basic_string<char,std::char_traits<char>,std::allocator<char> > &),std::vector<std::shared_ptr<CContact>,std::allocator<std::shared_ptr<CContact> > > *,std::basic_string<char,std::char_traits<char>,std::allocator<char> > >,std::default_delete<std::tuple<void (__cdecl*)(std::vector<std::shared_ptr<CContact>,std::allocator<std::shared_ptr<CContact> > > *,std::basic_string<char,std::char_traits<char>,std::allocator<char> > &),std::vector<std::shared_ptr<CContact>,std::allocator<std::shared_ptr<CContact> > > *,std::basic_string<char,std::char_traits<char>,std::allocator<char> > > > >::_Unique_ptr_base<std::tuple<void (__cdecl*)(std::vector<std::shared_ptr<CContact>,std::allocator<std::shared_ptr<CContact> > > *,std::basic_string<char,std::char_traits<char>,std::allocator<char> > &),std::vector<std::shared_ptr<CContact>,std::allocator<std::shared_ptr<CContact> > > *,std::basic_string<char,std::char_traits<char>,std::allocator<char> > >,std::default_delete<std::tuple<void (__cdecl*)(std::vector<std::shared_ptr<CContact>,std::allocator<std::shared_ptr<CContact> > > *,std::basic_string<char,std::char_traits<char>,std::allocator<char> > &),std::vector<std::shared_ptr<CContact>,std::allocator<std::shared_ptr<CContact> > > *,std::basic_string<char,std::char_traits<char>,std::allocator<char> > > > ><std::tuple<void (__cdecl*)(std::vector<std::shared_ptr<CContact>,std::allocator<std::shared_ptr<CContact> > > *,std::basic_string<char,std::char_traits<char>,std::allocator<char> > &),std::vector<std::shared_ptr<CContact>,std::allocator<std::shared_ptr<CContact> > > *,std::basic_string<char,std::char_traits<char>,std::allocator<char> > > *>
PUBLIC	??$_Execute@$0A@$00$01@?$_LaunchPad@V?$unique_ptr@V?$tuple@P6AXPAV?$vector@V?$shared_ptr@VCContact@@@std@@V?$allocator@V?$shared_ptr@VCContact@@@std@@@2@@std@@AAV?$basic_string@DU?$char_traits@D@std@@V?$allocator@D@2@@2@@ZPAV12@V32@@std@@U?$default_delete@V?$tuple@P6AXPAV?$vector@V?$shared_ptr@VCContact@@@std@@V?$allocator@V?$shared_ptr@VCContact@@@std@@@2@@std@@AAV?$basic_string@DU?$char_traits@D@std@@V?$allocator@D@2@@2@@ZPAV12@V32@@std@@@2@@std@@@std@@CAXAAV?$tuple@P6AXPAV?$vector@V?$shared_ptr@VCContact@@@std@@V?$allocator@V?$shared_ptr@VCContact@@@std@@@2@@std@@AAV?$basic_string@DU?$char_traits@D@std@@V?$allocator@D@2@@2@@ZPAV12@V32@@1@U?$integer_sequence@I$0A@$00$01@1@@Z ; std::_LaunchPad<std::unique_ptr<std::tuple<void (__cdecl*)(std::vector<std::shared_ptr<CContact>,std::allocator<std::shared_ptr<CContact> > > *,std::basic_string<char,std::char_traits<char>,std::allocator<char> > &),std::vector<std::shared_ptr<CContact>,std::allocator<std::shared_ptr<CContact> > > *,std::basic_string<char,std::char_traits<char>,std::allocator<char> > >,std::default_delete<std::tuple<void (__cdecl*)(std::vector<std::shared_ptr<CContact>,std::allocator<std::shared_ptr<CContact> > > *,std::basic_string<char,std::char_traits<char>,std::allocator<char> > &),std::vector<std::shared_ptr<CContact>,std::allocator<std::shared_ptr<CContact> > > *,std::basic_string<char,std::char_traits<char>,std::allocator<char> > > > > >::_Execute<0,1,2>
PUBLIC	??$forward@U?$default_delete@V?$tuple@P6AXPAV?$vector@V?$shared_ptr@VCContact@@@std@@V?$allocator@V?$shared_ptr@VCContact@@@std@@@2@@std@@AAV?$basic_string@DU?$char_traits@D@std@@V?$allocator@D@2@@2@@ZPAV12@V32@@std@@@std@@@std@@YA$$QAU?$default_delete@V?$tuple@P6AXPAV?$vector@V?$shared_ptr@VCContact@@@std@@V?$allocator@V?$shared_ptr@VCContact@@@std@@@2@@std@@AAV?$basic_string@DU?$char_traits@D@std@@V?$allocator@D@2@@2@@ZPAV12@V32@@std@@@0@AAU10@@Z ; std::forward<std::default_delete<std::tuple<void (__cdecl*)(std::vector<std::shared_ptr<CContact>,std::allocator<std::shared_ptr<CContact> > > *,std::basic_string<char,std::char_traits<char>,std::allocator<char> > &),std::vector<std::shared_ptr<CContact>,std::allocator<std::shared_ptr<CContact> > > *,std::basic_string<char,std::char_traits<char>,std::allocator<char> > > > >
PUBLIC	??$?0PAV?$tuple@P6AXPAV?$vector@V?$shared_ptr@VCContact@@@std@@V?$allocator@V?$shared_ptr@VCContact@@@std@@@2@@std@@AAV?$basic_string@DU?$char_traits@D@std@@V?$allocator@D@2@@2@@ZPAV12@V32@@std@@U?$default_delete@V?$tuple@P6AXPAV?$vector@V?$shared_ptr@VCContact@@@std@@V?$allocator@V?$shared_ptr@VCContact@@@std@@@2@@std@@AAV?$basic_string@DU?$char_traits@D@std@@V?$allocator@D@2@@2@@ZPAV12@V32@@std@@@1@@?$_Unique_ptr_base@V?$tuple@P6AXPAV?$vector@V?$shared_ptr@VCContact@@@std@@V?$allocator@V?$shared_ptr@VCContact@@@std@@@2@@std@@AAV?$basic_string@DU?$char_traits@D@std@@V?$allocator@D@2@@2@@ZPAV12@V32@@std@@U?$default_delete@V?$tuple@P6AXPAV?$vector@V?$shared_ptr@VCContact@@@std@@V?$allocator@V?$shared_ptr@VCContact@@@std@@@2@@std@@AAV?$basic_string@DU?$char_traits@D@std@@V?$allocator@D@2@@2@@ZPAV12@V32@@std@@@2@@std@@QAE@PAV?$tuple@P6AXPAV?$vector@V?$shared_ptr@VCContact@@@std@@V?$allocator@V?$shared_ptr@VCContact@@@std@@@2@@std@@AAV?$basic_string@DU?$char_traits@D@std@@V?$allocator@D@2@@2@@ZPAV12@V32@@1@$$QAU?$default_delete@V?$tuple@P6AXPAV?$vector@V?$shared_ptr@VCContact@@@std@@V?$allocator@V?$shared_ptr@VCContact@@@std@@@2@@std@@AAV?$basic_string@DU?$char_traits@D@std@@V?$allocator@D@2@@2@@ZPAV12@V32@@std@@@1@@Z ; std::_Unique_ptr_base<std::tuple<void (__cdecl*)(std::vector<std::shared_ptr<CContact>,std::allocator<std::shared_ptr<CContact> > > *,std::basic_string<char,std::char_traits<char>,std::allocator<char> > &),std::vector<std::shared_ptr<CContact>,std::allocator<std::shared_ptr<CContact> > > *,std::basic_string<char,std::char_traits<char>,std::allocator<char> > >,std::default_delete<std::tuple<void (__cdecl*)(std::vector<std::shared_ptr<CContact>,std::allocator<std::shared_ptr<CContact> > > *,std::basic_string<char,std::char_traits<char>,std::allocator<char> > &),std::vector<std::shared_ptr<CContact>,std::allocator<std::shared_ptr<CContact> > > *,std::basic_string<char,std::char_traits<char>,std::allocator<char> > > > >::_Unique_ptr_base<std::tuple<void (__cdecl*)(std::vector<std::shared_ptr<CContact>,std::allocator<std::shared_ptr<CContact> > > *,std::basic_string<char,std::char_traits<char>,std::allocator<char> > &),std::vector<std::shared_ptr<CContact>,std::allocator<std::shared_ptr<CContact> > > *,std::basic_string<char,std::char_traits<char>,std::allocator<char> > >,std::default_delete<std::tuple<void (__cdecl*)(std::vector<std::shared_ptr<CContact>,std::allocator<std::shared_ptr<CContact> > > *,std::basic_string<char,std::char_traits<char>,std::allocator<char> > &),std::vector<std::shared_ptr<CContact>,std::allocator<std::shared_ptr<CContact> > > *,std::basic_string<char,std::char_traits<char>,std::allocator<char> > > > ><std::tuple<void (__cdecl*)(std::vector<std::shared_ptr<CContact>,std::allocator<std::shared_ptr<CContact> > > *,std::basic_string<char,std::char_traits<char>,std::allocator<char> > &),std::vector<std::shared_ptr<CContact>,std::allocator<std::shared_ptr<CContact> > > *,std::basic_string<char,std::char_traits<char>,std::allocator<char> > > *,std::default_delete<std::tuple<void (__cdecl*)(std::vector<std::shared_ptr<CContact>,std::allocator<std::shared_ptr<CContact> > > *,std::basic_string<char,std::char_traits<char>,std::allocator<char> > &),std::vector<std::shared_ptr<CContact>,std::allocator<std::shared_ptr<CContact> > > *,std::basic_string<char,std::char_traits<char>,std::allocator<char> > > > >
PUBLIC	??$save@Vtext_oarchive@archive@boost@@$$CBVCContact@@@archive@boost@@YAXAAVtext_oarchive@01@ABVCContact@@@Z ; boost::archive::save<boost::archive::text_oarchive,CContact const >
PUBLIC	??$load_override@VCContact@@@?$common_iarchive@Vtext_iarchive@archive@boost@@@detail@archive@boost@@IAEXAAVCContact@@@Z ; boost::archive::detail::common_iarchive<boost::archive::text_iarchive>::load_override<CContact>
PUBLIC	??$?0U_Exact_args_t@std@@PAV?$vector@V?$shared_ptr@VCContact@@@std@@V?$allocator@V?$shared_ptr@VCContact@@@std@@@2@@1@AAV?$basic_string@DU?$char_traits@D@std@@V?$allocator@D@2@@1@$0A@@?$tuple@PAV?$vector@V?$shared_ptr@VCContact@@@std@@V?$allocator@V?$shared_ptr@VCContact@@@std@@@2@@std@@V?$basic_string@DU?$char_traits@D@std@@V?$allocator@D@2@@2@@std@@QAE@U_Exact_args_t@1@$$QAPAV?$vector@V?$shared_ptr@VCContact@@@std@@V?$allocator@V?$shared_ptr@VCContact@@@std@@@2@@1@AAV?$basic_string@DU?$char_traits@D@std@@V?$allocator@D@2@@1@@Z ; std::tuple<std::vector<std::shared_ptr<CContact>,std::allocator<std::shared_ptr<CContact> > > *,std::basic_string<char,std::char_traits<char>,std::allocator<char> > >::tuple<std::vector<std::shared_ptr<CContact>,std::allocator<std::shared_ptr<CContact> > > *,std::basic_string<char,std::char_traits<char>,std::allocator<char> > ><std::_Exact_args_t,std::vector<std::shared_ptr<CContact>,std::allocator<std::shared_ptr<CContact> > > *,std::basic_string<char,std::char_traits<char>,std::allocator<char> > &,0>
PUBLIC	??$?0A6AXPAV?$vector@V?$shared_ptr@VCContact@@@std@@V?$allocator@V?$shared_ptr@VCContact@@@std@@@2@@std@@AAV?$basic_string@DU?$char_traits@D@std@@V?$allocator@D@2@@1@@Z@?$_Tuple_val@P6AXPAV?$vector@V?$shared_ptr@VCContact@@@std@@V?$allocator@V?$shared_ptr@VCContact@@@std@@@2@@std@@AAV?$basic_string@DU?$char_traits@D@std@@V?$allocator@D@2@@2@@Z@std@@QAE@A6AXPAV?$vector@V?$shared_ptr@VCContact@@@std@@V?$allocator@V?$shared_ptr@VCContact@@@std@@@2@@1@AAV?$basic_string@DU?$char_traits@D@std@@V?$allocator@D@2@@1@@Z@Z ; std::_Tuple_val<void (__cdecl*)(std::vector<std::shared_ptr<CContact>,std::allocator<std::shared_ptr<CContact> > > *,std::basic_string<char,std::char_traits<char>,std::allocator<char> > &)>::_Tuple_val<void (__cdecl*)(std::vector<std::shared_ptr<CContact>,std::allocator<std::shared_ptr<CContact> > > *,std::basic_string<char,std::char_traits<char>,std::allocator<char> > &)><void (__cdecl&)(std::vector<std::shared_ptr<CContact>,std::allocator<std::shared_ptr<CContact> > > *,std::basic_string<char,std::char_traits<char>,std::allocator<char> > &)>
PUBLIC	??$save@Vtext_oarchive@archive@boost@@$$CBUtracking_type@23@@archive@boost@@YAXAAVtext_oarchive@01@ABUtracking_type@01@@Z ; boost::archive::save<boost::archive::text_oarchive,boost::archive::tracking_type const >
PUBLIC	??$save@Vtext_oarchive@archive@boost@@$$CBVclass_id_reference_type@23@@archive@boost@@YAXAAVtext_oarchive@01@ABVclass_id_reference_type@01@@Z ; boost::archive::save<boost::archive::text_oarchive,boost::archive::class_id_reference_type const >
PUBLIC	??$save@Vtext_oarchive@archive@boost@@$$CBVclass_id_type@23@@archive@boost@@YAXAAVtext_oarchive@01@ABVclass_id_type@01@@Z ; boost::archive::save<boost::archive::text_oarchive,boost::archive::class_id_type const >
PUBLIC	??$save@Vtext_oarchive@archive@boost@@$$CBVobject_reference_type@23@@archive@boost@@YAXAAVtext_oarchive@01@ABVobject_reference_type@01@@Z ; boost::archive::save<boost::archive::text_oarchive,boost::archive::object_reference_type const >
PUBLIC	??$save@Vtext_oarchive@archive@boost@@$$CBVversion_type@23@@archive@boost@@YAXAAVtext_oarchive@01@ABVversion_type@01@@Z ; boost::archive::save<boost::archive::text_oarchive,boost::archive::version_type const >
PUBLIC	??$load_override@Utracking_type@archive@boost@@@?$common_iarchive@Vtext_iarchive@archive@boost@@@detail@archive@boost@@IAEXAAUtracking_type@23@@Z ; boost::archive::detail::common_iarchive<boost::archive::text_iarchive>::load_override<boost::archive::tracking_type>
PUBLIC	??$load_override@Vclass_id_type@archive@boost@@@?$common_iarchive@Vtext_iarchive@archive@boost@@@detail@archive@boost@@IAEXAAVclass_id_type@23@@Z ; boost::archive::detail::common_iarchive<boost::archive::text_iarchive>::load_override<boost::archive::class_id_type>
PUBLIC	??$load_override@Vobject_id_type@archive@boost@@@?$common_iarchive@Vtext_iarchive@archive@boost@@@detail@archive@boost@@IAEXAAVobject_id_type@23@@Z ; boost::archive::detail::common_iarchive<boost::archive::text_iarchive>::load_override<boost::archive::object_id_type>
PUBLIC	??$load_override@Vversion_type@archive@boost@@@?$common_iarchive@Vtext_iarchive@archive@boost@@@detail@archive@boost@@IAEXAAVversion_type@23@@Z ; boost::archive::detail::common_iarchive<boost::archive::text_iarchive>::load_override<boost::archive::version_type>
PUBLIC	??$destroy@V?$shared_ptr@VCContact@@@std@@@?$allocator_traits@V?$allocator@V?$shared_ptr@VCContact@@@std@@@std@@@std@@SAXAAV?$allocator@V?$shared_ptr@VCContact@@@std@@@1@PAV?$shared_ptr@VCContact@@@1@@Z ; std::allocator_traits<std::allocator<std::shared_ptr<CContact> > >::destroy<std::shared_ptr<CContact> >
PUBLIC	??$_Uninitialized_move_al_unchecked1@PAV?$shared_ptr@VCContact@@@std@@PAV12@V?$allocator@V?$shared_ptr@VCContact@@@std@@@2@@std@@YAPAV?$shared_ptr@VCContact@@@0@PAV10@00AAU?$_Wrap_alloc@V?$allocator@V?$shared_ptr@VCContact@@@std@@@std@@@0@U_General_ptr_iterator_tag@0@U_Any_tag@0@@Z ; std::_Uninitialized_move_al_unchecked1<std::shared_ptr<CContact> *,std::shared_ptr<CContact> *,std::allocator<std::shared_ptr<CContact> > >
PUBLIC	??$?0U?$integral_constant@_N$00@std@@@_Any_tag@std@@QAE@$$QAU?$integral_constant@_N$00@1@@Z ; std::_Any_tag::_Any_tag<std::integral_constant<bool,1> >
PUBLIC	??$save_override@$$CBV?$basic_string@DU?$char_traits@D@std@@V?$allocator@D@2@@std@@@?$common_oarchive@Vtext_oarchive@archive@boost@@@detail@archive@boost@@IAEXABV?$basic_string@DU?$char_traits@D@std@@V?$allocator@D@2@@std@@@Z ; boost::archive::detail::common_oarchive<boost::archive::text_oarchive>::save_override<std::basic_string<char,std::char_traits<char>,std::allocator<char> > const >
PUBLIC	??$invoke@Vobject_id_type@archive@boost@@@?$save_non_pointer_type@Vtext_oarchive@archive@boost@@@detail@archive@boost@@SAXAAVtext_oarchive@23@ABVobject_id_type@23@@Z ; boost::archive::detail::save_non_pointer_type<boost::archive::text_oarchive>::invoke<boost::archive::object_id_type>
PUBLIC	??$?0AAPAV?$tuple@P6AXPAV?$vector@V?$shared_ptr@VCContact@@@std@@V?$allocator@V?$shared_ptr@VCContact@@@std@@@2@@std@@AAV?$basic_string@DU?$char_traits@D@std@@V?$allocator@D@2@@2@@ZPAV12@V32@@std@@@?$_Compressed_pair@U?$default_delete@V?$tuple@P6AXPAV?$vector@V?$shared_ptr@VCContact@@@std@@V?$allocator@V?$shared_ptr@VCContact@@@std@@@2@@std@@AAV?$basic_string@DU?$char_traits@D@std@@V?$allocator@D@2@@2@@ZPAV12@V32@@std@@@std@@PAV?$tuple@P6AXPAV?$vector@V?$shared_ptr@VCContact@@@std@@V?$allocator@V?$shared_ptr@VCContact@@@std@@@2@@std@@AAV?$basic_string@DU?$char_traits@D@std@@V?$allocator@D@2@@2@@ZPAV12@V32@@2@$00@std@@QAE@U_Zero_then_variadic_args_t@1@AAPAV?$tuple@P6AXPAV?$vector@V?$shared_ptr@VCContact@@@std@@V?$allocator@V?$shared_ptr@VCContact@@@std@@@2@@std@@AAV?$basic_string@DU?$char_traits@D@std@@V?$allocator@D@2@@2@@ZPAV12@V32@@1@@Z ; std::_Compressed_pair<std::default_delete<std::tuple<void (__cdecl*)(std::vector<std::shared_ptr<CContact>,std::allocator<std::shared_ptr<CContact> > > *,std::basic_string<char,std::char_traits<char>,std::allocator<char> > &),std::vector<std::shared_ptr<CContact>,std::allocator<std::shared_ptr<CContact> > > *,std::basic_string<char,std::char_traits<char>,std::allocator<char> > > >,std::tuple<void (__cdecl*)(std::vector<std::shared_ptr<CContact>,std::allocator<std::shared_ptr<CContact> > > *,std::basic_string<char,std::char_traits<char>,std::allocator<char> > &),std::vector<std::shared_ptr<CContact>,std::allocator<std::shared_ptr<CContact> > > *,std::basic_string<char,std::char_traits<char>,std::allocator<char> > > *,1>::_Compressed_pair<std::default_delete<std::tuple<void (__cdecl*)(std::vector<std::shared_ptr<CContact>,std::allocator<std::shared_ptr<CContact> > > *,std::basic_string<char,std::char_traits<char>,std::allocator<char> > &),std::vector<std::shared_ptr<CContact>,std::allocator<std::shared_ptr<CContact> > > *,std::basic_string<char,std::char_traits<char>,std::allocator<char> > > >,std::tuple<void (__cdecl*)(std::vector<std::shared_ptr<CContact>,std::allocator<std::shared_ptr<CContact> > > *,std::basic_string<char,std::char_traits<char>,std::allocator<char> > &),std::vector<std::shared_ptr<CContact>,std::allocator<std::shared_ptr<CContact> > > *,std::basic_string<char,std::char_traits<char>,std::allocator<char> > > *,1><std::tuple<void (__cdecl*)(std::vector<std::shared_ptr<CContact>,std::allocator<std::shared_ptr<CContact> > > *,std::basic_string<char,std::char_traits<char>,std::allocator<char> > &),std::vector<std::shared_ptr<CContact>,std::allocator<std::shared_ptr<CContact> > > *,std::basic_string<char,std::char_traits<char>,std::allocator<char> > > * &>
PUBLIC	??$get@$0A@P6AXPAV?$vector@V?$shared_ptr@VCContact@@@std@@V?$allocator@V?$shared_ptr@VCContact@@@std@@@2@@std@@AAV?$basic_string@DU?$char_traits@D@std@@V?$allocator@D@2@@2@@ZPAV12@V32@@std@@YAAAP6AXPAV?$vector@V?$shared_ptr@VCContact@@@std@@V?$allocator@V?$shared_ptr@VCContact@@@std@@@2@@0@AAV?$basic_string@DU?$char_traits@D@std@@V?$allocator@D@2@@0@@ZAAV?$tuple@P6AXPAV?$vector@V?$shared_ptr@VCContact@@@std@@V?$allocator@V?$shared_ptr@VCContact@@@std@@@2@@std@@AAV?$basic_string@DU?$char_traits@D@std@@V?$allocator@D@2@@2@@ZPAV12@V32@@0@@Z ; std::get<0,void (__cdecl*)(std::vector<std::shared_ptr<CContact>,std::allocator<std::shared_ptr<CContact> > > *,std::basic_string<char,std::char_traits<char>,std::allocator<char> > &),std::vector<std::shared_ptr<CContact>,std::allocator<std::shared_ptr<CContact> > > *,std::basic_string<char,std::char_traits<char>,std::allocator<char> > >
PUBLIC	??$move@AAP6AXPAV?$vector@V?$shared_ptr@VCContact@@@std@@V?$allocator@V?$shared_ptr@VCContact@@@std@@@2@@std@@AAV?$basic_string@DU?$char_traits@D@std@@V?$allocator@D@2@@2@@Z@std@@YA$$QAP6AXPAV?$vector@V?$shared_ptr@VCContact@@@std@@V?$allocator@V?$shared_ptr@VCContact@@@std@@@2@@0@AAV?$basic_string@DU?$char_traits@D@std@@V?$allocator@D@2@@0@@ZAAP6AX01@Z@Z ; std::move<void (__cdecl*&)(std::vector<std::shared_ptr<CContact>,std::allocator<std::shared_ptr<CContact> > > *,std::basic_string<char,std::char_traits<char>,std::allocator<char> > &)>
PUBLIC	??$get@$00P6AXPAV?$vector@V?$shared_ptr@VCContact@@@std@@V?$allocator@V?$shared_ptr@VCContact@@@std@@@2@@std@@AAV?$basic_string@DU?$char_traits@D@std@@V?$allocator@D@2@@2@@ZPAV12@V32@@std@@YAAAPAV?$vector@V?$shared_ptr@VCContact@@@std@@V?$allocator@V?$shared_ptr@VCContact@@@std@@@2@@0@AAV?$tuple@P6AXPAV?$vector@V?$shared_ptr@VCContact@@@std@@V?$allocator@V?$shared_ptr@VCContact@@@std@@@2@@std@@AAV?$basic_string@DU?$char_traits@D@std@@V?$allocator@D@2@@2@@ZPAV12@V32@@0@@Z ; std::get<1,void (__cdecl*)(std::vector<std::shared_ptr<CContact>,std::allocator<std::shared_ptr<CContact> > > *,std::basic_string<char,std::char_traits<char>,std::allocator<char> > &),std::vector<std::shared_ptr<CContact>,std::allocator<std::shared_ptr<CContact> > > *,std::basic_string<char,std::char_traits<char>,std::allocator<char> > >
PUBLIC	??$move@AAPAV?$vector@V?$shared_ptr@VCContact@@@std@@V?$allocator@V?$shared_ptr@VCContact@@@std@@@2@@std@@@std@@YA$$QAPAV?$vector@V?$shared_ptr@VCContact@@@std@@V?$allocator@V?$shared_ptr@VCContact@@@std@@@2@@0@AAPAV10@@Z ; std::move<std::vector<std::shared_ptr<CContact>,std::allocator<std::shared_ptr<CContact> > > * &>
PUBLIC	??$get@$01P6AXPAV?$vector@V?$shared_ptr@VCContact@@@std@@V?$allocator@V?$shared_ptr@VCContact@@@std@@@2@@std@@AAV?$basic_string@DU?$char_traits@D@std@@V?$allocator@D@2@@2@@ZPAV12@V32@@std@@YAAAV?$basic_string@DU?$char_traits@D@std@@V?$allocator@D@2@@0@AAV?$tuple@P6AXPAV?$vector@V?$shared_ptr@VCContact@@@std@@V?$allocator@V?$shared_ptr@VCContact@@@std@@@2@@std@@AAV?$basic_string@DU?$char_traits@D@std@@V?$allocator@D@2@@2@@ZPAV12@V32@@0@@Z ; std::get<2,void (__cdecl*)(std::vector<std::shared_ptr<CContact>,std::allocator<std::shared_ptr<CContact> > > *,std::basic_string<char,std::char_traits<char>,std::allocator<char> > &),std::vector<std::shared_ptr<CContact>,std::allocator<std::shared_ptr<CContact> > > *,std::basic_string<char,std::char_traits<char>,std::allocator<char> > >
PUBLIC	??$move@AAV?$basic_string@DU?$char_traits@D@std@@V?$allocator@D@2@@std@@@std@@YA$$QAV?$basic_string@DU?$char_traits@D@std@@V?$allocator@D@2@@0@AAV10@@Z ; std::move<std::basic_string<char,std::char_traits<char>,std::allocator<char> > &>
PUBLIC	??$forward@P6AXPAV?$vector@V?$shared_ptr@VCContact@@@std@@V?$allocator@V?$shared_ptr@VCContact@@@std@@@2@@std@@AAV?$basic_string@DU?$char_traits@D@std@@V?$allocator@D@2@@2@@Z@std@@YA$$QAP6AXPAV?$vector@V?$shared_ptr@VCContact@@@std@@V?$allocator@V?$shared_ptr@VCContact@@@std@@@2@@0@AAV?$basic_string@DU?$char_traits@D@std@@V?$allocator@D@2@@0@@ZAAP6AX01@Z@Z ; std::forward<void (__cdecl*)(std::vector<std::shared_ptr<CContact>,std::allocator<std::shared_ptr<CContact> > > *,std::basic_string<char,std::char_traits<char>,std::allocator<char> > &)>
PUBLIC	??$_Call@P6AXPAV?$vector@V?$shared_ptr@VCContact@@@std@@V?$allocator@V?$shared_ptr@VCContact@@@std@@@2@@std@@AAV?$basic_string@DU?$char_traits@D@std@@V?$allocator@D@2@@2@@ZPAV12@V32@@_Invoker_functor@std@@SAX$$QAP6AXPAV?$vector@V?$shared_ptr@VCContact@@@std@@V?$allocator@V?$shared_ptr@VCContact@@@std@@@2@@1@AAV?$basic_string@DU?$char_traits@D@std@@V?$allocator@D@2@@1@@Z$$QAPAV21@$$QAV31@@Z ; std::_Invoker_functor::_Call<void (__cdecl*)(std::vector<std::shared_ptr<CContact>,std::allocator<std::shared_ptr<CContact> > > *,std::basic_string<char,std::char_traits<char>,std::allocator<char> > &),std::vector<std::shared_ptr<CContact>,std::allocator<std::shared_ptr<CContact> > > *,std::basic_string<char,std::char_traits<char>,std::allocator<char> > >
PUBLIC	??$invoke@P6AXPAV?$vector@V?$shared_ptr@VCContact@@@std@@V?$allocator@V?$shared_ptr@VCContact@@@std@@@2@@std@@AAV?$basic_string@DU?$char_traits@D@std@@V?$allocator@D@2@@2@@ZPAV12@V32@@std@@YAX$$QAP6AXPAV?$vector@V?$shared_ptr@VCContact@@@std@@V?$allocator@V?$shared_ptr@VCContact@@@std@@@2@@0@AAV?$basic_string@DU?$char_traits@D@std@@V?$allocator@D@2@@0@@Z$$QAPAV10@$$QAV20@@Z ; std::invoke<void (__cdecl*)(std::vector<std::shared_ptr<CContact>,std::allocator<std::shared_ptr<CContact> > > *,std::basic_string<char,std::char_traits<char>,std::allocator<char> > &),std::vector<std::shared_ptr<CContact>,std::allocator<std::shared_ptr<CContact> > > *,std::basic_string<char,std::char_traits<char>,std::allocator<char> > >
PUBLIC	??$?0U?$default_delete@V?$tuple@P6AXPAV?$vector@V?$shared_ptr@VCContact@@@std@@V?$allocator@V?$shared_ptr@VCContact@@@std@@@2@@std@@AAV?$basic_string@DU?$char_traits@D@std@@V?$allocator@D@2@@2@@ZPAV12@V32@@std@@@std@@AAPAV?$tuple@P6AXPAV?$vector@V?$shared_ptr@VCContact@@@std@@V?$allocator@V?$shared_ptr@VCContact@@@std@@@2@@std@@AAV?$basic_string@DU?$char_traits@D@std@@V?$allocator@D@2@@2@@ZPAV12@V32@@1@@?$_Compressed_pair@U?$default_delete@V?$tuple@P6AXPAV?$vector@V?$shared_ptr@VCContact@@@std@@V?$allocator@V?$shared_ptr@VCContact@@@std@@@2@@std@@AAV?$basic_string@DU?$char_traits@D@std@@V?$allocator@D@2@@2@@ZPAV12@V32@@std@@@std@@PAV?$tuple@P6AXPAV?$vector@V?$shared_ptr@VCContact@@@std@@V?$allocator@V?$shared_ptr@VCContact@@@std@@@2@@std@@AAV?$basic_string@DU?$char_traits@D@std@@V?$allocator@D@2@@2@@ZPAV12@V32@@2@$00@std@@QAE@U_One_then_variadic_args_t@1@$$QAU?$default_delete@V?$tuple@P6AXPAV?$vector@V?$shared_ptr@VCContact@@@std@@V?$allocator@V?$shared_ptr@VCContact@@@std@@@2@@std@@AAV?$basic_string@DU?$char_traits@D@std@@V?$allocator@D@2@@2@@ZPAV12@V32@@std@@@1@AAPAV?$tuple@P6AXPAV?$vector@V?$shared_ptr@VCContact@@@std@@V?$allocator@V?$shared_ptr@VCContact@@@std@@@2@@std@@AAV?$basic_string@DU?$char_traits@D@std@@V?$allocator@D@2@@2@@ZPAV12@V32@@1@@Z ; std::_Compressed_pair<std::default_delete<std::tuple<void (__cdecl*)(std::vector<std::shared_ptr<CContact>,std::allocator<std::shared_ptr<CContact> > > *,std::basic_string<char,std::char_traits<char>,std::allocator<char> > &),std::vector<std::shared_ptr<CContact>,std::allocator<std::shared_ptr<CContact> > > *,std::basic_string<char,std::char_traits<char>,std::allocator<char> > > >,std::tuple<void (__cdecl*)(std::vector<std::shared_ptr<CContact>,std::allocator<std::shared_ptr<CContact> > > *,std::basic_string<char,std::char_traits<char>,std::allocator<char> > &),std::vector<std::shared_ptr<CContact>,std::allocator<std::shared_ptr<CContact> > > *,std::basic_string<char,std::char_traits<char>,std::allocator<char> > > *,1>::_Compressed_pair<std::default_delete<std::tuple<void (__cdecl*)(std::vector<std::shared_ptr<CContact>,std::allocator<std::shared_ptr<CContact> > > *,std::basic_string<char,std::char_traits<char>,std::allocator<char> > &),std::vector<std::shared_ptr<CContact>,std::allocator<std::shared_ptr<CContact> > > *,std::basic_string<char,std::char_traits<char>,std::allocator<char> > > >,std::tuple<void (__cdecl*)(std::vector<std::shared_ptr<CContact>,std::allocator<std::shared_ptr<CContact> > > *,std::basic_string<char,std::char_traits<char>,std::allocator<char> > &),std::vector<std::shared_ptr<CContact>,std::allocator<std::shared_ptr<CContact> > > *,std::basic_string<char,std::char_traits<char>,std::allocator<char> > > *,1><std::default_delete<std::tuple<void (__cdecl*)(std::vector<std::shared_ptr<CContact>,std::allocator<std::shared_ptr<CContact> > > *,std::basic_string<char,std::char_traits<char>,std::allocator<char> > &),std::vector<std::shared_ptr<CContact>,std::allocator<std::shared_ptr<CContact> > > *,std::basic_string<char,std::char_traits<char>,std::allocator<char> > > >,std::tuple<void (__cdecl*)(std::vector<std::shared_ptr<CContact>,std::allocator<std::shared_ptr<CContact> > > *,std::basic_string<char,std::char_traits<char>,std::allocator<char> > &),std::vector<std::shared_ptr<CContact>,std::allocator<std::shared_ptr<CContact> > > *,std::basic_string<char,std::char_traits<char>,std::allocator<char> > > * &>
PUBLIC	??$invoke@VCContact@@@?$save_non_pointer_type@Vtext_oarchive@archive@boost@@@detail@archive@boost@@SAXAAVtext_oarchive@23@ABVCContact@@@Z ; boost::archive::detail::save_non_pointer_type<boost::archive::text_oarchive>::invoke<CContact>
PUBLIC	??$load@Vtext_iarchive@archive@boost@@VCContact@@@archive@boost@@YAXAAVtext_iarchive@01@AAVCContact@@@Z ; boost::archive::load<boost::archive::text_iarchive,CContact>
PUBLIC	??$?0U_Exact_args_t@std@@AAV?$basic_string@DU?$char_traits@D@std@@V?$allocator@D@2@@1@$$V$0A@@?$tuple@V?$basic_string@DU?$char_traits@D@std@@V?$allocator@D@2@@std@@@std@@QAE@U_Exact_args_t@1@AAV?$basic_string@DU?$char_traits@D@std@@V?$allocator@D@2@@1@@Z ; std::tuple<std::basic_string<char,std::char_traits<char>,std::allocator<char> > >::tuple<std::basic_string<char,std::char_traits<char>,std::allocator<char> > ><std::_Exact_args_t,std::basic_string<char,std::char_traits<char>,std::allocator<char> > &,0>
PUBLIC	??$?0PAV?$vector@V?$shared_ptr@VCContact@@@std@@V?$allocator@V?$shared_ptr@VCContact@@@std@@@2@@std@@@?$_Tuple_val@PAV?$vector@V?$shared_ptr@VCContact@@@std@@V?$allocator@V?$shared_ptr@VCContact@@@std@@@2@@std@@@std@@QAE@$$QAPAV?$vector@V?$shared_ptr@VCContact@@@std@@V?$allocator@V?$shared_ptr@VCContact@@@std@@@2@@1@@Z ; std::_Tuple_val<std::vector<std::shared_ptr<CContact>,std::allocator<std::shared_ptr<CContact> > > *>::_Tuple_val<std::vector<std::shared_ptr<CContact>,std::allocator<std::shared_ptr<CContact> > > *><std::vector<std::shared_ptr<CContact>,std::allocator<std::shared_ptr<CContact> > > *>
PUBLIC	??$invoke@Utracking_type@archive@boost@@@?$save_non_pointer_type@Vtext_oarchive@archive@boost@@@detail@archive@boost@@SAXAAVtext_oarchive@23@ABUtracking_type@23@@Z ; boost::archive::detail::save_non_pointer_type<boost::archive::text_oarchive>::invoke<boost::archive::tracking_type>
PUBLIC	??$invoke@Vclass_id_reference_type@archive@boost@@@?$save_non_pointer_type@Vtext_oarchive@archive@boost@@@detail@archive@boost@@SAXAAVtext_oarchive@23@ABVclass_id_reference_type@23@@Z ; boost::archive::detail::save_non_pointer_type<boost::archive::text_oarchive>::invoke<boost::archive::class_id_reference_type>
PUBLIC	??$invoke@Vclass_id_type@archive@boost@@@?$save_non_pointer_type@Vtext_oarchive@archive@boost@@@detail@archive@boost@@SAXAAVtext_oarchive@23@ABVclass_id_type@23@@Z ; boost::archive::detail::save_non_pointer_type<boost::archive::text_oarchive>::invoke<boost::archive::class_id_type>
PUBLIC	??$invoke@Vobject_reference_type@archive@boost@@@?$save_non_pointer_type@Vtext_oarchive@archive@boost@@@detail@archive@boost@@SAXAAVtext_oarchive@23@ABVobject_reference_type@23@@Z ; boost::archive::detail::save_non_pointer_type<boost::archive::text_oarchive>::invoke<boost::archive::object_reference_type>
PUBLIC	??$invoke@Vversion_type@archive@boost@@@?$save_non_pointer_type@Vtext_oarchive@archive@boost@@@detail@archive@boost@@SAXAAVtext_oarchive@23@ABVversion_type@23@@Z ; boost::archive::detail::save_non_pointer_type<boost::archive::text_oarchive>::invoke<boost::archive::version_type>
PUBLIC	??$load@Vtext_iarchive@archive@boost@@Utracking_type@23@@archive@boost@@YAXAAVtext_iarchive@01@AAUtracking_type@01@@Z ; boost::archive::load<boost::archive::text_iarchive,boost::archive::tracking_type>
PUBLIC	??$load@Vtext_iarchive@archive@boost@@Vclass_id_type@23@@archive@boost@@YAXAAVtext_iarchive@01@AAVclass_id_type@01@@Z ; boost::archive::load<boost::archive::text_iarchive,boost::archive::class_id_type>
PUBLIC	??$load@Vtext_iarchive@archive@boost@@Vobject_id_type@23@@archive@boost@@YAXAAVtext_iarchive@01@AAVobject_id_type@01@@Z ; boost::archive::load<boost::archive::text_iarchive,boost::archive::object_id_type>
PUBLIC	??$load@Vtext_iarchive@archive@boost@@Vversion_type@23@@archive@boost@@YAXAAVtext_iarchive@01@AAVversion_type@01@@Z ; boost::archive::load<boost::archive::text_iarchive,boost::archive::version_type>
PUBLIC	??$destroy@V?$shared_ptr@VCContact@@@std@@@?$allocator@V?$shared_ptr@VCContact@@@std@@@std@@QAEXPAV?$shared_ptr@VCContact@@@1@@Z ; std::allocator<std::shared_ptr<CContact> >::destroy<std::shared_ptr<CContact> >
PUBLIC	??$save@Vtext_oarchive@archive@boost@@$$CBV?$basic_string@DU?$char_traits@D@std@@V?$allocator@D@2@@std@@@archive@boost@@YAXAAVtext_oarchive@01@ABV?$basic_string@DU?$char_traits@D@std@@V?$allocator@D@2@@std@@@Z ; boost::archive::save<boost::archive::text_oarchive,std::basic_string<char,std::char_traits<char>,std::allocator<char> > const >
PUBLIC	??$check_object_versioning@Vobject_id_type@archive@boost@@@detail@archive@boost@@YAXXZ ; boost::archive::detail::check_object_versioning<boost::archive::object_id_type>
PUBLIC	??$invoke@Vobject_id_type@archive@boost@@@save_primitive@?$save_non_pointer_type@Vtext_oarchive@archive@boost@@@detail@archive@boost@@SAXAAVtext_oarchive@34@ABVobject_id_type@34@@Z ; boost::archive::detail::save_non_pointer_type<boost::archive::text_oarchive>::save_primitive::invoke<boost::archive::object_id_type>
PUBLIC	??$forward@AAPAV?$tuple@P6AXPAV?$vector@V?$shared_ptr@VCContact@@@std@@V?$allocator@V?$shared_ptr@VCContact@@@std@@@2@@std@@AAV?$basic_string@DU?$char_traits@D@std@@V?$allocator@D@2@@2@@ZPAV12@V32@@std@@@std@@YAAAPAV?$tuple@P6AXPAV?$vector@V?$shared_ptr@VCContact@@@std@@V?$allocator@V?$shared_ptr@VCContact@@@std@@@2@@std@@AAV?$basic_string@DU?$char_traits@D@std@@V?$allocator@D@2@@2@@ZPAV12@V32@@0@AAPAV10@@Z ; std::forward<std::tuple<void (__cdecl*)(std::vector<std::shared_ptr<CContact>,std::allocator<std::shared_ptr<CContact> > > *,std::basic_string<char,std::char_traits<char>,std::allocator<char> > &),std::vector<std::shared_ptr<CContact>,std::allocator<std::shared_ptr<CContact> > > *,std::basic_string<char,std::char_traits<char>,std::allocator<char> > > * &>
PUBLIC	??$check_object_versioning@VCContact@@@detail@archive@boost@@YAXXZ ; boost::archive::detail::check_object_versioning<CContact>
PUBLIC	??$invoke@VCContact@@@save_standard@?$save_non_pointer_type@Vtext_oarchive@archive@boost@@@detail@archive@boost@@SAXAAVtext_oarchive@34@ABVCContact@@@Z ; boost::archive::detail::save_non_pointer_type<boost::archive::text_oarchive>::save_standard::invoke<CContact>
PUBLIC	??$check_const_loading@VCContact@@@detail@archive@boost@@YAXXZ ; boost::archive::detail::check_const_loading<CContact>
PUBLIC	??$invoke@VCContact@@@?$load_non_pointer_type@Vtext_iarchive@archive@boost@@@detail@archive@boost@@SAXAAVtext_iarchive@23@AAVCContact@@@Z ; boost::archive::detail::load_non_pointer_type<boost::archive::text_iarchive>::invoke<CContact>
PUBLIC	??$?0U_Exact_args_t@std@@$0A@@?$tuple@$$V@std@@QAE@U_Exact_args_t@1@@Z ; std::tuple<>::tuple<><std::_Exact_args_t,0>
PUBLIC	??$?0AAV?$basic_string@DU?$char_traits@D@std@@V?$allocator@D@2@@std@@@?$_Tuple_val@V?$basic_string@DU?$char_traits@D@std@@V?$allocator@D@2@@std@@@std@@QAE@AAV?$basic_string@DU?$char_traits@D@std@@V?$allocator@D@2@@1@@Z ; std::_Tuple_val<std::basic_string<char,std::char_traits<char>,std::allocator<char> > >::_Tuple_val<std::basic_string<char,std::char_traits<char>,std::allocator<char> > ><std::basic_string<char,std::char_traits<char>,std::allocator<char> > &>
PUBLIC	??$check_object_versioning@Utracking_type@archive@boost@@@detail@archive@boost@@YAXXZ ; boost::archive::detail::check_object_versioning<boost::archive::tracking_type>
PUBLIC	??$invoke@Utracking_type@archive@boost@@@save_primitive@?$save_non_pointer_type@Vtext_oarchive@archive@boost@@@detail@archive@boost@@SAXAAVtext_oarchive@34@ABUtracking_type@34@@Z ; boost::archive::detail::save_non_pointer_type<boost::archive::text_oarchive>::save_primitive::invoke<boost::archive::tracking_type>
PUBLIC	??$check_object_versioning@Vclass_id_reference_type@archive@boost@@@detail@archive@boost@@YAXXZ ; boost::archive::detail::check_object_versioning<boost::archive::class_id_reference_type>
PUBLIC	??$invoke@Vclass_id_reference_type@archive@boost@@@save_primitive@?$save_non_pointer_type@Vtext_oarchive@archive@boost@@@detail@archive@boost@@SAXAAVtext_oarchive@34@ABVclass_id_reference_type@34@@Z ; boost::archive::detail::save_non_pointer_type<boost::archive::text_oarchive>::save_primitive::invoke<boost::archive::class_id_reference_type>
PUBLIC	??$check_object_versioning@Vclass_id_type@archive@boost@@@detail@archive@boost@@YAXXZ ; boost::archive::detail::check_object_versioning<boost::archive::class_id_type>
PUBLIC	??$invoke@Vclass_id_type@archive@boost@@@save_primitive@?$save_non_pointer_type@Vtext_oarchive@archive@boost@@@detail@archive@boost@@SAXAAVtext_oarchive@34@ABVclass_id_type@34@@Z ; boost::archive::detail::save_non_pointer_type<boost::archive::text_oarchive>::save_primitive::invoke<boost::archive::class_id_type>
PUBLIC	??$check_object_versioning@Vobject_reference_type@archive@boost@@@detail@archive@boost@@YAXXZ ; boost::archive::detail::check_object_versioning<boost::archive::object_reference_type>
PUBLIC	??$invoke@Vobject_reference_type@archive@boost@@@save_primitive@?$save_non_pointer_type@Vtext_oarchive@archive@boost@@@detail@archive@boost@@SAXAAVtext_oarchive@34@ABVobject_reference_type@34@@Z ; boost::archive::detail::save_non_pointer_type<boost::archive::text_oarchive>::save_primitive::invoke<boost::archive::object_reference_type>
PUBLIC	??$check_object_versioning@Vversion_type@archive@boost@@@detail@archive@boost@@YAXXZ ; boost::archive::detail::check_object_versioning<boost::archive::version_type>
PUBLIC	??$invoke@Vversion_type@archive@boost@@@save_primitive@?$save_non_pointer_type@Vtext_oarchive@archive@boost@@@detail@archive@boost@@SAXAAVtext_oarchive@34@ABVversion_type@34@@Z ; boost::archive::detail::save_non_pointer_type<boost::archive::text_oarchive>::save_primitive::invoke<boost::archive::version_type>
PUBLIC	??$check_const_loading@Utracking_type@archive@boost@@@detail@archive@boost@@YAXXZ ; boost::archive::detail::check_const_loading<boost::archive::tracking_type>
PUBLIC	??$invoke@Utracking_type@archive@boost@@@?$load_non_pointer_type@Vtext_iarchive@archive@boost@@@detail@archive@boost@@SAXAAVtext_iarchive@23@AAUtracking_type@23@@Z ; boost::archive::detail::load_non_pointer_type<boost::archive::text_iarchive>::invoke<boost::archive::tracking_type>
PUBLIC	??$check_const_loading@Vclass_id_type@archive@boost@@@detail@archive@boost@@YAXXZ ; boost::archive::detail::check_const_loading<boost::archive::class_id_type>
PUBLIC	??$invoke@Vclass_id_type@archive@boost@@@?$load_non_pointer_type@Vtext_iarchive@archive@boost@@@detail@archive@boost@@SAXAAVtext_iarchive@23@AAVclass_id_type@23@@Z ; boost::archive::detail::load_non_pointer_type<boost::archive::text_iarchive>::invoke<boost::archive::class_id_type>
PUBLIC	??$check_const_loading@Vobject_id_type@archive@boost@@@detail@archive@boost@@YAXXZ ; boost::archive::detail::check_const_loading<boost::archive::object_id_type>
PUBLIC	??$invoke@Vobject_id_type@archive@boost@@@?$load_non_pointer_type@Vtext_iarchive@archive@boost@@@detail@archive@boost@@SAXAAVtext_iarchive@23@AAVobject_id_type@23@@Z ; boost::archive::detail::load_non_pointer_type<boost::archive::text_iarchive>::invoke<boost::archive::object_id_type>
PUBLIC	??$check_const_loading@Vversion_type@archive@boost@@@detail@archive@boost@@YAXXZ ; boost::archive::detail::check_const_loading<boost::archive::version_type>
PUBLIC	??$invoke@Vversion_type@archive@boost@@@?$load_non_pointer_type@Vtext_iarchive@archive@boost@@@detail@archive@boost@@SAXAAVtext_iarchive@23@AAVversion_type@23@@Z ; boost::archive::detail::load_non_pointer_type<boost::archive::text_iarchive>::invoke<boost::archive::version_type>
PUBLIC	??$invoke@V?$basic_string@DU?$char_traits@D@std@@V?$allocator@D@2@@std@@@?$save_non_pointer_type@Vtext_oarchive@archive@boost@@@detail@archive@boost@@SAXAAVtext_oarchive@23@ABV?$basic_string@DU?$char_traits@D@std@@V?$allocator@D@2@@std@@@Z ; boost::archive::detail::save_non_pointer_type<boost::archive::text_oarchive>::invoke<std::basic_string<char,std::char_traits<char>,std::allocator<char> > >
PUBLIC	??$save_primitive@Vtext_oarchive@archive@boost@@Vobject_id_type@23@@save_access@archive@boost@@SAXAAVtext_oarchive@12@ABVobject_id_type@12@@Z ; boost::archive::save_access::save_primitive<boost::archive::text_oarchive,boost::archive::object_id_type>
PUBLIC	?use@?$singleton@V?$oserializer@Vtext_oarchive@archive@boost@@VCContact@@@detail@archive@boost@@@serialization@boost@@CAXPBV?$oserializer@Vtext_oarchive@archive@boost@@VCContact@@@detail@archive@3@@Z ; boost::serialization::singleton<boost::archive::detail::oserializer<boost::archive::text_oarchive,CContact> >::use
PUBLIC	?get_instance@?$singleton@V?$oserializer@Vtext_oarchive@archive@boost@@VCContact@@@detail@archive@boost@@@serialization@boost@@CAAAV?$oserializer@Vtext_oarchive@archive@boost@@VCContact@@@detail@archive@3@XZ ; boost::serialization::singleton<boost::archive::detail::oserializer<boost::archive::text_oarchive,CContact> >::get_instance
PUBLIC	?get_const_instance@?$singleton@V?$oserializer@Vtext_oarchive@archive@boost@@VCContact@@@detail@archive@boost@@@serialization@boost@@SAABV?$oserializer@Vtext_oarchive@archive@boost@@VCContact@@@detail@archive@3@XZ ; boost::serialization::singleton<boost::archive::detail::oserializer<boost::archive::text_oarchive,CContact> >::get_const_instance
PUBLIC	??0?$oserializer@Vtext_oarchive@archive@boost@@VCContact@@@detail@archive@boost@@QAE@XZ ; boost::archive::detail::oserializer<boost::archive::text_oarchive,CContact>::oserializer<boost::archive::text_oarchive,CContact>
PUBLIC	?save_object_data@?$oserializer@Vtext_oarchive@archive@boost@@VCContact@@@detail@archive@boost@@UBEXAAVbasic_oarchive@234@PBX@Z ; boost::archive::detail::oserializer<boost::archive::text_oarchive,CContact>::save_object_data
PUBLIC	?class_info@?$oserializer@Vtext_oarchive@archive@boost@@VCContact@@@detail@archive@boost@@UBE_NXZ ; boost::archive::detail::oserializer<boost::archive::text_oarchive,CContact>::class_info
PUBLIC	?tracking@?$oserializer@Vtext_oarchive@archive@boost@@VCContact@@@detail@archive@boost@@UBE_NI@Z ; boost::archive::detail::oserializer<boost::archive::text_oarchive,CContact>::tracking
PUBLIC	?version@?$oserializer@Vtext_oarchive@archive@boost@@VCContact@@@detail@archive@boost@@UBE?AVversion_type@34@XZ ; boost::archive::detail::oserializer<boost::archive::text_oarchive,CContact>::version
PUBLIC	?is_polymorphic@?$oserializer@Vtext_oarchive@archive@boost@@VCContact@@@detail@archive@boost@@UBE_NXZ ; boost::archive::detail::oserializer<boost::archive::text_oarchive,CContact>::is_polymorphic
PUBLIC	??1?$oserializer@Vtext_oarchive@archive@boost@@VCContact@@@detail@archive@boost@@UAE@XZ ; boost::archive::detail::oserializer<boost::archive::text_oarchive,CContact>::~oserializer<boost::archive::text_oarchive,CContact>
PUBLIC	??_G?$oserializer@Vtext_oarchive@archive@boost@@VCContact@@@detail@archive@boost@@UAEPAXI@Z ; boost::archive::detail::oserializer<boost::archive::text_oarchive,CContact>::`scalar deleting destructor'
PUBLIC	??$check_object_level@VCContact@@@detail@archive@boost@@YAXXZ ; boost::archive::detail::check_object_level<CContact>
PUBLIC	??$invoke@VCContact@@@load_standard@?$load_non_pointer_type@Vtext_iarchive@archive@boost@@@detail@archive@boost@@SAXAAVtext_iarchive@34@ABVCContact@@@Z ; boost::archive::detail::load_non_pointer_type<boost::archive::text_iarchive>::load_standard::invoke<CContact>
PUBLIC	??$save_primitive@Vtext_oarchive@archive@boost@@Utracking_type@23@@save_access@archive@boost@@SAXAAVtext_oarchive@12@ABUtracking_type@12@@Z ; boost::archive::save_access::save_primitive<boost::archive::text_oarchive,boost::archive::tracking_type>
PUBLIC	??$save_primitive@Vtext_oarchive@archive@boost@@Vclass_id_reference_type@23@@save_access@archive@boost@@SAXAAVtext_oarchive@12@ABVclass_id_reference_type@12@@Z ; boost::archive::save_access::save_primitive<boost::archive::text_oarchive,boost::archive::class_id_reference_type>
PUBLIC	??$save_primitive@Vtext_oarchive@archive@boost@@Vclass_id_type@23@@save_access@archive@boost@@SAXAAVtext_oarchive@12@ABVclass_id_type@12@@Z ; boost::archive::save_access::save_primitive<boost::archive::text_oarchive,boost::archive::class_id_type>
PUBLIC	??$save_primitive@Vtext_oarchive@archive@boost@@Vobject_reference_type@23@@save_access@archive@boost@@SAXAAVtext_oarchive@12@ABVobject_reference_type@12@@Z ; boost::archive::save_access::save_primitive<boost::archive::text_oarchive,boost::archive::object_reference_type>
PUBLIC	??$save_primitive@Vtext_oarchive@archive@boost@@Vversion_type@23@@save_access@archive@boost@@SAXAAVtext_oarchive@12@ABVversion_type@12@@Z ; boost::archive::save_access::save_primitive<boost::archive::text_oarchive,boost::archive::version_type>
PUBLIC	??$check_object_level@Utracking_type@archive@boost@@@detail@archive@boost@@YAXXZ ; boost::archive::detail::check_object_level<boost::archive::tracking_type>
PUBLIC	??$invoke@Utracking_type@archive@boost@@@load_primitive@?$load_non_pointer_type@Vtext_iarchive@archive@boost@@@detail@archive@boost@@SAXAAVtext_iarchive@34@AAUtracking_type@34@@Z ; boost::archive::detail::load_non_pointer_type<boost::archive::text_iarchive>::load_primitive::invoke<boost::archive::tracking_type>
PUBLIC	??$check_object_level@Vclass_id_type@archive@boost@@@detail@archive@boost@@YAXXZ ; boost::archive::detail::check_object_level<boost::archive::class_id_type>
PUBLIC	??$invoke@Vclass_id_type@archive@boost@@@load_primitive@?$load_non_pointer_type@Vtext_iarchive@archive@boost@@@detail@archive@boost@@SAXAAVtext_iarchive@34@AAVclass_id_type@34@@Z ; boost::archive::detail::load_non_pointer_type<boost::archive::text_iarchive>::load_primitive::invoke<boost::archive::class_id_type>
PUBLIC	??$check_object_level@Vobject_id_type@archive@boost@@@detail@archive@boost@@YAXXZ ; boost::archive::detail::check_object_level<boost::archive::object_id_type>
PUBLIC	??$invoke@Vobject_id_type@archive@boost@@@load_primitive@?$load_non_pointer_type@Vtext_iarchive@archive@boost@@@detail@archive@boost@@SAXAAVtext_iarchive@34@AAVobject_id_type@34@@Z ; boost::archive::detail::load_non_pointer_type<boost::archive::text_iarchive>::load_primitive::invoke<boost::archive::object_id_type>
PUBLIC	??$check_object_level@Vversion_type@archive@boost@@@detail@archive@boost@@YAXXZ ; boost::archive::detail::check_object_level<boost::archive::version_type>
PUBLIC	??$invoke@Vversion_type@archive@boost@@@load_primitive@?$load_non_pointer_type@Vtext_iarchive@archive@boost@@@detail@archive@boost@@SAXAAVtext_iarchive@34@AAVversion_type@34@@Z ; boost::archive::detail::load_non_pointer_type<boost::archive::text_iarchive>::load_primitive::invoke<boost::archive::version_type>
PUBLIC	??$check_object_versioning@V?$basic_string@DU?$char_traits@D@std@@V?$allocator@D@2@@std@@@detail@archive@boost@@YAXXZ ; boost::archive::detail::check_object_versioning<std::basic_string<char,std::char_traits<char>,std::allocator<char> > >
PUBLIC	??$invoke@V?$basic_string@DU?$char_traits@D@std@@V?$allocator@D@2@@std@@@save_primitive@?$save_non_pointer_type@Vtext_oarchive@archive@boost@@@detail@archive@boost@@SAXAAVtext_oarchive@34@ABV?$basic_string@DU?$char_traits@D@std@@V?$allocator@D@2@@std@@@Z ; boost::archive::detail::save_non_pointer_type<boost::archive::text_oarchive>::save_primitive::invoke<std::basic_string<char,std::char_traits<char>,std::allocator<char> > >
PUBLIC	??$save@Vobject_id_type@archive@boost@@@?$text_oarchive_impl@Vtext_oarchive@archive@boost@@@archive@boost@@IAEXABVobject_id_type@12@@Z ; boost::archive::text_oarchive_impl<boost::archive::text_oarchive>::save<boost::archive::object_id_type>
PUBLIC	??1?$singleton_wrapper@V?$oserializer@Vtext_oarchive@archive@boost@@VCContact@@@detail@archive@boost@@@detail@serialization@boost@@UAE@XZ ; boost::serialization::detail::singleton_wrapper<boost::archive::detail::oserializer<boost::archive::text_oarchive,CContact> >::~singleton_wrapper<boost::archive::detail::oserializer<boost::archive::text_oarchive,CContact> >
PUBLIC	??0?$singleton_wrapper@V?$oserializer@Vtext_oarchive@archive@boost@@VCContact@@@detail@archive@boost@@@detail@serialization@boost@@QAE@XZ ; boost::serialization::detail::singleton_wrapper<boost::archive::detail::oserializer<boost::archive::text_oarchive,CContact> >::singleton_wrapper<boost::archive::detail::oserializer<boost::archive::text_oarchive,CContact> >
PUBLIC	??_G?$singleton_wrapper@V?$oserializer@Vtext_oarchive@archive@boost@@VCContact@@@detail@archive@boost@@@detail@serialization@boost@@UAEPAXI@Z ; boost::serialization::detail::singleton_wrapper<boost::archive::detail::oserializer<boost::archive::text_oarchive,CContact> >::`scalar deleting destructor'
PUBLIC	??__Ft@?1??get_instance@?$singleton@V?$oserializer@Vtext_oarchive@archive@boost@@VCContact@@@detail@archive@boost@@@serialization@boost@@CAAAV?$oserializer@Vtext_oarchive@archive@boost@@VCContact@@@detail@archive@3@XZ@YAXXZ ; `boost::serialization::singleton<boost::archive::detail::oserializer<boost::archive::text_oarchive,CContact> >::get_instance'::`2'::`dynamic atexit destructor for 't''
PUBLIC	?use@?$singleton@V?$extended_type_info_typeid@VCContact@@@serialization@boost@@@serialization@boost@@CAXPBV?$extended_type_info_typeid@VCContact@@@23@@Z ; boost::serialization::singleton<boost::serialization::extended_type_info_typeid<CContact> >::use
PUBLIC	?get_instance@?$singleton@V?$extended_type_info_typeid@VCContact@@@serialization@boost@@@serialization@boost@@CAAAV?$extended_type_info_typeid@VCContact@@@23@XZ ; boost::serialization::singleton<boost::serialization::extended_type_info_typeid<CContact> >::get_instance
PUBLIC	?get_const_instance@?$singleton@V?$extended_type_info_typeid@VCContact@@@serialization@boost@@@serialization@boost@@SAABV?$extended_type_info_typeid@VCContact@@@23@XZ ; boost::serialization::singleton<boost::serialization::extended_type_info_typeid<CContact> >::get_const_instance
PUBLIC	??0?$extended_type_info_typeid@VCContact@@@serialization@boost@@QAE@XZ ; boost::serialization::extended_type_info_typeid<CContact>::extended_type_info_typeid<CContact>
PUBLIC	??1?$extended_type_info_typeid@VCContact@@@serialization@boost@@UAE@XZ ; boost::serialization::extended_type_info_typeid<CContact>::~extended_type_info_typeid<CContact>
PUBLIC	?construct@?$extended_type_info_typeid@VCContact@@@serialization@boost@@UBAPAXIZZ ; boost::serialization::extended_type_info_typeid<CContact>::construct
PUBLIC	?destroy@?$extended_type_info_typeid@VCContact@@@serialization@boost@@UBEXQBX@Z ; boost::serialization::extended_type_info_typeid<CContact>::destroy
PUBLIC	??_G?$extended_type_info_typeid@VCContact@@@serialization@boost@@UAEPAXI@Z ; boost::serialization::extended_type_info_typeid<CContact>::`scalar deleting destructor'
PUBLIC	??$destroy@VCContact@@@access@serialization@boost@@SAXPBVCContact@@@Z ; boost::serialization::access::destroy<CContact>
PUBLIC	??$__vcrt_va_start_verify_argument_type@I@@YAXXZ ; __vcrt_va_start_verify_argument_type<unsigned int>
PUBLIC	??$factory@VCContact@@$0A@@serialization@boost@@YAPAVCContact@@PAD@Z ; boost::serialization::factory<CContact,0>
PUBLIC	??$factory@VCContact@@$00@serialization@boost@@YAPAVCContact@@PAD@Z ; boost::serialization::factory<CContact,1>
PUBLIC	??$factory@VCContact@@$01@serialization@boost@@YAPAVCContact@@PAD@Z ; boost::serialization::factory<CContact,2>
PUBLIC	??$factory@VCContact@@$02@serialization@boost@@YAPAVCContact@@PAD@Z ; boost::serialization::factory<CContact,3>
PUBLIC	??$factory@VCContact@@$03@serialization@boost@@YAPAVCContact@@PAD@Z ; boost::serialization::factory<CContact,4>
PUBLIC	??1?$singleton_wrapper@V?$extended_type_info_typeid@VCContact@@@serialization@boost@@@detail@serialization@boost@@UAE@XZ ; boost::serialization::detail::singleton_wrapper<boost::serialization::extended_type_info_typeid<CContact> >::~singleton_wrapper<boost::serialization::extended_type_info_typeid<CContact> >
PUBLIC	??0?$singleton_wrapper@V?$extended_type_info_typeid@VCContact@@@serialization@boost@@@detail@serialization@boost@@QAE@XZ ; boost::serialization::detail::singleton_wrapper<boost::serialization::extended_type_info_typeid<CContact> >::singleton_wrapper<boost::serialization::extended_type_info_typeid<CContact> >
PUBLIC	??_G?$singleton_wrapper@V?$extended_type_info_typeid@VCContact@@@serialization@boost@@@detail@serialization@boost@@UAEPAXI@Z ; boost::serialization::detail::singleton_wrapper<boost::serialization::extended_type_info_typeid<CContact> >::`scalar deleting destructor'
PUBLIC	??__Ft@?1??get_instance@?$singleton@V?$extended_type_info_typeid@VCContact@@@serialization@boost@@@serialization@boost@@CAAAV?$extended_type_info_typeid@VCContact@@@23@XZ@YAXXZ ; `boost::serialization::singleton<boost::serialization::extended_type_info_typeid<CContact> >::get_instance'::`2'::`dynamic atexit destructor for 't''
PUBLIC	??$guid@VCContact@@@serialization@boost@@YAPBDXZ ; boost::serialization::guid<CContact>
PUBLIC	??$smart_cast_reference@AAVtext_oarchive@archive@boost@@Vbasic_oarchive@detail@23@@serialization@boost@@YAAAVtext_oarchive@archive@1@AAVbasic_oarchive@detail@31@@Z ; boost::serialization::smart_cast_reference<boost::archive::text_oarchive &,boost::archive::detail::basic_oarchive>
PUBLIC	??$serialize_adl@Vtext_oarchive@archive@boost@@VCContact@@@serialization@boost@@YAXAAVtext_oarchive@archive@1@AAVCContact@@I@Z ; boost::serialization::serialize_adl<boost::archive::text_oarchive,CContact>
PUBLIC	?use@?$singleton@V?$iserializer@Vtext_iarchive@archive@boost@@VCContact@@@detail@archive@boost@@@serialization@boost@@CAXPBV?$iserializer@Vtext_iarchive@archive@boost@@VCContact@@@detail@archive@3@@Z ; boost::serialization::singleton<boost::archive::detail::iserializer<boost::archive::text_iarchive,CContact> >::use
PUBLIC	?get_instance@?$singleton@V?$iserializer@Vtext_iarchive@archive@boost@@VCContact@@@detail@archive@boost@@@serialization@boost@@CAAAV?$iserializer@Vtext_iarchive@archive@boost@@VCContact@@@detail@archive@3@XZ ; boost::serialization::singleton<boost::archive::detail::iserializer<boost::archive::text_iarchive,CContact> >::get_instance
PUBLIC	?get_const_instance@?$singleton@V?$iserializer@Vtext_iarchive@archive@boost@@VCContact@@@detail@archive@boost@@@serialization@boost@@SAABV?$iserializer@Vtext_iarchive@archive@boost@@VCContact@@@detail@archive@3@XZ ; boost::serialization::singleton<boost::archive::detail::iserializer<boost::archive::text_iarchive,CContact> >::get_const_instance
PUBLIC	?destroy@?$iserializer@Vtext_iarchive@archive@boost@@VCContact@@@detail@archive@boost@@EBEXPAX@Z ; boost::archive::detail::iserializer<boost::archive::text_iarchive,CContact>::destroy
PUBLIC	??0?$iserializer@Vtext_iarchive@archive@boost@@VCContact@@@detail@archive@boost@@IAE@XZ ; boost::archive::detail::iserializer<boost::archive::text_iarchive,CContact>::iserializer<boost::archive::text_iarchive,CContact>
PUBLIC	?load_object_data@?$iserializer@Vtext_iarchive@archive@boost@@VCContact@@@detail@archive@boost@@UBEXAAVbasic_iarchive@234@PAXI@Z ; boost::archive::detail::iserializer<boost::archive::text_iarchive,CContact>::load_object_data
PUBLIC	?class_info@?$iserializer@Vtext_iarchive@archive@boost@@VCContact@@@detail@archive@boost@@UBE_NXZ ; boost::archive::detail::iserializer<boost::archive::text_iarchive,CContact>::class_info
PUBLIC	?tracking@?$iserializer@Vtext_iarchive@archive@boost@@VCContact@@@detail@archive@boost@@UBE_NI@Z ; boost::archive::detail::iserializer<boost::archive::text_iarchive,CContact>::tracking
PUBLIC	?version@?$iserializer@Vtext_iarchive@archive@boost@@VCContact@@@detail@archive@boost@@UBE?AVversion_type@34@XZ ; boost::archive::detail::iserializer<boost::archive::text_iarchive,CContact>::version
PUBLIC	?is_polymorphic@?$iserializer@Vtext_iarchive@archive@boost@@VCContact@@@detail@archive@boost@@UBE_NXZ ; boost::archive::detail::iserializer<boost::archive::text_iarchive,CContact>::is_polymorphic
PUBLIC	??1?$iserializer@Vtext_iarchive@archive@boost@@VCContact@@@detail@archive@boost@@UAE@XZ ; boost::archive::detail::iserializer<boost::archive::text_iarchive,CContact>::~iserializer<boost::archive::text_iarchive,CContact>
PUBLIC	??_G?$iserializer@Vtext_iarchive@archive@boost@@VCContact@@@detail@archive@boost@@UAEPAXI@Z ; boost::archive::detail::iserializer<boost::archive::text_iarchive,CContact>::`scalar deleting destructor'
PUBLIC	??$save@Utracking_type@archive@boost@@@?$text_oarchive_impl@Vtext_oarchive@archive@boost@@@archive@boost@@IAEXABUtracking_type@12@@Z ; boost::archive::text_oarchive_impl<boost::archive::text_oarchive>::save<boost::archive::tracking_type>
PUBLIC	??$save@Vclass_id_reference_type@archive@boost@@@?$text_oarchive_impl@Vtext_oarchive@archive@boost@@@archive@boost@@IAEXABVclass_id_reference_type@12@@Z ; boost::archive::text_oarchive_impl<boost::archive::text_oarchive>::save<boost::archive::class_id_reference_type>
PUBLIC	??$save@Vclass_id_type@archive@boost@@@?$text_oarchive_impl@Vtext_oarchive@archive@boost@@@archive@boost@@IAEXABVclass_id_type@12@@Z ; boost::archive::text_oarchive_impl<boost::archive::text_oarchive>::save<boost::archive::class_id_type>
PUBLIC	??$save@Vobject_reference_type@archive@boost@@@?$text_oarchive_impl@Vtext_oarchive@archive@boost@@@archive@boost@@IAEXABVobject_reference_type@12@@Z ; boost::archive::text_oarchive_impl<boost::archive::text_oarchive>::save<boost::archive::object_reference_type>
PUBLIC	??$load_primitive@Vtext_iarchive@archive@boost@@Utracking_type@23@@load_access@archive@boost@@SAXAAVtext_iarchive@12@AAUtracking_type@12@@Z ; boost::archive::load_access::load_primitive<boost::archive::text_iarchive,boost::archive::tracking_type>
PUBLIC	??$load_primitive@Vtext_iarchive@archive@boost@@Vclass_id_type@23@@load_access@archive@boost@@SAXAAVtext_iarchive@12@AAVclass_id_type@12@@Z ; boost::archive::load_access::load_primitive<boost::archive::text_iarchive,boost::archive::class_id_type>
PUBLIC	??$load_primitive@Vtext_iarchive@archive@boost@@Vobject_id_type@23@@load_access@archive@boost@@SAXAAVtext_iarchive@12@AAVobject_id_type@12@@Z ; boost::archive::load_access::load_primitive<boost::archive::text_iarchive,boost::archive::object_id_type>
PUBLIC	??$load_primitive@Vtext_iarchive@archive@boost@@Vversion_type@23@@load_access@archive@boost@@SAXAAVtext_iarchive@12@AAVversion_type@12@@Z ; boost::archive::load_access::load_primitive<boost::archive::text_iarchive,boost::archive::version_type>
PUBLIC	??$save_primitive@Vtext_oarchive@archive@boost@@V?$basic_string@DU?$char_traits@D@std@@V?$allocator@D@2@@std@@@save_access@archive@boost@@SAXAAVtext_oarchive@12@ABV?$basic_string@DU?$char_traits@D@std@@V?$allocator@D@2@@std@@@Z ; boost::archive::save_access::save_primitive<boost::archive::text_oarchive,std::basic_string<char,std::char_traits<char>,std::allocator<char> > >
PUBLIC	??$save@Vobject_id_type@archive@boost@@@?$basic_text_oprimitive@V?$basic_ostream@DU?$char_traits@D@std@@@std@@@archive@boost@@IAEXABVobject_id_type@12@@Z ; boost::archive::basic_text_oprimitive<std::basic_ostream<char,std::char_traits<char> > >::save<boost::archive::object_id_type>
PUBLIC	?call@?$guid_impl@VCContact@@@ext@serialization@boost@@SAPBDXZ ; boost::serialization::ext::guid_impl<CContact>::call
PUBLIC	??$save@I@?$text_oarchive_impl@Vtext_oarchive@archive@boost@@@archive@boost@@IAEXABI@Z ; boost::archive::text_oarchive_impl<boost::archive::text_oarchive>::save<unsigned int>
PUBLIC	??1?$singleton_wrapper@V?$iserializer@Vtext_iarchive@archive@boost@@VCContact@@@detail@archive@boost@@@detail@serialization@boost@@UAE@XZ ; boost::serialization::detail::singleton_wrapper<boost::archive::detail::iserializer<boost::archive::text_iarchive,CContact> >::~singleton_wrapper<boost::archive::detail::iserializer<boost::archive::text_iarchive,CContact> >
PUBLIC	??0?$singleton_wrapper@V?$iserializer@Vtext_iarchive@archive@boost@@VCContact@@@detail@archive@boost@@@detail@serialization@boost@@QAE@XZ ; boost::serialization::detail::singleton_wrapper<boost::archive::detail::iserializer<boost::archive::text_iarchive,CContact> >::singleton_wrapper<boost::archive::detail::iserializer<boost::archive::text_iarchive,CContact> >
PUBLIC	??_G?$singleton_wrapper@V?$iserializer@Vtext_iarchive@archive@boost@@VCContact@@@detail@archive@boost@@@detail@serialization@boost@@UAEPAXI@Z ; boost::serialization::detail::singleton_wrapper<boost::archive::detail::iserializer<boost::archive::text_iarchive,CContact> >::`scalar deleting destructor'
PUBLIC	??__Ft@?1??get_instance@?$singleton@V?$iserializer@Vtext_iarchive@archive@boost@@VCContact@@@detail@archive@boost@@@serialization@boost@@CAAAV?$iserializer@Vtext_iarchive@archive@boost@@VCContact@@@detail@archive@3@XZ@YAXXZ ; `boost::serialization::singleton<boost::archive::detail::iserializer<boost::archive::text_iarchive,CContact> >::get_instance'::`2'::`dynamic atexit destructor for 't''
PUBLIC	??$cast@Vbasic_oarchive@detail@archive@boost@@@?$reference@AAVtext_oarchive@archive@boost@@@smart_cast_impl@serialization@boost@@SAAAVtext_oarchive@archive@3@AAVbasic_oarchive@detail@53@@Z ; boost::serialization::smart_cast_impl::reference<boost::archive::text_oarchive &>::cast<boost::archive::detail::basic_oarchive>
PUBLIC	??$serialize@Vtext_oarchive@archive@boost@@VCContact@@@serialization@boost@@YAXAAVtext_oarchive@archive@1@AAVCContact@@I@Z ; boost::serialization::serialize<boost::archive::text_oarchive,CContact>
PUBLIC	??$smart_cast_reference@AAVtext_iarchive@archive@boost@@Vbasic_iarchive@detail@23@@serialization@boost@@YAAAVtext_iarchive@archive@1@AAVbasic_iarchive@detail@31@@Z ; boost::serialization::smart_cast_reference<boost::archive::text_iarchive &,boost::archive::detail::basic_iarchive>
PUBLIC	??$serialize_adl@Vtext_iarchive@archive@boost@@VCContact@@@serialization@boost@@YAXAAVtext_iarchive@archive@1@AAVCContact@@I@Z ; boost::serialization::serialize_adl<boost::archive::text_iarchive,CContact>
PUBLIC	??$save@Utracking_type@archive@boost@@@?$basic_text_oprimitive@V?$basic_ostream@DU?$char_traits@D@std@@@std@@@archive@boost@@IAEXABUtracking_type@12@@Z ; boost::archive::basic_text_oprimitive<std::basic_ostream<char,std::char_traits<char> > >::save<boost::archive::tracking_type>
PUBLIC	??$save@Vclass_id_reference_type@archive@boost@@@?$basic_text_oprimitive@V?$basic_ostream@DU?$char_traits@D@std@@@std@@@archive@boost@@IAEXABVclass_id_reference_type@12@@Z ; boost::archive::basic_text_oprimitive<std::basic_ostream<char,std::char_traits<char> > >::save<boost::archive::class_id_reference_type>
PUBLIC	??$save@Vclass_id_type@archive@boost@@@?$basic_text_oprimitive@V?$basic_ostream@DU?$char_traits@D@std@@@std@@@archive@boost@@IAEXABVclass_id_type@12@@Z ; boost::archive::basic_text_oprimitive<std::basic_ostream<char,std::char_traits<char> > >::save<boost::archive::class_id_type>
PUBLIC	??$save@Vobject_reference_type@archive@boost@@@?$basic_text_oprimitive@V?$basic_ostream@DU?$char_traits@D@std@@@std@@@archive@boost@@IAEXABVobject_reference_type@12@@Z ; boost::archive::basic_text_oprimitive<std::basic_ostream<char,std::char_traits<char> > >::save<boost::archive::object_reference_type>
PUBLIC	??$load@Utracking_type@archive@boost@@@?$text_iarchive_impl@Vtext_iarchive@archive@boost@@@archive@boost@@IAEXAAUtracking_type@12@@Z ; boost::archive::text_iarchive_impl<boost::archive::text_iarchive>::load<boost::archive::tracking_type>
PUBLIC	??$load@Vclass_id_type@archive@boost@@@?$text_iarchive_impl@Vtext_iarchive@archive@boost@@@archive@boost@@IAEXAAVclass_id_type@12@@Z ; boost::archive::text_iarchive_impl<boost::archive::text_iarchive>::load<boost::archive::class_id_type>
PUBLIC	??$load@Vobject_id_type@archive@boost@@@?$text_iarchive_impl@Vtext_iarchive@archive@boost@@@archive@boost@@IAEXAAVobject_id_type@12@@Z ; boost::archive::text_iarchive_impl<boost::archive::text_iarchive>::load<boost::archive::object_id_type>
PUBLIC	??$save_impl@Vobject_id_type@archive@boost@@@?$basic_text_oprimitive@V?$basic_ostream@DU?$char_traits@D@std@@@std@@@archive@boost@@IAEXABVobject_id_type@12@AAU?$bool_@$0A@@mpl@2@@Z ; boost::archive::basic_text_oprimitive<std::basic_ostream<char,std::char_traits<char> > >::save_impl<boost::archive::object_id_type>
PUBLIC	??$save@I@?$basic_text_oprimitive@V?$basic_ostream@DU?$char_traits@D@std@@@std@@@archive@boost@@IAEXABI@Z ; boost::archive::basic_text_oprimitive<std::basic_ostream<char,std::char_traits<char> > >::save<unsigned int>
PUBLIC	??$load@I@?$text_iarchive_impl@Vtext_iarchive@archive@boost@@@archive@boost@@IAEXAAI@Z ; boost::archive::text_iarchive_impl<boost::archive::text_iarchive>::load<unsigned int>
PUBLIC	??$cast@Vbasic_oarchive@detail@archive@boost@@@polymorphic@?$reference@AAVtext_oarchive@archive@boost@@@smart_cast_impl@serialization@boost@@SAAAVtext_oarchive@archive@4@AAVbasic_oarchive@detail@64@@Z ; boost::serialization::smart_cast_impl::reference<boost::archive::text_oarchive &>::polymorphic::cast<boost::archive::detail::basic_oarchive>
PUBLIC	??$serialize@Vtext_oarchive@archive@boost@@VCContact@@@access@serialization@boost@@SAXAAVtext_oarchive@archive@2@AAVCContact@@I@Z ; boost::serialization::access::serialize<boost::archive::text_oarchive,CContact>
PUBLIC	??$cast@Vbasic_iarchive@detail@archive@boost@@@?$reference@AAVtext_iarchive@archive@boost@@@smart_cast_impl@serialization@boost@@SAAAVtext_iarchive@archive@3@AAVbasic_iarchive@detail@53@@Z ; boost::serialization::smart_cast_impl::reference<boost::archive::text_iarchive &>::cast<boost::archive::detail::basic_iarchive>
PUBLIC	??$serialize@Vtext_iarchive@archive@boost@@VCContact@@@serialization@boost@@YAXAAVtext_iarchive@archive@1@AAVCContact@@I@Z ; boost::serialization::serialize<boost::archive::text_iarchive,CContact>
PUBLIC	??$save_impl@Utracking_type@archive@boost@@@?$basic_text_oprimitive@V?$basic_ostream@DU?$char_traits@D@std@@@std@@@archive@boost@@IAEXABUtracking_type@12@AAU?$bool_@$0A@@mpl@2@@Z ; boost::archive::basic_text_oprimitive<std::basic_ostream<char,std::char_traits<char> > >::save_impl<boost::archive::tracking_type>
PUBLIC	??$save_impl@Vclass_id_reference_type@archive@boost@@@?$basic_text_oprimitive@V?$basic_ostream@DU?$char_traits@D@std@@@std@@@archive@boost@@IAEXABVclass_id_reference_type@12@AAU?$bool_@$0A@@mpl@2@@Z ; boost::archive::basic_text_oprimitive<std::basic_ostream<char,std::char_traits<char> > >::save_impl<boost::archive::class_id_reference_type>
PUBLIC	??$save_impl@Vclass_id_type@archive@boost@@@?$basic_text_oprimitive@V?$basic_ostream@DU?$char_traits@D@std@@@std@@@archive@boost@@IAEXABVclass_id_type@12@AAU?$bool_@$0A@@mpl@2@@Z ; boost::archive::basic_text_oprimitive<std::basic_ostream<char,std::char_traits<char> > >::save_impl<boost::archive::class_id_type>
PUBLIC	??$save_impl@Vobject_reference_type@archive@boost@@@?$basic_text_oprimitive@V?$basic_ostream@DU?$char_traits@D@std@@@std@@@archive@boost@@IAEXABVobject_reference_type@12@AAU?$bool_@$0A@@mpl@2@@Z ; boost::archive::basic_text_oprimitive<std::basic_ostream<char,std::char_traits<char> > >::save_impl<boost::archive::object_reference_type>
PUBLIC	??$load@Utracking_type@archive@boost@@@?$basic_text_iprimitive@V?$basic_istream@DU?$char_traits@D@std@@@std@@@archive@boost@@IAEXAAUtracking_type@12@@Z ; boost::archive::basic_text_iprimitive<std::basic_istream<char,std::char_traits<char> > >::load<boost::archive::tracking_type>
PUBLIC	??$load@Vclass_id_type@archive@boost@@@?$basic_text_iprimitive@V?$basic_istream@DU?$char_traits@D@std@@@std@@@archive@boost@@IAEXAAVclass_id_type@12@@Z ; boost::archive::basic_text_iprimitive<std::basic_istream<char,std::char_traits<char> > >::load<boost::archive::class_id_type>
PUBLIC	??$load@Vobject_id_type@archive@boost@@@?$basic_text_iprimitive@V?$basic_istream@DU?$char_traits@D@std@@@std@@@archive@boost@@IAEXAAVobject_id_type@12@@Z ; boost::archive::basic_text_iprimitive<std::basic_istream<char,std::char_traits<char> > >::load<boost::archive::object_id_type>
PUBLIC	??$throw_exception@Varchive_exception@archive@boost@@@serialization@boost@@YAXABVarchive_exception@archive@1@@Z ; boost::serialization::throw_exception<boost::archive::archive_exception>
PUBLIC	??$save_impl@I@?$basic_text_oprimitive@V?$basic_ostream@DU?$char_traits@D@std@@@std@@@archive@boost@@IAEXABIAAU?$bool_@$0A@@mpl@2@@Z ; boost::archive::basic_text_oprimitive<std::basic_ostream<char,std::char_traits<char> > >::save_impl<unsigned int>
PUBLIC	??$load@I@?$basic_text_iprimitive@V?$basic_istream@DU?$char_traits@D@std@@@std@@@archive@boost@@IAEXAAI@Z ; boost::archive::basic_text_iprimitive<std::basic_istream<char,std::char_traits<char> > >::load<unsigned int>
PUBLIC	??$cast@Vbasic_oarchive@detail@archive@boost@@@cross@polymorphic@?$reference@AAVtext_oarchive@archive@boost@@@smart_cast_impl@serialization@boost@@SAAAVtext_oarchive@archive@5@AAVbasic_oarchive@detail@75@@Z ; boost::serialization::smart_cast_impl::reference<boost::archive::text_oarchive &>::polymorphic::cross::cast<boost::archive::detail::basic_oarchive>
PUBLIC	??$serialize@Vtext_oarchive@archive@boost@@@CContact@@IAEXAAVtext_oarchive@archive@boost@@I@Z ; CContact::serialize<boost::archive::text_oarchive>
PUBLIC	??$cast@Vbasic_iarchive@detail@archive@boost@@@polymorphic@?$reference@AAVtext_iarchive@archive@boost@@@smart_cast_impl@serialization@boost@@SAAAVtext_iarchive@archive@4@AAVbasic_iarchive@detail@64@@Z ; boost::serialization::smart_cast_impl::reference<boost::archive::text_iarchive &>::polymorphic::cast<boost::archive::detail::basic_iarchive>
PUBLIC	??$serialize@Vtext_iarchive@archive@boost@@VCContact@@@access@serialization@boost@@SAXAAVtext_iarchive@archive@2@AAVCContact@@I@Z ; boost::serialization::access::serialize<boost::archive::text_iarchive,CContact>
PUBLIC	??$split_member@Vtext_oarchive@archive@boost@@VCContact@@@serialization@boost@@YAXAAVtext_oarchive@archive@1@AAVCContact@@I@Z ; boost::serialization::split_member<boost::archive::text_oarchive,CContact>
PUBLIC	??$cast@Vbasic_iarchive@detail@archive@boost@@@cross@polymorphic@?$reference@AAVtext_iarchive@archive@boost@@@smart_cast_impl@serialization@boost@@SAAAVtext_iarchive@archive@5@AAVbasic_iarchive@detail@75@@Z ; boost::serialization::smart_cast_impl::reference<boost::archive::text_iarchive &>::polymorphic::cross::cast<boost::archive::detail::basic_iarchive>
PUBLIC	??$serialize@Vtext_iarchive@archive@boost@@@CContact@@IAEXAAVtext_iarchive@archive@boost@@I@Z ; CContact::serialize<boost::archive::text_iarchive>
PUBLIC	?invoke@?$member_saver@Vtext_oarchive@archive@boost@@VCContact@@@detail@serialization@boost@@SAXAAVtext_oarchive@archive@4@ABVCContact@@I@Z ; boost::serialization::detail::member_saver<boost::archive::text_oarchive,CContact>::invoke
PUBLIC	??$split_member@Vtext_iarchive@archive@boost@@VCContact@@@serialization@boost@@YAXAAVtext_iarchive@archive@1@AAVCContact@@I@Z ; boost::serialization::split_member<boost::archive::text_iarchive,CContact>
PUBLIC	??$member_save@Vtext_oarchive@archive@boost@@$$CBVCContact@@@access@serialization@boost@@SAXAAVtext_oarchive@archive@2@ABVCContact@@I@Z ; boost::serialization::access::member_save<boost::archive::text_oarchive,CContact const >
PUBLIC	?invoke@?$member_loader@Vtext_iarchive@archive@boost@@VCContact@@@detail@serialization@boost@@SAXAAVtext_iarchive@archive@4@AAVCContact@@I@Z ; boost::serialization::detail::member_loader<boost::archive::text_iarchive,CContact>::invoke
PUBLIC	??$member_load@Vtext_iarchive@archive@boost@@VCContact@@@access@serialization@boost@@SAXAAVtext_iarchive@archive@2@AAVCContact@@I@Z ; boost::serialization::access::member_load<boost::archive::text_iarchive,CContact>
PUBLIC	??_E?$basic_ifstream@DU?$char_traits@D@std@@@std@@$4PPPPPPPM@A@AEPAXI@Z ; std::basic_ifstream<char,std::char_traits<char> >::`vector deleting destructor'
PUBLIC	??_E?$basic_ofstream@DU?$char_traits@D@std@@@std@@$4PPPPPPPM@A@AEPAXI@Z ; std::basic_ofstream<char,std::char_traits<char> >::`vector deleting destructor'
PUBLIC	??_7exception@std@@6B@				; std::exception::`vftable'
PUBLIC	??_C@_0BC@EOODALEL@Unknown?5exception?$AA@	; `string'
PUBLIC	??_C@_1JA@MHADJNIL@?$AAc?$AA?3?$AA?2?$AAp?$AAr?$AAo?$AAg?$AAr?$AAa?$AAm?$AA?5?$AAf?$AAi?$AAl?$AAe?$AAs?$AA?5?$AA?$CI?$AAx?$AA8?$AA6?$AA?$CJ?$AA?2?$AAm?$AAi?$AAc?$AAr?$AAo?$AAs?$AAo?$AAf?$AAt@ ; `string'
PUBLIC	??_C@_1DC@POOIKBAO@?$AAI?$AAT?$AAE?$AAR?$AAA?$AAT?$AAO?$AAR?$AA?5?$AAL?$AAI?$AAS?$AAT?$AA?5?$AAC?$AAO?$AAR?$AAR?$AAU?$AAP?$AAT?$AAE?$AAD?$AA?$CB?$AA?$AA@ ; `string'
PUBLIC	?__LINE__Var@?0??_Allocate@std@@YAPAXII_N@Z@4JA	; `std::_Allocate'::`1'::__LINE__Var
PUBLIC	??_C@_0BE@LMNLACIC@_Ptr_container?5?$CB?$DN?50?$AA@ ; `string'
PUBLIC	??_C@_1DG@HGDKEBPG@?$AA?$CC?$AA_?$AAP?$AAt?$AAr?$AA_?$AAc?$AAo?$AAn?$AAt?$AAa?$AAi?$AAn?$AAe?$AAr?$AA?5?$AA?$CB?$AA?$DN?$AA?5?$AA0?$AA?$CC?$AA?5?$AA?$CG?$AA?$CG?$AA?5?$AA0?$AA?$AA@ ; `string'
PUBLIC	??_C@_17CNPHIMPH@?$AA?$CF?$AAl?$AAs?$AA?$AA@	; `string'
PUBLIC	??_C@_1JA@DKOIEICI@?$AAc?$AA?3?$AA?2?$AAp?$AAr?$AAo?$AAg?$AAr?$AAa?$AAm?$AA?5?$AAf?$AAi?$AAl?$AAe?$AAs?$AA?5?$AA?$CI?$AAx?$AA8?$AA6?$AA?$CJ?$AA?2?$AAm?$AAi?$AAc?$AAr?$AAo?$AAs?$AAo?$AAf?$AAt@ ; `string'
PUBLIC	??_C@_1BO@NKFMJPA@?$AAs?$AAt?$AAd?$AA?3?$AA?3?$AA_?$AAA?$AAl?$AAl?$AAo?$AAc?$AAa?$AAt?$AAe?$AA?$AA@ ; `string'
PUBLIC	??_C@_1CG@JNLFBNGN@?$AA?$CC?$AAi?$AAn?$AAv?$AAa?$AAl?$AAi?$AAd?$AA?5?$AAa?$AAr?$AAg?$AAu?$AAm?$AAe?$AAn?$AAt?$AA?$CC?$AA?$AA@ ; `string'
PUBLIC	??_C@_09GLJCAGLP@_Ptr?5?$CB?$DN?50?$AA@		; `string'
PUBLIC	??_C@_1CC@GKJLLHIM@?$AA?$CC?$AA_?$AAP?$AAt?$AAr?$AA?5?$AA?$CB?$AA?$DN?$AA?5?$AA0?$AA?$CC?$AA?5?$AA?$CG?$AA?$CG?$AA?5?$AA0?$AA?$AA@ ; `string'
PUBLIC	?__LINE__Var@?0??_Deallocate@std@@YAXPAXII@Z@4JA ; `std::_Deallocate'::`1'::__LINE__Var
PUBLIC	??_C@_0BN@HMCJOMKN@_Count?5?$DM?$DN?5?$CIsize_t?$CJ?$CI?91?$CJ?5?1?5_Sz?$AA@ ; `string'
PUBLIC	??_C@_1EI@MLOBABC@?$AA?$CC?$AA_?$AAC?$AAo?$AAu?$AAn?$AAt?$AA?5?$AA?$DM?$AA?$DN?$AA?5?$AA?$CI?$AAs?$AAi?$AAz?$AAe?$AA_?$AAt?$AA?$CJ?$AA?$CI?$AA?9?$AA1?$AA?$CJ?$AA?5?$AA?1?$AA?5?$AA_?$AAS?$AAz?$AA?$CC?$AA?5?$AA?$CG@ ; `string'
PUBLIC	??_C@_1CC@LOFJFFDB@?$AAs?$AAt?$AAd?$AA?3?$AA?3?$AA_?$AAD?$AAe?$AAa?$AAl?$AAl?$AAo?$AAc?$AAa?$AAt?$AAe?$AA?$AA@ ; `string'
PUBLIC	??_C@_0DD@GBGGGKGG@?$CI_Ptr_user?5?$CG?5?$CI_BIG_ALLOCATION_AL@ ; `string'
PUBLIC	??_C@_1HE@CDMBFOKC@?$AA?$CC?$AA?$CI?$AA_?$AAP?$AAt?$AAr?$AA_?$AAu?$AAs?$AAe?$AAr?$AA?5?$AA?$CG?$AA?5?$AA?$CI?$AA_?$AAB?$AAI?$AAG?$AA_?$AAA?$AAL?$AAL?$AAO?$AAC?$AAA?$AAT?$AAI?$AAO?$AAN?$AA_?$AAA@ ; `string'
PUBLIC	??_C@_0EI@NOJHEJCJ@reinterpret_cast?$DMuintptr_t?5?$CK?$DO?$CI_P@ ; `string'
PUBLIC	??_C@_1JO@EKLKIEHP@?$AA?$CC?$AAr?$AAe?$AAi?$AAn?$AAt?$AAe?$AAr?$AAp?$AAr?$AAe?$AAt?$AA_?$AAc?$AAa?$AAs?$AAt?$AA?$DM?$AAu?$AAi?$AAn?$AAt?$AAp?$AAt?$AAr?$AA_?$AAt?$AA?5?$AA?$CK?$AA?$DO?$AA?$CI?$AA_@ ; `string'
PUBLIC	??_C@_0BL@OCKMEJON@_Ptr_container?5?$DM?5_Ptr_user?$AA@ ; `string'
PUBLIC	??_C@_1EE@PDHAHDDC@?$AA?$CC?$AA_?$AAP?$AAt?$AAr?$AA_?$AAc?$AAo?$AAn?$AAt?$AAa?$AAi?$AAn?$AAe?$AAr?$AA?5?$AA?$DM?$AA?5?$AA_?$AAP?$AAt?$AAr?$AA_?$AAu?$AAs?$AAe?$AAr?$AA?$CC?$AA?5?$AA?$CG?$AA?$CG?$AA?5@ ; `string'
PUBLIC	??_C@_0DB@GLFJLNCE@2?5?$CK?5sizeof?$CIvoid?5?$CK?$CJ?5?$DM?$DN?5_Ptr_user?5@ ; `string'
PUBLIC	??_C@_1HA@NAPGMHAO@?$AA?$CC?$AA2?$AA?5?$AA?$CK?$AA?5?$AAs?$AAi?$AAz?$AAe?$AAo?$AAf?$AA?$CI?$AAv?$AAo?$AAi?$AAd?$AA?5?$AA?$CK?$AA?$CJ?$AA?5?$AA?$DM?$AA?$DN?$AA?5?$AA_?$AAP?$AAt?$AAr?$AA_?$AAu?$AAs?$AAe?$AAr@ ; `string'
PUBLIC	??_C@_0CN@BLHJCAL@_Ptr_user?5?9?5_Ptr_container?5?$DM?$DN?5_N@ ; `string'
PUBLIC	??_C@_1GI@DHJGPFNI@?$AA?$CC?$AA_?$AAP?$AAt?$AAr?$AA_?$AAu?$AAs?$AAe?$AAr?$AA?5?$AA?9?$AA?5?$AA_?$AAP?$AAt?$AAr?$AA_?$AAc?$AAo?$AAn?$AAt?$AAa?$AAi?$AAn?$AAe?$AAr?$AA?5?$AA?$DM?$AA?$DN?$AA?5?$AA_@ ; `string'
PUBLIC	?npos@?$basic_string@DU?$char_traits@D@std@@V?$allocator@D@2@@std@@2IB ; std::basic_string<char,std::char_traits<char>,std::allocator<char> >::npos
PUBLIC	??_7bad_cast@std@@6B@				; std::bad_cast::`vftable'
PUBLIC	??_C@_08EPJLHIJG@bad?5cast?$AA@			; `string'
PUBLIC	??_R0?AVexception@std@@@8			; std::exception `RTTI Type Descriptor'
PUBLIC	__CT??_R0?AVexception@std@@@8??0exception@std@@QAE@ABV01@@Z12
PUBLIC	??_7_Ref_count_base@std@@6B@			; std::_Ref_count_base::`vftable'
PUBLIC	??_7_Pad@std@@6B@				; std::_Pad::`vftable'
PUBLIC	??_C@_1IO@DBEBMPEE@?$AAs?$AA?3?$AA?2?$AAu?$AAs?$AAe?$AAr?$AAs?$AA?2?$AAp?$AAu?$AAb?$AAl?$AAi?$AAc?$AA?2?$AAd?$AAo?$AAc?$AAu?$AAm?$AAe?$AAn?$AAt?$AAs?$AA?2?$AAb?$AAo?$AAo?$AAs?$AAt?$AA_@ ; `string'
PUBLIC	??_C@_1GE@MNCNLAH@?$AAt?$AA_?$AA?5?$AA?$DM?$AA?$DN?$AA?5?$AAb?$AAo?$AAo?$AAs?$AAt?$AA?3?$AA?3?$AAi?$AAn?$AAt?$AAe?$AAg?$AAe?$AAr?$AA_?$AAt?$AAr?$AAa?$AAi?$AAt?$AAs?$AA?$DM?$AAb?$AAa?$AAs?$AAe@ ; `string'
PUBLIC	??_C@_0CI@FNPHFCCM@Standard?5C?$CL?$CL?5Libraries?5Invalid?5A@ ; `string'
PUBLIC	??_C@_1FO@GJIHNDLM@?$AA?$CC?$AAS?$AAt?$AAa?$AAn?$AAd?$AAa?$AAr?$AAd?$AA?5?$AAC?$AA?$CL?$AA?$CL?$AA?5?$AAL?$AAi?$AAb?$AAr?$AAa?$AAr?$AAi?$AAe?$AAs?$AA?5?$AAI?$AAn?$AAv?$AAa?$AAl?$AAi?$AAd?$AA?5@ ; `string'
PUBLIC	??_7?$basic_text_iarchive@Vtext_iarchive@archive@boost@@@archive@boost@@6B@ ; boost::archive::basic_text_iarchive<boost::archive::text_iarchive>::`vftable'
PUBLIC	??_7?$text_iarchive_impl@Vtext_iarchive@archive@boost@@@archive@boost@@6B@ ; boost::archive::text_iarchive_impl<boost::archive::text_iarchive>::`vftable'
PUBLIC	??_7text_iarchive@archive@boost@@6B@		; boost::archive::text_iarchive::`vftable'
PUBLIC	??_7?$basic_text_oarchive@Vtext_oarchive@archive@boost@@@archive@boost@@6B@ ; boost::archive::basic_text_oarchive<boost::archive::text_oarchive>::`vftable'
PUBLIC	??_7?$text_oarchive_impl@Vtext_oarchive@archive@boost@@@archive@boost@@6B@ ; boost::archive::text_oarchive_impl<boost::archive::text_oarchive>::`vftable'
PUBLIC	??_7text_oarchive@archive@boost@@6B@		; boost::archive::text_oarchive::`vftable'
PUBLIC	??_7?$basic_filebuf@DU?$char_traits@D@std@@@std@@6B@ ; std::basic_filebuf<char,std::char_traits<char> >::`vftable'
PUBLIC	??_7?$basic_ofstream@DU?$char_traits@D@std@@@std@@6B@ ; std::basic_ofstream<char,std::char_traits<char> >::`vftable'
PUBLIC	??_8?$basic_ofstream@DU?$char_traits@D@std@@@std@@7B@ ; std::basic_ofstream<char,std::char_traits<char> >::`vbtable'
PUBLIC	??_C@_0O@MIMFNFBN@Companies?4txt?$AA@		; `string'
PUBLIC	??_C@_0L@GLLABICK@People?4txt?$AA@		; `string'
PUBLIC	??_C@_07EEOOECP@CPerson?$AA@			; `string'
PUBLIC	??_C@_08FGJDGFCJ@CCompany?$AA@			; `string'
PUBLIC	??_7?$basic_ifstream@DU?$char_traits@D@std@@@std@@6B@ ; std::basic_ifstream<char,std::char_traits<char> >::`vftable'
PUBLIC	??_8?$basic_ifstream@DU?$char_traits@D@std@@@std@@7B@ ; std::basic_ifstream<char,std::char_traits<char> >::`vbtable'
PUBLIC	??_C@_0M@IKMOJNDM@contactList?$AA@		; `string'
PUBLIC	??_C@_0CG@MNNPHAFE@You?5don?8t?5have?5any?5contacts?5to?5r@ ; `string'
PUBLIC	??_C@_05PDJBBECF@pause?$AA@			; `string'
PUBLIC	??_C@_0FJ@GBCKFMI@Enter?5the?5name?5of?5the?5person?5or?5@ ; `string'
PUBLIC	??_C@_0DA@FLPABHKE@That?5contact?5was?5not?5found?5in?5yo@ ; `string'
PUBLIC	??_C@_0CP@GFNLJBBP@The?5contact?5was?5removed?5from?5you@ ; `string'
PUBLIC	??_C@_0CE@GGNPEDJA@You?5don?8t?5have?5any?5contacts?5to?5e@ ; `string'
PUBLIC	??_C@_0EB@GEBCPOHK@Enter?5the?5name?5of?5the?5person?5or?5@ ; `string'
PUBLIC	??_C@_03LCPHGAHP@cls?$AA@			; `string'
PUBLIC	??_C@_0DP@KOHCCCHA@Enter?5the?5first?5name?0?5last?5name?0@ ; `string'
PUBLIC	??_C@_0BA@KBDJCHMC@Found?5contacts?3?$AA@	; `string'
PUBLIC	??_C@_04OHJIHAFH@None?$AA@			; `string'
PUBLIC	??_C@_0CH@MIDKGGF@You?5don?8t?5have?5any?5contacts?5to?5d@ ; `string'
PUBLIC	??_C@_08HDBDJBNL@Goodbye?$CB?$AA@		; `string'
PUBLIC	??_C@_1IM@NCODKBJH@?$AAc?$AA?3?$AA?2?$AAp?$AAr?$AAo?$AAg?$AAr?$AAa?$AAm?$AA?5?$AAf?$AAi?$AAl?$AAe?$AAs?$AA?5?$AA?$CI?$AAx?$AA8?$AA6?$AA?$CJ?$AA?2?$AAm?$AAi?$AAc?$AAr?$AAo?$AAs?$AAo?$AAf?$AAt@ ; `string'
PUBLIC	??_C@_1EE@EJDKCLKB@?$AAv?$AAe?$AAc?$AAt?$AAo?$AAr?$AA?5?$AAi?$AAt?$AAe?$AAr?$AAa?$AAt?$AAo?$AAr?$AA?5?$AAn?$AAo?$AAt?$AA?5?$AAi?$AAn?$AAc?$AAr?$AAe?$AAm?$AAe?$AAn?$AAt?$AAa?$AAb?$AAl@ ; `string'
PUBLIC	??_C@_0CE@OFMIGAMM@Standard?5C?$CL?$CL?5Libraries?5Out?5of?5Ra@ ; `string'
PUBLIC	??_C@_1FG@IBPIFFN@?$AA?$CC?$AAS?$AAt?$AAa?$AAn?$AAd?$AAa?$AAr?$AAd?$AA?5?$AAC?$AA?$CL?$AA?$CL?$AA?5?$AAL?$AAi?$AAb?$AAr?$AAa?$AAr?$AAi?$AAe?$AAs?$AA?5?$AAO?$AAu?$AAt?$AA?5?$AAo?$AAf?$AA?5?$AAR@ ; `string'
PUBLIC	??_C@_1BAM@EPPOFCB@?$AAs?$AAt?$AAd?$AA?3?$AA?3?$AA_?$AAV?$AAe?$AAc?$AAt?$AAo?$AAr?$AA_?$AAc?$AAo?$AAn?$AAs?$AAt?$AA_?$AAi?$AAt?$AAe?$AAr?$AAa?$AAt?$AAo?$AAr?$AA?$DM?$AAc?$AAl?$AAa?$AAs@ ; `string'
PUBLIC	??_C@_1BO@MEPPHOO@?$AA?$CC?$AAo?$AAu?$AAt?$AA?5?$AAo?$AAf?$AA?5?$AAr?$AAa?$AAn?$AAg?$AAe?$AA?$CC?$AA?$AA@ ; `string'
PUBLIC	??_C@_1EG@FOHJJHAC@?$AAv?$AAe?$AAc?$AAt?$AAo?$AAr?$AA?5?$AAi?$AAt?$AAe?$AAr?$AAa?$AAt?$AAo?$AAr?$AA?5?$AAn?$AAo?$AAt?$AA?5?$AAd?$AAe?$AAr?$AAe?$AAf?$AAe?$AAr?$AAe?$AAn?$AAc?$AAa?$AAb@ ; `string'
PUBLIC	??_C@_1BAK@LJFLLKPP@?$AAs?$AAt?$AAd?$AA?3?$AA?3?$AA_?$AAV?$AAe?$AAc?$AAt?$AAo?$AAr?$AA_?$AAc?$AAo?$AAn?$AAs?$AAt?$AA_?$AAi?$AAt?$AAe?$AAr?$AAa?$AAt?$AAo?$AAr?$AA?$DM?$AAc?$AAl?$AAa?$AAs@ ; `string'
PUBLIC	??_C@_1EI@HGIDLLCM@?$AAv?$AAe?$AAc?$AAt?$AAo?$AAr?$AA?5?$AAe?$AAr?$AAa?$AAs?$AAe?$AA?5?$AAi?$AAt?$AAe?$AAr?$AAa?$AAt?$AAo?$AAr?$AA?5?$AAo?$AAu?$AAt?$AAs?$AAi?$AAd?$AAe?$AA?5?$AAr?$AAa@ ; `string'
PUBLIC	??_C@_1IO@EADHKMNI@?$AAc?$AA?3?$AA?2?$AAp?$AAr?$AAo?$AAg?$AAr?$AAa?$AAm?$AA?5?$AAf?$AAi?$AAl?$AAe?$AAs?$AA?5?$AA?$CI?$AAx?$AA8?$AA6?$AA?$CJ?$AA?2?$AAm?$AAi?$AAc?$AAr?$AAo?$AAs?$AAo?$AAf?$AAt@ ; `string'
PUBLIC	??_C@_1DM@HINDPMBP@?$AAv?$AAe?$AAc?$AAt?$AAo?$AAr?$AA?5?$AAi?$AAt?$AAe?$AAr?$AAa?$AAt?$AAo?$AAr?$AAs?$AA?5?$AAi?$AAn?$AAc?$AAo?$AAm?$AAp?$AAa?$AAt?$AAi?$AAb?$AAl?$AAe?$AA?$AA@ ; `string'
PUBLIC	??_C@_1BAE@OFDFOOPB@?$AAs?$AAt?$AAd?$AA?3?$AA?3?$AA_?$AAV?$AAe?$AAc?$AAt?$AAo?$AAr?$AA_?$AAc?$AAo?$AAn?$AAs?$AAt?$AA_?$AAi?$AAt?$AAe?$AAr?$AAa?$AAt?$AAo?$AAr?$AA?$DM?$AAc?$AAl?$AAa?$AAs@ ; `string'
PUBLIC	?_Stinit@?1??_Init@?$basic_filebuf@DU?$char_traits@D@std@@@std@@IAEXPAU_iobuf@@W4_Initfl@23@@Z@4U_Mbstatet@@A ; `std::basic_filebuf<char,std::char_traits<char> >::_Init'::`2'::_Stinit
PUBLIC	??_C@_1EM@FKAOCOMF@?$AAv?$AAe?$AAc?$AAt?$AAo?$AAr?$AA?5?$AAi?$AAt?$AAe?$AAr?$AAa?$AAt?$AAo?$AAr?$AA?5?$AA?$CL?$AA?5?$AAo?$AAf?$AAf?$AAs?$AAe?$AAt?$AA?5?$AAo?$AAu?$AAt?$AA?5?$AAo?$AAf?$AA?5@ ; `string'
PUBLIC	??_C@_1BAM@HBINONGC@?$AAs?$AAt?$AAd?$AA?3?$AA?3?$AA_?$AAV?$AAe?$AAc?$AAt?$AAo?$AAr?$AA_?$AAc?$AAo?$AAn?$AAs?$AAt?$AA_?$AAi?$AAt?$AAe?$AAr?$AAa?$AAt?$AAo?$AAr?$AA?$DM?$AAc?$AAl?$AAa?$AAs@ ; `string'
PUBLIC	??_C@_0BD@OLBABOEK@vector?$DMT?$DO?5too?5long?$AA@ ; `string'
PUBLIC	??_C@_1EG@CNCHLAOB@?$AAs?$AAt?$AAr?$AAi?$AAn?$AAg?$AA?5?$AAi?$AAt?$AAe?$AAr?$AAa?$AAt?$AAo?$AAr?$AA?5?$AAn?$AAo?$AAt?$AA?5?$AAd?$AAe?$AAr?$AAe?$AAf?$AAe?$AAr?$AAe?$AAn?$AAc?$AAa?$AAb@ ; `string'
PUBLIC	??_C@_1MG@GDGHDIKC@?$AAs?$AAt?$AAd?$AA?3?$AA?3?$AA_?$AAS?$AAt?$AAr?$AAi?$AAn?$AAg?$AA_?$AAc?$AAo?$AAn?$AAs?$AAt?$AA_?$AAi?$AAt?$AAe?$AAr?$AAa?$AAt?$AAo?$AAr?$AA?$DM?$AAc?$AAl?$AAa?$AAs@ ; `string'
PUBLIC	??_C@_0BA@JFNIOLAK@string?5too?5long?$AA@	; `string'
PUBLIC	??_C@_0BI@CFPLBAOH@invalid?5string?5position?$AA@ ; `string'
PUBLIC	__TI2?AVbad_cast@std@@
PUBLIC	__CTA2?AVbad_cast@std@@
PUBLIC	??_R0?AVbad_cast@std@@@8			; std::bad_cast `RTTI Type Descriptor'
PUBLIC	__CT??_R0?AVbad_cast@std@@@8??0bad_cast@std@@QAE@ABV01@@Z12
PUBLIC	??_7?$_Ref_count_obj@VCCompany@@@std@@6B@	; std::_Ref_count_obj<CCompany>::`vftable'
PUBLIC	??_7?$_Ref_count_obj@VCPerson@@@std@@6B@	; std::_Ref_count_obj<CPerson>::`vftable'
PUBLIC	??_C@_1CK@EOPGIILJ@?$AAi?$AAn?$AAv?$AAa?$AAl?$AAi?$AAd?$AA?5?$AAn?$AAu?$AAl?$AAl?$AA?5?$AAp?$AAo?$AAi?$AAn?$AAt?$AAe?$AAr?$AA?$AA@ ; `string'
PUBLIC	?_Psave@?$_Facetptr@V?$codecvt@DDU_Mbstatet@@@std@@@std@@2PBVfacet@locale@2@B ; std::_Facetptr<std::codecvt<char,char,_Mbstatet> >::_Psave
PUBLIC	??_7?$_LaunchPad@V?$unique_ptr@V?$tuple@P6AXPAV?$vector@V?$shared_ptr@VCContact@@@std@@V?$allocator@V?$shared_ptr@VCContact@@@std@@@2@@std@@AAV?$basic_string@DU?$char_traits@D@std@@V?$allocator@D@2@@2@@ZPAV12@V32@@std@@U?$default_delete@V?$tuple@P6AXPAV?$vector@V?$shared_ptr@VCContact@@@std@@V?$allocator@V?$shared_ptr@VCContact@@@std@@@2@@std@@AAV?$basic_string@DU?$char_traits@D@std@@V?$allocator@D@2@@2@@ZPAV12@V32@@std@@@2@@std@@@std@@6B@ ; std::_LaunchPad<std::unique_ptr<std::tuple<void (__cdecl*)(std::vector<std::shared_ptr<CContact>,std::allocator<std::shared_ptr<CContact> > > *,std::basic_string<char,std::char_traits<char>,std::allocator<char> > &),std::vector<std::shared_ptr<CContact>,std::allocator<std::shared_ptr<CContact> > > *,std::basic_string<char,std::char_traits<char>,std::allocator<char> > >,std::default_delete<std::tuple<void (__cdecl*)(std::vector<std::shared_ptr<CContact>,std::allocator<std::shared_ptr<CContact> > > *,std::basic_string<char,std::char_traits<char>,std::allocator<char> > &),std::vector<std::shared_ptr<CContact>,std::allocator<std::shared_ptr<CContact> > > *,std::basic_string<char,std::char_traits<char>,std::allocator<char> > > > > >::`vftable'
PUBLIC	?instance@?$singleton@V?$oserializer@Vtext_oarchive@archive@boost@@VCContact@@@detail@archive@boost@@@serialization@boost@@0AAV?$oserializer@Vtext_oarchive@archive@boost@@VCContact@@@detail@archive@3@A ; boost::serialization::singleton<boost::archive::detail::oserializer<boost::archive::text_oarchive,CContact> >::instance
PUBLIC	??_7?$oserializer@Vtext_oarchive@archive@boost@@VCContact@@@detail@archive@boost@@6B@ ; boost::archive::detail::oserializer<boost::archive::text_oarchive,CContact>::`vftable'
PUBLIC	?m_is_destroyed@?$singleton_wrapper@V?$oserializer@Vtext_oarchive@archive@boost@@VCContact@@@detail@archive@boost@@@detail@serialization@boost@@2_NA ; boost::serialization::detail::singleton_wrapper<boost::archive::detail::oserializer<boost::archive::text_oarchive,CContact> >::m_is_destroyed
PUBLIC	??_7?$singleton_wrapper@V?$oserializer@Vtext_oarchive@archive@boost@@VCContact@@@detail@archive@boost@@@detail@serialization@boost@@6B@ ; boost::serialization::detail::singleton_wrapper<boost::archive::detail::oserializer<boost::archive::text_oarchive,CContact> >::`vftable'
PUBLIC	?t@?1??get_instance@?$singleton@V?$oserializer@Vtext_oarchive@archive@boost@@VCContact@@@detail@archive@boost@@@serialization@boost@@CAAAV?$oserializer@Vtext_oarchive@archive@boost@@VCContact@@@detail@archive@4@XZ@4V?$singleton_wrapper@V?$oserializer@Vtext_oarchive@archive@boost@@VCContact@@@detail@archive@boost@@@634@A ; `boost::serialization::singleton<boost::archive::detail::oserializer<boost::archive::text_oarchive,CContact> >::get_instance'::`2'::t
PUBLIC	?$TSS0@?1??get_instance@?$singleton@V?$oserializer@Vtext_oarchive@archive@boost@@VCContact@@@detail@archive@boost@@@serialization@boost@@CAAAV?$oserializer@Vtext_oarchive@archive@boost@@VCContact@@@detail@archive@4@XZ@4HA ; TSS0<`template-parameter-2',boost::serialization::singleton<boost::archive::detail::oserializer<boost::archive::text_oarchive,CContact> >::et_instance,signed char,boost::archive::Vtext_oarchive::erializer,CContact>
PUBLIC	??_C@_1JC@GIHFICPP@?$AAs?$AA?3?$AA?2?$AAu?$AAs?$AAe?$AAr?$AAs?$AA?2?$AAp?$AAu?$AAb?$AAl?$AAi?$AAc?$AA?2?$AAd?$AAo?$AAc?$AAu?$AAm?$AAe?$AAn?$AAt?$AAs?$AA?2?$AAb?$AAo?$AAo?$AAs?$AAt?$AA_@ ; `string'
PUBLIC	??_C@_1GC@KKEDEOBO@?$AA?$CB?$AA?5?$AAd?$AAe?$AAt?$AAa?$AAi?$AAl?$AA?3?$AA?3?$AAs?$AAi?$AAn?$AAg?$AAl?$AAe?$AAt?$AAo?$AAn?$AA_?$AAw?$AAr?$AAa?$AAp?$AAp?$AAe?$AAr?$AA?$DM?$AA?5?$AAT?$AA?5?$AA?$DO@ ; `string'
PUBLIC	?instance@?$singleton@V?$extended_type_info_typeid@VCContact@@@serialization@boost@@@serialization@boost@@0AAV?$extended_type_info_typeid@VCContact@@@23@A ; boost::serialization::singleton<boost::serialization::extended_type_info_typeid<CContact> >::instance
PUBLIC	??_7?$extended_type_info_typeid@VCContact@@@serialization@boost@@6B@ ; boost::serialization::extended_type_info_typeid<CContact>::`vftable'
PUBLIC	??_C@_1LC@ILBAKICL@?$AAs?$AA?3?$AA?2?$AAu?$AAs?$AAe?$AAr?$AAs?$AA?2?$AAp?$AAu?$AAb?$AAl?$AAi?$AAc?$AA?2?$AAd?$AAo?$AAc?$AAu?$AAm?$AAe?$AAn?$AAt?$AAs?$AA?2?$AAb?$AAo?$AAo?$AAs?$AAt?$AA_@ ; `string'
PUBLIC	??_C@_1M@HLGKFCJM@?$AAf?$AAa?$AAl?$AAs?$AAe?$AA?$AA@ ; `string'
PUBLIC	?m_is_destroyed@?$singleton_wrapper@V?$extended_type_info_typeid@VCContact@@@serialization@boost@@@detail@serialization@boost@@2_NA ; boost::serialization::detail::singleton_wrapper<boost::serialization::extended_type_info_typeid<CContact> >::m_is_destroyed
PUBLIC	??_7?$singleton_wrapper@V?$extended_type_info_typeid@VCContact@@@serialization@boost@@@detail@serialization@boost@@6B@ ; boost::serialization::detail::singleton_wrapper<boost::serialization::extended_type_info_typeid<CContact> >::`vftable'
PUBLIC	?t@?1??get_instance@?$singleton@V?$extended_type_info_typeid@VCContact@@@serialization@boost@@@serialization@boost@@CAAAV?$extended_type_info_typeid@VCContact@@@34@XZ@4V?$singleton_wrapper@V?$extended_type_info_typeid@VCContact@@@serialization@boost@@@detail@34@A ; `boost::serialization::singleton<boost::serialization::extended_type_info_typeid<CContact> >::get_instance'::`2'::t
PUBLIC	?$TSS0@?1??get_instance@?$singleton@V?$extended_type_info_typeid@VCContact@@@serialization@boost@@@serialization@boost@@CAAAV?$extended_type_info_typeid@VCContact@@@34@XZ@4HA ; TSS0<`template-parameter-2',boost::serialization::singleton<boost::serialization::extended_type_info_typeid<CContact> >::et_instance,signed char,VCContact::tended_type_info_typeid>
PUBLIC	??_R0?AVCContact@@@8				; CContact `RTTI Type Descriptor'
PUBLIC	?instance@?$singleton@V?$iserializer@Vtext_iarchive@archive@boost@@VCContact@@@detail@archive@boost@@@serialization@boost@@0AAV?$iserializer@Vtext_iarchive@archive@boost@@VCContact@@@detail@archive@3@A ; boost::serialization::singleton<boost::archive::detail::iserializer<boost::archive::text_iarchive,CContact> >::instance
PUBLIC	??_7?$iserializer@Vtext_iarchive@archive@boost@@VCContact@@@detail@archive@boost@@6B@ ; boost::archive::detail::iserializer<boost::archive::text_iarchive,CContact>::`vftable'
PUBLIC	??_C@_1IO@PLLJMNBK@?$AAs?$AA?3?$AA?2?$AAu?$AAs?$AAe?$AAr?$AAs?$AA?2?$AAp?$AAu?$AAb?$AAl?$AAi?$AAc?$AA?2?$AAd?$AAo?$AAc?$AAu?$AAm?$AAe?$AAn?$AAt?$AAs?$AA?2?$AAb?$AAo?$AAo?$AAs?$AAt?$AA_@ ; `string'
PUBLIC	?m_is_destroyed@?$singleton_wrapper@V?$iserializer@Vtext_iarchive@archive@boost@@VCContact@@@detail@archive@boost@@@detail@serialization@boost@@2_NA ; boost::serialization::detail::singleton_wrapper<boost::archive::detail::iserializer<boost::archive::text_iarchive,CContact> >::m_is_destroyed
PUBLIC	??_7?$singleton_wrapper@V?$iserializer@Vtext_iarchive@archive@boost@@VCContact@@@detail@archive@boost@@@detail@serialization@boost@@6B@ ; boost::serialization::detail::singleton_wrapper<boost::archive::detail::iserializer<boost::archive::text_iarchive,CContact> >::`vftable'
PUBLIC	?t@?1??get_instance@?$singleton@V?$iserializer@Vtext_iarchive@archive@boost@@VCContact@@@detail@archive@boost@@@serialization@boost@@CAAAV?$iserializer@Vtext_iarchive@archive@boost@@VCContact@@@detail@archive@4@XZ@4V?$singleton_wrapper@V?$iserializer@Vtext_iarchive@archive@boost@@VCContact@@@detail@archive@boost@@@634@A ; `boost::serialization::singleton<boost::archive::detail::iserializer<boost::archive::text_iarchive,CContact> >::get_instance'::`2'::t
PUBLIC	?$TSS0@?1??get_instance@?$singleton@V?$iserializer@Vtext_iarchive@archive@boost@@VCContact@@@detail@archive@boost@@@serialization@boost@@CAAAV?$iserializer@Vtext_iarchive@archive@boost@@VCContact@@@detail@archive@4@XZ@4HA ; TSS0<`template-parameter-2',boost::serialization::singleton<boost::archive::detail::iserializer<boost::archive::text_iarchive,CContact> >::et_instance,signed char,boost::archive::Vtext_iarchive::erializer,CContact>
PUBLIC	__TI2?AVarchive_exception@archive@boost@@
PUBLIC	__CTA2?AVarchive_exception@archive@boost@@
PUBLIC	??_R0?AVarchive_exception@archive@boost@@@8	; boost::archive::archive_exception `RTTI Type Descriptor'
PUBLIC	__CT??_R0?AVarchive_exception@archive@boost@@@8??0archive_exception@archive@boost@@QAE@ABV012@@Z152
PUBLIC	__CT??_R0?AVexception@std@@@8??0exception@std@@QAE@ABV01@@Z12004
PUBLIC	??_R0?AVbasic_oarchive@detail@archive@boost@@@8	; boost::archive::detail::basic_oarchive `RTTI Type Descriptor'
PUBLIC	??_R0?AVtext_oarchive@archive@boost@@@8		; boost::archive::text_oarchive `RTTI Type Descriptor'
PUBLIC	??_R0?AVbasic_iarchive@detail@archive@boost@@@8	; boost::archive::detail::basic_iarchive `RTTI Type Descriptor'
PUBLIC	??_R0?AVtext_iarchive@archive@boost@@@8		; boost::archive::text_iarchive `RTTI Type Descriptor'
PUBLIC	??_R4exception@std@@6B@				; std::exception::`RTTI Complete Object Locator'
PUBLIC	??_R3exception@std@@8				; std::exception::`RTTI Class Hierarchy Descriptor'
PUBLIC	??_R2exception@std@@8				; std::exception::`RTTI Base Class Array'
PUBLIC	??_R1A@?0A@EA@exception@std@@8			; std::exception::`RTTI Base Class Descriptor at (0,-1,0,64)'
PUBLIC	??_R4?$basic_filebuf@DU?$char_traits@D@std@@@std@@6B@ ; std::basic_filebuf<char,std::char_traits<char> >::`RTTI Complete Object Locator'
PUBLIC	??_R0?AV?$basic_filebuf@DU?$char_traits@D@std@@@std@@@8 ; std::basic_filebuf<char,std::char_traits<char> > `RTTI Type Descriptor'
PUBLIC	??_R3?$basic_filebuf@DU?$char_traits@D@std@@@std@@8 ; std::basic_filebuf<char,std::char_traits<char> >::`RTTI Class Hierarchy Descriptor'
PUBLIC	??_R2?$basic_filebuf@DU?$char_traits@D@std@@@std@@8 ; std::basic_filebuf<char,std::char_traits<char> >::`RTTI Base Class Array'
PUBLIC	??_R1A@?0A@EA@?$basic_filebuf@DU?$char_traits@D@std@@@std@@8 ; std::basic_filebuf<char,std::char_traits<char> >::`RTTI Base Class Descriptor at (0,-1,0,64)'
PUBLIC	??_R1A@?0A@EA@?$basic_streambuf@DU?$char_traits@D@std@@@std@@8 ; std::basic_streambuf<char,std::char_traits<char> >::`RTTI Base Class Descriptor at (0,-1,0,64)'
PUBLIC	??_R0?AV?$basic_streambuf@DU?$char_traits@D@std@@@std@@@8 ; std::basic_streambuf<char,std::char_traits<char> > `RTTI Type Descriptor'
PUBLIC	??_R3?$basic_streambuf@DU?$char_traits@D@std@@@std@@8 ; std::basic_streambuf<char,std::char_traits<char> >::`RTTI Class Hierarchy Descriptor'
PUBLIC	??_R2?$basic_streambuf@DU?$char_traits@D@std@@@std@@8 ; std::basic_streambuf<char,std::char_traits<char> >::`RTTI Base Class Array'
PUBLIC	??_R4?$basic_ifstream@DU?$char_traits@D@std@@@std@@6B@ ; std::basic_ifstream<char,std::char_traits<char> >::`RTTI Complete Object Locator'
PUBLIC	??_R0?AV?$basic_ifstream@DU?$char_traits@D@std@@@std@@@8 ; std::basic_ifstream<char,std::char_traits<char> > `RTTI Type Descriptor'
PUBLIC	??_R3?$basic_ifstream@DU?$char_traits@D@std@@@std@@8 ; std::basic_ifstream<char,std::char_traits<char> >::`RTTI Class Hierarchy Descriptor'
PUBLIC	??_R2?$basic_ifstream@DU?$char_traits@D@std@@@std@@8 ; std::basic_ifstream<char,std::char_traits<char> >::`RTTI Base Class Array'
PUBLIC	??_R1A@?0A@EA@?$basic_ifstream@DU?$char_traits@D@std@@@std@@8 ; std::basic_ifstream<char,std::char_traits<char> >::`RTTI Base Class Descriptor at (0,-1,0,64)'
PUBLIC	??_R1A@?0A@EA@?$basic_istream@DU?$char_traits@D@std@@@std@@8 ; std::basic_istream<char,std::char_traits<char> >::`RTTI Base Class Descriptor at (0,-1,0,64)'
PUBLIC	??_R0?AV?$basic_istream@DU?$char_traits@D@std@@@std@@@8 ; std::basic_istream<char,std::char_traits<char> > `RTTI Type Descriptor'
PUBLIC	??_R3?$basic_istream@DU?$char_traits@D@std@@@std@@8 ; std::basic_istream<char,std::char_traits<char> >::`RTTI Class Hierarchy Descriptor'
PUBLIC	??_R2?$basic_istream@DU?$char_traits@D@std@@@std@@8 ; std::basic_istream<char,std::char_traits<char> >::`RTTI Base Class Array'
PUBLIC	??_R1A@A@3FA@?$basic_ios@DU?$char_traits@D@std@@@std@@8 ; std::basic_ios<char,std::char_traits<char> >::`RTTI Base Class Descriptor at (0,0,4,80)'
PUBLIC	??_R0?AV?$basic_ios@DU?$char_traits@D@std@@@std@@@8 ; std::basic_ios<char,std::char_traits<char> > `RTTI Type Descriptor'
PUBLIC	??_R3?$basic_ios@DU?$char_traits@D@std@@@std@@8	; std::basic_ios<char,std::char_traits<char> >::`RTTI Class Hierarchy Descriptor'
PUBLIC	??_R2?$basic_ios@DU?$char_traits@D@std@@@std@@8	; std::basic_ios<char,std::char_traits<char> >::`RTTI Base Class Array'
PUBLIC	??_R1A@?0A@EA@?$basic_ios@DU?$char_traits@D@std@@@std@@8 ; std::basic_ios<char,std::char_traits<char> >::`RTTI Base Class Descriptor at (0,-1,0,64)'
PUBLIC	??_R1A@?0A@EA@ios_base@std@@8			; std::ios_base::`RTTI Base Class Descriptor at (0,-1,0,64)'
PUBLIC	??_R0?AVios_base@std@@@8			; std::ios_base `RTTI Type Descriptor'
PUBLIC	??_R3ios_base@std@@8				; std::ios_base::`RTTI Class Hierarchy Descriptor'
PUBLIC	??_R2ios_base@std@@8				; std::ios_base::`RTTI Base Class Array'
PUBLIC	??_R17?0A@EA@?$_Iosb@H@std@@8			; std::_Iosb<int>::`RTTI Base Class Descriptor at (8,-1,0,64)'
PUBLIC	??_R0?AV?$_Iosb@H@std@@@8			; std::_Iosb<int> `RTTI Type Descriptor'
PUBLIC	??_R3?$_Iosb@H@std@@8				; std::_Iosb<int>::`RTTI Class Hierarchy Descriptor'
PUBLIC	??_R2?$_Iosb@H@std@@8				; std::_Iosb<int>::`RTTI Base Class Array'
PUBLIC	??_R1A@?0A@EA@?$_Iosb@H@std@@8			; std::_Iosb<int>::`RTTI Base Class Descriptor at (0,-1,0,64)'
PUBLIC	??_R1A@A@3EA@ios_base@std@@8			; std::ios_base::`RTTI Base Class Descriptor at (0,0,4,64)'
PUBLIC	??_R17A@3EA@?$_Iosb@H@std@@8			; std::_Iosb<int>::`RTTI Base Class Descriptor at (8,0,4,64)'
PUBLIC	??_R4?$basic_ofstream@DU?$char_traits@D@std@@@std@@6B@ ; std::basic_ofstream<char,std::char_traits<char> >::`RTTI Complete Object Locator'
PUBLIC	??_R0?AV?$basic_ofstream@DU?$char_traits@D@std@@@std@@@8 ; std::basic_ofstream<char,std::char_traits<char> > `RTTI Type Descriptor'
PUBLIC	??_R3?$basic_ofstream@DU?$char_traits@D@std@@@std@@8 ; std::basic_ofstream<char,std::char_traits<char> >::`RTTI Class Hierarchy Descriptor'
PUBLIC	??_R2?$basic_ofstream@DU?$char_traits@D@std@@@std@@8 ; std::basic_ofstream<char,std::char_traits<char> >::`RTTI Base Class Array'
PUBLIC	??_R1A@?0A@EA@?$basic_ofstream@DU?$char_traits@D@std@@@std@@8 ; std::basic_ofstream<char,std::char_traits<char> >::`RTTI Base Class Descriptor at (0,-1,0,64)'
PUBLIC	??_R1A@?0A@EA@?$basic_ostream@DU?$char_traits@D@std@@@std@@8 ; std::basic_ostream<char,std::char_traits<char> >::`RTTI Base Class Descriptor at (0,-1,0,64)'
PUBLIC	??_R0?AV?$basic_ostream@DU?$char_traits@D@std@@@std@@@8 ; std::basic_ostream<char,std::char_traits<char> > `RTTI Type Descriptor'
PUBLIC	??_R3?$basic_ostream@DU?$char_traits@D@std@@@std@@8 ; std::basic_ostream<char,std::char_traits<char> >::`RTTI Class Hierarchy Descriptor'
PUBLIC	??_R2?$basic_ostream@DU?$char_traits@D@std@@@std@@8 ; std::basic_ostream<char,std::char_traits<char> >::`RTTI Base Class Array'
PUBLIC	??_R4bad_cast@std@@6B@				; std::bad_cast::`RTTI Complete Object Locator'
PUBLIC	??_R3bad_cast@std@@8				; std::bad_cast::`RTTI Class Hierarchy Descriptor'
PUBLIC	??_R2bad_cast@std@@8				; std::bad_cast::`RTTI Base Class Array'
PUBLIC	??_R1A@?0A@EA@bad_cast@std@@8			; std::bad_cast::`RTTI Base Class Descriptor at (0,-1,0,64)'
PUBLIC	??_R4_Ref_count_base@std@@6B@			; std::_Ref_count_base::`RTTI Complete Object Locator'
PUBLIC	??_R0?AV_Ref_count_base@std@@@8			; std::_Ref_count_base `RTTI Type Descriptor'
PUBLIC	??_R3_Ref_count_base@std@@8			; std::_Ref_count_base::`RTTI Class Hierarchy Descriptor'
PUBLIC	??_R2_Ref_count_base@std@@8			; std::_Ref_count_base::`RTTI Base Class Array'
PUBLIC	??_R1A@?0A@EA@_Ref_count_base@std@@8		; std::_Ref_count_base::`RTTI Base Class Descriptor at (0,-1,0,64)'
PUBLIC	??_R4_Pad@std@@6B@				; std::_Pad::`RTTI Complete Object Locator'
PUBLIC	??_R0?AV_Pad@std@@@8				; std::_Pad `RTTI Type Descriptor'
PUBLIC	??_R3_Pad@std@@8				; std::_Pad::`RTTI Class Hierarchy Descriptor'
PUBLIC	??_R2_Pad@std@@8				; std::_Pad::`RTTI Base Class Array'
PUBLIC	??_R1A@?0A@EA@_Pad@std@@8			; std::_Pad::`RTTI Base Class Descriptor at (0,-1,0,64)'
PUBLIC	??_R13?0A@EN@noncopyable@noncopyable_@boost@@8	; boost::noncopyable_::noncopyable::`RTTI Base Class Descriptor at (4,-1,0,77)'
PUBLIC	??_R0?AVnoncopyable@noncopyable_@boost@@@8	; boost::noncopyable_::noncopyable `RTTI Type Descriptor'
PUBLIC	??_R3noncopyable@noncopyable_@boost@@8		; boost::noncopyable_::noncopyable::`RTTI Class Hierarchy Descriptor'
PUBLIC	??_R2noncopyable@noncopyable_@boost@@8		; boost::noncopyable_::noncopyable::`RTTI Base Class Array'
PUBLIC	??_R1A@?0A@EA@noncopyable@noncopyable_@boost@@8	; boost::noncopyable_::noncopyable::`RTTI Base Class Descriptor at (0,-1,0,64)'
PUBLIC	??_R4text_iarchive@archive@boost@@6B@		; boost::archive::text_iarchive::`RTTI Complete Object Locator'
PUBLIC	??_R3text_iarchive@archive@boost@@8		; boost::archive::text_iarchive::`RTTI Class Hierarchy Descriptor'
PUBLIC	??_R2text_iarchive@archive@boost@@8		; boost::archive::text_iarchive::`RTTI Base Class Array'
PUBLIC	??_R1A@?0A@EA@text_iarchive@archive@boost@@8	; boost::archive::text_iarchive::`RTTI Base Class Descriptor at (0,-1,0,64)'
PUBLIC	??_R1A@?0A@EA@?$text_iarchive_impl@Vtext_iarchive@archive@boost@@@archive@boost@@8 ; boost::archive::text_iarchive_impl<boost::archive::text_iarchive>::`RTTI Base Class Descriptor at (0,-1,0,64)'
PUBLIC	??_R0?AV?$text_iarchive_impl@Vtext_iarchive@archive@boost@@@archive@boost@@@8 ; boost::archive::text_iarchive_impl<boost::archive::text_iarchive> `RTTI Type Descriptor'
PUBLIC	??_R3?$text_iarchive_impl@Vtext_iarchive@archive@boost@@@archive@boost@@8 ; boost::archive::text_iarchive_impl<boost::archive::text_iarchive>::`RTTI Class Hierarchy Descriptor'
PUBLIC	??_R2?$text_iarchive_impl@Vtext_iarchive@archive@boost@@@archive@boost@@8 ; boost::archive::text_iarchive_impl<boost::archive::text_iarchive>::`RTTI Base Class Array'
PUBLIC	??_R1BI@?0A@EA@?$basic_text_iprimitive@V?$basic_istream@DU?$char_traits@D@std@@@std@@@archive@boost@@8 ; boost::archive::basic_text_iprimitive<std::basic_istream<char,std::char_traits<char> > >::`RTTI Base Class Descriptor at (24,-1,0,64)'
PUBLIC	??_R0?AV?$basic_text_iprimitive@V?$basic_istream@DU?$char_traits@D@std@@@std@@@archive@boost@@@8 ; boost::archive::basic_text_iprimitive<std::basic_istream<char,std::char_traits<char> > > `RTTI Type Descriptor'
PUBLIC	??_R3?$basic_text_iprimitive@V?$basic_istream@DU?$char_traits@D@std@@@std@@@archive@boost@@8 ; boost::archive::basic_text_iprimitive<std::basic_istream<char,std::char_traits<char> > >::`RTTI Class Hierarchy Descriptor'
PUBLIC	??_R2?$basic_text_iprimitive@V?$basic_istream@DU?$char_traits@D@std@@@std@@@archive@boost@@8 ; boost::archive::basic_text_iprimitive<std::basic_istream<char,std::char_traits<char> > >::`RTTI Base Class Array'
PUBLIC	??_R1A@?0A@EA@?$basic_text_iprimitive@V?$basic_istream@DU?$char_traits@D@std@@@std@@@archive@boost@@8 ; boost::archive::basic_text_iprimitive<std::basic_istream<char,std::char_traits<char> > >::`RTTI Base Class Descriptor at (0,-1,0,64)'
PUBLIC	??_R1A@?0A@EA@?$basic_text_iarchive@Vtext_iarchive@archive@boost@@@archive@boost@@8 ; boost::archive::basic_text_iarchive<boost::archive::text_iarchive>::`RTTI Base Class Descriptor at (0,-1,0,64)'
PUBLIC	??_R0?AV?$basic_text_iarchive@Vtext_iarchive@archive@boost@@@archive@boost@@@8 ; boost::archive::basic_text_iarchive<boost::archive::text_iarchive> `RTTI Type Descriptor'
PUBLIC	??_R3?$basic_text_iarchive@Vtext_iarchive@archive@boost@@@archive@boost@@8 ; boost::archive::basic_text_iarchive<boost::archive::text_iarchive>::`RTTI Class Hierarchy Descriptor'
PUBLIC	??_R2?$basic_text_iarchive@Vtext_iarchive@archive@boost@@@archive@boost@@8 ; boost::archive::basic_text_iarchive<boost::archive::text_iarchive>::`RTTI Base Class Array'
PUBLIC	??_R1A@?0A@EA@?$common_iarchive@Vtext_iarchive@archive@boost@@@detail@archive@boost@@8 ; boost::archive::detail::common_iarchive<boost::archive::text_iarchive>::`RTTI Base Class Descriptor at (0,-1,0,64)'
PUBLIC	??_R0?AV?$common_iarchive@Vtext_iarchive@archive@boost@@@detail@archive@boost@@@8 ; boost::archive::detail::common_iarchive<boost::archive::text_iarchive> `RTTI Type Descriptor'
PUBLIC	??_R3?$common_iarchive@Vtext_iarchive@archive@boost@@@detail@archive@boost@@8 ; boost::archive::detail::common_iarchive<boost::archive::text_iarchive>::`RTTI Class Hierarchy Descriptor'
PUBLIC	??_R2?$common_iarchive@Vtext_iarchive@archive@boost@@@detail@archive@boost@@8 ; boost::archive::detail::common_iarchive<boost::archive::text_iarchive>::`RTTI Base Class Array'
PUBLIC	??_R1A@?0A@EA@basic_iarchive@detail@archive@boost@@8 ; boost::archive::detail::basic_iarchive::`RTTI Base Class Descriptor at (0,-1,0,64)'
PUBLIC	??_R3basic_iarchive@detail@archive@boost@@8	; boost::archive::detail::basic_iarchive::`RTTI Class Hierarchy Descriptor'
PUBLIC	??_R2basic_iarchive@detail@archive@boost@@8	; boost::archive::detail::basic_iarchive::`RTTI Base Class Array'
PUBLIC	??_R13?0A@EA@helper_collection@detail@archive@boost@@8 ; boost::archive::detail::helper_collection::`RTTI Base Class Descriptor at (4,-1,0,64)'
PUBLIC	??_R0?AVhelper_collection@detail@archive@boost@@@8 ; boost::archive::detail::helper_collection `RTTI Type Descriptor'
PUBLIC	??_R3helper_collection@detail@archive@boost@@8	; boost::archive::detail::helper_collection::`RTTI Class Hierarchy Descriptor'
PUBLIC	??_R2helper_collection@detail@archive@boost@@8	; boost::archive::detail::helper_collection::`RTTI Base Class Array'
PUBLIC	??_R1A@?0A@EA@helper_collection@detail@archive@boost@@8 ; boost::archive::detail::helper_collection::`RTTI Base Class Descriptor at (0,-1,0,64)'
PUBLIC	??_R1BI@?0A@EA@?$interface_iarchive@Vtext_iarchive@archive@boost@@@detail@archive@boost@@8 ; boost::archive::detail::interface_iarchive<boost::archive::text_iarchive>::`RTTI Base Class Descriptor at (24,-1,0,64)'
PUBLIC	??_R0?AV?$interface_iarchive@Vtext_iarchive@archive@boost@@@detail@archive@boost@@@8 ; boost::archive::detail::interface_iarchive<boost::archive::text_iarchive> `RTTI Type Descriptor'
PUBLIC	??_R3?$interface_iarchive@Vtext_iarchive@archive@boost@@@detail@archive@boost@@8 ; boost::archive::detail::interface_iarchive<boost::archive::text_iarchive>::`RTTI Class Hierarchy Descriptor'
PUBLIC	??_R2?$interface_iarchive@Vtext_iarchive@archive@boost@@@detail@archive@boost@@8 ; boost::archive::detail::interface_iarchive<boost::archive::text_iarchive>::`RTTI Base Class Array'
PUBLIC	??_R1A@?0A@EA@?$interface_iarchive@Vtext_iarchive@archive@boost@@@detail@archive@boost@@8 ; boost::archive::detail::interface_iarchive<boost::archive::text_iarchive>::`RTTI Base Class Descriptor at (0,-1,0,64)'
PUBLIC	??_R4?$text_iarchive_impl@Vtext_iarchive@archive@boost@@@archive@boost@@6B@ ; boost::archive::text_iarchive_impl<boost::archive::text_iarchive>::`RTTI Complete Object Locator'
PUBLIC	??_R4?$basic_text_iarchive@Vtext_iarchive@archive@boost@@@archive@boost@@6B@ ; boost::archive::basic_text_iarchive<boost::archive::text_iarchive>::`RTTI Complete Object Locator'
PUBLIC	??_R4text_oarchive@archive@boost@@6B@		; boost::archive::text_oarchive::`RTTI Complete Object Locator'
PUBLIC	??_R3text_oarchive@archive@boost@@8		; boost::archive::text_oarchive::`RTTI Class Hierarchy Descriptor'
PUBLIC	??_R2text_oarchive@archive@boost@@8		; boost::archive::text_oarchive::`RTTI Base Class Array'
PUBLIC	??_R1A@?0A@EA@text_oarchive@archive@boost@@8	; boost::archive::text_oarchive::`RTTI Base Class Descriptor at (0,-1,0,64)'
PUBLIC	??_R1A@?0A@EA@?$text_oarchive_impl@Vtext_oarchive@archive@boost@@@archive@boost@@8 ; boost::archive::text_oarchive_impl<boost::archive::text_oarchive>::`RTTI Base Class Descriptor at (0,-1,0,64)'
PUBLIC	??_R0?AV?$text_oarchive_impl@Vtext_oarchive@archive@boost@@@archive@boost@@@8 ; boost::archive::text_oarchive_impl<boost::archive::text_oarchive> `RTTI Type Descriptor'
PUBLIC	??_R3?$text_oarchive_impl@Vtext_oarchive@archive@boost@@@archive@boost@@8 ; boost::archive::text_oarchive_impl<boost::archive::text_oarchive>::`RTTI Class Hierarchy Descriptor'
PUBLIC	??_R2?$text_oarchive_impl@Vtext_oarchive@archive@boost@@@archive@boost@@8 ; boost::archive::text_oarchive_impl<boost::archive::text_oarchive>::`RTTI Base Class Array'
PUBLIC	??_R1CA@?0A@EA@?$basic_text_oprimitive@V?$basic_ostream@DU?$char_traits@D@std@@@std@@@archive@boost@@8 ; boost::archive::basic_text_oprimitive<std::basic_ostream<char,std::char_traits<char> > >::`RTTI Base Class Descriptor at (32,-1,0,64)'
PUBLIC	??_R0?AV?$basic_text_oprimitive@V?$basic_ostream@DU?$char_traits@D@std@@@std@@@archive@boost@@@8 ; boost::archive::basic_text_oprimitive<std::basic_ostream<char,std::char_traits<char> > > `RTTI Type Descriptor'
PUBLIC	??_R3?$basic_text_oprimitive@V?$basic_ostream@DU?$char_traits@D@std@@@std@@@archive@boost@@8 ; boost::archive::basic_text_oprimitive<std::basic_ostream<char,std::char_traits<char> > >::`RTTI Class Hierarchy Descriptor'
PUBLIC	??_R2?$basic_text_oprimitive@V?$basic_ostream@DU?$char_traits@D@std@@@std@@@archive@boost@@8 ; boost::archive::basic_text_oprimitive<std::basic_ostream<char,std::char_traits<char> > >::`RTTI Base Class Array'
PUBLIC	??_R1A@?0A@EA@?$basic_text_oprimitive@V?$basic_ostream@DU?$char_traits@D@std@@@std@@@archive@boost@@8 ; boost::archive::basic_text_oprimitive<std::basic_ostream<char,std::char_traits<char> > >::`RTTI Base Class Descriptor at (0,-1,0,64)'
PUBLIC	??_R1A@?0A@EA@?$basic_text_oarchive@Vtext_oarchive@archive@boost@@@archive@boost@@8 ; boost::archive::basic_text_oarchive<boost::archive::text_oarchive>::`RTTI Base Class Descriptor at (0,-1,0,64)'
PUBLIC	??_R0?AV?$basic_text_oarchive@Vtext_oarchive@archive@boost@@@archive@boost@@@8 ; boost::archive::basic_text_oarchive<boost::archive::text_oarchive> `RTTI Type Descriptor'
PUBLIC	??_R3?$basic_text_oarchive@Vtext_oarchive@archive@boost@@@archive@boost@@8 ; boost::archive::basic_text_oarchive<boost::archive::text_oarchive>::`RTTI Class Hierarchy Descriptor'
PUBLIC	??_R2?$basic_text_oarchive@Vtext_oarchive@archive@boost@@@archive@boost@@8 ; boost::archive::basic_text_oarchive<boost::archive::text_oarchive>::`RTTI Base Class Array'
PUBLIC	??_R1A@?0A@EA@?$common_oarchive@Vtext_oarchive@archive@boost@@@detail@archive@boost@@8 ; boost::archive::detail::common_oarchive<boost::archive::text_oarchive>::`RTTI Base Class Descriptor at (0,-1,0,64)'
PUBLIC	??_R0?AV?$common_oarchive@Vtext_oarchive@archive@boost@@@detail@archive@boost@@@8 ; boost::archive::detail::common_oarchive<boost::archive::text_oarchive> `RTTI Type Descriptor'
PUBLIC	??_R3?$common_oarchive@Vtext_oarchive@archive@boost@@@detail@archive@boost@@8 ; boost::archive::detail::common_oarchive<boost::archive::text_oarchive>::`RTTI Class Hierarchy Descriptor'
PUBLIC	??_R2?$common_oarchive@Vtext_oarchive@archive@boost@@@detail@archive@boost@@8 ; boost::archive::detail::common_oarchive<boost::archive::text_oarchive>::`RTTI Base Class Array'
PUBLIC	??_R1A@?0A@EA@basic_oarchive@detail@archive@boost@@8 ; boost::archive::detail::basic_oarchive::`RTTI Base Class Descriptor at (0,-1,0,64)'
PUBLIC	??_R3basic_oarchive@detail@archive@boost@@8	; boost::archive::detail::basic_oarchive::`RTTI Class Hierarchy Descriptor'
PUBLIC	??_R2basic_oarchive@detail@archive@boost@@8	; boost::archive::detail::basic_oarchive::`RTTI Base Class Array'
PUBLIC	??_R1BI@?0A@EA@?$interface_oarchive@Vtext_oarchive@archive@boost@@@detail@archive@boost@@8 ; boost::archive::detail::interface_oarchive<boost::archive::text_oarchive>::`RTTI Base Class Descriptor at (24,-1,0,64)'
PUBLIC	??_R0?AV?$interface_oarchive@Vtext_oarchive@archive@boost@@@detail@archive@boost@@@8 ; boost::archive::detail::interface_oarchive<boost::archive::text_oarchive> `RTTI Type Descriptor'
PUBLIC	??_R3?$interface_oarchive@Vtext_oarchive@archive@boost@@@detail@archive@boost@@8 ; boost::archive::detail::interface_oarchive<boost::archive::text_oarchive>::`RTTI Class Hierarchy Descriptor'
PUBLIC	??_R2?$interface_oarchive@Vtext_oarchive@archive@boost@@@detail@archive@boost@@8 ; boost::archive::detail::interface_oarchive<boost::archive::text_oarchive>::`RTTI Base Class Array'
PUBLIC	??_R1A@?0A@EA@?$interface_oarchive@Vtext_oarchive@archive@boost@@@detail@archive@boost@@8 ; boost::archive::detail::interface_oarchive<boost::archive::text_oarchive>::`RTTI Base Class Descriptor at (0,-1,0,64)'
PUBLIC	??_R4?$text_oarchive_impl@Vtext_oarchive@archive@boost@@@archive@boost@@6B@ ; boost::archive::text_oarchive_impl<boost::archive::text_oarchive>::`RTTI Complete Object Locator'
PUBLIC	??_R4?$basic_text_oarchive@Vtext_oarchive@archive@boost@@@archive@boost@@6B@ ; boost::archive::basic_text_oarchive<boost::archive::text_oarchive>::`RTTI Complete Object Locator'
PUBLIC	??_R4?$_Ref_count_obj@VCCompany@@@std@@6B@	; std::_Ref_count_obj<CCompany>::`RTTI Complete Object Locator'
PUBLIC	??_R0?AV?$_Ref_count_obj@VCCompany@@@std@@@8	; std::_Ref_count_obj<CCompany> `RTTI Type Descriptor'
PUBLIC	??_R3?$_Ref_count_obj@VCCompany@@@std@@8	; std::_Ref_count_obj<CCompany>::`RTTI Class Hierarchy Descriptor'
PUBLIC	??_R2?$_Ref_count_obj@VCCompany@@@std@@8	; std::_Ref_count_obj<CCompany>::`RTTI Base Class Array'
PUBLIC	??_R1A@?0A@EA@?$_Ref_count_obj@VCCompany@@@std@@8 ; std::_Ref_count_obj<CCompany>::`RTTI Base Class Descriptor at (0,-1,0,64)'
PUBLIC	??_R4?$_Ref_count_obj@VCPerson@@@std@@6B@	; std::_Ref_count_obj<CPerson>::`RTTI Complete Object Locator'
PUBLIC	??_R0?AV?$_Ref_count_obj@VCPerson@@@std@@@8	; std::_Ref_count_obj<CPerson> `RTTI Type Descriptor'
PUBLIC	??_R3?$_Ref_count_obj@VCPerson@@@std@@8		; std::_Ref_count_obj<CPerson>::`RTTI Class Hierarchy Descriptor'
PUBLIC	??_R2?$_Ref_count_obj@VCPerson@@@std@@8		; std::_Ref_count_obj<CPerson>::`RTTI Base Class Array'
PUBLIC	??_R1A@?0A@EA@?$_Ref_count_obj@VCPerson@@@std@@8 ; std::_Ref_count_obj<CPerson>::`RTTI Base Class Descriptor at (0,-1,0,64)'
PUBLIC	??_R4?$_LaunchPad@V?$unique_ptr@V?$tuple@P6AXPAV?$vector@V?$shared_ptr@VCContact@@@std@@V?$allocator@V?$shared_ptr@VCContact@@@std@@@2@@std@@AAV?$basic_string@DU?$char_traits@D@std@@V?$allocator@D@2@@2@@ZPAV12@V32@@std@@U?$default_delete@V?$tuple@P6AXPAV?$vector@V?$shared_ptr@VCContact@@@std@@V?$allocator@V?$shared_ptr@VCContact@@@std@@@2@@std@@AAV?$basic_string@DU?$char_traits@D@std@@V?$allocator@D@2@@2@@ZPAV12@V32@@std@@@2@@std@@@std@@6B@ ; std::_LaunchPad<std::unique_ptr<std::tuple<void (__cdecl*)(std::vector<std::shared_ptr<CContact>,std::allocator<std::shared_ptr<CContact> > > *,std::basic_string<char,std::char_traits<char>,std::allocator<char> > &),std::vector<std::shared_ptr<CContact>,std::allocator<std::shared_ptr<CContact> > > *,std::basic_string<char,std::char_traits<char>,std::allocator<char> > >,std::default_delete<std::tuple<void (__cdecl*)(std::vector<std::shared_ptr<CContact>,std::allocator<std::shared_ptr<CContact> > > *,std::basic_string<char,std::char_traits<char>,std::allocator<char> > &),std::vector<std::shared_ptr<CContact>,std::allocator<std::shared_ptr<CContact> > > *,std::basic_string<char,std::char_traits<char>,std::allocator<char> > > > > >::`RTTI Complete Object Locator'
PUBLIC	??_R0?AV?$_LaunchPad@V?$unique_ptr@V?$tuple@P6AXPAV?$vector@V?$shared_ptr@VCContact@@@std@@V?$allocator@V?$shared_ptr@VCContact@@@std@@@2@@std@@AAV?$basic_string@DU?$char_traits@D@std@@V?$allocator@D@2@@2@@ZPAV12@V32@@std@@U?$default_delete@V?$tuple@P6AXPAV?$vector@V?$shared_ptr@VCContact@@@std@@V?$allocator@V?$shared_ptr@VCContact@@@std@@@2@@std@@AAV?$basic_string@DU?$char_traits@D@std@@V?$allocator@D@2@@2@@ZPAV12@V32@@std@@@2@@std@@@std@@@8 ; std::_LaunchPad<std::unique_ptr<std::tuple<void (__cdecl*)(std::vector<std::shared_ptr<CContact>,std::allocator<std::shared_ptr<CContact> > > *,std::basic_string<char,std::char_traits<char>,std::allocator<char> > &),std::vector<std::shared_ptr<CContact>,std::allocator<std::shared_ptr<CContact> > > *,std::basic_string<char,std::char_traits<char>,std::allocator<char> > >,std::default_delete<std::tuple<void (__cdecl*)(std::vector<std::shared_ptr<CContact>,std::allocator<std::shared_ptr<CContact> > > *,std::basic_string<char,std::char_traits<char>,std::allocator<char> > &),std::vector<std::shared_ptr<CContact>,std::allocator<std::shared_ptr<CContact> > > *,std::basic_string<char,std::char_traits<char>,std::allocator<char> > > > > > `RTTI Type Descriptor'
PUBLIC	??_R3?$_LaunchPad@V?$unique_ptr@V?$tuple@P6AXPAV?$vector@V?$shared_ptr@VCContact@@@std@@V?$allocator@V?$shared_ptr@VCContact@@@std@@@2@@std@@AAV?$basic_string@DU?$char_traits@D@std@@V?$allocator@D@2@@2@@ZPAV12@V32@@std@@U?$default_delete@V?$tuple@P6AXPAV?$vector@V?$shared_ptr@VCContact@@@std@@V?$allocator@V?$shared_ptr@VCContact@@@std@@@2@@std@@AAV?$basic_string@DU?$char_traits@D@std@@V?$allocator@D@2@@2@@ZPAV12@V32@@std@@@2@@std@@@std@@8 ; std::_LaunchPad<std::unique_ptr<std::tuple<void (__cdecl*)(std::vector<std::shared_ptr<CContact>,std::allocator<std::shared_ptr<CContact> > > *,std::basic_string<char,std::char_traits<char>,std::allocator<char> > &),std::vector<std::shared_ptr<CContact>,std::allocator<std::shared_ptr<CContact> > > *,std::basic_string<char,std::char_traits<char>,std::allocator<char> > >,std::default_delete<std::tuple<void (__cdecl*)(std::vector<std::shared_ptr<CContact>,std::allocator<std::shared_ptr<CContact> > > *,std::basic_string<char,std::char_traits<char>,std::allocator<char> > &),std::vector<std::shared_ptr<CContact>,std::allocator<std::shared_ptr<CContact> > > *,std::basic_string<char,std::char_traits<char>,std::allocator<char> > > > > >::`RTTI Class Hierarchy Descriptor'
